PUBLIC	??_GDPCM@@UAEPAXI@Z				; DPCM::`scalar deleting destructor'
PUBLIC	??_DDPCM@@QAEXXZ				; DPCM::`vbase destructor'
PUBLIC	?resize@?$basic_string@DU?$char_traits@D@std@@V?$allocator@D@2@@std@@QAEXI@Z ; std::basic_string<char,std::char_traits<char>,std::allocator<char> >::resize
PUBLIC	??0?$basic_ios@DU?$char_traits@D@std@@@std@@IAE@XZ ; std::basic_ios<char,std::char_traits<char> >::basic_ios<char,std::char_traits<char> >
PUBLIC	?close@?$basic_ifstream@DU?$char_traits@D@std@@@std@@QAEXXZ ; std::basic_ifstream<char,std::char_traits<char> >::close
PUBLIC	?resize@?$basic_string@DU?$char_traits@D@std@@V?$allocator@D@2@@std@@QAEXID@Z ; std::basic_string<char,std::char_traits<char>,std::allocator<char> >::resize
PUBLIC	?close@?$basic_filebuf@DU?$char_traits@D@std@@@std@@QAEPAV12@XZ ; std::basic_filebuf<char,std::char_traits<char> >::close
PUBLIC	?_Endwrite@?$basic_filebuf@DU?$char_traits@D@std@@@std@@IAE_NXZ ; std::basic_filebuf<char,std::char_traits<char> >::_Endwrite
PUBLIC	??0?$basic_string@DU?$char_traits@D@std@@V?$allocator@D@2@@std@@QAE@ID@Z ; std::basic_string<char,std::char_traits<char>,std::allocator<char> >::basic_string<char,std::char_traits<char>,std::allocator<char> >
PUBLIC	?assign@?$basic_string@DU?$char_traits@D@std@@V?$allocator@D@2@@std@@QAEAAV12@ID@Z ; std::basic_string<char,std::char_traits<char>,std::allocator<char> >::assign
PUBLIC	?unshift@?$codecvt@DDH@std@@QBEHAAHPAD1AAPAD@Z	; std::codecvt<char,char,int>::unshift
PUBLIC	??Diterator@?$basic_string@DU?$char_traits@D@std@@V?$allocator@D@2@@std@@QBEAADXZ ; std::basic_string<char,std::char_traits<char>,std::allocator<char> >::iterator::operator*
PUBLIC	??Dconst_iterator@?$basic_string@DU?$char_traits@D@std@@V?$allocator@D@2@@std@@QBEABDXZ ; std::basic_string<char,std::char_traits<char>,std::allocator<char> >::const_iterator::operator*
PUBLIC	?_Init@?$basic_filebuf@DU?$char_traits@D@std@@@std@@IAEXPAU_iobuf@@W4_Initfl@12@@Z ; std::basic_filebuf<char,std::char_traits<char> >::_Init
PUBLIC	?_Init@?$basic_streambuf@DU?$char_traits@D@std@@@std@@IAEXXZ ; std::basic_streambuf<char,std::char_traits<char> >::_Init
PUBLIC	?setp@?$basic_streambuf@DU?$char_traits@D@std@@@std@@IAEXPAD0@Z ; std::basic_streambuf<char,std::char_traits<char> >::setp
PUBLIC	?setg@?$basic_streambuf@DU?$char_traits@D@std@@@std@@IAEXPAD00@Z ; std::basic_streambuf<char,std::char_traits<char> >::setg
PUBLIC	?_Init@?$basic_streambuf@DU?$char_traits@D@std@@@std@@IAEXPAPAD0PAH001@Z ; std::basic_streambuf<char,std::char_traits<char> >::_Init
PUBLIC	??_G?$basic_ios@DU?$char_traits@D@std@@@std@@UAEPAXI@Z ; std::basic_ios<char,std::char_traits<char> >::`scalar deleting destructor'
PUBLIC	??0ios_base@std@@IAE@XZ				; std::ios_base::ios_base
PUBLIC	??_Gios_base@std@@UAEPAXI@Z			; std::ios_base::`scalar deleting destructor'
PUBLIC	??1?$basic_ios@DU?$char_traits@D@std@@@std@@UAE@XZ ; std::basic_ios<char,std::char_traits<char> >::~basic_ios<char,std::char_traits<char> >
EXTRN	??_EDPCM@@UAEPAXI@Z:NEAR			; DPCM::`vector deleting destructor'
EXTRN	_fwrite:NEAR
EXTRN	_fclose:NEAR
EXTRN	??_E?$basic_ios@DU?$char_traits@D@std@@@std@@UAEPAXI@Z:NEAR ; std::basic_ios<char,std::char_traits<char> >::`vector deleting destructor'
EXTRN	??1ios_base@std@@UAE@XZ:NEAR			; std::ios_base::~ios_base
EXTRN	??_Eios_base@std@@UAEPAXI@Z:NEAR		; std::ios_base::`vector deleting destructor'
; Listing generated by Microsoft (R) Optimizing Compiler Version 13.10.3077 

	TITLE	.\DPCM.cpp
	.386P
include listing.inc
if @Version gt 510
.model FLAT
else
;	COMDAT ??_C@_1DA@DJCAHOME@?$CC?$LP?$AAP?$AAC?$AAM0o?$AA4?$AA0?$AA8?$AA1?$AAB?$AAy?$AAt?$AAeN?eN?$AL0k0W0f0O0?$GA@
CONST	SEGMENT DWORD USE32 PUBLIC 'CONST'
CONST	ENDS
;	COMDAT ??_C@_01JLIPDDHJ@?3?$AA@
CONST	SEGMENT DWORD USE32 PUBLIC 'CONST'
CONST	ENDS
;	COMDAT ??_C@_04GIKIPLBI@DPCM?$AA@
CONST	SEGMENT DWORD USE32 PUBLIC 'CONST'
CONST	ENDS
;	COMDAT ??_C@_0M@GMEPIPHF@?4align?7$40?6?$AA@
CONST	SEGMENT DWORD USE32 PUBLIC 'CONST'
CONST	ENDS
text$yc	SEGMENT PARA USE32 PUBLIC 'CODE'
text$yc	ENDS
;	COMDAT ??_GDPCM@@UAEPAXI@Z
_TEXT	SEGMENT PARA USE32 PUBLIC 'CODE'
_TEXT	ENDS
;	COMDAT ??_DDPCM@@QAEXXZ
_TEXT	SEGMENT PARA USE32 PUBLIC 'CODE'
_TEXT	ENDS
;	COMDAT ?resize@?$basic_string@DU?$char_traits@D@std@@V?$allocator@D@2@@std@@QAEXI@Z
_TEXT	SEGMENT PARA USE32 PUBLIC 'CODE'
_TEXT	ENDS
;	COMDAT ??0?$basic_ios@DU?$char_traits@D@std@@@std@@IAE@XZ
_TEXT	SEGMENT PARA USE32 PUBLIC 'CODE'
_TEXT	ENDS
;	COMDAT ?close@?$basic_ifstream@DU?$char_traits@D@std@@@std@@QAEXXZ
_TEXT	SEGMENT PARA USE32 PUBLIC 'CODE'
_TEXT	ENDS
;	COMDAT ?resize@?$basic_string@DU?$char_traits@D@std@@V?$allocator@D@2@@std@@QAEXID@Z
_TEXT	SEGMENT PARA USE32 PUBLIC 'CODE'
_TEXT	ENDS
;	COMDAT _$E1
text$yc	SEGMENT PARA USE32 PUBLIC 'CODE'
text$yc	ENDS
;	COMDAT _$E3
text$yc	SEGMENT PARA USE32 PUBLIC 'CODE'
text$yc	ENDS
;	COMDAT _$E5
text$yc	SEGMENT PARA USE32 PUBLIC 'CODE'
text$yc	ENDS
;	COMDAT ?close@?$basic_filebuf@DU?$char_traits@D@std@@@std@@QAEPAV12@XZ
_TEXT	SEGMENT PARA USE32 PUBLIC 'CODE'
_TEXT	ENDS
;	COMDAT ?_Endwrite@?$basic_filebuf@DU?$char_traits@D@std@@@std@@IAE_NXZ
_TEXT	SEGMENT PARA USE32 PUBLIC 'CODE'
_TEXT	ENDS
;	COMDAT ??0?$basic_string@DU?$char_traits@D@std@@V?$allocator@D@2@@std@@QAE@ID@Z
_TEXT	SEGMENT PARA USE32 PUBLIC 'CODE'
_TEXT	ENDS
;	COMDAT ?assign@?$basic_string@DU?$char_traits@D@std@@V?$allocator@D@2@@std@@QAEAAV12@ID@Z
_TEXT	SEGMENT PARA USE32 PUBLIC 'CODE'
_TEXT	ENDS
;	COMDAT ?unshift@?$codecvt@DDH@std@@QBEHAAHPAD1AAPAD@Z
_TEXT	SEGMENT PARA USE32 PUBLIC 'CODE'
_TEXT	ENDS
;	COMDAT ??Diterator@?$basic_string@DU?$char_traits@D@std@@V?$allocator@D@2@@std@@QBEAADXZ
_TEXT	SEGMENT PARA USE32 PUBLIC 'CODE'
_TEXT	ENDS
;	COMDAT ??Dconst_iterator@?$basic_string@DU?$char_traits@D@std@@V?$allocator@D@2@@std@@QBEABDXZ
_TEXT	SEGMENT PARA USE32 PUBLIC 'CODE'
_TEXT	ENDS
;	COMDAT ?_Init@?$basic_filebuf@DU?$char_traits@D@std@@@std@@IAEXPAU_iobuf@@W4_Initfl@12@@Z
_TEXT	SEGMENT PARA USE32 PUBLIC 'CODE'
_TEXT	ENDS
;	COMDAT ?_Init@?$basic_streambuf@DU?$char_traits@D@std@@@std@@IAEXXZ
_TEXT	SEGMENT PARA USE32 PUBLIC 'CODE'
_TEXT	ENDS
;	COMDAT ?setp@?$basic_streambuf@DU?$char_traits@D@std@@@std@@IAEXPAD0@Z
_TEXT	SEGMENT PARA USE32 PUBLIC 'CODE'
_TEXT	ENDS
;	COMDAT ?setg@?$basic_streambuf@DU?$char_traits@D@std@@@std@@IAEXPAD00@Z
_TEXT	SEGMENT PARA USE32 PUBLIC 'CODE'
_TEXT	ENDS
;	COMDAT ?_Init@?$basic_streambuf@DU?$char_traits@D@std@@@std@@IAEXPAPAD0PAH001@Z
_TEXT	SEGMENT PARA USE32 PUBLIC 'CODE'
_TEXT	ENDS
;	COMDAT ?_Stinit@?1??_Init@?$basic_filebuf@DU?$char_traits@D@std@@@std@@IAEXPAU_iobuf@@W4_Initfl@23@@Z@4HA
_BSS	SEGMENT DWORD USE32 PUBLIC 'BSS'
_BSS	ENDS
;	COMDAT ??_7?$basic_ios@DU?$char_traits@D@std@@@std@@6B@
CONST	SEGMENT DWORD USE32 PUBLIC 'CONST'
CONST	ENDS
;	COMDAT ??_G?$basic_ios@DU?$char_traits@D@std@@@std@@UAEPAXI@Z
_TEXT	SEGMENT PARA USE32 PUBLIC 'CODE'
_TEXT	ENDS
;	COMDAT ??0ios_base@std@@IAE@XZ
_TEXT	SEGMENT PARA USE32 PUBLIC 'CODE'
_TEXT	ENDS
;	COMDAT ??_7ios_base@std@@6B@
CONST	SEGMENT DWORD USE32 PUBLIC 'CONST'
CONST	ENDS
;	COMDAT ??_Gios_base@std@@UAEPAXI@Z
_TEXT	SEGMENT PARA USE32 PUBLIC 'CODE'
_TEXT	ENDS
;	COMDAT ??_7DPCM@@6BFileInput@@@
CONST	SEGMENT DWORD USE32 PUBLIC 'CONST'
CONST	ENDS
;	COMDAT ??_7DPCM@@6BMusicItem@@@
CONST	SEGMENT DWORD USE32 PUBLIC 'CONST'
CONST	ENDS
;	COMDAT ??1?$basic_ios@DU?$char_traits@D@std@@@std@@UAE@XZ
_TEXT	SEGMENT PARA USE32 PUBLIC 'CODE'
_TEXT	ENDS
;	COMDAT ??_8DPCM@@7B@
CONST	SEGMENT DWORD USE32 PUBLIC 'CONST'
CONST	ENDS
FLAT	GROUP _DATA, CONST, _BSS
	ASSUME	CS: FLAT, DS: FLAT, SS: FLAT
endif

INCLUDELIB LIBCMT
INCLUDELIB OLDNAMES

PUBLIC	??_C@_1DA@DJCAHOME@?$CC?$LP?$AAP?$AAC?$AAM0o?$AA4?$AA0?$AA8?$AA1?$AAB?$AAy?$AAt?$AAeN?eN?$AL0k0W0f0O0?$GA@ ; `string'
PUBLIC	??_C@_01JLIPDDHJ@?3?$AA@			; `string'
PUBLIC	??_C@_04GIKIPLBI@DPCM?$AA@			; `string'
PUBLIC	??_C@_0M@GMEPIPHF@?4align?7$40?6?$AA@		; `string'
PUBLIC	?getAsm@DPCM@@UAEXPAVMusicFile@@@Z		; DPCM::getAsm
PUBLIC	??_7?$basic_ios@DU?$char_traits@D@std@@@std@@6B@ ; std::basic_ios<char,std::char_traits<char> >::`vftable'
PUBLIC	??_7ios_base@std@@6B@				; std::ios_base::`vftable'
PUBLIC	??_7DPCM@@6BFileInput@@@			; DPCM::`vftable'
PUBLIC	??_7DPCM@@6BMusicItem@@@			; DPCM::`vftable'
PUBLIC	??_8DPCM@@7B@					; DPCM::`vbtable'
;	COMDAT ??_C@_1DA@DJCAHOME@?$CC?$LP?$AAP?$AAC?$AAM0o?$AA4?$AA0?$AA8?$AA1?$AAB?$AAy?$AAt?$AAeN?eN?$AL0k0W0f0O0?$GA@
CONST	SEGMENT
??_C@_1DA@DJCAHOME@?$CC?$LP?$AAP?$AAC?$AAM0o?$AA4?$AA0?$AA8?$AA1?$AAB?$AAy?$AAt?$AAeN?eN?$AL0k0W0f0O0?$GA@ DB 0bfH
	DB	'"P', 00H, 'C', 00H, 'M', 00H, 'o04', 00H, '0', 00H, '8', 00H, '1'
	DB	00H, 'B', 00H, 'y', 00H, 't', 00H, 'e', 00H, 0e5H, 'N', 0bH, 'N'
	DB	'k0W0f0O0`0U0D0', 02H, '0', 00H, 00H		; `string'
CONST	ENDS
;	COMDAT ??_C@_01JLIPDDHJ@?3?$AA@
CONST	SEGMENT
??_C@_01JLIPDDHJ@?3?$AA@ DB ':', 00H			; `string'
CONST	ENDS
;	COMDAT ??_C@_04GIKIPLBI@DPCM?$AA@
CONST	SEGMENT
??_C@_04GIKIPLBI@DPCM?$AA@ DB 'DPCM', 00H		; `string'
CONST	ENDS
;	COMDAT ??_C@_0M@GMEPIPHF@?4align?7$40?6?$AA@
CONST	SEGMENT
??_C@_0M@GMEPIPHF@?4align?7$40?6?$AA@ DB '.align', 09H, '$40', 0aH, 00H ; `string'
CONST	ENDS
;	COMDAT ??_7DPCM@@6BMusicItem@@@
CONST	SEGMENT
??_7DPCM@@6BMusicItem@@@ DD FLAT:?getCode@MusicItem@@UAEXPAV?$basic_string@DU?$char_traits@D@std@@V?$allocator@D@2@@std@@@Z ; DPCM::`vftable'
	DD	FLAT:?setCode@MusicItem@@UAEXPAV?$basic_string@DU?$char_traits@D@std@@V?$allocator@D@2@@std@@@Z
	DD	FLAT:?getAsm@DPCM@@UAEXPAVMusicFile@@@Z
CONST	ENDS
;	COMDAT ??_7DPCM@@6BFileInput@@@
CONST	SEGMENT
??_7DPCM@@6BFileInput@@@ DD FLAT:??_EDPCM@@UAEPAXI@Z	; DPCM::`vftable'
CONST	ENDS
;	COMDAT ??_8DPCM@@7B@
CONST	SEGMENT
??_8DPCM@@7B@ DD 00H					; DPCM::`vbtable'
	DD	090H
CONST	ENDS
;	COMDAT ??_7?$basic_ios@DU?$char_traits@D@std@@@std@@6B@
CONST	SEGMENT
??_7?$basic_ios@DU?$char_traits@D@std@@@std@@6B@ DD FLAT:??_E?$basic_ios@DU?$char_traits@D@std@@@std@@UAEPAXI@Z ; std::basic_ios<char,std::char_traits<char> >::`vftable'
CONST	ENDS
;	COMDAT ??_7ios_base@std@@6B@
CONST	SEGMENT
??_7ios_base@std@@6B@ DD FLAT:??_Eios_base@std@@UAEPAXI@Z ; std::ios_base::`vftable'
; Function compile flags: /Ogsy
; File c:\program files (x86)\microsoft visual studio .net 2003\vc7\include\ios
;	COMDAT ??1?$basic_ios@DU?$char_traits@D@std@@@std@@UAE@XZ
_TEXT	SEGMENT
??1?$basic_ios@DU?$char_traits@D@std@@@std@@UAE@XZ PROC NEAR ; std::basic_ios<char,std::char_traits<char> >::~basic_ios<char,std::char_traits<char> >, COMDAT
; _this$ = ecx

; 34   : 		{	// destroy the object

  00000	c7 01 00 00 00
	00		 mov	 DWORD PTR [ecx], OFFSET FLAT:??_7?$basic_ios@DU?$char_traits@D@std@@@std@@6B@

; 35   : 		}

  00006	e9 00 00 00 00	 jmp	 ??1ios_base@std@@UAE@XZ	; std::ios_base::~ios_base
??1?$basic_ios@DU?$char_traits@D@std@@@std@@UAE@XZ ENDP	; std::basic_ios<char,std::char_traits<char> >::~basic_ios<char,std::char_traits<char> >
; Function compile flags: /Ogsy
_TEXT	ENDS
;	COMDAT ??_Gios_base@std@@UAEPAXI@Z
_TEXT	SEGMENT
___flags$ = 8						; size = 4
??_Gios_base@std@@UAEPAXI@Z PROC NEAR			; std::ios_base::`scalar deleting destructor', COMDAT
; _this$ = ecx
  00000	56		 push	 esi
  00001	8b f1		 mov	 esi, ecx
  00003	e8 00 00 00 00	 call	 ??1ios_base@std@@UAE@XZ	; std::ios_base::~ios_base
  00008	f6 44 24 08 01	 test	 BYTE PTR ___flags$[esp], 1
  0000d	74 07		 je	 SHORT $L6536
  0000f	56		 push	 esi
  00010	e8 00 00 00 00	 call	 ??3@YAXPAX@Z		; operator delete
  00015	59		 pop	 ecx
$L6536:
  00016	8b c6		 mov	 eax, esi
  00018	5e		 pop	 esi
  00019	c2 04 00	 ret	 4
??_Gios_base@std@@UAEPAXI@Z ENDP			; std::ios_base::`scalar deleting destructor'
; Function compile flags: /Ogsy
; File c:\program files (x86)\microsoft visual studio .net 2003\vc7\include\xiosbase
_TEXT	ENDS
;	COMDAT ??0ios_base@std@@IAE@XZ
_TEXT	SEGMENT
??0ios_base@std@@IAE@XZ PROC NEAR			; std::ios_base::ios_base, COMDAT
; _this$ = ecx

; 421  : 	ios_base()

  00000	8b c1		 mov	 eax, ecx
  00002	c7 00 00 00 00
	00		 mov	 DWORD PTR [eax], OFFSET FLAT:??_7ios_base@std@@6B@

; 422  : 		{	// default constructor
; 423  : 		}

  00008	c3		 ret	 0
??0ios_base@std@@IAE@XZ ENDP				; std::ios_base::ios_base
; Function compile flags: /Ogsy
_TEXT	ENDS
;	COMDAT ??_G?$basic_ios@DU?$char_traits@D@std@@@std@@UAEPAXI@Z
_TEXT	SEGMENT
___flags$ = 8						; size = 4
??_G?$basic_ios@DU?$char_traits@D@std@@@std@@UAEPAXI@Z PROC NEAR ; std::basic_ios<char,std::char_traits<char> >::`scalar deleting destructor', COMDAT
; _this$ = ecx
  00000	56		 push	 esi
  00001	8b f1		 mov	 esi, ecx
  00003	e8 00 00 00 00	 call	 ??1?$basic_ios@DU?$char_traits@D@std@@@std@@UAE@XZ ; std::basic_ios<char,std::char_traits<char> >::~basic_ios<char,std::char_traits<char> >
  00008	f6 44 24 08 01	 test	 BYTE PTR ___flags$[esp], 1
  0000d	74 07		 je	 SHORT $L23430
  0000f	56		 push	 esi
  00010	e8 00 00 00 00	 call	 ??3@YAXPAX@Z		; operator delete
  00015	59		 pop	 ecx
$L23430:
  00016	8b c6		 mov	 eax, esi
  00018	5e		 pop	 esi
  00019	c2 04 00	 ret	 4
??_G?$basic_ios@DU?$char_traits@D@std@@@std@@UAEPAXI@Z ENDP ; std::basic_ios<char,std::char_traits<char> >::`scalar deleting destructor'
; Function compile flags: /Ogsy
; File c:\program files (x86)\microsoft visual studio .net 2003\vc7\include\streambuf
_TEXT	ENDS
;	COMDAT ?_Init@?$basic_streambuf@DU?$char_traits@D@std@@@std@@IAEXPAPAD0PAH001@Z
_TEXT	SEGMENT
__Gf$ = 8						; size = 4
__Gn$ = 12						; size = 4
__Gc$ = 16						; size = 4
__Pf$ = 20						; size = 4
__Pn$ = 24						; size = 4
__Pc$ = 28						; size = 4
?_Init@?$basic_streambuf@DU?$char_traits@D@std@@@std@@IAEXPAPAD0PAH001@Z PROC NEAR ; std::basic_streambuf<char,std::char_traits<char> >::_Init, COMDAT
; _this$ = ecx

; 259  : 		{	// initialize buffer parameters as specified

  00000	55		 push	 ebp
  00001	8b ec		 mov	 ebp, esp

; 260  : 		_IGfirst = _Gf, _IPfirst = _Pf;

  00003	8b 45 08	 mov	 eax, DWORD PTR __Gf$[ebp]
  00006	89 41 10	 mov	 DWORD PTR [ecx+16], eax
  00009	8b 45 14	 mov	 eax, DWORD PTR __Pf$[ebp]
  0000c	89 41 14	 mov	 DWORD PTR [ecx+20], eax

; 261  : 		_IGnext = _Gn, _IPnext = _Pn;

  0000f	8b 45 0c	 mov	 eax, DWORD PTR __Gn$[ebp]
  00012	89 41 20	 mov	 DWORD PTR [ecx+32], eax
  00015	8b 45 18	 mov	 eax, DWORD PTR __Pn$[ebp]
  00018	89 41 24	 mov	 DWORD PTR [ecx+36], eax

; 262  : 		_IGcount = _Gc, _IPcount = _Pc;

  0001b	8b 45 10	 mov	 eax, DWORD PTR __Gc$[ebp]
  0001e	89 41 30	 mov	 DWORD PTR [ecx+48], eax
  00021	8b 45 1c	 mov	 eax, DWORD PTR __Pc$[ebp]
  00024	89 41 34	 mov	 DWORD PTR [ecx+52], eax

; 263  : 		}

  00027	5d		 pop	 ebp
  00028	c2 18 00	 ret	 24			; 00000018H
?_Init@?$basic_streambuf@DU?$char_traits@D@std@@@std@@IAEXPAPAD0PAH001@Z ENDP ; std::basic_streambuf<char,std::char_traits<char> >::_Init
; Function compile flags: /Ogsy
_TEXT	ENDS
;	COMDAT ?setg@?$basic_streambuf@DU?$char_traits@D@std@@@std@@IAEXPAD00@Z
_TEXT	SEGMENT
__First$ = 8						; size = 4
__Next$ = 12						; size = 4
__Last$ = 16						; size = 4
?setg@?$basic_streambuf@DU?$char_traits@D@std@@@std@@IAEXPAD00@Z PROC NEAR ; std::basic_streambuf<char,std::char_traits<char> >::setg, COMDAT
; _this$ = ecx

; 201  : 		*_IGfirst = _First;

  00000	8b 41 10	 mov	 eax, DWORD PTR [ecx+16]
  00003	8b 54 24 04	 mov	 edx, DWORD PTR __First$[esp-4]
  00007	89 10		 mov	 DWORD PTR [eax], edx

; 202  : 		*_IGnext = _Next;

  00009	8b 51 20	 mov	 edx, DWORD PTR [ecx+32]
  0000c	8b 44 24 08	 mov	 eax, DWORD PTR __Next$[esp-4]
  00010	89 02		 mov	 DWORD PTR [edx], eax

; 203  : 		*_IGcount = (int)(_Last - _Next);

  00012	8b 54 24 0c	 mov	 edx, DWORD PTR __Last$[esp-4]
  00016	2b d0		 sub	 edx, eax
  00018	8b 41 30	 mov	 eax, DWORD PTR [ecx+48]
  0001b	89 10		 mov	 DWORD PTR [eax], edx

; 204  : 		}

  0001d	c2 0c 00	 ret	 12			; 0000000cH
?setg@?$basic_streambuf@DU?$char_traits@D@std@@@std@@IAEXPAD00@Z ENDP ; std::basic_streambuf<char,std::char_traits<char> >::setg
; Function compile flags: /Ogsy
_TEXT	ENDS
;	COMDAT ?setp@?$basic_streambuf@DU?$char_traits@D@std@@@std@@IAEXPAD0@Z
_TEXT	SEGMENT
__First$ = 8						; size = 4
__Last$ = 12						; size = 4
?setp@?$basic_streambuf@DU?$char_traits@D@std@@@std@@IAEXPAD0@Z PROC NEAR ; std::basic_streambuf<char,std::char_traits<char> >::setp, COMDAT
; _this$ = ecx

; 231  : 		*_IPfirst = _First;

  00000	8b 51 14	 mov	 edx, DWORD PTR [ecx+20]
  00003	8b 44 24 04	 mov	 eax, DWORD PTR __First$[esp-4]
  00007	89 02		 mov	 DWORD PTR [edx], eax

; 232  : 		*_IPnext = _First;

  00009	8b 51 24	 mov	 edx, DWORD PTR [ecx+36]
  0000c	89 02		 mov	 DWORD PTR [edx], eax

; 233  : 		*_IPcount = (int)(_Last - _First);

  0000e	8b 54 24 08	 mov	 edx, DWORD PTR __Last$[esp-4]
  00012	2b d0		 sub	 edx, eax
  00014	8b 41 34	 mov	 eax, DWORD PTR [ecx+52]
  00017	89 10		 mov	 DWORD PTR [eax], edx

; 234  : 		}

  00019	c2 08 00	 ret	 8
?setp@?$basic_streambuf@DU?$char_traits@D@std@@@std@@IAEXPAD0@Z ENDP ; std::basic_streambuf<char,std::char_traits<char> >::setp
; Function compile flags: /Ogsy
_TEXT	ENDS
;	COMDAT ?_Init@?$basic_streambuf@DU?$char_traits@D@std@@@std@@IAEXXZ
_TEXT	SEGMENT
?_Init@?$basic_streambuf@DU?$char_traits@D@std@@@std@@IAEXXZ PROC NEAR ; std::basic_streambuf<char,std::char_traits<char> >::_Init, COMDAT
; _this$ = ecx

; 251  : 		_IGfirst = &_Gfirst, _IPfirst = &_Pfirst;
; 252  : 		_IGnext = &_Gnext, _IPnext = &_Pnext;

  00000	8d 51 18	 lea	 edx, DWORD PTR [ecx+24]
  00003	89 51 20	 mov	 DWORD PTR [ecx+32], edx
  00006	8d 51 1c	 lea	 edx, DWORD PTR [ecx+28]
  00009	89 51 24	 mov	 DWORD PTR [ecx+36], edx

; 253  : 		_IGcount = &_Gcount, _IPcount = &_Pcount;

  0000c	8d 51 28	 lea	 edx, DWORD PTR [ecx+40]
  0000f	89 51 30	 mov	 DWORD PTR [ecx+48], edx
  00012	8d 41 08	 lea	 eax, DWORD PTR [ecx+8]
  00015	89 41 10	 mov	 DWORD PTR [ecx+16], eax
  00018	8d 51 2c	 lea	 edx, DWORD PTR [ecx+44]
  0001b	89 51 34	 mov	 DWORD PTR [ecx+52], edx

; 254  : 		setp(0, 0), setg(0, 0, 0);

  0001e	33 d2		 xor	 edx, edx
  00020	8d 41 0c	 lea	 eax, DWORD PTR [ecx+12]
  00023	89 41 14	 mov	 DWORD PTR [ecx+20], eax
  00026	89 10		 mov	 DWORD PTR [eax], edx
  00028	8b 41 24	 mov	 eax, DWORD PTR [ecx+36]
  0002b	89 10		 mov	 DWORD PTR [eax], edx
  0002d	8b 41 34	 mov	 eax, DWORD PTR [ecx+52]
  00030	89 10		 mov	 DWORD PTR [eax], edx
  00032	8b 41 10	 mov	 eax, DWORD PTR [ecx+16]
  00035	89 10		 mov	 DWORD PTR [eax], edx
  00037	8b 41 20	 mov	 eax, DWORD PTR [ecx+32]
  0003a	89 10		 mov	 DWORD PTR [eax], edx
  0003c	8b 41 30	 mov	 eax, DWORD PTR [ecx+48]
  0003f	89 10		 mov	 DWORD PTR [eax], edx

; 255  : 		}

  00041	c3		 ret	 0
?_Init@?$basic_streambuf@DU?$char_traits@D@std@@@std@@IAEXXZ ENDP ; std::basic_streambuf<char,std::char_traits<char> >::_Init
_TEXT	ENDS
PUBLIC	?_Stinit@?1??_Init@?$basic_filebuf@DU?$char_traits@D@std@@@std@@IAEXPAU_iobuf@@W4_Initfl@23@@Z@4HA ; `std::basic_filebuf<char,std::char_traits<char> >::_Init'::`2'::_Stinit
;	COMDAT ?_Stinit@?1??_Init@?$basic_filebuf@DU?$char_traits@D@std@@@std@@IAEXPAU_iobuf@@W4_Initfl@23@@Z@4HA
; File c:\program files (x86)\microsoft visual studio .net 2003\vc7\include\fstream
_BSS	SEGMENT
?_Stinit@?1??_Init@?$basic_filebuf@DU?$char_traits@D@std@@@std@@IAEXPAU_iobuf@@W4_Initfl@23@@Z@4HA DD 01H DUP (?) ; `std::basic_filebuf<char,std::char_traits<char> >::_Init'::`2'::_Stinit
; Function compile flags: /Ogsy
_BSS	ENDS
;	COMDAT ?_Init@?$basic_filebuf@DU?$char_traits@D@std@@@std@@IAEXPAU_iobuf@@W4_Initfl@12@@Z
_TEXT	SEGMENT
__File$ = 8						; size = 4
__Which$ = 12						; size = 4
?_Init@?$basic_filebuf@DU?$char_traits@D@std@@@std@@IAEXPAU_iobuf@@W4_Initfl@12@@Z PROC NEAR ; std::basic_filebuf<char,std::char_traits<char> >::_Init, COMDAT
; _this$ = ecx

; 392  : 		static typename _Traits::state_type _Stinit;	// initial state
; 393  : 		_Closef = _Which == _Openfl;

  00000	83 7c 24 08 01	 cmp	 DWORD PTR __Which$[esp-4], 1
  00005	56		 push	 esi
  00006	8b f1		 mov	 esi, ecx
  00008	0f 94 c0	 sete	 al
  0000b	57		 push	 edi
  0000c	88 46 54	 mov	 BYTE PTR [esi+84], al

; 394  : 		_Wrotesome = false;

  0000f	c6 46 4c 00	 mov	 BYTE PTR [esi+76], 0

; 395  : 
; 396  : 		_Mysb::_Init();	// initialize stream buffer base object

  00013	e8 00 00 00 00	 call	 ?_Init@?$basic_streambuf@DU?$char_traits@D@std@@@std@@IAEXXZ ; std::basic_streambuf<char,std::char_traits<char> >::_Init

; 397  : 
; 398  :  #ifndef _IORCNT
; 399  :   #define _IORCNT	_IOCNT	/* read and write counts are the same */
; 400  :   #define _IOWCNT _IOCNT
; 401  :  #endif /* _IORCNT */
; 402  : 
; 403  : 		if (_File != 0 && sizeof (_Elem) == 1)

  00018	8b 7c 24 0c	 mov	 edi, DWORD PTR __File$[esp+4]
  0001c	85 ff		 test	 edi, edi
  0001e	74 13		 je	 SHORT $L23756

; 404  : 			{	// point inside C stream with [first, first + count) buffer
; 405  : 			_Elem **_Pb = (_Elem **)&_File->_IOBASE;
; 406  : 			_Elem **_Pn = (_Elem **)&_File->_IOPTR;
; 407  : 			int *_Nr = (int *)&_File->_IORCNT;
; 408  : 			int *_Nw = (int *)&_File->_IOWCNT;

  00020	8d 4f 04	 lea	 ecx, DWORD PTR [edi+4]

; 409  : 			_Mysb::_Init(_Pb, _Pn, _Nr, _Pb, _Pn, _Nw);

  00023	51		 push	 ecx
  00024	57		 push	 edi
  00025	8d 47 08	 lea	 eax, DWORD PTR [edi+8]
  00028	50		 push	 eax
  00029	51		 push	 ecx
  0002a	57		 push	 edi
  0002b	50		 push	 eax
  0002c	8b ce		 mov	 ecx, esi
  0002e	e8 00 00 00 00	 call	 ?_Init@?$basic_streambuf@DU?$char_traits@D@std@@@std@@IAEXPAPAD0PAH001@Z ; std::basic_streambuf<char,std::char_traits<char> >::_Init
$L23756:

; 410  : 			}
; 411  : 		_Myfile = _File;

  00033	89 7e 58	 mov	 DWORD PTR [esi+88], edi

; 412  : 		_State = _Stinit;

  00036	a1 00 00 00 00	 mov	 eax, DWORD PTR ?_Stinit@?1??_Init@?$basic_filebuf@DU?$char_traits@D@std@@@std@@IAEXPAU_iobuf@@W4_Initfl@23@@Z@4HA ; `std::basic_filebuf<char,std::char_traits<char> >::_Init'::`2'::_Stinit
  0003b	89 46 50	 mov	 DWORD PTR [esi+80], eax

; 413  : 		_State0 = _Stinit;

  0003e	a1 00 00 00 00	 mov	 eax, DWORD PTR ?_Stinit@?1??_Init@?$basic_filebuf@DU?$char_traits@D@std@@@std@@IAEXPAU_iobuf@@W4_Initfl@23@@Z@4HA ; `std::basic_filebuf<char,std::char_traits<char> >::_Init'::`2'::_Stinit

; 414  : 		_Pcvt = 0;	// pointer to codecvt facet

  00043	83 66 3c 00	 and	 DWORD PTR [esi+60], 0
  00047	5f		 pop	 edi
  00048	89 46 40	 mov	 DWORD PTR [esi+64], eax
  0004b	5e		 pop	 esi

; 415  : 		}

  0004c	c2 08 00	 ret	 8
?_Init@?$basic_filebuf@DU?$char_traits@D@std@@@std@@IAEXPAU_iobuf@@W4_Initfl@12@@Z ENDP ; std::basic_filebuf<char,std::char_traits<char> >::_Init
; Function compile flags: /Ogsy
; File c:\program files (x86)\microsoft visual studio .net 2003\vc7\include\xstring
_TEXT	ENDS
;	COMDAT ??Dconst_iterator@?$basic_string@DU?$char_traits@D@std@@V?$allocator@D@2@@std@@QBEABDXZ
_TEXT	SEGMENT
??Dconst_iterator@?$basic_string@DU?$char_traits@D@std@@V?$allocator@D@2@@std@@QBEABDXZ PROC NEAR ; std::basic_string<char,std::char_traits<char>,std::allocator<char> >::const_iterator::operator*, COMDAT
; _this$ = ecx

; 91   : 
; 92   : 
; 93   : 			return (*_Myptr);

  00000	8b 01		 mov	 eax, DWORD PTR [ecx]

; 94   : 			}

  00002	c3		 ret	 0
??Dconst_iterator@?$basic_string@DU?$char_traits@D@std@@V?$allocator@D@2@@std@@QBEABDXZ ENDP ; std::basic_string<char,std::char_traits<char>,std::allocator<char> >::const_iterator::operator*
; Function compile flags: /Ogsy
_TEXT	ENDS
;	COMDAT ??Diterator@?$basic_string@DU?$char_traits@D@std@@V?$allocator@D@2@@std@@QBEAADXZ
_TEXT	SEGMENT
??Diterator@?$basic_string@DU?$char_traits@D@std@@V?$allocator@D@2@@std@@QBEAADXZ PROC NEAR ; std::basic_string<char,std::char_traits<char>,std::allocator<char> >::iterator::operator*, COMDAT
; _this$ = ecx

; 232  : 			return ((reference)**(const_iterator *)this);

  00000	8b 01		 mov	 eax, DWORD PTR [ecx]

; 233  : 			}

  00002	c3		 ret	 0
??Diterator@?$basic_string@DU?$char_traits@D@std@@V?$allocator@D@2@@std@@QBEAADXZ ENDP ; std::basic_string<char,std::char_traits<char>,std::allocator<char> >::iterator::operator*
; Function compile flags: /Ogsy
; File c:\program files (x86)\microsoft visual studio .net 2003\vc7\include\xlocale
_TEXT	ENDS
;	COMDAT ?unshift@?$codecvt@DDH@std@@QBEHAAHPAD1AAPAD@Z
_TEXT	SEGMENT
__State$ = 8						; size = 4
__First2$ = 12						; size = 4
__Last2$ = 16						; size = 4
__Mid2$ = 20						; size = 4
?unshift@?$codecvt@DDH@std@@QBEHAAHPAD1AAPAD@Z PROC NEAR ; std::codecvt<char,char,int>::unshift, COMDAT
; _this$ = ecx

; 573  : 		return (do_unshift(_State, _First2, _Last2, _Mid2));

  00000	8b 01		 mov	 eax, DWORD PTR [ecx]
  00002	ff 60 18	 jmp	 DWORD PTR [eax+24]
?unshift@?$codecvt@DDH@std@@QBEHAAHPAD1AAPAD@Z ENDP	; std::codecvt<char,char,int>::unshift
; Function compile flags: /Ogsy
; File c:\program files (x86)\microsoft visual studio .net 2003\vc7\include\ios
_TEXT	ENDS
;	COMDAT ??0?$basic_ios@DU?$char_traits@D@std@@@std@@IAE@XZ
_TEXT	SEGMENT
??0?$basic_ios@DU?$char_traits@D@std@@@std@@IAE@XZ PROC NEAR ; std::basic_ios<char,std::char_traits<char> >::basic_ios<char,std::char_traits<char> >, COMDAT
; _this$ = ecx

; 142  : 	basic_ios()

  00000	8b c1		 mov	 eax, ecx
  00002	c7 00 00 00 00
	00		 mov	 DWORD PTR [eax], OFFSET FLAT:??_7?$basic_ios@DU?$char_traits@D@std@@@std@@6B@

; 143  : 		{	// default constructor, do nothing
; 144  : 		}

  00008	c3		 ret	 0
??0?$basic_ios@DU?$char_traits@D@std@@@std@@IAE@XZ ENDP	; std::basic_ios<char,std::char_traits<char> >::basic_ios<char,std::char_traits<char> >
; Function compile flags: /Ogsy
; File c:\program files (x86)\microsoft visual studio .net 2003\vc7\include\xstring
;	COMDAT ?assign@?$basic_string@DU?$char_traits@D@std@@V?$allocator@D@2@@std@@QAEAAV12@ID@Z
_TEXT	SEGMENT
__Count$ = 8						; size = 4
__Ch$ = 12						; size = 1
?assign@?$basic_string@DU?$char_traits@D@std@@V?$allocator@D@2@@std@@QAEAAV12@ID@Z PROC NEAR ; std::basic_string<char,std::char_traits<char>,std::allocator<char> >::assign, COMDAT
; _this$ = ecx

; 626  : 		{	// assign _Count * _Ch

  00000	56		 push	 esi
  00001	57		 push	 edi

; 627  : 		if (_Count == npos)

  00002	8b 7c 24 0c	 mov	 edi, DWORD PTR __Count$[esp+4]
  00006	83 ff ff	 cmp	 edi, -1
  00009	8b f1		 mov	 esi, ecx
  0000b	75 05		 jne	 SHORT $L23721

; 628  : 			_String_base::_Xlen();	// result too long

  0000d	e8 00 00 00 00	 call	 ?_Xlen@_String_base@std@@QBEXXZ ; std::_String_base::_Xlen
$L23721:

; 629  : 
; 630  : 		if (_Grow(_Count))

  00012	6a 00		 push	 0
  00014	57		 push	 edi
  00015	8b ce		 mov	 ecx, esi
  00017	e8 00 00 00 00	 call	 ?_Grow@?$basic_string@DU?$char_traits@D@std@@V?$allocator@D@2@@std@@IAE_NI_N@Z ; std::basic_string<char,std::char_traits<char>,std::allocator<char> >::_Grow
  0001c	84 c0		 test	 al, al
  0001e	74 24		 je	 SHORT $L23722

; 631  : 			{	// make room and assign new stuff
; 632  : 			_Traits::assign(_Myptr(), _Count, _Ch);

  00020	83 7e 18 10	 cmp	 DWORD PTR [esi+24], 16	; 00000010H
  00024	72 05		 jb	 SHORT $L59256
  00026	8b 46 04	 mov	 eax, DWORD PTR [esi+4]
  00029	eb 03		 jmp	 SHORT $L59257
$L59256:
  0002b	8d 46 04	 lea	 eax, DWORD PTR [esi+4]
$L59257:
  0002e	ff 74 24 10	 push	 DWORD PTR __Ch$[esp+4]
  00032	57		 push	 edi
  00033	50		 push	 eax
  00034	e8 00 00 00 00	 call	 ?assign@?$char_traits@D@std@@SAPADPADID@Z ; std::char_traits<char>::assign
  00039	83 c4 0c	 add	 esp, 12			; 0000000cH

; 633  : 			_Eos(_Count);

  0003c	57		 push	 edi
  0003d	8b ce		 mov	 ecx, esi
  0003f	e8 00 00 00 00	 call	 ?_Eos@?$basic_string@DU?$char_traits@D@std@@V?$allocator@D@2@@std@@IAEXI@Z ; std::basic_string<char,std::char_traits<char>,std::allocator<char> >::_Eos
$L23722:
  00044	5f		 pop	 edi

; 634  : 			}
; 635  : 		return (*this);

  00045	8b c6		 mov	 eax, esi
  00047	5e		 pop	 esi

; 636  : 		}

  00048	c2 08 00	 ret	 8
?assign@?$basic_string@DU?$char_traits@D@std@@V?$allocator@D@2@@std@@QAEAAV12@ID@Z ENDP ; std::basic_string<char,std::char_traits<char>,std::allocator<char> >::assign
; Function compile flags: /Ogsy
_TEXT	ENDS
;	COMDAT ??0?$basic_string@DU?$char_traits@D@std@@V?$allocator@D@2@@std@@QAE@ID@Z
_TEXT	SEGMENT
__Count$ = 8						; size = 4
__Ch$ = 12						; size = 1
??0?$basic_string@DU?$char_traits@D@std@@V?$allocator@D@2@@std@@QAE@ID@Z PROC NEAR ; std::basic_string<char,std::char_traits<char>,std::allocator<char> >::basic_string<char,std::char_traits<char>,std::allocator<char> >, COMDAT
; _this$ = ecx

; 374  : 		{	// construct from _Count * _Ch

  00000	56		 push	 esi
  00001	8b f1		 mov	 esi, ecx

; 375  : 		_Tidy();

  00003	6a 00		 push	 0
  00005	c7 46 18 0f 00
	00 00		 mov	 DWORD PTR [esi+24], 15	; 0000000fH
  0000c	e8 00 00 00 00	 call	 ?_Eos@?$basic_string@DU?$char_traits@D@std@@V?$allocator@D@2@@std@@IAEXI@Z ; std::basic_string<char,std::char_traits<char>,std::allocator<char> >::_Eos

; 376  : 		assign(_Count, _Ch);

  00011	ff 74 24 0c	 push	 DWORD PTR __Ch$[esp]
  00015	8b ce		 mov	 ecx, esi
  00017	ff 74 24 0c	 push	 DWORD PTR __Count$[esp+4]
  0001b	e8 00 00 00 00	 call	 ?assign@?$basic_string@DU?$char_traits@D@std@@V?$allocator@D@2@@std@@QAEAAV12@ID@Z ; std::basic_string<char,std::char_traits<char>,std::allocator<char> >::assign

; 377  : 		}

  00020	8b c6		 mov	 eax, esi
  00022	5e		 pop	 esi
  00023	c2 08 00	 ret	 8
??0?$basic_string@DU?$char_traits@D@std@@V?$allocator@D@2@@std@@QAE@ID@Z ENDP ; std::basic_string<char,std::char_traits<char>,std::allocator<char> >::basic_string<char,std::char_traits<char>,std::allocator<char> >
;	COMDAT xdata$x
xdata$x	SEGMENT
$T63004	DD	0ffffffffH
	DD	FLAT:$L62820
$T62990	DD	019930520H
	DD	01H
	DD	FLAT:$T63004
	DD	2 DUP(00H)
	DD	2 DUP(00H)
; Function compile flags: /Ogsy
; File c:\program files (x86)\microsoft visual studio .net 2003\vc7\include\fstream
xdata$x	ENDS
;	COMDAT ?_Endwrite@?$basic_filebuf@DU?$char_traits@D@std@@@std@@IAE_NXZ
_TEXT	SEGMENT
__Dest$23636 = -48					; size = 4
__Str$23637 = -44					; size = 28
__$ArrayPad$ = -16					; size = 4
__$EHRec$ = -12						; size = 12
__$ReturnAddr$ = 4					; size = 4
?_Endwrite@?$basic_filebuf@DU?$char_traits@D@std@@@std@@IAE_NXZ PROC NEAR ; std::basic_filebuf<char,std::char_traits<char> >::_Endwrite, COMDAT
; _this$ = ecx

; 418  : 		{	// put shift to initial conversion state, as needed

  00000	b8 00 00 00 00	 mov	 eax, __ehhandler$?_Endwrite@?$basic_filebuf@DU?$char_traits@D@std@@@std@@IAE_NXZ
  00005	e8 00 00 00 00	 call	 __EH_prolog
  0000a	83 ec 24	 sub	 esp, 36			; 00000024H
  0000d	a1 00 00 00 00	 mov	 eax, DWORD PTR ___security_cookie
  00012	53		 push	 ebx
  00013	56		 push	 esi
  00014	8b f1		 mov	 esi, ecx

; 419  : 		if (_Pcvt == 0 || !_Wrotesome)

  00016	33 db		 xor	 ebx, ebx
  00018	39 5e 3c	 cmp	 DWORD PTR [esi+60], ebx
  0001b	89 45 f0	 mov	 DWORD PTR __$ArrayPad$[ebp], eax
  0001e	0f 84 b6 00 00
	00		 je	 $L23633
  00024	38 5e 4c	 cmp	 BYTE PTR [esi+76], bl
  00027	0f 84 ad 00 00
	00		 je	 $L23633

; 421  : 		else
; 422  : 			{	// may have to put
; 423  : 			const int _STRING_INC = 8;
; 424  : 			char *_Dest;
; 425  : 			overflow();

  0002d	8b 06		 mov	 eax, DWORD PTR [esi]
  0002f	6a ff		 push	 -1
  00031	ff 50 04	 call	 DWORD PTR [eax+4]

; 426  : 
; 427  : 			string _Str(_STRING_INC, '\0');

  00034	53		 push	 ebx
  00035	6a 08		 push	 8
  00037	8d 4d d4	 lea	 ecx, DWORD PTR __Str$23637[ebp]
  0003a	e8 00 00 00 00	 call	 ??0?$basic_string@DU?$char_traits@D@std@@V?$allocator@D@2@@std@@QAE@ID@Z ; std::basic_string<char,std::char_traits<char>,std::allocator<char> >::basic_string<char,std::char_traits<char>,std::allocator<char> >
  0003f	89 5d fc	 mov	 DWORD PTR __$EHRec$[ebp+8], ebx
  00042	57		 push	 edi
$L23639:

; 428  : 			for (; ; )
; 429  : 				switch (_Pcvt->unshift(_State,
; 430  : 					&*_Str.begin(), &*_Str.begin() + _Str.size(), _Dest))

  00043	83 7d ec 10	 cmp	 DWORD PTR __Str$23637[ebp+24], 16 ; 00000010H
  00047	8b 55 d8	 mov	 edx, DWORD PTR __Str$23637[ebp+4]
  0004a	8b c2		 mov	 eax, edx
  0004c	73 05		 jae	 SHORT $L62884
  0004e	8d 45 d8	 lea	 eax, DWORD PTR __Str$23637[ebp+4]
  00051	8b d0		 mov	 edx, eax
$L62884:
  00053	8b 4e 3c	 mov	 ecx, DWORD PTR [esi+60]
  00056	8b 39		 mov	 edi, DWORD PTR [ecx]
  00058	8d 5d d0	 lea	 ebx, DWORD PTR __Dest$23636[ebp]
  0005b	53		 push	 ebx
  0005c	8b 5d e8	 mov	 ebx, DWORD PTR __Str$23637[ebp+20]
  0005f	03 c3		 add	 eax, ebx
  00061	50		 push	 eax
  00062	52		 push	 edx
  00063	8d 46 50	 lea	 eax, DWORD PTR [esi+80]
  00066	50		 push	 eax
  00067	ff 57 18	 call	 DWORD PTR [edi+24]
  0006a	83 e8 00	 sub	 eax, 0
  0006d	74 0b		 je	 SHORT $L23647
  0006f	48		 dec	 eax
  00070	74 0c		 je	 SHORT $L23648
  00072	48		 dec	 eax
  00073	48		 dec	 eax
  00074	75 51		 jne	 SHORT $L62992
$L62993:
  00076	b3 01		 mov	 bl, 1
  00078	eb 4f		 jmp	 SHORT $L62994
$L23647:

; 431  : 				{	// test result of homing conversion
; 432  : 				case codecvt_base::ok:
; 433  : 					_Wrotesome = false;	// homed successfully

  0007a	c6 46 4c 00	 mov	 BYTE PTR [esi+76], 0
$L23648:

; 434  : 
; 435  : 				case codecvt_base::partial:	// can fall through
; 436  : 					{	// put any generated bytes
; 437  : 					size_t _Count = _Dest - &*_Str.begin();

  0007e	83 7d ec 10	 cmp	 DWORD PTR __Str$23637[ebp+24], 16 ; 00000010H
  00082	8b 45 d8	 mov	 eax, DWORD PTR __Str$23637[ebp+4]
  00085	73 03		 jae	 SHORT $L62925
  00087	8d 45 d8	 lea	 eax, DWORD PTR __Str$23637[ebp+4]
$L62925:
  0008a	8b 7d d0	 mov	 edi, DWORD PTR __Dest$23636[ebp]
  0008d	2b f8		 sub	 edi, eax

; 438  : 					if (0 < _Count && _Count !=
; 439  : 						fwrite(&*_Str.begin(), _Count, 1, _Myfile))

  0008f	74 1f		 je	 SHORT $L62998
  00091	83 7d ec 10	 cmp	 DWORD PTR __Str$23637[ebp+24], 16 ; 00000010H
  00095	8b 45 d8	 mov	 eax, DWORD PTR __Str$23637[ebp+4]
  00098	73 03		 jae	 SHORT $L62960
  0009a	8d 45 d8	 lea	 eax, DWORD PTR __Str$23637[ebp+4]
$L62960:
  0009d	ff 76 58	 push	 DWORD PTR [esi+88]
  000a0	6a 01		 push	 1
  000a2	57		 push	 edi
  000a3	50		 push	 eax
  000a4	e8 00 00 00 00	 call	 _fwrite
  000a9	83 c4 10	 add	 esp, 16			; 00000010H
  000ac	3b f8		 cmp	 edi, eax
  000ae	75 17		 jne	 SHORT $L62992
$L62998:

; 441  : 					if (!_Wrotesome)

  000b0	80 7e 4c 00	 cmp	 BYTE PTR [esi+76], 0
  000b4	74 c0		 je	 SHORT $L62993

; 442  : 						return (true);
; 443  : 					_Str.append(_STRING_INC, '\0');	// try some more

  000b6	6a 00		 push	 0
  000b8	6a 08		 push	 8
  000ba	8d 4d d4	 lea	 ecx, DWORD PTR __Str$23637[ebp]
  000bd	e8 00 00 00 00	 call	 ?append@?$basic_string@DU?$char_traits@D@std@@V?$allocator@D@2@@std@@QAEAAV12@ID@Z ; std::basic_string<char,std::char_traits<char>,std::allocator<char> >::append

; 444  : 					break;
; 445  : 					}
; 446  : 
; 447  : 				case codecvt_base::noconv:
; 448  : 					return (true);	// nothing to do
; 449  : 
; 450  : 				default:
; 451  : 					return (false);	// conversion failed
; 452  : 				}

  000c2	e9 7c ff ff ff	 jmp	 $L23639
$L62992:
  000c7	32 db		 xor	 bl, bl
$L62994:

; 440  : 						return (false);	// write failed

  000c9	6a 00		 push	 0
  000cb	6a 01		 push	 1
  000cd	8d 4d d4	 lea	 ecx, DWORD PTR __Str$23637[ebp]
  000d0	e8 00 00 00 00	 call	 ?_Tidy@?$basic_string@DU?$char_traits@D@std@@V?$allocator@D@2@@std@@IAEX_NI@Z ; std::basic_string<char,std::char_traits<char>,std::allocator<char> >::_Tidy
  000d5	8a c3		 mov	 al, bl
  000d7	5f		 pop	 edi
  000d8	eb 02		 jmp	 SHORT $L62987
$L23633:

; 420  : 			return (true);

  000da	b0 01		 mov	 al, 1

; 453  : 			}

$L62987:

; 454  : 		}

  000dc	8b 4d f4	 mov	 ecx, DWORD PTR __$EHRec$[ebp]
  000df	5e		 pop	 esi
  000e0	64 89 0d 00 00
	00 00		 mov	 DWORD PTR fs:__except_list, ecx
  000e7	8b 4d f0	 mov	 ecx, DWORD PTR __$ArrayPad$[ebp]
  000ea	5b		 pop	 ebx
  000eb	e8 00 00 00 00	 call	 @__security_check_cookie@4
  000f0	c9		 leave
  000f1	c3		 ret	 0
_TEXT	ENDS
;	COMDAT text$x
text$x	SEGMENT
$L62820:
  00000	8d 4d d4	 lea	 ecx, DWORD PTR __Str$23637[ebp]
  00003	e9 00 00 00 00	 jmp	 ??1?$basic_string@DU?$char_traits@D@std@@V?$allocator@D@2@@std@@QAE@XZ ; std::basic_string<char,std::char_traits<char>,std::allocator<char> >::~basic_string<char,std::char_traits<char>,std::allocator<char> >
__ehhandler$?_Endwrite@?$basic_filebuf@DU?$char_traits@D@std@@@std@@IAE_NXZ:
  00008	b8 00 00 00 00	 mov	 eax, OFFSET FLAT:$T62990
  0000d	e9 00 00 00 00	 jmp	 ___CxxFrameHandler
text$x	ENDS
?_Endwrite@?$basic_filebuf@DU?$char_traits@D@std@@@std@@IAE_NXZ ENDP ; std::basic_filebuf<char,std::char_traits<char> >::_Endwrite
; Function compile flags: /Ogsy
;	COMDAT ?close@?$basic_filebuf@DU?$char_traits@D@std@@@std@@QAEPAV12@XZ
_TEXT	SEGMENT
?close@?$basic_filebuf@DU?$char_traits@D@std@@@std@@QAEPAV12@XZ PROC NEAR ; std::basic_filebuf<char,std::char_traits<char> >::close, COMDAT
; _this$ = ecx

; 156  : 		{	// close the C stream

  00000	53		 push	 ebx
  00001	56		 push	 esi
  00002	8b f1		 mov	 esi, ecx

; 157  : 		if (_Myfile != 0 && _Endwrite() && fclose(_Myfile) == 0)

  00004	33 db		 xor	 ebx, ebx
  00006	39 5e 58	 cmp	 DWORD PTR [esi+88], ebx
  00009	74 3d		 je	 SHORT $L23628
  0000b	e8 00 00 00 00	 call	 ?_Endwrite@?$basic_filebuf@DU?$char_traits@D@std@@@std@@IAE_NXZ ; std::basic_filebuf<char,std::char_traits<char> >::_Endwrite
  00010	84 c0		 test	 al, al
  00012	74 34		 je	 SHORT $L23628
  00014	ff 76 58	 push	 DWORD PTR [esi+88]
  00017	e8 00 00 00 00	 call	 _fclose
  0001c	85 c0		 test	 eax, eax
  0001e	59		 pop	 ecx
  0001f	75 27		 jne	 SHORT $L23628

; 158  : 			{	// close succeeded, tidy up
; 159  : 			_Init(0, _Closefl);

  00021	8b ce		 mov	 ecx, esi
  00023	88 5e 54	 mov	 BYTE PTR [esi+84], bl
  00026	88 5e 4c	 mov	 BYTE PTR [esi+76], bl
  00029	e8 00 00 00 00	 call	 ?_Init@?$basic_streambuf@DU?$char_traits@D@std@@@std@@IAEXXZ ; std::basic_streambuf<char,std::char_traits<char> >::_Init
  0002e	89 5e 58	 mov	 DWORD PTR [esi+88], ebx
  00031	a1 00 00 00 00	 mov	 eax, DWORD PTR ?_Stinit@?1??_Init@?$basic_filebuf@DU?$char_traits@D@std@@@std@@IAEXPAU_iobuf@@W4_Initfl@23@@Z@4HA ; `std::basic_filebuf<char,std::char_traits<char> >::_Init'::`2'::_Stinit
  00036	89 46 50	 mov	 DWORD PTR [esi+80], eax
  00039	a1 00 00 00 00	 mov	 eax, DWORD PTR ?_Stinit@?1??_Init@?$basic_filebuf@DU?$char_traits@D@std@@@std@@IAEXPAU_iobuf@@W4_Initfl@23@@Z@4HA ; `std::basic_filebuf<char,std::char_traits<char> >::_Init'::`2'::_Stinit
  0003e	89 46 40	 mov	 DWORD PTR [esi+64], eax
  00041	89 5e 3c	 mov	 DWORD PTR [esi+60], ebx

; 160  : 			return (this);

  00044	8b c6		 mov	 eax, esi
  00046	eb 02		 jmp	 SHORT $L23629
$L23628:

; 161  : 			}
; 162  : 		else
; 163  : 			return (0);

  00048	33 c0		 xor	 eax, eax
$L23629:
  0004a	5e		 pop	 esi
  0004b	5b		 pop	 ebx

; 164  : 		}

  0004c	c3		 ret	 0
?close@?$basic_filebuf@DU?$char_traits@D@std@@@std@@QAEPAV12@XZ ENDP ; std::basic_filebuf<char,std::char_traits<char> >::close
; Function compile flags: /Ogsy
; File c:\program files (x86)\microsoft visual studio .net 2003\vc7\include\xstring
_TEXT	ENDS
;	COMDAT ?resize@?$basic_string@DU?$char_traits@D@std@@V?$allocator@D@2@@std@@QAEXID@Z
_TEXT	SEGMENT
__Ch$ = 8						; size = 1
?resize@?$basic_string@DU?$char_traits@D@std@@V?$allocator@D@2@@std@@QAEXID@Z PROC NEAR ; std::basic_string<char,std::char_traits<char>,std::allocator<char> >::resize, COMDAT
; _this$ = ecx
; __Newsize$ = eax

; 1125 : 		if (_Newsize <= _Mysize)

  00000	8b 51 14	 mov	 edx, DWORD PTR [ecx+20]
  00003	3b c2		 cmp	 eax, edx
  00005	77 0a		 ja	 SHORT $L24216

; 1126 : 			erase(_Newsize);

  00007	6a ff		 push	 -1
  00009	50		 push	 eax
  0000a	e8 00 00 00 00	 call	 ?erase@?$basic_string@DU?$char_traits@D@std@@V?$allocator@D@2@@std@@QAEAAV12@II@Z ; std::basic_string<char,std::char_traits<char>,std::allocator<char> >::erase

; 1127 : 		else

  0000f	eb 0c		 jmp	 SHORT $L24217
$L24216:

; 1128 : 			append(_Newsize - _Mysize, _Ch);

  00011	ff 74 24 04	 push	 DWORD PTR __Ch$[esp-4]
  00015	2b c2		 sub	 eax, edx
  00017	50		 push	 eax
  00018	e8 00 00 00 00	 call	 ?append@?$basic_string@DU?$char_traits@D@std@@V?$allocator@D@2@@std@@QAEAAV12@ID@Z ; std::basic_string<char,std::char_traits<char>,std::allocator<char> >::append
$L24217:

; 1129 : 		}

  0001d	c2 04 00	 ret	 4
?resize@?$basic_string@DU?$char_traits@D@std@@V?$allocator@D@2@@std@@QAEXID@Z ENDP ; std::basic_string<char,std::char_traits<char>,std::allocator<char> >::resize
; Function compile flags: /Ogsy
; File c:\program files (x86)\microsoft visual studio .net 2003\vc7\include\fstream
_TEXT	ENDS
;	COMDAT ?close@?$basic_ifstream@DU?$char_traits@D@std@@@std@@QAEXXZ
_TEXT	SEGMENT
?close@?$basic_ifstream@DU?$char_traits@D@std@@@std@@QAEXXZ PROC NEAR ; std::basic_ifstream<char,std::char_traits<char> >::close, COMDAT
; _this$ = esi

; 551  : 		if (_Filebuffer.close() == 0)

  00000	8d 4e 08	 lea	 ecx, DWORD PTR [esi+8]
  00003	e8 00 00 00 00	 call	 ?close@?$basic_filebuf@DU?$char_traits@D@std@@@std@@QAEPAV12@XZ ; std::basic_filebuf<char,std::char_traits<char> >::close
  00008	85 c0		 test	 eax, eax
  0000a	75 15		 jne	 SHORT $L63030

; 552  : 			_Myios::setstate(ios_base::failbit);

  0000c	8b 06		 mov	 eax, DWORD PTR [esi]
  0000e	8b 48 04	 mov	 ecx, DWORD PTR [eax+4]
  00011	03 ce		 add	 ecx, esi
  00013	8b 41 08	 mov	 eax, DWORD PTR [ecx+8]
  00016	6a 00		 push	 0
  00018	83 c8 02	 or	 eax, 2
  0001b	50		 push	 eax
  0001c	e8 00 00 00 00	 call	 ?clear@?$basic_ios@DU?$char_traits@D@std@@@std@@QAEXH_N@Z ; std::basic_ios<char,std::char_traits<char> >::clear
$L63030:

; 553  : 		}

  00021	c3		 ret	 0
?close@?$basic_ifstream@DU?$char_traits@D@std@@@std@@QAEXXZ ENDP ; std::basic_ifstream<char,std::char_traits<char> >::close
; Function compile flags: /Ogsy
; File c:\program files (x86)\microsoft visual studio .net 2003\vc7\include\xstring
_TEXT	ENDS
;	COMDAT ?resize@?$basic_string@DU?$char_traits@D@std@@V?$allocator@D@2@@std@@QAEXI@Z
_TEXT	SEGMENT
__Newsize$ = 8						; size = 4
?resize@?$basic_string@DU?$char_traits@D@std@@V?$allocator@D@2@@std@@QAEXI@Z PROC NEAR ; std::basic_string<char,std::char_traits<char>,std::allocator<char> >::resize, COMDAT
; _this$ = ecx

; 1120 : 		resize(_Newsize, _Elem());

  00000	8b 44 24 04	 mov	 eax, DWORD PTR __Newsize$[esp-4]
  00004	6a 00		 push	 0
  00006	e8 00 00 00 00	 call	 ?resize@?$basic_string@DU?$char_traits@D@std@@V?$allocator@D@2@@std@@QAEXID@Z ; std::basic_string<char,std::char_traits<char>,std::allocator<char> >::resize

; 1121 : 		}

  0000b	c2 04 00	 ret	 4
?resize@?$basic_string@DU?$char_traits@D@std@@V?$allocator@D@2@@std@@QAEXI@Z ENDP ; std::basic_string<char,std::char_traits<char>,std::allocator<char> >::resize
; Function compile flags: /Ogsy
; File f:\nes\nsdl\src\nsc\dpcm.cpp
_TEXT	SEGMENT
_MUS$ = 8						; size = 4
?getAsm@DPCM@@UAEXPAVMusicFile@@@Z PROC NEAR		; DPCM::getAsm
; _this$ = ecx

; 86   : {

  00000	56		 push	 esi

; 87   : 	*MUS << ".align	$40\n" << MUS->Header.Label.c_str() << "DPCM" << m_id << ":" << endl;

  00001	8b 74 24 08	 mov	 esi, DWORD PTR _MUS$[esp]
  00005	8d 86 a8 00 00
	00		 lea	 eax, DWORD PTR [esi+168]
  0000b	83 78 18 10	 cmp	 DWORD PTR [eax+24], 16	; 00000010H
  0000f	57		 push	 edi
  00010	8b f9		 mov	 edi, ecx
  00012	72 05		 jb	 SHORT $L65292
  00014	8b 40 04	 mov	 eax, DWORD PTR [eax+4]
  00017	eb 03		 jmp	 SHORT $L65293
$L65292:
  00019	83 c0 04	 add	 eax, 4
$L65293:
  0001c	68 00 00 00 00	 push	 OFFSET FLAT:??_C@_01JLIPDDHJ@?3?$AA@
  00021	ff b7 c4 00 00
	00		 push	 DWORD PTR [edi+196]
  00027	8d 4e 3c	 lea	 ecx, DWORD PTR [esi+60]
  0002a	68 00 00 00 00	 push	 OFFSET FLAT:??_C@_04GIKIPLBI@DPCM?$AA@
  0002f	50		 push	 eax
  00030	8b c6		 mov	 eax, esi
  00032	f7 d8		 neg	 eax
  00034	1b c0		 sbb	 eax, eax
  00036	23 c1		 and	 eax, ecx
  00038	68 00 00 00 00	 push	 OFFSET FLAT:??_C@_0M@GMEPIPHF@?4align?7$40?6?$AA@
  0003d	50		 push	 eax
  0003e	e8 00 00 00 00	 call	 ??$?6U?$char_traits@D@std@@@std@@YAAAV?$basic_ostream@DU?$char_traits@D@std@@@0@AAV10@PBD@Z ; std::operator<<<std::char_traits<char> >
  00043	59		 pop	 ecx
  00044	59		 pop	 ecx
  00045	50		 push	 eax
  00046	e8 00 00 00 00	 call	 ??$?6U?$char_traits@D@std@@@std@@YAAAV?$basic_ostream@DU?$char_traits@D@std@@@0@AAV10@PBD@Z ; std::operator<<<std::char_traits<char> >
  0004b	59		 pop	 ecx
  0004c	59		 pop	 ecx
  0004d	50		 push	 eax
  0004e	e8 00 00 00 00	 call	 ??$?6U?$char_traits@D@std@@@std@@YAAAV?$basic_ostream@DU?$char_traits@D@std@@@0@AAV10@PBD@Z ; std::operator<<<std::char_traits<char> >
  00053	59		 pop	 ecx
  00054	59		 pop	 ecx
  00055	50		 push	 eax
  00056	e8 00 00 00 00	 call	 ??6?$basic_ostream@DU?$char_traits@D@std@@@std@@QAEAAV01@I@Z ; std::basic_ostream<char,std::char_traits<char> >::operator<<
  0005b	50		 push	 eax
  0005c	e8 00 00 00 00	 call	 ??$?6U?$char_traits@D@std@@@std@@YAAAV?$basic_ostream@DU?$char_traits@D@std@@@0@AAV10@PBD@Z ; std::operator<<<std::char_traits<char> >
  00061	50		 push	 eax
  00062	e8 00 00 00 00	 call	 ?endl@std@@YAAAV?$basic_ostream@DU?$char_traits@D@std@@@1@AAV21@@Z ; std::endl
  00067	83 c4 0c	 add	 esp, 12			; 0000000cH

; 88   : 	MusicItem::getAsm(MUS);

  0006a	56		 push	 esi
  0006b	8b cf		 mov	 ecx, edi
  0006d	e8 00 00 00 00	 call	 ?getAsm@MusicItem@@UAEXPAVMusicFile@@@Z ; MusicItem::getAsm
  00072	5f		 pop	 edi
  00073	5e		 pop	 esi

; 89   : }

  00074	c2 04 00	 ret	 4
?getAsm@DPCM@@UAEXPAVMusicFile@@@Z ENDP			; DPCM::getAsm
PUBLIC	??1DPCM@@UAE@XZ					; DPCM::~DPCM
$T77220	DD	0ffffffffH
	DD	FLAT:$L77215
$T77218	DD	019930520H
	DD	01H
	DD	FLAT:$T77220
	DD	2 DUP(00H)
	DD	2 DUP(00H)
; Function compile flags: /Ogsy
_TEXT	SEGMENT
__$EHRec$ = -12						; size = 12
_this$ = 8						; size = 4
??1DPCM@@UAE@XZ PROC NEAR				; DPCM::~DPCM

; 75   : {

  00077	b8 00 00 00 00	 mov	 eax, __ehhandler$??1DPCM@@UAE@XZ
  0007c	e8 00 00 00 00	 call	 __EH_prolog
  00081	56		 push	 esi
  00082	8b 75 08	 mov	 esi, DWORD PTR _this$[ebp]
  00085	57		 push	 edi
  00086	8d be 70 ff ff
	ff		 lea	 edi, DWORD PTR [esi-144]
  0008c	8b 07		 mov	 eax, DWORD PTR [edi]
  0008e	8d 8e 34 ff ff
	ff		 lea	 ecx, DWORD PTR [esi-204]
  00094	c7 01 00 00 00
	00		 mov	 DWORD PTR [ecx], OFFSET FLAT:??_7DPCM@@6BMusicItem@@@
  0009a	8b 40 04	 mov	 eax, DWORD PTR [eax+4]
  0009d	c7 84 30 70 ff
	ff ff 00 00 00
	00		 mov	 DWORD PTR [eax+esi-144], OFFSET FLAT:??_7DPCM@@6BFileInput@@@
  000a8	83 65 fc 00	 and	 DWORD PTR __$EHRec$[ebp+8], 0

; 76   : }

  000ac	e8 00 00 00 00	 call	 ??1MusicItem@@QAE@XZ	; MusicItem::~MusicItem
  000b1	83 4d fc ff	 or	 DWORD PTR __$EHRec$[ebp+8], -1
  000b5	8d 86 34 ff ff
	ff		 lea	 eax, DWORD PTR [esi-204]
  000bb	f7 d8		 neg	 eax
  000bd	1b c0		 sbb	 eax, eax
  000bf	23 c7		 and	 eax, edi
  000c1	05 88 00 00 00	 add	 eax, 136		; 00000088H
  000c6	e8 00 00 00 00	 call	 ??1FileInput@@UAE@XZ	; FileInput::~FileInput
  000cb	8b 4d f4	 mov	 ecx, DWORD PTR __$EHRec$[ebp]
  000ce	5f		 pop	 edi
  000cf	5e		 pop	 esi
  000d0	64 89 0d 00 00
	00 00		 mov	 DWORD PTR fs:__except_list, ecx
  000d7	c9		 leave
  000d8	c2 04 00	 ret	 4
$L77215:
  0011b	8b 45 08	 mov	 eax, DWORD PTR _this$[ebp]
  0011e	2d cc 00 00 00	 sub	 eax, 204		; 000000ccH
  00123	8b 4d 08	 mov	 ecx, DWORD PTR _this$[ebp]
  00126	81 e9 90 00 00
	00		 sub	 ecx, 144		; 00000090H
  0012c	f7 d8		 neg	 eax
  0012e	1b c0		 sbb	 eax, eax
  00130	23 c1		 and	 eax, ecx
  00132	05 88 00 00 00	 add	 eax, 136		; 00000088H
  00137	e9 00 00 00 00	 jmp	 ??1FileInput@@UAE@XZ	; FileInput::~FileInput
__ehhandler$??1DPCM@@UAE@XZ:
  0013c	b8 00 00 00 00	 mov	 eax, OFFSET FLAT:$T77218
  00141	e9 00 00 00 00	 jmp	 ___CxxFrameHandler
??1DPCM@@UAE@XZ ENDP					; DPCM::~DPCM
; Function compile flags: /Ogsy
;	COMDAT ??_DDPCM@@QAEXXZ
_TEXT	SEGMENT
??_DDPCM@@QAEXXZ PROC NEAR				; DPCM::`vbase destructor', COMDAT
; _this$ = eax
  00000	56		 push	 esi
  00001	8b f0		 mov	 esi, eax
  00003	81 c6 cc 00 00
	00		 add	 esi, 204		; 000000ccH
  00009	56		 push	 esi
  0000a	e8 00 00 00 00	 call	 ??1DPCM@@UAE@XZ		; DPCM::~DPCM
  0000f	8b ce		 mov	 ecx, esi
  00011	5e		 pop	 esi
  00012	e9 00 00 00 00	 jmp	 ??1?$basic_ios@DU?$char_traits@D@std@@@std@@UAE@XZ ; std::basic_ios<char,std::char_traits<char> >::~basic_ios<char,std::char_traits<char> >
??_DDPCM@@QAEXXZ ENDP					; DPCM::`vbase destructor'
; Function compile flags: /Ogsy
_TEXT	ENDS
;	COMDAT ??_GDPCM@@UAEPAXI@Z
_TEXT	SEGMENT
___flags$ = 8						; size = 4
??_GDPCM@@UAEPAXI@Z PROC NEAR				; DPCM::`scalar deleting destructor', COMDAT
; _this$ = ecx
  00000	56		 push	 esi
  00001	8d b1 34 ff ff
	ff		 lea	 esi, DWORD PTR [ecx-204]
  00007	8b c6		 mov	 eax, esi
  00009	e8 00 00 00 00	 call	 ??_DDPCM@@QAEXXZ
  0000e	f6 44 24 08 01	 test	 BYTE PTR ___flags$[esp], 1
  00013	74 07		 je	 SHORT $L23943
  00015	56		 push	 esi
  00016	e8 00 00 00 00	 call	 ??3@YAXPAX@Z		; operator delete
  0001b	59		 pop	 ecx
$L23943:
  0001c	8b c6		 mov	 eax, esi
  0001e	5e		 pop	 esi
  0001f	c2 04 00	 ret	 4
??_GDPCM@@UAEPAXI@Z ENDP				; DPCM::`scalar deleting destructor'
PUBLIC	??0DPCM@@QAE@PAVMMLfile@@PBDIQBG@Z		; DPCM::DPCM
$T99969	DD	0ffffffffH
	DD	FLAT:$L99911
	DD	00H
	DD	FLAT:$L99913
	DD	01H
	DD	FLAT:$L99914
$T99959	DD	019930520H
	DD	03H
	DD	FLAT:$T99969
	DD	2 DUP(00H)
	DD	2 DUP(00H)
; Function compile flags: /Ogsy
_TEXT	SEGMENT
$T99910 = -16						; size = 4
__$EHRec$ = -12						; size = 12
_this$ = 8						; size = 4
_MML$ = 12						; size = 4
_dmcfile$ = 16						; size = 4
__size$ = 20						; size = 4
__id$ = 20						; size = 4
tv187 = 24						; size = 4
__strName$ = 24						; size = 4
_i$ = 28						; size = 4
_$initVBases$ = 28					; size = 4
??0DPCM@@QAE@PAVMMLfile@@PBDIQBG@Z PROC NEAR		; DPCM::DPCM

; 31   : {

  000db	b8 00 00 00 00	 mov	 eax, __ehhandler$??0DPCM@@QAE@PAVMMLfile@@PBDIQBG@Z
  000e0	e8 00 00 00 00	 call	 __EH_prolog
  000e5	51		 push	 ecx
  000e6	53		 push	 ebx
  000e7	8b 5d 08	 mov	 ebx, DWORD PTR _this$[ebp]
  000ea	56		 push	 esi

; 55   : 		i++;

  000eb	33 f6		 xor	 esi, esi
  000ed	39 75 1c	 cmp	 DWORD PTR _$initVBases$[ebp], esi
  000f0	57		 push	 edi
  000f1	89 75 f0	 mov	 DWORD PTR $T99910[ebp], esi
  000f4	74 1b		 je	 SHORT $L99964
  000f6	c7 43 3c 00 00
	00 00		 mov	 DWORD PTR [ebx+60], OFFSET FLAT:??_8DPCM@@7B@
  000fd	c7 83 cc 00 00
	00 00 00 00 00	 mov	 DWORD PTR [ebx+204], OFFSET FLAT:??_7?$basic_ios@DU?$char_traits@D@std@@@std@@6B@
  00107	89 75 fc	 mov	 DWORD PTR __$EHRec$[ebp+8], esi
  0010a	c7 45 f0 01 00
	00 00		 mov	 DWORD PTR $T99910[ebp], 1
$L99964:
  00111	56		 push	 esi
  00112	8d 7b 3c	 lea	 edi, DWORD PTR [ebx+60]
  00115	57		 push	 edi
  00116	e8 00 00 00 00	 call	 ??0FileInput@@QAE@XZ	; FileInput::FileInput
  0011b	ff 75 18	 push	 DWORD PTR __strName$[ebp]
  0011e	c7 45 fc 01 00
	00 00		 mov	 DWORD PTR __$EHRec$[ebp+8], 1
  00125	53		 push	 ebx
  00126	e8 00 00 00 00	 call	 ??0MusicItem@@QAE@QBG@Z	; MusicItem::MusicItem
  0012b	c6 45 fc 02	 mov	 BYTE PTR __$EHRec$[ebp+8], 2
  0012f	8b 07		 mov	 eax, DWORD PTR [edi]
  00131	c7 03 00 00 00
	00		 mov	 DWORD PTR [ebx], OFFSET FLAT:??_7DPCM@@6BMusicItem@@@
  00137	8b 40 04	 mov	 eax, DWORD PTR [eax+4]
  0013a	c7 44 18 3c 00
	00 00 00	 mov	 DWORD PTR [eax+ebx+60], OFFSET FLAT:??_7DPCM@@6BFileInput@@@
  00142	8b 45 14	 mov	 eax, DWORD PTR __id$[ebp]
  00145	89 83 c4 00 00
	00		 mov	 DWORD PTR [ebx+196], eax
  0014b	a1 00 00 00 00	 mov	 eax, DWORD PTR ?cOptionSW@@3PAVOPSW@@A ; cOptionSW
  00150	05 8c 00 00 00	 add	 eax, 140		; 0000008cH
  00155	50		 push	 eax
  00156	ff 75 10	 push	 DWORD PTR _dmcfile$[ebp]
  00159	8b cf		 mov	 ecx, edi
  0015b	89 75 1c	 mov	 DWORD PTR _i$[ebp], esi
  0015e	e8 00 00 00 00	 call	 ?fileopen@FileInput@@QAEXPBDPAVSearchPass@@@Z ; FileInput::fileopen
  00163	57		 push	 edi
  00164	e8 00 00 00 00	 call	 ?GetSize@FileInput@@QAEIXZ ; FileInput::GetSize
  00169	3d f1 0f 00 00	 cmp	 eax, 4081		; 00000ff1H
  0016e	89 45 14	 mov	 DWORD PTR __size$[ebp], eax
  00171	76 0d		 jbe	 SHORT $L23928
  00173	8b 45 0c	 mov	 eax, DWORD PTR _MML$[ebp]
  00176	68 00 00 00 00	 push	 OFFSET FLAT:??_C@_1DA@DJCAHOME@?$CC?$LP?$AAP?$AAC?$AAM0o?$AA4?$AA0?$AA8?$AA1?$AAB?$AAy?$AAt?$AAeN?eN?$AL0k0W0f0O0?$GA@
  0017b	e8 00 00 00 00	 call	 ?Err@MMLfile@@QAEXQBG@Z	; MMLfile::Err
$L99970:
$L23928:

; 32   : 	//----------------------
; 33   : 	//Local
; 34   : 	unsigned	int		_size;
; 35   : 	unsigned	int		i = 0;
; 36   : 
; 37   : 	fileopen(dmcfile, &cOptionSW->m_pass_dmc);
; 38   : 	_size = GetSize();
; 39   : 	if(_size > 4081){
; 40   : 		MML->Err(_T("PCM4081ByteB"));
; 41   : 	}
; 42   : 
; 43   : 	if((_size & 0x000F) != 0x01){

  00180	8b c8		 mov	 ecx, eax
  00182	80 e1 0f	 and	 cl, 15			; 0000000fH
  00185	80 f9 01	 cmp	 cl, 1
  00188	74 08		 je	 SHORT $L23930

; 44   : 		iSize = (_size & 0x0FF0) + 0x0011;

  0018a	25 f0 0f 00 00	 and	 eax, 4080		; 00000ff0H
  0018f	83 c0 11	 add	 eax, 17			; 00000011H
$L23930:

; 45   : 	} else {
; 46   : 		iSize = _size;
; 47   : 	}
; 48   : 	_DPCM_size = (char)(iSize >> 4);

  00192	8b c8		 mov	 ecx, eax
  00194	c1 e9 04	 shr	 ecx, 4
  00197	88 8b c8 00 00
	00		 mov	 BYTE PTR [ebx+200], cl

; 49   : 
; 50   : 	code.resize(iSize);

  0019d	8d 73 14	 lea	 esi, DWORD PTR [ebx+20]
  001a0	6a 00		 push	 0
  001a2	8b ce		 mov	 ecx, esi
  001a4	89 43 30	 mov	 DWORD PTR [ebx+48], eax
  001a7	e8 00 00 00 00	 call	 ?resize@?$basic_string@DU?$char_traits@D@std@@V?$allocator@D@2@@std@@QAEXID@Z ; std::basic_string<char,std::char_traits<char>,std::allocator<char> >::resize

; 51   : 
; 52   : 	//PCM]
; 53   : 	while(i < _size){

  001ac	83 7d 14 00	 cmp	 DWORD PTR __size$[ebp], 0
  001b0	76 28		 jbe	 SHORT $L99961
$L23934:

; 54   : 		code[i] = cRead();

  001b2	83 7e 18 10	 cmp	 DWORD PTR [esi+24], 16	; 00000010H
  001b6	72 05		 jb	 SHORT $L99939
  001b8	8b 46 04	 mov	 eax, DWORD PTR [esi+4]
  001bb	eb 03		 jmp	 SHORT $L99967
$L99939:
  001bd	8d 46 04	 lea	 eax, DWORD PTR [esi+4]
$L99967:
  001c0	89 45 18	 mov	 DWORD PTR tv187[ebp], eax
  001c3	e8 00 00 00 00	 call	 ?cRead@FileInput@@QAEEXZ ; FileInput::cRead
  001c8	8b 4d 1c	 mov	 ecx, DWORD PTR _i$[ebp]
  001cb	8b 55 18	 mov	 edx, DWORD PTR tv187[ebp]
  001ce	88 04 0a	 mov	 BYTE PTR [edx+ecx], al

; 55   : 		i++;

  001d1	41		 inc	 ecx
  001d2	3b 4d 14	 cmp	 ecx, DWORD PTR __size$[ebp]
  001d5	89 4d 1c	 mov	 DWORD PTR _i$[ebp], ecx
  001d8	72 d8		 jb	 SHORT $L23934
$L99961:

; 56   : 	}
; 57   : 	//Padding
; 58   : 	while(i < iSize){

  001da	8b 45 1c	 mov	 eax, DWORD PTR _i$[ebp]
  001dd	eb 13		 jmp	 SHORT $L99968
$L23937:

; 59   : 		code[i] = (unsigned char)0xAA;

  001df	83 7e 18 10	 cmp	 DWORD PTR [esi+24], 16	; 00000010H
  001e3	72 05		 jb	 SHORT $L99954
  001e5	8b 4e 04	 mov	 ecx, DWORD PTR [esi+4]
  001e8	eb 03		 jmp	 SHORT $L99955
$L99954:
  001ea	8d 4e 04	 lea	 ecx, DWORD PTR [esi+4]
$L99955:
  001ed	c6 04 01 aa	 mov	 BYTE PTR [ecx+eax], -86	; ffffffaaH

; 60   : 		i++;

  001f1	40		 inc	 eax
$L99968:

; 56   : 	}
; 57   : 	//Padding
; 58   : 	while(i < iSize){

  001f2	3b 43 30	 cmp	 eax, DWORD PTR [ebx+48]
  001f5	72 e8		 jb	 SHORT $L23937

; 61   : 	}
; 62   : 
; 63   : 	close();

  001f7	8b f7		 mov	 esi, edi
  001f9	e8 00 00 00 00	 call	 ?close@?$basic_ifstream@DU?$char_traits@D@std@@@std@@QAEXXZ ; std::basic_ifstream<char,std::char_traits<char> >::close

; 64   : }

  001fe	8b 4d f4	 mov	 ecx, DWORD PTR __$EHRec$[ebp]
  00201	5f		 pop	 edi
  00202	5e		 pop	 esi
  00203	8b c3		 mov	 eax, ebx
  00205	5b		 pop	 ebx
  00206	64 89 0d 00 00
	00 00		 mov	 DWORD PTR fs:__except_list, ecx
  0020d	c9		 leave
  0020e	c2 18 00	 ret	 24			; 00000018H
$L99966:
$L99911:
  0036e	8b 45 f0	 mov	 eax, DWORD PTR $T99910[ebp]
  00371	83 e0 01	 and	 eax, 1
  00374	0f 84 12 00 00
	00		 je	 $L99912
  0037a	83 65 f0 fe	 and	 DWORD PTR $T99910[ebp], -2 ; fffffffeH
  0037e	8b 4d 08	 mov	 ecx, DWORD PTR _this$[ebp]
  00381	81 c1 cc 00 00
	00		 add	 ecx, 204		; 000000ccH
  00387	e9 00 00 00 00	 jmp	 ??1?$basic_ios@DU?$char_traits@D@std@@@std@@UAE@XZ ; std::basic_ios<char,std::char_traits<char> >::~basic_ios<char,std::char_traits<char> >
$L99912:
  0038c	c3		 ret	 0
$L99913:
  0038d	8b 45 08	 mov	 eax, DWORD PTR _this$[ebp]
  00390	05 c4 00 00 00	 add	 eax, 196		; 000000c4H
  00395	e9 00 00 00 00	 jmp	 ??1FileInput@@UAE@XZ	; FileInput::~FileInput
$L99914:
  0039a	8b 4d 08	 mov	 ecx, DWORD PTR _this$[ebp]
  0039d	e9 00 00 00 00	 jmp	 ??1MusicItem@@QAE@XZ	; MusicItem::~MusicItem
__ehhandler$??0DPCM@@QAE@PAVMMLfile@@PBDIQBG@Z:
  003a2	b8 00 00 00 00	 mov	 eax, OFFSET FLAT:$T99959
  003a7	e9 00 00 00 00	 jmp	 ___CxxFrameHandler
??0DPCM@@QAE@PAVMMLfile@@PBDIQBG@Z ENDP			; DPCM::DPCM
; Function compile flags: /Ogsy
; File c:\program files (x86)\microsoft visual studio .net 2003\vc7\include\xlocnum
;	COMDAT _$E3
text$yc	SEGMENT
_$E3	PROC NEAR					; COMDAT

; 806  : 		{	// initialize from _Locinfo object

  00000	83 25 00 00 00
	00 00		 and	 DWORD PTR ?id@?$num_put@DV?$ostreambuf_iterator@DU?$char_traits@D@std@@@std@@@std@@2V0locale@2@A, 0 ; std::num_put<char,std::ostreambuf_iterator<char,std::char_traits<char> > >::id
  00007	c3		 ret	 0
_$E3	ENDP
END
