PUBLIC	??$append@D@?$basic_string@DU?$char_traits@D@std@@V?$allocator@D@2@@std@@QAEAAV01@DD@Z ; std::basic_string<char,std::char_traits<char>,std::allocator<char> >::append<char>
PUBLIC	??$_Iter_cat@D@std@@YA?AU_Int_iterator_tag@0@ABD@Z ; std::_Iter_cat<char>
PUBLIC	??$_Append@D@?$basic_string@DU?$char_traits@D@std@@V?$allocator@D@2@@std@@QAEAAV01@DDU_Int_iterator_tag@1@@Z ; std::basic_string<char,std::char_traits<char>,std::allocator<char> >::_Append<char>
; Listing generated by Microsoft (R) Optimizing Compiler Version 13.10.3077 

	TITLE	.\Envelop.cpp
	.386P
include listing.inc
if @Version gt 510
.model FLAT
else
;	COMDAT ??_C@_01EPMOAMKG@$?$AA@
CONST	SEGMENT DWORD USE32 PUBLIC 'CONST'
CONST	ENDS
;	COMDAT ??_C@_01FGNFDNOH@?$CF?$AA@
CONST	SEGMENT DWORD USE32 PUBLIC 'CONST'
CONST	ENDS
;	COMDAT ??_C@_01JOAMLHOP@?9?$AA@
CONST	SEGMENT DWORD USE32 PUBLIC 'CONST'
CONST	ENDS
;	COMDAT ??_C@_01GBGANLPD@0?$AA@
CONST	SEGMENT DWORD USE32 PUBLIC 'CONST'
CONST	ENDS
;	COMDAT ??_C@_01HIHLOKLC@1?$AA@
CONST	SEGMENT DWORD USE32 PUBLIC 'CONST'
CONST	ENDS
;	COMDAT ??_C@_01FDFGLJHB@2?$AA@
CONST	SEGMENT DWORD USE32 PUBLIC 'CONST'
CONST	ENDS
;	COMDAT ??_C@_01EKENIIDA@3?$AA@
CONST	SEGMENT DWORD USE32 PUBLIC 'CONST'
CONST	ENDS
;	COMDAT ??_C@_01FAMBOPH@4?$AA@
CONST	SEGMENT DWORD USE32 PUBLIC 'CONST'
CONST	ENDS
;	COMDAT ??_C@_01BMBHCPLG@5?$AA@
CONST	SEGMENT DWORD USE32 PUBLIC 'CONST'
CONST	ENDS
;	COMDAT ??_C@_01DHDKHMHF@6?$AA@
CONST	SEGMENT DWORD USE32 PUBLIC 'CONST'
CONST	ENDS
;	COMDAT ??_C@_01COCBENDE@7?$AA@
CONST	SEGMENT DWORD USE32 PUBLIC 'CONST'
CONST	ENDS
;	COMDAT ??_C@_01KJLJFBPL@8?$AA@
CONST	SEGMENT DWORD USE32 PUBLIC 'CONST'
CONST	ENDS
;	COMDAT ??_C@_01LAKCGALK@9?$AA@
CONST	SEGMENT DWORD USE32 PUBLIC 'CONST'
CONST	ENDS
;	COMDAT ??_C@_01HCONENDN@?$HL?$AA@
CONST	SEGMENT DWORD USE32 PUBLIC 'CONST'
CONST	ENDS
;	COMDAT ??_C@_01ODHLEDKK@?$CI?$AA@
CONST	SEGMENT DWORD USE32 PUBLIC 'CONST'
CONST	ENDS
;	COMDAT ??_C@_01CKDDGHAB@D?$AA@
CONST	SEGMENT DWORD USE32 PUBLIC 'CONST'
CONST	ENDS
;	COMDAT ??_C@_02LNOALEEM@?$IC?$IE?$AA@
CONST	SEGMENT DWORD USE32 PUBLIC 'CONST'
CONST	ENDS
;	COMDAT ??_C@_02KMNPNBGH@?$ICc?$AA@
CONST	SEGMENT DWORD USE32 PUBLIC 'CONST'
CONST	ENDS
;	COMDAT ??_C@_01DNKMNLPK@?$HM?$AA@
CONST	SEGMENT DWORD USE32 PUBLIC 'CONST'
CONST	ENDS
;	COMDAT ??_C@_02LHICFOHP@?$IBb?$AA@
CONST	SEGMENT DWORD USE32 PUBLIC 'CONST'
CONST	ENDS
;	COMDAT ??_C@_01HHGOMJKL@l?$AA@
CONST	SEGMENT DWORD USE32 PUBLIC 'CONST'
CONST	ENDS
;	COMDAT ??_C@_01OCOKONAJ@L?$AA@
CONST	SEGMENT DWORD USE32 PUBLIC 'CONST'
CONST	ENDS
;	COMDAT ??_C@_02HFDJDOEE@?$IC?$IM?$AA@
CONST	SEGMENT DWORD USE32 PUBLIC 'CONST'
CONST	ENDS
;	COMDAT ??_C@_02GEAGFLGP@?$ICk?$AA@
CONST	SEGMENT DWORD USE32 PUBLIC 'CONST'
CONST	ENDS
;	COMDAT ??_C@_01KDCPPGHE@r?$AA@
CONST	SEGMENT DWORD USE32 PUBLIC 'CONST'
CONST	ENDS
;	COMDAT ??_C@_01DGKLNCNG@R?$AA@
CONST	SEGMENT DWORD USE32 PUBLIC 'CONST'
CONST	ENDS
;	COMDAT ??_C@_02KBHIABJL@?$IC?$JC?$AA@
CONST	SEGMENT DWORD USE32 PUBLIC 'CONST'
CONST	ENDS
;	COMDAT ??_C@_02NECLKBLE@?$ICq?$AA@
CONST	SEGMENT DWORD USE32 PUBLIC 'CONST'
CONST	ENDS
;	COMDAT ??_C@_02BADABIFP@?$IB?$EA?$AA@
CONST	SEGMENT DWORD USE32 PUBLIC 'CONST'
CONST	ENDS
;	COMDAT ??_C@_02DLBNELJM@?$IBC?$AA@
CONST	SEGMENT DWORD USE32 PUBLIC 'CONST'
CONST	ENDS
;	COMDAT ??_C@_02JCLCJBO@?$IBA?$AA@
CONST	SEGMENT DWORD USE32 PUBLIC 'CONST'
CONST	ENDS
;	COMDAT ??_C@_01IHBHIGKO@?0?$AA@
CONST	SEGMENT DWORD USE32 PUBLIC 'CONST'
CONST	ENDS
;	COMDAT ??_C@_1DG@HJBDEDMK@0?$KI0?s0?Y0?m0?$PM0?W0o?$AA?9?$AA6?$AA4?$PP?$FO?$AA1?$AA2?$AA70n?$HL?DV?r0gc?$AH?$FL?$JK@
CONST	SEGMENT DWORD USE32 PUBLIC 'CONST'
CONST	ENDS
;	COMDAT ??_C@_1CO@PEJKHAOH@?$HN?$KNc?$ABfB?$JF?$JD0o?$AA0?$PP?$FO?$AA2?$AA5?$AA50n?$HL?DV?r0gc?$AH?$FL?$JK0W0fN?$AL0U@
CONST	SEGMENT DWORD USE32 PUBLIC 'CONST'
CONST	ENDS
;	COMDAT ??_C@_1DK@DEFPEACM@0?k0?$PM0?WOM?$HPn0?$JCc?$AH?$FL?$JK0g0M0?$IL?$HL?DV?r?$AA?$CI?$AA6?$AA4?$AAB?$AAy?$AAt?$AAe@
CONST	SEGMENT DWORD USE32 PUBLIC 'CONST'
CONST	ENDS
;	COMDAT ??_C@_1EG@GLCJJBKK@0?j0?j0?$PM0?$LJfB0n0?k0?$PM0?WOM?$HPn0?$JCc?$AH?$FL?$JK0g0M0?$IL?$HL?DV?r?$AA?$CI@
CONST	SEGMENT DWORD USE32 PUBLIC 'CONST'
CONST	ENDS
;	COMDAT ??_C@_1DE@EKNGEJDF@0?$KI0?s0?Y0?m0?$PM0?W0n?$FL?$JK?$HP?$KJ?$JFw0L?$AA2?$AA5?$AA5?$AAB?$AAy?$AAt?$AAe0?$JC?$IN?$IK@
CONST	SEGMENT DWORD USE32 PUBLIC 'CONST'
CONST	ENDS
;	COMDAT ??_C@_1EC@CJDKPDPH@0?j0?j0?$PM0?$LJfB0n0?k0?$PM0?W0?$NN0?$KE0?s0?H0L0B0?$IK0?$HO0?$FL0?$JD0?$AC@
CONST	SEGMENT DWORD USE32 PUBLIC 'CONST'
CONST	ENDS
;	COMDAT ??_C@_1EG@GPCAGCPJ@0?j0?j0?$PM0?$LJfB0n0?k0?$PM0?WOM?$HPn0?$JCc?$AH?$FL?$JK0g0M0?$IL?$HL?DV?r?$AA?$CI@
CONST	SEGMENT DWORD USE32 PUBLIC 'CONST'
CONST	ENDS
;	COMDAT ??_C@_1DG@MBJMNLON@0?k0?$PM0?W0?$NN0?$KE0?s0?H0L0B0?$IK0?$HO0?$FL0?$JD0?$ACg?$AA_?$IM0nP$0?$JC0?k@
CONST	SEGMENT DWORD USE32 PUBLIC 'CONST'
CONST	ENDS
;	COMDAT ??_C@_1DK@DAFGLDHP@0?k0?$PM0?WOM?$HPn0?$JCc?$AH?$FL?$JK0g0M0?$IL?$HL?DV?r?$AA?$CI?$AA6?$AA3?$AAB?$AAy?$AAt?$AAe@
CONST	SEGMENT DWORD USE32 PUBLIC 'CONST'
CONST	ENDS
;	COMDAT ??_C@_1DE@GKIDLCPB@?$AAL0?$LD0?$NO0?s0?I0g0?Q0?$LP0?$PM0?s?$FL?$JK?$HP?$KJ0?$JC?$HNB0?$IP0?$IL0S0h0o0g@
CONST	SEGMENT DWORD USE32 PUBLIC 'CONST'
CONST	ENDS
;	COMDAT ??_C@_1DA@MDFJGBBN@?$JF?$ILY?Kp?$LJ0o?$AA?9?$AA6?$AA4?$PP?$FO?$AA1?$AA2?$AA70n?$HL?DV?r0gc?$AH?$FL?$JK0W0fN?$AL@
CONST	SEGMENT DWORD USE32 PUBLIC 'CONST'
CONST	ENDS
;	COMDAT ??_C@_1BK@LGECNABF@0?Q0?i0?a0?$PM0?$LP0L?$IN?$LD0?$IK0?$HO0?$FL0?$JD0?$AC?$AA?$AA@
CONST	SEGMENT DWORD USE32 PUBLIC 'CONST'
CONST	ENDS
;	COMDAT ??_C@_1DA@EKCCNIDJ@?$HNBN?$IGp?$LJ0o?$AA?9?$AA6?$AA4?$PP?$FO?$AA1?$AA2?$AA70n?$HL?DV?r0gc?$AH?$FL?$JK0W0fN?$AL@
CONST	SEGMENT DWORD USE32 PUBLIC 'CONST'
CONST	ENDS
;	COMDAT ??_C@_1CK@GKNDOOMC@?$JFw0U0o?$AA1?$PP?$FO?$AA2?$AA5?$AA50n?$HL?DV?r0gc?$AH?$FL?$JK0W0fN?$AL0U0D0?$AC@
CONST	SEGMENT DWORD USE32 PUBLIC 'CONST'
CONST	ENDS
;	COMDAT ??_C@_08OMOPOOMD@Envelope?$AA@
CONST	SEGMENT DWORD USE32 PUBLIC 'CONST'
CONST	ENDS
text$yc	SEGMENT PARA USE32 PUBLIC 'CODE'
text$yc	ENDS
;	COMDAT _$E1
text$yc	SEGMENT PARA USE32 PUBLIC 'CODE'
text$yc	ENDS
;	COMDAT ??$append@D@?$basic_string@DU?$char_traits@D@std@@V?$allocator@D@2@@std@@QAEAAV01@DD@Z
_TEXT	SEGMENT PARA USE32 PUBLIC 'CODE'
_TEXT	ENDS
;	COMDAT ??$_Iter_cat@D@std@@YA?AU_Int_iterator_tag@0@ABD@Z
_TEXT	SEGMENT PARA USE32 PUBLIC 'CODE'
_TEXT	ENDS
;	COMDAT ??$_Append@D@?$basic_string@DU?$char_traits@D@std@@V?$allocator@D@2@@std@@QAEAAV01@DDU_Int_iterator_tag@1@@Z
_TEXT	SEGMENT PARA USE32 PUBLIC 'CODE'
_TEXT	ENDS
;	COMDAT _$E3
text$yc	SEGMENT PARA USE32 PUBLIC 'CODE'
text$yc	ENDS
;	COMDAT _$E5
text$yc	SEGMENT PARA USE32 PUBLIC 'CODE'
text$yc	ENDS
;	COMDAT ?Command@?1???0Envelop@@QAE@PAVMMLfile@@IQBG@Z@4QBUCommand_Info@@B
CONST	SEGMENT DWORD USE32 PUBLIC 'CONST'
CONST	ENDS
;	COMDAT ??_7Envelop@@6B@
CONST	SEGMENT DWORD USE32 PUBLIC 'CONST'
CONST	ENDS
FLAT	GROUP _DATA, CONST, _BSS
	ASSUME	CS: FLAT, DS: FLAT, SS: FLAT
endif

INCLUDELIB LIBCMT
INCLUDELIB OLDNAMES

PUBLIC	??_C@_01EPMOAMKG@$?$AA@				; `string'
PUBLIC	??_C@_01FGNFDNOH@?$CF?$AA@			; `string'
PUBLIC	??_C@_01JOAMLHOP@?9?$AA@			; `string'
PUBLIC	??_C@_01GBGANLPD@0?$AA@				; `string'
PUBLIC	??_C@_01HIHLOKLC@1?$AA@				; `string'
PUBLIC	??_C@_01FDFGLJHB@2?$AA@				; `string'
PUBLIC	??_C@_01EKENIIDA@3?$AA@				; `string'
PUBLIC	??_C@_01FAMBOPH@4?$AA@				; `string'
PUBLIC	??_C@_01BMBHCPLG@5?$AA@				; `string'
PUBLIC	??_C@_01DHDKHMHF@6?$AA@				; `string'
PUBLIC	??_C@_01COCBENDE@7?$AA@				; `string'
PUBLIC	??_C@_01KJLJFBPL@8?$AA@				; `string'
PUBLIC	??_C@_01LAKCGALK@9?$AA@				; `string'
PUBLIC	??_C@_01HCONENDN@?$HL?$AA@			; `string'
PUBLIC	??_C@_01ODHLEDKK@?$CI?$AA@			; `string'
PUBLIC	??_C@_01CKDDGHAB@D?$AA@				; `string'
PUBLIC	??_C@_02LNOALEEM@?$IC?$IE?$AA@			; `string'
PUBLIC	??_C@_02KMNPNBGH@?$ICc?$AA@			; `string'
PUBLIC	??_C@_01DNKMNLPK@?$HM?$AA@			; `string'
PUBLIC	??_C@_02LHICFOHP@?$IBb?$AA@			; `string'
PUBLIC	??_C@_01HHGOMJKL@l?$AA@				; `string'
PUBLIC	??_C@_01OCOKONAJ@L?$AA@				; `string'
PUBLIC	??_C@_02HFDJDOEE@?$IC?$IM?$AA@			; `string'
PUBLIC	??_C@_02GEAGFLGP@?$ICk?$AA@			; `string'
PUBLIC	??_C@_01KDCPPGHE@r?$AA@				; `string'
PUBLIC	??_C@_01DGKLNCNG@R?$AA@				; `string'
PUBLIC	??_C@_02KBHIABJL@?$IC?$JC?$AA@			; `string'
PUBLIC	??_C@_02NECLKBLE@?$ICq?$AA@			; `string'
PUBLIC	??_C@_02BADABIFP@?$IB?$EA?$AA@			; `string'
PUBLIC	??_C@_02DLBNELJM@?$IBC?$AA@			; `string'
PUBLIC	??_C@_02JCLCJBO@?$IBA?$AA@			; `string'
PUBLIC	??_C@_01IHBHIGKO@?0?$AA@			; `string'
PUBLIC	??_C@_1DG@HJBDEDMK@0?$KI0?s0?Y0?m0?$PM0?W0o?$AA?9?$AA6?$AA4?$PP?$FO?$AA1?$AA2?$AA70n?$HL?DV?r0gc?$AH?$FL?$JK@ ; `string'
PUBLIC	??_C@_1CO@PEJKHAOH@?$HN?$KNc?$ABfB?$JF?$JD0o?$AA0?$PP?$FO?$AA2?$AA5?$AA50n?$HL?DV?r0gc?$AH?$FL?$JK0W0fN?$AL0U@ ; `string'
PUBLIC	??_C@_1DK@DEFPEACM@0?k0?$PM0?WOM?$HPn0?$JCc?$AH?$FL?$JK0g0M0?$IL?$HL?DV?r?$AA?$CI?$AA6?$AA4?$AAB?$AAy?$AAt?$AAe@ ; `string'
PUBLIC	??_C@_1EG@GLCJJBKK@0?j0?j0?$PM0?$LJfB0n0?k0?$PM0?WOM?$HPn0?$JCc?$AH?$FL?$JK0g0M0?$IL?$HL?DV?r?$AA?$CI@ ; `string'
PUBLIC	??_C@_1DE@EKNGEJDF@0?$KI0?s0?Y0?m0?$PM0?W0n?$FL?$JK?$HP?$KJ?$JFw0L?$AA2?$AA5?$AA5?$AAB?$AAy?$AAt?$AAe0?$JC?$IN?$IK@ ; `string'
PUBLIC	??_C@_1EC@CJDKPDPH@0?j0?j0?$PM0?$LJfB0n0?k0?$PM0?W0?$NN0?$KE0?s0?H0L0B0?$IK0?$HO0?$FL0?$JD0?$AC@ ; `string'
PUBLIC	??_C@_1EG@GPCAGCPJ@0?j0?j0?$PM0?$LJfB0n0?k0?$PM0?WOM?$HPn0?$JCc?$AH?$FL?$JK0g0M0?$IL?$HL?DV?r?$AA?$CI@ ; `string'
PUBLIC	??_C@_1DG@MBJMNLON@0?k0?$PM0?W0?$NN0?$KE0?s0?H0L0B0?$IK0?$HO0?$FL0?$JD0?$ACg?$AA_?$IM0nP$0?$JC0?k@ ; `string'
PUBLIC	??_C@_1DK@DAFGLDHP@0?k0?$PM0?WOM?$HPn0?$JCc?$AH?$FL?$JK0g0M0?$IL?$HL?DV?r?$AA?$CI?$AA6?$AA3?$AAB?$AAy?$AAt?$AAe@ ; `string'
PUBLIC	??_C@_1DE@GKIDLCPB@?$AAL0?$LD0?$NO0?s0?I0g0?Q0?$LP0?$PM0?s?$FL?$JK?$HP?$KJ0?$JC?$HNB0?$IP0?$IL0S0h0o0g@ ; `string'
PUBLIC	??_C@_1DA@MDFJGBBN@?$JF?$ILY?Kp?$LJ0o?$AA?9?$AA6?$AA4?$PP?$FO?$AA1?$AA2?$AA70n?$HL?DV?r0gc?$AH?$FL?$JK0W0fN?$AL@ ; `string'
PUBLIC	??_C@_1BK@LGECNABF@0?Q0?i0?a0?$PM0?$LP0L?$IN?$LD0?$IK0?$HO0?$FL0?$JD0?$AC?$AA?$AA@ ; `string'
PUBLIC	??_C@_1DA@EKCCNIDJ@?$HNBN?$IGp?$LJ0o?$AA?9?$AA6?$AA4?$PP?$FO?$AA1?$AA2?$AA70n?$HL?DV?r0gc?$AH?$FL?$JK0W0fN?$AL@ ; `string'
PUBLIC	??_C@_1CK@GKNDOOMC@?$JFw0U0o?$AA1?$PP?$FO?$AA2?$AA5?$AA50n?$HL?DV?r0gc?$AH?$FL?$JK0W0fN?$AL0U0D0?$AC@ ; `string'
PUBLIC	??_C@_08OMOPOOMD@Envelope?$AA@			; `string'
PUBLIC	?getAsm@Envelop@@UAEXPAVMusicFile@@@Z		; Envelop::getAsm
PUBLIC	??_7Envelop@@6B@				; Envelop::`vftable'
;	COMDAT ??_C@_01EPMOAMKG@$?$AA@
CONST	SEGMENT
??_C@_01EPMOAMKG@$?$AA@ DB '$', 00H			; `string'
CONST	ENDS
;	COMDAT ??_C@_01FGNFDNOH@?$CF?$AA@
CONST	SEGMENT
??_C@_01FGNFDNOH@?$CF?$AA@ DB '%', 00H			; `string'
CONST	ENDS
;	COMDAT ??_C@_01JOAMLHOP@?9?$AA@
CONST	SEGMENT
??_C@_01JOAMLHOP@?9?$AA@ DB '-', 00H			; `string'
CONST	ENDS
;	COMDAT ??_C@_01GBGANLPD@0?$AA@
CONST	SEGMENT
??_C@_01GBGANLPD@0?$AA@ DB '0', 00H			; `string'
CONST	ENDS
;	COMDAT ??_C@_01HIHLOKLC@1?$AA@
CONST	SEGMENT
??_C@_01HIHLOKLC@1?$AA@ DB '1', 00H			; `string'
CONST	ENDS
;	COMDAT ??_C@_01FDFGLJHB@2?$AA@
CONST	SEGMENT
??_C@_01FDFGLJHB@2?$AA@ DB '2', 00H			; `string'
CONST	ENDS
;	COMDAT ??_C@_01EKENIIDA@3?$AA@
CONST	SEGMENT
??_C@_01EKENIIDA@3?$AA@ DB '3', 00H			; `string'
CONST	ENDS
;	COMDAT ??_C@_01FAMBOPH@4?$AA@
CONST	SEGMENT
??_C@_01FAMBOPH@4?$AA@ DB '4', 00H			; `string'
CONST	ENDS
;	COMDAT ??_C@_01BMBHCPLG@5?$AA@
CONST	SEGMENT
??_C@_01BMBHCPLG@5?$AA@ DB '5', 00H			; `string'
CONST	ENDS
;	COMDAT ??_C@_01DHDKHMHF@6?$AA@
CONST	SEGMENT
??_C@_01DHDKHMHF@6?$AA@ DB '6', 00H			; `string'
CONST	ENDS
;	COMDAT ??_C@_01COCBENDE@7?$AA@
CONST	SEGMENT
??_C@_01COCBENDE@7?$AA@ DB '7', 00H			; `string'
CONST	ENDS
;	COMDAT ??_C@_01KJLJFBPL@8?$AA@
CONST	SEGMENT
??_C@_01KJLJFBPL@8?$AA@ DB '8', 00H			; `string'
CONST	ENDS
;	COMDAT ??_C@_01LAKCGALK@9?$AA@
CONST	SEGMENT
??_C@_01LAKCGALK@9?$AA@ DB '9', 00H			; `string'
CONST	ENDS
;	COMDAT ??_C@_01HCONENDN@?$HL?$AA@
CONST	SEGMENT
??_C@_01HCONENDN@?$HL?$AA@ DB '{', 00H			; `string'
CONST	ENDS
;	COMDAT ??_C@_01ODHLEDKK@?$CI?$AA@
CONST	SEGMENT
??_C@_01ODHLEDKK@?$CI?$AA@ DB '(', 00H			; `string'
CONST	ENDS
;	COMDAT ??_C@_01CKDDGHAB@D?$AA@
CONST	SEGMENT
??_C@_01CKDDGHAB@D?$AA@ DB 'D', 00H			; `string'
CONST	ENDS
;	COMDAT ??_C@_02LNOALEEM@?$IC?$IE?$AA@
CONST	SEGMENT
??_C@_02LNOALEEM@?$IC?$IE?$AA@ DB 082H, 084H, 00H	; `string'
CONST	ENDS
;	COMDAT ??_C@_02KMNPNBGH@?$ICc?$AA@
CONST	SEGMENT
??_C@_02KMNPNBGH@?$ICc?$AA@ DB 082H, 'c', 00H		; `string'
CONST	ENDS
;	COMDAT ??_C@_01DNKMNLPK@?$HM?$AA@
CONST	SEGMENT
??_C@_01DNKMNLPK@?$HM?$AA@ DB '|', 00H			; `string'
CONST	ENDS
;	COMDAT ??_C@_02LHICFOHP@?$IBb?$AA@
CONST	SEGMENT
??_C@_02LHICFOHP@?$IBb?$AA@ DB 081H, 'b', 00H		; `string'
CONST	ENDS
;	COMDAT ??_C@_01HHGOMJKL@l?$AA@
CONST	SEGMENT
??_C@_01HHGOMJKL@l?$AA@ DB 'l', 00H			; `string'
CONST	ENDS
;	COMDAT ??_C@_01OCOKONAJ@L?$AA@
CONST	SEGMENT
??_C@_01OCOKONAJ@L?$AA@ DB 'L', 00H			; `string'
CONST	ENDS
;	COMDAT ??_C@_02HFDJDOEE@?$IC?$IM?$AA@
CONST	SEGMENT
??_C@_02HFDJDOEE@?$IC?$IM?$AA@ DB 082H, 08cH, 00H	; `string'
CONST	ENDS
;	COMDAT ??_C@_02GEAGFLGP@?$ICk?$AA@
CONST	SEGMENT
??_C@_02GEAGFLGP@?$ICk?$AA@ DB 082H, 'k', 00H		; `string'
CONST	ENDS
;	COMDAT ??_C@_01KDCPPGHE@r?$AA@
CONST	SEGMENT
??_C@_01KDCPPGHE@r?$AA@ DB 'r', 00H			; `string'
CONST	ENDS
;	COMDAT ??_C@_01DGKLNCNG@R?$AA@
CONST	SEGMENT
??_C@_01DGKLNCNG@R?$AA@ DB 'R', 00H			; `string'
CONST	ENDS
;	COMDAT ??_C@_02KBHIABJL@?$IC?$JC?$AA@
CONST	SEGMENT
??_C@_02KBHIABJL@?$IC?$JC?$AA@ DB 082H, 092H, 00H	; `string'
CONST	ENDS
;	COMDAT ??_C@_02NECLKBLE@?$ICq?$AA@
CONST	SEGMENT
??_C@_02NECLKBLE@?$ICq?$AA@ DB 082H, 'q', 00H		; `string'
CONST	ENDS
;	COMDAT ??_C@_02BADABIFP@?$IB?$EA?$AA@
CONST	SEGMENT
??_C@_02BADABIFP@?$IB?$EA?$AA@ DB 081H, '@', 00H	; `string'
CONST	ENDS
;	COMDAT ??_C@_02DLBNELJM@?$IBC?$AA@
CONST	SEGMENT
??_C@_02DLBNELJM@?$IBC?$AA@ DB 081H, 'C', 00H		; `string'
CONST	ENDS
;	COMDAT ??_C@_02JCLCJBO@?$IBA?$AA@
CONST	SEGMENT
??_C@_02JCLCJBO@?$IBA?$AA@ DB 081H, 'A', 00H		; `string'
CONST	ENDS
;	COMDAT ??_C@_01IHBHIGKO@?0?$AA@
CONST	SEGMENT
??_C@_01IHBHIGKO@?0?$AA@ DB ',', 00H			; `string'
CONST	ENDS
;	COMDAT ?Command@?1???0Envelop@@QAE@PAVMMLfile@@IQBG@Z@4QBUCommand_Info@@B
CONST	SEGMENT
?Command@?1???0Envelop@@QAE@PAVMMLfile@@IQBG@Z@4QBUCommand_Info@@B DD FLAT:??_C@_01EPMOAMKG@$?$AA@ ; `Envelop::Envelop'::`2'::Command
	DD	00H
	DD	FLAT:??_C@_01FGNFDNOH@?$CF?$AA@
	DD	00H
	DD	FLAT:??_C@_01JOAMLHOP@?9?$AA@
	DD	00H
	DD	FLAT:??_C@_01GBGANLPD@0?$AA@
	DD	00H
	DD	FLAT:??_C@_01HIHLOKLC@1?$AA@
	DD	00H
	DD	FLAT:??_C@_01FDFGLJHB@2?$AA@
	DD	00H
	DD	FLAT:??_C@_01EKENIIDA@3?$AA@
	DD	00H
	DD	FLAT:??_C@_01FAMBOPH@4?$AA@
	DD	00H
	DD	FLAT:??_C@_01BMBHCPLG@5?$AA@
	DD	00H
	DD	FLAT:??_C@_01DHDKHMHF@6?$AA@
	DD	00H
	DD	FLAT:??_C@_01COCBENDE@7?$AA@
	DD	00H
	DD	FLAT:??_C@_01KJLJFBPL@8?$AA@
	DD	00H
	DD	FLAT:??_C@_01LAKCGALK@9?$AA@
	DD	00H
	DD	FLAT:??_C@_01HCONENDN@?$HL?$AA@
	DD	01H
	DD	FLAT:??_C@_01ODHLEDKK@?$CI?$AA@
	DD	01H
	DD	FLAT:??_C@_01LPLHEDKD@d?$AA@
	DD	02H
	DD	FLAT:??_C@_01CKDDGHAB@D?$AA@
	DD	02H
	DD	FLAT:??_C@_02LNOALEEM@?$IC?$IE?$AA@
	DD	02H
	DD	FLAT:??_C@_02KMNPNBGH@?$ICc?$AA@
	DD	02H
	DD	FLAT:??_C@_01DNKMNLPK@?$HM?$AA@
	DD	03H
	DD	FLAT:??_C@_02LHICFOHP@?$IBb?$AA@
	DD	03H
	DD	FLAT:??_C@_01HHGOMJKL@l?$AA@
	DD	03H
	DD	FLAT:??_C@_01OCOKONAJ@L?$AA@
	DD	03H
	DD	FLAT:??_C@_02HFDJDOEE@?$IC?$IM?$AA@
	DD	03H
	DD	FLAT:??_C@_02GEAGFLGP@?$ICk?$AA@
	DD	03H
	DD	FLAT:??_C@_01KDCPPGHE@r?$AA@
	DD	04H
	DD	FLAT:??_C@_01DGKLNCNG@R?$AA@
	DD	04H
	DD	FLAT:??_C@_02KBHIABJL@?$IC?$JC?$AA@
	DD	04H
	DD	FLAT:??_C@_02NECLKBLE@?$ICq?$AA@
	DD	04H
	DD	FLAT:??_C@_02BADABIFP@?$IB?$EA?$AA@
	DD	05H
	DD	FLAT:??_C@_02DLBNELJM@?$IBC?$AA@
	DD	05H
	DD	FLAT:??_C@_02JCLCJBO@?$IBA?$AA@
	DD	05H
	DD	FLAT:??_C@_01IHBHIGKO@?0?$AA@
	DD	05H
CONST	ENDS
;	COMDAT ??_C@_1DG@HJBDEDMK@0?$KI0?s0?Y0?m0?$PM0?W0o?$AA?9?$AA6?$AA4?$PP?$FO?$AA1?$AA2?$AA70n?$HL?DV?r0gc?$AH?$FL?$JK@
CONST	SEGMENT
??_C@_1DG@HJBDEDMK@0?$KI0?s0?Y0?m0?$PM0?W0o?$AA?9?$AA6?$AA4?$PP?$FO?$AA1?$AA2?$AA70n?$HL?DV?r0gc?$AH?$FL?$JK@ DB 0a8H
	DB	'0', 0f3H, '0', 0d9H, '0', 0edH, '0', 0fcH, '0', 0d7H, '0o0-', 00H
	DB	'6', 00H, '4', 00H, '^', 0ffH, '1', 00H, '2', 00H, '7', 00H, 'n'
	DB	'0', 0c4H, '{', 0f2H, 'Vg0', 07H, 'c', 09aH, '[W0f0', 0bH, 'NU'
	DB	'0D0', 02H, '0', 00H, 00H			; `string'
CONST	ENDS
;	COMDAT ??_C@_1CO@PEJKHAOH@?$HN?$KNc?$ABfB?$JF?$JD0o?$AA0?$PP?$FO?$AA2?$AA5?$AA50n?$HL?DV?r0gc?$AH?$FL?$JK0W0fN?$AL0U@
CONST	SEGMENT
??_C@_1CO@PEJKHAOH@?$HN?$KNc?$ABfB?$JF?$JD0o?$AA0?$PP?$FO?$AA2?$AA5?$AA50n?$HL?DV?r0gc?$AH?$FL?$JK0W0fN?$AL0U@ DB 0adH
	DB	'}', 01H, 'cBf', 093H, 095H, 'o00', 00H, '^', 0ffH, '2', 00H, '5'
	DB	00H, '5', 00H, 'n0', 0c4H, '{', 0f2H, 'Vg0', 07H, 'c', 09aH, '['
	DB	'W0f0', 0bH, 'NU0D0', 02H, '0', 00H, 00H	; `string'
CONST	ENDS
;	COMDAT ??_C@_1DK@DEFPEACM@0?k0?$PM0?WOM?$HPn0?$JCc?$AH?$FL?$JK0g0M0?$IL?$HL?DV?r?$AA?$CI?$AA6?$AA4?$AAB?$AAy?$AAt?$AAe@
CONST	SEGMENT
??_C@_1DK@DEFPEACM@0?k0?$PM0?WOM?$HPn0?$JCc?$AH?$FL?$JK0g0M0?$IL?$HL?DV?r?$AA?$CI?$AA6?$AA4?$AAB?$AAy?$AAt?$AAe@ DB 0ebH
	DB	'0', 0fcH, '0', 0d7H, '0MOn', 07fH, 092H, '0', 07H, 'c', 09aH, '['
	DB	'g0M0', 08bH, '0', 0c4H, '{', 0f2H, 'V(', 00H, '6', 00H, '4', 00H
	DB	'B', 00H, 'y', 00H, 't', 00H, 'e', 00H, ')', 00H, 092H, '0', 085H
	DB	08dH, 'H0~0W0_0', 02H, '0', 00H, 00H		; `string'
CONST	ENDS
;	COMDAT ??_C@_1EG@GLCJJBKK@0?j0?j0?$PM0?$LJfB0n0?k0?$PM0?WOM?$HPn0?$JCc?$AH?$FL?$JK0g0M0?$IL?$HL?DV?r?$AA?$CI@
CONST	SEGMENT
??_C@_1EG@GLCJJBKK@0?j0?j0?$PM0?$LJfB0n0?k0?$PM0?WOM?$HPn0?$JCc?$AH?$FL?$JK0g0M0?$IL?$HL?DV?r?$AA?$CI@ DB 0eaH
	DB	'0', 0eaH, '0', 0fcH, '0', 0b9H, '0Bfn0', 0ebH, '0', 0fcH, '0', 0d7H
	DB	'0MOn', 07fH, 092H, '0', 07H, 'c', 09aH, '[g0M0', 08bH, '0', 0c4H
	DB	'{', 0f2H, 'V(', 00H, '6', 00H, '4', 00H, 'B', 00H, 'y', 00H, 't'
	DB	00H, 'e', 00H, ')', 00H, 092H, '0', 085H, 08dH, 'H0~0W0_0', 02H
	DB	'0', 00H, 00H				; `string'
CONST	ENDS
;	COMDAT ??_C@_1DE@EKNGEJDF@0?$KI0?s0?Y0?m0?$PM0?W0n?$FL?$JK?$HP?$KJ?$JFw0L?$AA2?$AA5?$AA5?$AAB?$AAy?$AAt?$AAe0?$JC?$IN?$IK@
CONST	SEGMENT
??_C@_1DE@EKNGEJDF@0?$KI0?s0?Y0?m0?$PM0?W0n?$FL?$JK?$HP?$KJ?$JFw0L?$AA2?$AA5?$AA5?$AAB?$AAy?$AAt?$AAe0?$JC?$IN?$IK@ DB 0a8H
	DB	'0', 0f3H, '0', 0d9H, '0', 0edH, '0', 0fcH, '0', 0d7H, '0n0', 09aH
	DB	'[', 0a9H, 07fH, 'w', 095H, 'L02', 00H, '5', 00H, '5', 00H, 'B'
	DB	00H, 'y', 00H, 't', 00H, 'e', 00H, 092H, '0', 08aH, 08dH, 'H0~'
	DB	'0W0_0', 02H, '0', 00H, 00H			; `string'
CONST	ENDS
;	COMDAT ??_C@_1EC@CJDKPDPH@0?j0?j0?$PM0?$LJfB0n0?k0?$PM0?W0?$NN0?$KE0?s0?H0L0B0?$IK0?$HO0?$FL0?$JD0?$AC@
CONST	SEGMENT
??_C@_1EC@CJDKPDPH@0?j0?j0?$PM0?$LJfB0n0?k0?$PM0?W0?$NN0?$KE0?s0?H0L0B0?$IK0?$HO0?$FL0?$JD0?$AC@ DB 0eaH
	DB	'0', 0eaH, '0', 0fcH, '0', 0b9H, '0Bfn0', 0ebH, '0', 0fcH, '0', 0d7H
	DB	'0', 0ddH, '0', 0a4H, '0', 0f3H, '0', 0c8H, '0L0B0', 08aH, '0~'
	DB	'0[0', 093H, '0', 02H, '0', 00H, 'g', 08cH, '_n0$P', 092H, '0', 0ebH
	DB	'0', 0fcH, '0', 0d7H, '0W0~0Y0', 02H, '0', 00H, 00H ; `string'
CONST	ENDS
;	COMDAT ??_C@_1EG@GPCAGCPJ@0?j0?j0?$PM0?$LJfB0n0?k0?$PM0?WOM?$HPn0?$JCc?$AH?$FL?$JK0g0M0?$IL?$HL?DV?r?$AA?$CI@
CONST	SEGMENT
??_C@_1EG@GPCAGCPJ@0?j0?j0?$PM0?$LJfB0n0?k0?$PM0?WOM?$HPn0?$JCc?$AH?$FL?$JK0g0M0?$IL?$HL?DV?r?$AA?$CI@ DB 0eaH
	DB	'0', 0eaH, '0', 0fcH, '0', 0b9H, '0Bfn0', 0ebH, '0', 0fcH, '0', 0d7H
	DB	'0MOn', 07fH, 092H, '0', 07H, 'c', 09aH, '[g0M0', 08bH, '0', 0c4H
	DB	'{', 0f2H, 'V(', 00H, '6', 00H, '3', 00H, 'B', 00H, 'y', 00H, 't'
	DB	00H, 'e', 00H, ')', 00H, 092H, '0', 085H, 08dH, 'H0~0W0_0', 02H
	DB	'0', 00H, 00H				; `string'
CONST	ENDS
;	COMDAT ??_C@_1DG@MBJMNLON@0?k0?$PM0?W0?$NN0?$KE0?s0?H0L0B0?$IK0?$HO0?$FL0?$JD0?$ACg?$AA_?$IM0nP$0?$JC0?k@
CONST	SEGMENT
??_C@_1DG@MBJMNLON@0?k0?$PM0?W0?$NN0?$KE0?s0?H0L0B0?$IK0?$HO0?$FL0?$JD0?$ACg?$AA_?$IM0nP$0?$JC0?k@ DB 0ebH
	DB	'0', 0fcH, '0', 0d7H, '0', 0ddH, '0', 0a4H, '0', 0f3H, '0', 0c8H
	DB	'0L0B0', 08aH, '0~0[0', 093H, '0', 02H, '0', 00H, 'g', 08cH, '_'
	DB	'n0$P', 092H, '0', 0ebH, '0', 0fcH, '0', 0d7H, '0W0~0Y0', 02H, '0'
	DB	00H, 00H					; `string'
CONST	ENDS
;	COMDAT ??_C@_1DK@DAFGLDHP@0?k0?$PM0?WOM?$HPn0?$JCc?$AH?$FL?$JK0g0M0?$IL?$HL?DV?r?$AA?$CI?$AA6?$AA3?$AAB?$AAy?$AAt?$AAe@
CONST	SEGMENT
??_C@_1DK@DAFGLDHP@0?k0?$PM0?WOM?$HPn0?$JCc?$AH?$FL?$JK0g0M0?$IL?$HL?DV?r?$AA?$CI?$AA6?$AA3?$AAB?$AAy?$AAt?$AAe@ DB 0ebH
	DB	'0', 0fcH, '0', 0d7H, '0MOn', 07fH, 092H, '0', 07H, 'c', 09aH, '['
	DB	'g0M0', 08bH, '0', 0c4H, '{', 0f2H, 'V(', 00H, '6', 00H, '3', 00H
	DB	'B', 00H, 'y', 00H, 't', 00H, 'e', 00H, ')', 00H, 092H, '0', 085H
	DB	08dH, 'H0~0W0_0', 02H, '0', 00H, 00H		; `string'
CONST	ENDS
;	COMDAT ??_C@_1DE@GKIDLCPB@?$AAL0?$LD0?$NO0?s0?I0g0?Q0?$LP0?$PM0?s?$FL?$JK?$HP?$KJ0?$JC?$HNB0?$IP0?$IL0S0h0o0g@
CONST	SEGMENT
??_C@_1DE@GKIDLCPB@?$AAL0?$LD0?$NO0?s0?I0g0?Q0?$LP0?$PM0?s?$FL?$JK?$HP?$KJ0?$JC?$HNB0?$IP0?$IL0S0h0o0g@ DB 'L'
	DB	00H, 0b3H, '0', 0deH, '0', 0f3H, '0', 0c9H, '0g0', 0d1H, '0', 0bfH
	DB	'0', 0fcH, '0', 0f3H, '0', 09aH, '[', 0a9H, 07fH, 092H, '0B}', 08fH
	DB	'0', 08bH, '0S0h0o0g0M0~0[0', 093H, '0', 02H, '0', 00H, 00H ; `string'
CONST	ENDS
;	COMDAT ??_C@_1DA@MDFJGBBN@?$JF?$ILY?Kp?$LJ0o?$AA?9?$AA6?$AA4?$PP?$FO?$AA1?$AA2?$AA70n?$HL?DV?r0gc?$AH?$FL?$JK0W0fN?$AL@
CONST	SEGMENT
??_C@_1DA@MDFJGBBN@?$JF?$ILY?Kp?$LJ0o?$AA?9?$AA6?$AA4?$PP?$FO?$AA1?$AA2?$AA70n?$HL?DV?r0gc?$AH?$FL?$JK0W0fN?$AL@ DB 08bH
	DB	095H, 0cbH, 'Y', 0b9H, 'po0-', 00H, '6', 00H, '4', 00H, '^', 0ffH
	DB	'1', 00H, '2', 00H, '7', 00H, 'n0', 0c4H, '{', 0f2H, 'Vg0', 07H
	DB	'c', 09aH, '[W0f0', 0bH, 'NU0D0', 02H, '0', 00H, 00H ; `string'
CONST	ENDS
;	COMDAT ??_C@_1BK@LGECNABF@0?Q0?i0?a0?$PM0?$LP0L?$IN?$LD0?$IK0?$HO0?$FL0?$JD0?$AC?$AA?$AA@
CONST	SEGMENT
??_C@_1BK@LGECNABF@0?Q0?i0?a0?$PM0?$LP0L?$IN?$LD0?$IK0?$HO0?$FL0?$JD0?$AC?$AA?$AA@ DB 0d1H
	DB	'0', 0e9H, '0', 0e1H, '0', 0fcH, '0', 0bfH, '0L0', 0b3H, 08dH, 08aH
	DB	'0~0[0', 093H, '0', 02H, '0', 00H, 00H	; `string'
CONST	ENDS
;	COMDAT ??_C@_1DA@EKCCNIDJ@?$HNBN?$IGp?$LJ0o?$AA?9?$AA6?$AA4?$PP?$FO?$AA1?$AA2?$AA70n?$HL?DV?r0gc?$AH?$FL?$JK0W0fN?$AL@
CONST	SEGMENT
??_C@_1DA@EKCCNIDJ@?$HNBN?$IGp?$LJ0o?$AA?9?$AA6?$AA4?$PP?$FO?$AA1?$AA2?$AA70n?$HL?DV?r0gc?$AH?$FL?$JK0W0fN?$AL@ DB 'B'
	DB	'}', 086H, 'N', 0b9H, 'po0-', 00H, '6', 00H, '4', 00H, '^', 0ffH
	DB	'1', 00H, '2', 00H, '7', 00H, 'n0', 0c4H, '{', 0f2H, 'Vg0', 07H
	DB	'c', 09aH, '[W0f0', 0bH, 'NU0D0', 02H, '0', 00H, 00H ; `string'
CONST	ENDS
;	COMDAT ??_C@_1CK@GKNDOOMC@?$JFw0U0o?$AA1?$PP?$FO?$AA2?$AA5?$AA50n?$HL?DV?r0gc?$AH?$FL?$JK0W0fN?$AL0U0D0?$AC@
CONST	SEGMENT
??_C@_1CK@GKNDOOMC@?$JFw0U0o?$AA1?$PP?$FO?$AA2?$AA5?$AA50n?$HL?DV?r0gc?$AH?$FL?$JK0W0fN?$AL0U0D0?$AC@ DB 'w'
	DB	095H, 'U0o01', 00H, '^', 0ffH, '2', 00H, '5', 00H, '5', 00H, 'n'
	DB	'0', 0c4H, '{', 0f2H, 'Vg0', 07H, 'c', 09aH, '[W0f0', 0bH, 'NU'
	DB	'0D0', 02H, '0', 00H, 00H			; `string'
CONST	ENDS
;	COMDAT ??_C@_08OMOPOOMD@Envelope?$AA@
CONST	SEGMENT
??_C@_08OMOPOOMD@Envelope?$AA@ DB 'Envelope', 00H	; `string'
CONST	ENDS
;	COMDAT ??_7Envelop@@6B@
CONST	SEGMENT
??_7Envelop@@6B@ DD FLAT:?getCode@MusicItem@@UAEXPAV?$basic_string@DU?$char_traits@D@std@@V?$allocator@D@2@@std@@@Z ; Envelop::`vftable'
	DD	FLAT:?setCode@MusicItem@@UAEXPAV?$basic_string@DU?$char_traits@D@std@@V?$allocator@D@2@@std@@@Z
	DD	FLAT:?getAsm@Envelop@@UAEXPAVMusicFile@@@Z
; Function compile flags: /Ogsy
; File c:\program files (x86)\microsoft visual studio .net 2003\vc7\include\xutility
;	COMDAT ??$_Iter_cat@D@std@@YA?AU_Int_iterator_tag@0@ABD@Z
_TEXT	SEGMENT
__Cat$ = -1						; size = 1
??$_Iter_cat@D@std@@YA?AU_Int_iterator_tag@0@ABD@Z PROC NEAR ; std::_Iter_cat<char>, COMDAT

; 201  : 	{	// return category from iterator argument

  00000	51		 push	 ecx

; 202  : 	typename iterator_traits<_Iter>::iterator_category _Cat;
; 203  : 	return (_Cat);

  00001	8a 44 24 03	 mov	 al, BYTE PTR __Cat$[esp+4]

; 204  : 	}

  00005	59		 pop	 ecx
  00006	c3		 ret	 0
??$_Iter_cat@D@std@@YA?AU_Int_iterator_tag@0@ABD@Z ENDP	; std::_Iter_cat<char>
; Function compile flags: /Ogsy
; File c:\program files (x86)\microsoft visual studio .net 2003\vc7\include\xstring
;	COMDAT ??$_Append@D@?$basic_string@DU?$char_traits@D@std@@V?$allocator@D@2@@std@@QAEAAV01@DDU_Int_iterator_tag@1@@Z
_TEXT	SEGMENT
__Ch$ = 8						; size = 1
___formal$ = 12						; size = 1
??$_Append@D@?$basic_string@DU?$char_traits@D@std@@V?$allocator@D@2@@std@@QAEAAV01@DDU_Int_iterator_tag@1@@Z PROC NEAR ; std::basic_string<char,std::char_traits<char>,std::allocator<char> >::_Append<char>, COMDAT
; _this$ = ecx
; __Count$ = eax

; 563  : 		{	// append _Count * _Ch
; 564  : 		return (append((size_type)_Count, (_Elem)_Ch));

  00000	ff 74 24 04	 push	 DWORD PTR __Ch$[esp-4]
  00004	0f be c0	 movsx	 eax, al
  00007	50		 push	 eax
  00008	e8 00 00 00 00	 call	 ?append@?$basic_string@DU?$char_traits@D@std@@V?$allocator@D@2@@std@@QAEAAV12@ID@Z ; std::basic_string<char,std::char_traits<char>,std::allocator<char> >::append

; 565  : 		}

  0000d	c2 08 00	 ret	 8
??$_Append@D@?$basic_string@DU?$char_traits@D@std@@V?$allocator@D@2@@std@@QAEAAV01@DDU_Int_iterator_tag@1@@Z ENDP ; std::basic_string<char,std::char_traits<char>,std::allocator<char> >::_Append<char>
; Function compile flags: /Ogsy
_TEXT	ENDS
;	COMDAT ??$append@D@?$basic_string@DU?$char_traits@D@std@@V?$allocator@D@2@@std@@QAEAAV01@DD@Z
_TEXT	SEGMENT
__Last$ = 8						; size = 1
??$append@D@?$basic_string@DU?$char_traits@D@std@@V?$allocator@D@2@@std@@QAEAAV01@DD@Z PROC NEAR ; std::basic_string<char,std::char_traits<char>,std::allocator<char> >::append<char>, COMDAT
; _this$ = ecx
; __First$ = eax

; 557  : 		{	// append [_First, _Last)
; 558  : 		return (_Append(_First, _Last, _Iter_cat(_First)));

  00000	ff 74 24 04	 push	 DWORD PTR __Last$[esp-4]
  00004	0f be c0	 movsx	 eax, al
  00007	50		 push	 eax
  00008	e8 00 00 00 00	 call	 ?append@?$basic_string@DU?$char_traits@D@std@@V?$allocator@D@2@@std@@QAEAAV12@ID@Z ; std::basic_string<char,std::char_traits<char>,std::allocator<char> >::append

; 559  : 		}

  0000d	c2 04 00	 ret	 4
??$append@D@?$basic_string@DU?$char_traits@D@std@@V?$allocator@D@2@@std@@QAEAAV01@DD@Z ENDP ; std::basic_string<char,std::char_traits<char>,std::allocator<char> >::append<char>
_TEXT	ENDS
PUBLIC	?setHold@Envelop@@QAEXH@Z			; Envelop::setHold
; Function compile flags: /Ogsy
; File f:\nes\nsdl\src\nsc\envelop.cpp
_TEXT	SEGMENT
?setHold@Envelop@@QAEXH@Z PROC NEAR			; Envelop::setHold
; _this$ = esi
; _length$ = eax

; 263  : {

  00000	53		 push	 ebx
  00001	8b d8		 mov	 ebx, eax

; 264  : 	while(length>15){

  00003	83 fb 0f	 cmp	 ebx, 15			; 0000000fH
  00006	7e 24		 jle	 SHORT $L24054
  00008	57		 push	 edi
  00009	8d 7b f0	 lea	 edi, DWORD PTR [ebx-16]
  0000c	c1 ef 04	 shr	 edi, 4
  0000f	47		 inc	 edi
  00010	8b c7		 mov	 eax, edi
  00012	f7 d8		 neg	 eax
  00014	c1 e0 04	 shl	 eax, 4
  00017	03 d8		 add	 ebx, eax
$L24053:

; 265  : 		code.append((char)1, (unsigned char)0x8F);

  00019	6a 8f		 push	 -113			; ffffff8fH
  0001b	6a 01		 push	 1
  0001d	8d 4e 14	 lea	 ecx, DWORD PTR [esi+20]
  00020	e8 00 00 00 00	 call	 ?append@?$basic_string@DU?$char_traits@D@std@@V?$allocator@D@2@@std@@QAEAAV12@ID@Z ; std::basic_string<char,std::char_traits<char>,std::allocator<char> >::append

; 266  : 		ptEnvelop++;

  00025	ff 46 4c	 inc	 DWORD PTR [esi+76]
  00028	4f		 dec	 edi
  00029	75 ee		 jne	 SHORT $L24053
  0002b	5f		 pop	 edi
$L24054:

; 267  : 		length -= 16;		//15を書けば、16フレーム維持
; 268  : 	}
; 269  : 	code.append((char)1, (char)((length & 0x0F) | 0x80));

  0002c	81 e3 0f ff ff
	ff		 and	 ebx, -241		; ffffff0fH
  00032	83 cb 80	 or	 ebx, -128		; ffffff80H
  00035	53		 push	 ebx
  00036	6a 01		 push	 1
  00038	8d 4e 14	 lea	 ecx, DWORD PTR [esi+20]
  0003b	e8 00 00 00 00	 call	 ?append@?$basic_string@DU?$char_traits@D@std@@V?$allocator@D@2@@std@@QAEAAV12@ID@Z ; std::basic_string<char,std::char_traits<char>,std::allocator<char> >::append

; 270  : 	ptEnvelop++;

  00040	ff 46 4c	 inc	 DWORD PTR [esi+76]
  00043	5b		 pop	 ebx

; 271  : }

  00044	c3		 ret	 0
?setHold@Envelop@@QAEXH@Z ENDP				; Envelop::setHold
; Function compile flags: /Ogsy
_TEXT	SEGMENT
_MUS$ = 8						; size = 4
?getAsm@Envelop@@UAEXPAVMusicFile@@@Z PROC NEAR		; Envelop::getAsm
; _this$ = ecx

; 371  : {

  00045	56		 push	 esi

; 372  : 	*MUS << MUS->Header.Label.c_str() << "Envelope" << m_id << ":" << endl;

  00046	8b 74 24 08	 mov	 esi, DWORD PTR _MUS$[esp]
  0004a	8d 86 a8 00 00
	00		 lea	 eax, DWORD PTR [esi+168]
  00050	83 78 18 10	 cmp	 DWORD PTR [eax+24], 16	; 00000010H
  00054	57		 push	 edi
  00055	8b f9		 mov	 edi, ecx
  00057	72 05		 jb	 SHORT $L64985
  00059	8b 40 04	 mov	 eax, DWORD PTR [eax+4]
  0005c	eb 03		 jmp	 SHORT $L64986
$L64985:
  0005e	83 c0 04	 add	 eax, 4
$L64986:
  00061	68 00 00 00 00	 push	 OFFSET FLAT:??_C@_01JLIPDDHJ@?3?$AA@
  00066	ff 77 3c	 push	 DWORD PTR [edi+60]
  00069	8d 4e 3c	 lea	 ecx, DWORD PTR [esi+60]
  0006c	68 00 00 00 00	 push	 OFFSET FLAT:??_C@_08OMOPOOMD@Envelope?$AA@
  00071	50		 push	 eax
  00072	8b c6		 mov	 eax, esi
  00074	f7 d8		 neg	 eax
  00076	1b c0		 sbb	 eax, eax
  00078	23 c1		 and	 eax, ecx
  0007a	50		 push	 eax
  0007b	e8 00 00 00 00	 call	 ??$?6U?$char_traits@D@std@@@std@@YAAAV?$basic_ostream@DU?$char_traits@D@std@@@0@AAV10@PBD@Z ; std::operator<<<std::char_traits<char> >
  00080	59		 pop	 ecx
  00081	59		 pop	 ecx
  00082	50		 push	 eax
  00083	e8 00 00 00 00	 call	 ??$?6U?$char_traits@D@std@@@std@@YAAAV?$basic_ostream@DU?$char_traits@D@std@@@0@AAV10@PBD@Z ; std::operator<<<std::char_traits<char> >
  00088	59		 pop	 ecx
  00089	59		 pop	 ecx
  0008a	50		 push	 eax
  0008b	e8 00 00 00 00	 call	 ??6?$basic_ostream@DU?$char_traits@D@std@@@std@@QAEAAV01@I@Z ; std::basic_ostream<char,std::char_traits<char> >::operator<<
  00090	50		 push	 eax
  00091	e8 00 00 00 00	 call	 ??$?6U?$char_traits@D@std@@@std@@YAAAV?$basic_ostream@DU?$char_traits@D@std@@@0@AAV10@PBD@Z ; std::operator<<<std::char_traits<char> >
  00096	50		 push	 eax
  00097	e8 00 00 00 00	 call	 ?endl@std@@YAAAV?$basic_ostream@DU?$char_traits@D@std@@@1@AAV21@@Z ; std::endl
  0009c	83 c4 0c	 add	 esp, 12			; 0000000cH

; 373  : 	MusicItem::getAsm(MUS);

  0009f	56		 push	 esi
  000a0	8b cf		 mov	 ecx, edi
  000a2	e8 00 00 00 00	 call	 ?getAsm@MusicItem@@UAEXPAVMusicFile@@@Z ; MusicItem::getAsm
  000a7	5f		 pop	 edi
  000a8	5e		 pop	 esi

; 374  : }

  000a9	c2 04 00	 ret	 4
?getAsm@Envelop@@UAEXPAVMusicFile@@@Z ENDP		; Envelop::getAsm
PUBLIC	??1Envelop@@QAE@XZ				; Envelop::~Envelop
; Function compile flags: /Ogsy
_TEXT	SEGMENT
??1Envelop@@QAE@XZ PROC NEAR				; Envelop::~Envelop
; _this$ = ecx

; 251  : {

  000ac	c7 01 00 00 00
	00		 mov	 DWORD PTR [ecx], OFFSET FLAT:??_7Envelop@@6B@

; 252  : }

  000b2	e9 00 00 00 00	 jmp	 ??1MusicItem@@QAE@XZ	; MusicItem::~MusicItem
??1Envelop@@QAE@XZ ENDP					; Envelop::~Envelop
_TEXT	ENDS
PUBLIC	?SetLoop@Envelop@@QAEXPAVMMLfile@@H@Z		; Envelop::SetLoop
; Function compile flags: /Ogsy
_TEXT	SEGMENT
?SetLoop@Envelop@@QAEXPAVMMLfile@@H@Z PROC NEAR		; Envelop::SetLoop
; _this$ = esi
; _MML$ = edi
; _LoopPoint$ = eax

; 221  : 	if(LoopPoint == -1){

  000b7	83 f8 ff	 cmp	 eax, -1
  000ba	75 54		 jne	 SHORT $L24028

; 222  : 		if(Release == true){

  000bc	80 7e 48 01	 cmp	 BYTE PTR [esi+72], 1

; 223  : 			MML->Warning(_T("リリース時のループポイントがありません。最後の値をループします。"));

  000c0	8b c7		 mov	 eax, edi
  000c2	75 17		 jne	 SHORT $L24029
  000c4	68 00 00 00 00	 push	 OFFSET FLAT:??_C@_1EC@CJDKPDPH@0?j0?j0?$PM0?$LJfB0n0?k0?$PM0?W0?$NN0?$KE0?s0?H0L0B0?$IK0?$HO0?$FL0?$JD0?$AC@
  000c9	e8 00 00 00 00	 call	 ?Warning@MMLfile@@QAEXQBG@Z ; MMLfile::Warning

; 224  : 			if(ptEnvelop > 0x3F){

  000ce	83 7e 4c 3f	 cmp	 DWORD PTR [esi+76], 63	; 0000003fH
  000d2	7e 23		 jle	 SHORT $L24035

; 225  : 				MML->Warning(_T("リリース時のループ位置を指定できる範囲(63Byte)を超えました。"));

  000d4	68 00 00 00 00	 push	 OFFSET FLAT:??_C@_1EG@GPCAGCPJ@0?j0?j0?$PM0?$LJfB0n0?k0?$PM0?WOM?$HPn0?$JCc?$AH?$FL?$JK0g0M0?$IL?$HL?DV?r?$AA?$CI@

; 226  : 			}
; 227  : 		} else {

  000d9	eb 15		 jmp	 SHORT $L76442
$L24029:

; 228  : 			MML->Warning(_T("ループポイントがありません。最後の値をループします。"));

  000db	68 00 00 00 00	 push	 OFFSET FLAT:??_C@_1DG@MBJMNLON@0?k0?$PM0?W0?$NN0?$KE0?s0?H0L0B0?$IK0?$HO0?$FL0?$JD0?$ACg?$AA_?$IM0nP$0?$JC0?k@
  000e0	e8 00 00 00 00	 call	 ?Warning@MMLfile@@QAEXQBG@Z ; MMLfile::Warning

; 229  : 			if(ptEnvelop > 0x3F){

  000e5	83 7e 4c 3f	 cmp	 DWORD PTR [esi+76], 63	; 0000003fH
  000e9	7e 0c		 jle	 SHORT $L24035

; 230  : 				MML->Warning(_T("ループ位置を指定できる範囲(63Byte)を超えました。"));

  000eb	68 00 00 00 00	 push	 OFFSET FLAT:??_C@_1DK@DAFGLDHP@0?k0?$PM0?WOM?$HPn0?$JCc?$AH?$FL?$JK0g0M0?$IL?$HL?DV?r?$AA?$CI?$AA6?$AA3?$AAB?$AAy?$AAt?$AAe@
$L76442:
  000f0	8b c7		 mov	 eax, edi
  000f2	e8 00 00 00 00	 call	 ?Warning@MMLfile@@QAEXQBG@Z ; MMLfile::Warning
$L24035:

; 231  : 			}
; 232  : 		}
; 233  : 		code.append((char)1, (char)(ptEnvelop-1 | 0xC0));

  000f7	33 c0		 xor	 eax, eax
  000f9	8a 46 4c	 mov	 al, BYTE PTR [esi+76]
  000fc	fe c8		 dec	 al
$L24040:

; 234  : 	} else {
; 235  : 		if(ptEnvelop == Loop_Normal){
; 236  : 			MML->Err(_T("Lコマンドでパターン定義を終わることはできません。"));
; 237  : 		}
; 238  : 		code.append((char)1, (char)(LoopPoint | 0xC0));

  000fe	83 c8 c0	 or	 eax, -64		; ffffffc0H
  00101	50		 push	 eax
  00102	8d 4e 14	 lea	 ecx, DWORD PTR [esi+20]
  00105	6a 01		 push	 1
  00107	e8 00 00 00 00	 call	 ?append@?$basic_string@DU?$char_traits@D@std@@V?$allocator@D@2@@std@@QAEAAV12@ID@Z ; std::basic_string<char,std::char_traits<char>,std::allocator<char> >::append

; 239  : 	}
; 240  : 	ptEnvelop++;

  0010c	ff 46 4c	 inc	 DWORD PTR [esi+76]

; 241  : }

  0010f	c3		 ret	 0
$L24028:
  00110	8b 4e 4c	 mov	 ecx, DWORD PTR [esi+76]
  00113	3b 4e 40	 cmp	 ecx, DWORD PTR [esi+64]
  00116	75 e6		 jne	 SHORT $L24040
  00118	68 00 00 00 00	 push	 OFFSET FLAT:??_C@_1DE@GKIDLCPB@?$AAL0?$LD0?$NO0?s0?I0g0?Q0?$LP0?$PM0?s?$FL?$JK?$HP?$KJ0?$JC?$HNB0?$IP0?$IL0S0h0o0g@
  0011d	8b c7		 mov	 eax, edi
  0011f	e8 00 00 00 00	 call	 ?Err@MMLfile@@QAEXQBG@Z	; MMLfile::Err
$L76443:
$L76441:
  00124	cc		 int	 3
?SetLoop@Envelop@@QAEXPAVMMLfile@@H@Z ENDP		; Envelop::SetLoop
PUBLIC	?sweep@Envelop@@QAEHPAVMMLfile@@@Z		; Envelop::sweep
; Function compile flags: /Ogsy
_TEXT	SEGMENT
_iStart$ = -20						; size = 4
_iLength$ = -16						; size = 4
_now$ = -12						; size = 4
_i$ = -8						; size = 4
_cnt$ = -4						; size = 4
?sweep@Envelop@@QAEHPAVMMLfile@@@Z PROC NEAR		; Envelop::sweep
; _this$ = ecx
; _MML$ = eax

; 282  : {

  00125	55		 push	 ebp
  00126	8b ec		 mov	 ebp, esp
  00128	83 ec 14	 sub	 esp, 20			; 00000014H
  0012b	56		 push	 esi
  0012c	57		 push	 edi
  0012d	8b f8		 mov	 edi, eax

; 283  : 	unsigned	char	cData;
; 284  : 
; 285  : 	int		iStart;
; 286  : 	int		iEnd;
; 287  : 	int		iLength;
; 288  : 	int		iDelta;
; 289  : 
; 290  : 	int		now	= 0;

  0012f	33 c0		 xor	 eax, eax
  00131	89 45 f4	 mov	 DWORD PTR _now$[ebp], eax

; 291  : 	int		cnt	= 0;

  00134	89 45 fc	 mov	 DWORD PTR _cnt$[ebp], eax

; 292  : 
; 293  : 	int		i=0;

  00137	89 45 f8	 mov	 DWORD PTR _i$[ebp], eax

; 294  : 	int		temp;
; 295  : 
; 296  : 	//--------------------------
; 297  : 	//●MML読み込み
; 298  : 
; 299  : 	//
; 300  : 	iStart = MML->GetInt();

  0013a	8b c7		 mov	 eax, edi
  0013c	8b f1		 mov	 esi, ecx
  0013e	e8 00 00 00 00	 call	 ?GetInt@MMLfile@@QAEHXZ	; MMLfile::GetInt

; 301  : 	if( (iStart<-64) || (iStart>127)){

  00143	83 f8 c0	 cmp	 eax, -64		; ffffffc0H
  00146	89 45 ec	 mov	 DWORD PTR _iStart$[ebp], eax
  00149	0f 8c 11 01 00
	00		 jl	 $L24073
  0014f	83 f8 7f	 cmp	 eax, 127		; 0000007fH
  00152	0f 8f 08 01 00
	00		 jg	 $L24073

; 303  : 	}
; 304  : 
; 305  : 	cData = MML->GetChar();

  00158	e8 00 00 00 00	 call	 ?GetChar@MMLfile@@QAEDXZ ; MMLfile::GetChar

; 306  : 	if(cData != ','){

  0015d	3c 2c		 cmp	 al, 44			; 0000002cH

; 307  : 		MML->Err(_T("パラメータが足りません。"));

  0015f	8b c7		 mov	 eax, edi
  00161	74 0a		 je	 SHORT $L24075
$L109117:
  00163	68 00 00 00 00	 push	 OFFSET FLAT:??_C@_1BK@LGECNABF@0?Q0?i0?a0?$PM0?$LP0L?$IN?$LD0?$IK0?$HO0?$FL0?$JD0?$AC?$AA?$AA@
  00168	e9 fa 00 00 00	 jmp	 $L109116
$L24075:
  0016d	53		 push	 ebx

; 308  : 	}
; 309  : 
; 310  : 	iEnd = MML->GetInt();

  0016e	e8 00 00 00 00	 call	 ?GetInt@MMLfile@@QAEHXZ	; MMLfile::GetInt
  00173	8b d8		 mov	 ebx, eax

; 311  : 	if( (iEnd<-64) || (iEnd>127)){

  00175	83 fb c0	 cmp	 ebx, -64		; ffffffc0H
  00178	0f 8c db 00 00
	00		 jl	 $L24078
  0017e	83 fb 7f	 cmp	 ebx, 127		; 0000007fH
  00181	0f 8f d2 00 00
	00		 jg	 $L24078

; 313  : 	}
; 314  : 
; 315  : 	cData = MML->GetChar();

  00187	e8 00 00 00 00	 call	 ?GetChar@MMLfile@@QAEDXZ ; MMLfile::GetChar

; 316  : 	if(cData != ','){

  0018c	3c 2c		 cmp	 al, 44			; 0000002cH

; 317  : 		MML->Err(_T("パラメータが足りません。"));

  0018e	8b c7		 mov	 eax, edi
  00190	75 d1		 jne	 SHORT $L109117

; 318  : 	}
; 319  : 
; 320  : 	iLength = MML->GetInt();

  00192	e8 00 00 00 00	 call	 ?GetInt@MMLfile@@QAEHXZ	; MMLfile::GetInt

; 321  : 	if( (iLength<1) || (iLength>255)){

  00197	83 f8 01	 cmp	 eax, 1
  0019a	89 45 f0	 mov	 DWORD PTR _iLength$[ebp], eax
  0019d	0f 8c af 00 00
	00		 jl	 $L24082
  001a3	3d ff 00 00 00	 cmp	 eax, 255		; 000000ffH
  001a8	0f 8f a4 00 00
	00		 jg	 $L24082

; 323  : 	}
; 324  : 
; 325  : 	cData = MML->GetChar();

  001ae	e8 00 00 00 00	 call	 ?GetChar@MMLfile@@QAEDXZ ; MMLfile::GetChar

; 326  : 	if((cData != ')') && (cData != '}')){

  001b3	3c 29		 cmp	 al, 41			; 00000029H
  001b5	74 0e		 je	 SHORT $L24084
  001b7	3c 7d		 cmp	 al, 125			; 0000007dH
  001b9	74 0a		 je	 SHORT $L24084

; 327  : 		MML->Err(_T("パラメータが足りません。"));

  001bb	68 00 00 00 00	 push	 OFFSET FLAT:??_C@_1BK@LGECNABF@0?Q0?i0?a0?$PM0?$LP0L?$IN?$LD0?$IK0?$HO0?$FL0?$JD0?$AC?$AA?$AA@
  001c0	e9 a0 00 00 00	 jmp	 $L109115
$L24084:

; 328  : 	}
; 329  : 
; 330  : 	//--------------------------
; 331  : 	//●テーブル作成
; 332  : 
; 333  : 	iDelta = iEnd - iStart;

  001c5	2b 5d ec	 sub	 ebx, DWORD PTR _iStart$[ebp]

; 334  : 
; 335  : 	while(i<iLength){

  001c8	83 7d f0 00	 cmp	 DWORD PTR _iLength$[ebp], 0
  001cc	7e 56		 jle	 SHORT $L24087
$L24086:

; 336  : 		temp = iStart + (iDelta * i) / iLength;

  001ce	8b c3		 mov	 eax, ebx
  001d0	0f af 45 f8	 imul	 eax, DWORD PTR _i$[ebp]
  001d4	99		 cdq
  001d5	f7 7d f0	 idiv	 DWORD PTR _iLength$[ebp]
  001d8	8b f8		 mov	 edi, eax
  001da	03 7d ec	 add	 edi, DWORD PTR _iStart$[ebp]

; 337  : 		if(i == 0){

  001dd	83 7d f8 00	 cmp	 DWORD PTR _i$[ebp], 0
  001e1	75 09		 jne	 SHORT $L24088
$L24093:

; 338  : 			now = temp;
; 339  : 			cnt	= 0;

  001e3	83 65 fc 00	 and	 DWORD PTR _cnt$[ebp], 0
  001e7	89 7d f4	 mov	 DWORD PTR _now$[ebp], edi

; 340  : 		} else if (temp != now){

  001ea	eb 2d		 jmp	 SHORT $L24094
$L24088:
  001ec	8b 45 f4	 mov	 eax, DWORD PTR _now$[ebp]
  001ef	3b f8		 cmp	 edi, eax
  001f1	74 23		 je	 SHORT $L24090

; 341  : 			code.append((char)1, (char)now & 0x7F);

  001f3	25 7f ff ff ff	 and	 eax, -129		; ffffff7fH
  001f8	50		 push	 eax
  001f9	6a 01		 push	 1
  001fb	8d 4e 14	 lea	 ecx, DWORD PTR [esi+20]
  001fe	e8 00 00 00 00	 call	 ?append@?$basic_string@DU?$char_traits@D@std@@V?$allocator@D@2@@std@@QAEAAV12@ID@Z ; std::basic_string<char,std::char_traits<char>,std::allocator<char> >::append

; 342  : 			ptEnvelop++;
; 343  : 			if(cnt>=1){

  00203	8b 45 fc	 mov	 eax, DWORD PTR _cnt$[ebp]
  00206	ff 46 4c	 inc	 DWORD PTR [esi+76]
  00209	83 f8 01	 cmp	 eax, 1
  0020c	7c d5		 jl	 SHORT $L24093

; 344  : 				setHold(cnt-1);

  0020e	48		 dec	 eax
  0020f	e8 00 00 00 00	 call	 ?setHold@Envelop@@QAEXH@Z ; Envelop::setHold

; 345  : 			}
; 346  : 			now = temp;
; 347  : 			cnt	= 0;
; 348  : 		} else {

  00214	eb cd		 jmp	 SHORT $L24093
$L24090:

; 349  : 			cnt++;

  00216	ff 45 fc	 inc	 DWORD PTR _cnt$[ebp]
$L24094:

; 350  : 		}
; 351  : 		i++;

  00219	ff 45 f8	 inc	 DWORD PTR _i$[ebp]
  0021c	8b 45 f8	 mov	 eax, DWORD PTR _i$[ebp]
  0021f	3b 45 f0	 cmp	 eax, DWORD PTR _iLength$[ebp]
  00222	7c aa		 jl	 SHORT $L24086
$L24087:

; 352  : 	}
; 353  : 
; 354  : 	code.append((char)1, (char)now & 0x7F);

  00224	33 c0		 xor	 eax, eax
  00226	8a 45 f4	 mov	 al, BYTE PTR _now$[ebp]
  00229	8d 4e 14	 lea	 ecx, DWORD PTR [esi+20]
  0022c	25 7f ff ff ff	 and	 eax, -129		; ffffff7fH
  00231	50		 push	 eax
  00232	6a 01		 push	 1
  00234	e8 00 00 00 00	 call	 ?append@?$basic_string@DU?$char_traits@D@std@@V?$allocator@D@2@@std@@QAEAAV12@ID@Z ; std::basic_string<char,std::char_traits<char>,std::allocator<char> >::append

; 355  : 	ptEnvelop++;
; 356  : 	if(cnt>=1){

  00239	8b 45 fc	 mov	 eax, DWORD PTR _cnt$[ebp]
  0023c	ff 46 4c	 inc	 DWORD PTR [esi+76]
  0023f	83 f8 01	 cmp	 eax, 1
  00242	5b		 pop	 ebx
  00243	7c 06		 jl	 SHORT $L24097

; 357  : 		setHold(cnt-1);

  00245	48		 dec	 eax
  00246	e8 00 00 00 00	 call	 ?setHold@Envelop@@QAEXH@Z ; Envelop::setHold
$L24097:

; 358  : 	}
; 359  : 	return(now);

  0024b	8b 45 f4	 mov	 eax, DWORD PTR _now$[ebp]
  0024e	5f		 pop	 edi
  0024f	5e		 pop	 esi

; 360  : }

  00250	c9		 leave
  00251	c3		 ret	 0
$L24082:

; 322  : 		MML->Err(_T("長さは1〜255の範囲で指定して下さい。"));

  00252	68 00 00 00 00	 push	 OFFSET FLAT:??_C@_1CK@GKNDOOMC@?$JFw0U0o?$AA1?$PP?$FO?$AA2?$AA5?$AA50n?$HL?DV?r0gc?$AH?$FL?$JK0W0fN?$AL0U0D0?$AC@
  00257	eb 0c		 jmp	 SHORT $L109115
$L24078:

; 312  : 		MML->Err(_T("終了点は-64〜127の範囲で指定して下さい。"));

  00259	68 00 00 00 00	 push	 OFFSET FLAT:??_C@_1DA@EKCCNIDJ@?$HNBN?$IGp?$LJ0o?$AA?9?$AA6?$AA4?$PP?$FO?$AA1?$AA2?$AA70n?$HL?DV?r0gc?$AH?$FL?$JK0W0fN?$AL@
  0025e	eb 05		 jmp	 SHORT $L109115
$L24073:

; 302  : 		MML->Err(_T("開始点は-64〜127の範囲で指定して下さい。"));

  00260	68 00 00 00 00	 push	 OFFSET FLAT:??_C@_1DA@MDFJGBBN@?$JF?$ILY?Kp?$LJ0o?$AA?9?$AA6?$AA4?$PP?$FO?$AA1?$AA2?$AA70n?$HL?DV?r0gc?$AH?$FL?$JK0W0fN?$AL@
$L109115:
  00265	8b c7		 mov	 eax, edi
$L109116:
  00267	e8 00 00 00 00	 call	 ?Err@MMLfile@@QAEXQBG@Z	; MMLfile::Err
$L109118:
$L109114:
  0026c	cc		 int	 3
?sweep@Envelop@@QAEHPAVMMLfile@@@Z ENDP			; Envelop::sweep
_TEXT	ENDS
PUBLIC	??0Envelop@@QAE@PAVMMLfile@@IQBG@Z		; Envelop::Envelop
$T109216 DD	0ffffffffH
	DD	FLAT:$L109120
$T109200 DD	019930520H
	DD	01H
	DD	FLAT:$T109216
	DD	2 DUP(00H)
	DD	2 DUP(00H)
; Function compile flags: /Ogsy
_TEXT	SEGMENT
_i$ = -20						; size = 4
_iValue$ = -16						; size = 4
__$EHRec$ = -12						; size = 12
_this$ = 8						; size = 4
_MML$ = 12						; size = 4
_iLength$ = 16						; size = 4
__strName$ = 16						; size = 4
??0Envelop@@QAE@PAVMMLfile@@IQBG@Z PROC NEAR		; Envelop::Envelop
; __id$ = ecx

; 26   : {

  0026d	b8 00 00 00 00	 mov	 eax, __ehhandler$??0Envelop@@QAE@PAVMMLfile@@IQBG@Z
  00272	e8 00 00 00 00	 call	 __EH_prolog
  00277	51		 push	 ecx
  00278	51		 push	 ecx
  00279	53		 push	 ebx
  0027a	8b 5d 08	 mov	 ebx, DWORD PTR _this$[ebp]
  0027d	56		 push	 esi
  0027e	57		 push	 edi
  0027f	ff 75 10	 push	 DWORD PTR __strName$[ebp]
  00282	8b f1		 mov	 esi, ecx
  00284	56		 push	 esi
  00285	53		 push	 ebx
  00286	e8 00 00 00 00	 call	 ??0MusicItem@@QAE@HQBG@Z ; MusicItem::MusicItem
  0028b	33 c0		 xor	 eax, eax
  0028d	89 45 fc	 mov	 DWORD PTR __$EHRec$[ebp+8], eax

; 27   : 	//----------------------
; 28   : 	//Local変数
; 29   : 
; 30   : 
; 31   : //	定数定義
; 32   : enum	Command_ID_mml {
; 33   : 	Env_Num,
; 34   : 	Env_Sweep,
; 35   : 	Env_Hold,
; 36   : 	Env_Loop,
; 37   : 	Env_Release,
; 38   : 	Env_Commma
; 39   : };
; 40   : 
; 41   : //	これらは、MML構文で使えるコマンド。
; 42   : const	static	Command_Info	Command[] = {
; 43   : 		{	"$",	Env_Num		},
; 44   : 		{	"%",	Env_Num		},
; 45   : 		{	"-",	Env_Num		},
; 46   : 		{	"0",	Env_Num		},
; 47   : 		{	"1",	Env_Num		},
; 48   : 		{	"2",	Env_Num		},
; 49   : 		{	"3",	Env_Num		},
; 50   : 		{	"4",	Env_Num		},
; 51   : 		{	"5",	Env_Num		},
; 52   : 		{	"6",	Env_Num		},
; 53   : 		{	"7",	Env_Num		},
; 54   : 		{	"8",	Env_Num		},
; 55   : 		{	"9",	Env_Num		},
; 56   : 		{	"{",	Env_Sweep	},
; 57   : 		{	"(",	Env_Sweep	},
; 58   : 		{	"d",	Env_Hold	},
; 59   : 		{	"D",	Env_Hold	},
; 60   : 		{	"ｄ",	Env_Hold	},
; 61   : 		{	"Ｄ",	Env_Hold	},
; 62   : 		{	"|",	Env_Loop	},
; 63   : 		{	"｜",	Env_Loop	},
; 64   : 		{	"l",	Env_Loop	},
; 65   : 		{	"L",	Env_Loop	},
; 66   : 		{	"ｌ",	Env_Loop	},
; 67   : 		{	"Ｌ",	Env_Loop	},
; 68   : 		{	"r",	Env_Release	},
; 69   : 		{	"R",	Env_Release	},
; 70   : 		{	"ｒ",	Env_Release	},
; 71   : 		{	"Ｒ",	Env_Release	},
; 72   : 		{	"　",	Env_Commma	},
; 73   : 		{	"，",	Env_Commma	},
; 74   : 		{	"、",	Env_Commma	},
; 75   : 		{	",",	Env_Commma	}
; 76   : };
; 77   : 
; 78   : 	unsigned	char	cData;
; 79   : 				int		i;
; 80   : 
; 81   : 				int		iValue	=255;	//今の設定値
; 82   : 				int		iLength	=0;		//ランレングス圧縮用
; 83   : 
; 84   : 	//------------------------------
; 85   : 	//クラスの初期設定
; 86   : 
; 87   : 	Loop_Normal		= -1;

  00290	83 4b 40 ff	 or	 DWORD PTR [ebx+64], -1

; 88   : 	Loop_Release	= -1;

  00294	83 4b 44 ff	 or	 DWORD PTR [ebx+68], -1
  00298	89 73 3c	 mov	 DWORD PTR [ebx+60], esi

; 89   : 	Release			= false;
; 90   : 	ptEnvelop		= 1;

  0029b	33 ff		 xor	 edi, edi

; 91   : 
; 92   : 	code.resize(0);

  0029d	8d 73 14	 lea	 esi, DWORD PTR [ebx+20]
  002a0	47		 inc	 edi
  002a1	50		 push	 eax
  002a2	8b ce		 mov	 ecx, esi
  002a4	c7 03 00 00 00
	00		 mov	 DWORD PTR [ebx], OFFSET FLAT:??_7Envelop@@6B@
  002aa	c7 45 f0 ff 00
	00 00		 mov	 DWORD PTR _iValue$[ebp], 255 ; 000000ffH
  002b1	89 45 10	 mov	 DWORD PTR _iLength$[ebp], eax
  002b4	88 43 48	 mov	 BYTE PTR [ebx+72], al
  002b7	89 7b 4c	 mov	 DWORD PTR [ebx+76], edi
  002ba	e8 00 00 00 00	 call	 ?resize@?$basic_string@DU?$char_traits@D@std@@V?$allocator@D@2@@std@@QAEXID@Z ; std::basic_string<char,std::char_traits<char>,std::allocator<char> >::resize

; 93   : 	code.append((char)1, (char)0);

  002bf	6a 00		 push	 0
  002c1	57		 push	 edi
  002c2	8b ce		 mov	 ecx, esi
  002c4	e8 00 00 00 00	 call	 ?append@?$basic_string@DU?$char_traits@D@std@@V?$allocator@D@2@@std@@QAEAAV12@ID@Z ; std::basic_string<char,std::char_traits<char>,std::allocator<char> >::append

; 94   : 
; 95   : 
; 96   : 
; 97   : 	//------------------------------
; 98   : 	//コンパイル
; 99   : 
; 100  : 	// { の検索
; 101  : 	while(MML->cRead() != '{'){

  002c9	8b 75 0c	 mov	 esi, DWORD PTR _MML$[ebp]
  002cc	eb 0f		 jmp	 SHORT $L109212
$L23975:

; 102  : 		if(MML->eof()){

  002ce	8b 46 10	 mov	 eax, DWORD PTR [esi+16]
  002d1	8b 08		 mov	 ecx, DWORD PTR [eax]
  002d3	8b 49 04	 mov	 ecx, DWORD PTR [ecx+4]
  002d6	f6 44 01 08 01	 test	 BYTE PTR [ecx+eax+8], 1
  002db	75 6f		 jne	 SHORT $L109203
$L109212:

; 94   : 
; 95   : 
; 96   : 
; 97   : 	//------------------------------
; 98   : 	//コンパイル
; 99   : 
; 100  : 	// { の検索
; 101  : 	while(MML->cRead() != '{'){

  002dd	e8 00 00 00 00	 call	 ?cRead@MMLfile@@QAEDXZ	; MMLfile::cRead
  002e2	3c 7b		 cmp	 al, 123			; 0000007bH
  002e4	75 e8		 jne	 SHORT $L23975

; 104  : 		}
; 105  : 	}
; 106  : 
; 107  : 	// } が来るまで、記述ブロック内をコンパイルする。
; 108  : 	while((cData = MML->GetChar()) != '}'){

  002e6	8b fe		 mov	 edi, esi
  002e8	e8 00 00 00 00	 call	 ?GetChar@MMLfile@@QAEDXZ ; MMLfile::GetChar
  002ed	3c 7d		 cmp	 al, 125			; 0000007dH
  002ef	0f 84 b8 01 00
	00		 je	 $L24018
$L23980:

; 109  : 		
; 110  : 		// } が来る前に、[EOF]が来たらエラー
; 111  : 		if( MML->eof() ){

  002f5	8b 75 0c	 mov	 esi, DWORD PTR _MML$[ebp]
  002f8	8b 46 10	 mov	 eax, DWORD PTR [esi+16]
  002fb	8b 08		 mov	 ecx, DWORD PTR [eax]
  002fd	8b 49 04	 mov	 ecx, DWORD PTR [ecx+4]
  00300	f6 44 01 08 01	 test	 BYTE PTR [ecx+eax+8], 1

; 113  : 		}
; 114  : 
; 115  : 		//１つ戻る
; 116  : 		MML->Back();

  00305	8b c6		 mov	 eax, esi
  00307	0f 85 b0 01 00
	00		 jne	 $L109204
  0030d	e8 00 00 00 00	 call	 ?Back@MMLfile@@QAEXXZ	; MMLfile::Back

; 117  : 
; 118  : 
; 119  : 		//各コマンド毎の処理
; 120  : 		switch(MML->GetCommandID(Command, sizeof(Command)/sizeof(Command_Info))){

  00312	6a 21		 push	 33			; 00000021H
  00314	68 00 00 00 00	 push	 OFFSET FLAT:?Command@?1???0Envelop@@QAE@PAVMMLfile@@IQBG@Z@4QBUCommand_Info@@B
  00319	8b c6		 mov	 eax, esi
  0031b	e8 00 00 00 00	 call	 ?GetCommandID@MMLfile@@QAEHQBUCommand_Info@@I@Z ; MMLfile::GetCommandID
  00320	33 ff		 xor	 edi, edi
  00322	2b c7		 sub	 eax, edi
  00324	0f 84 12 01 00
	00		 je	 $L23989
  0032a	48		 dec	 eax
  0032b	0f 84 ea 00 00
	00		 je	 $L23998
  00331	48		 dec	 eax
  00332	0f 84 bd 00 00
	00		 je	 $L24000
  00338	48		 dec	 eax
  00339	74 5f		 je	 SHORT $L24004
  0033b	48		 dec	 eax
  0033c	74 1a		 je	 SHORT $L24012
  0033e	48		 dec	 eax
  0033f	0f 84 49 01 00
	00		 je	 $L23994

; 189  : 
; 190  : 			case(Env_Commma):
; 191  : 				break;
; 192  : 
; 193  : 			//unknown command
; 194  : 			default:
; 195  : 				MML->Err(_T("unknown command"));

  00345	68 00 00 00 00	 push	 OFFSET FLAT:??_C@_1CA@BFMKMMBP@?$AAu?$AAn?$AAk?$AAn?$AAo?$AAw?$AAn?$AA?5?$AAc?$AAo?$AAm?$AAm?$AAa?$AAn?$AAd?$AA?$AA@
  0034a	eb 05		 jmp	 SHORT $L109215
$L109203:

; 103  : 			MML->Err(_T("ブロックの開始を示す{が見つかりません。"));

  0034c	68 00 00 00 00	 push	 OFFSET FLAT:??_C@_1CK@CKPPJBGB@0?V0?m0?C0?$KP0n?$JF?$ILY?K0?$JCy?30Y?$AA?$HL0L?$IJ?$IL0d0K0?$IK0?$HO0?$FL0?$JD0?$AC@
$L109215:
  00351	8b c6		 mov	 eax, esi
  00353	e9 9a 01 00 00	 jmp	 $L109214
$L24012:

; 178  : 
; 179  : 			case(Env_Release):
; 180  : 				iValue	=255;			//ランレングス圧縮初期化
; 181  : 				if(iLength>0){

  00358	8b 45 10	 mov	 eax, DWORD PTR _iLength$[ebp]
  0035b	3b c7		 cmp	 eax, edi
  0035d	c7 45 f0 ff 00
	00 00		 mov	 DWORD PTR _iValue$[ebp], 255 ; 000000ffH
  00364	7e 0b		 jle	 SHORT $L24013

; 182  : 					setHold(iLength-1);	//ホールド時間出力

  00366	48		 dec	 eax
  00367	8b f3		 mov	 esi, ebx
  00369	e8 00 00 00 00	 call	 ?setHold@Envelop@@QAEXH@Z ; Envelop::setHold

; 183  : 					iLength	= 0;		//ランレングス圧縮初期化

  0036e	89 7d 10	 mov	 DWORD PTR _iLength$[ebp], edi
$L24013:

; 184  : 				}
; 185  : 				SetLoop(MML, Loop_Normal);

  00371	8b 43 40	 mov	 eax, DWORD PTR [ebx+64]
  00374	8b 7d 0c	 mov	 edi, DWORD PTR _MML$[ebp]
  00377	8b f3		 mov	 esi, ebx
  00379	e8 00 00 00 00	 call	 ?SetLoop@Envelop@@QAEXPAVMMLfile@@H@Z ; Envelop::SetLoop

; 186  : 				code[0] = (unsigned char)ptEnvelop;

  0037e	83 7b 2c 10	 cmp	 DWORD PTR [ebx+44], 16	; 00000010H
  00382	72 05		 jb	 SHORT $L109186
  00384	8b 43 18	 mov	 eax, DWORD PTR [ebx+24]
  00387	eb 03		 jmp	 SHORT $L109187
$L109186:
  00389	8d 43 18	 lea	 eax, DWORD PTR [ebx+24]
$L109187:
  0038c	8a 4b 4c	 mov	 cl, BYTE PTR [ebx+76]
  0038f	88 08		 mov	 BYTE PTR [eax], cl

; 187  : 				Release = true;

  00391	c6 43 48 01	 mov	 BYTE PTR [ebx+72], 1

; 188  : 				break;

  00395	e9 f4 00 00 00	 jmp	 $L23994
$L24004:

; 159  : 
; 160  : 			case(Env_Loop):
; 161  : 				iValue	=255;			//ランレングス圧縮初期化
; 162  : 				if(iLength>0){

  0039a	8b 45 10	 mov	 eax, DWORD PTR _iLength$[ebp]
  0039d	3b c7		 cmp	 eax, edi
  0039f	c7 45 f0 ff 00
	00 00		 mov	 DWORD PTR _iValue$[ebp], 255 ; 000000ffH
  003a6	7e 0b		 jle	 SHORT $L24005

; 163  : 					setHold(iLength-1);	//ホールド時間出力

  003a8	48		 dec	 eax
  003a9	8b f3		 mov	 esi, ebx
  003ab	e8 00 00 00 00	 call	 ?setHold@Envelop@@QAEXH@Z ; Envelop::setHold

; 164  : 					iLength	= 0;		//ランレングス圧縮初期化

  003b0	89 7d 10	 mov	 DWORD PTR _iLength$[ebp], edi
$L24005:

; 165  : 				}
; 166  : 				if(Release == false){

  003b3	80 7b 48 00	 cmp	 BYTE PTR [ebx+72], 0
  003b7	75 1e		 jne	 SHORT $L24006

; 167  : 					if(ptEnvelop > 0x3F){

  003b9	83 7b 4c 3f	 cmp	 DWORD PTR [ebx+76], 63	; 0000003fH
  003bd	7e 0d		 jle	 SHORT $L24007

; 168  : 						MML->Warning(_T("ループ位置を指定できる範囲(64Byte)を超えました。"));

  003bf	8b 45 0c	 mov	 eax, DWORD PTR _MML$[ebp]
  003c2	68 00 00 00 00	 push	 OFFSET FLAT:??_C@_1DK@DEFPEACM@0?k0?$PM0?WOM?$HPn0?$JCc?$AH?$FL?$JK0g0M0?$IL?$HL?DV?r?$AA?$CI?$AA6?$AA4?$AAB?$AAy?$AAt?$AAe@
  003c7	e8 00 00 00 00	 call	 ?Warning@MMLfile@@QAEXQBG@Z ; MMLfile::Warning
$L24007:

; 169  : 					}
; 170  : 					Loop_Normal		= ptEnvelop;

  003cc	8b 43 4c	 mov	 eax, DWORD PTR [ebx+76]
  003cf	89 43 40	 mov	 DWORD PTR [ebx+64], eax

; 171  : 				} else {

  003d2	e9 b7 00 00 00	 jmp	 $L23994
$L24006:

; 172  : 					if(ptEnvelop > 0x3F){

  003d7	83 7b 4c 3f	 cmp	 DWORD PTR [ebx+76], 63	; 0000003fH
  003db	7e 0d		 jle	 SHORT $L24010

; 173  : 						MML->Warning(_T("リリース時のループ位置を指定できる範囲(64Byte)を超えました。"));

  003dd	8b 45 0c	 mov	 eax, DWORD PTR _MML$[ebp]
  003e0	68 00 00 00 00	 push	 OFFSET FLAT:??_C@_1EG@GLCJJBKK@0?j0?j0?$PM0?$LJfB0n0?k0?$PM0?WOM?$HPn0?$JCc?$AH?$FL?$JK0g0M0?$IL?$HL?DV?r?$AA?$CI@
  003e5	e8 00 00 00 00	 call	 ?Warning@MMLfile@@QAEXQBG@Z ; MMLfile::Warning
$L24010:

; 174  : 					}
; 175  : 					Loop_Release	= ptEnvelop;

  003ea	8b 43 4c	 mov	 eax, DWORD PTR [ebx+76]
  003ed	89 43 44	 mov	 DWORD PTR [ebx+68], eax

; 176  : 				}
; 177  : 				break;

  003f0	e9 99 00 00 00	 jmp	 $L23994
$L24000:

; 150  : 
; 151  : 			case(Env_Hold):
; 152  : 				i = MML->GetInt();

  003f5	8b c6		 mov	 eax, esi
  003f7	e8 00 00 00 00	 call	 ?GetInt@MMLfile@@QAEHXZ	; MMLfile::GetInt

; 153  : 				if( (i<0) || (i>255)){

  003fc	3b c7		 cmp	 eax, edi
  003fe	0f 8c c0 00 00
	00		 jl	 $L109205
  00404	3d ff 00 00 00	 cmp	 eax, 255		; 000000ffH
  00409	0f 8f b5 00 00
	00		 jg	 $L109205

; 155  : 				}
; 156  : 			//	setHold(i + iLength);	//今までの時間を加算する。
; 157  : 				iLength += i+1;			//ランレングスに加算する。

  0040f	8b 4d 10	 mov	 ecx, DWORD PTR _iLength$[ebp]
  00412	8d 44 01 01	 lea	 eax, DWORD PTR [ecx+eax+1]
  00416	89 45 10	 mov	 DWORD PTR _iLength$[ebp], eax

; 158  : 				break;

  00419	eb 73		 jmp	 SHORT $L23994
$L23998:

; 140  : 				}
; 141  : 				break;
; 142  : 
; 143  : 			case(Env_Sweep):
; 144  : 				if(iLength>0){

  0041b	8b 45 10	 mov	 eax, DWORD PTR _iLength$[ebp]
  0041e	3b c7		 cmp	 eax, edi
  00420	7e 0b		 jle	 SHORT $L23999

; 145  : 					setHold(iLength-1);

  00422	48		 dec	 eax
  00423	8b f3		 mov	 esi, ebx
  00425	e8 00 00 00 00	 call	 ?setHold@Envelop@@QAEXH@Z ; Envelop::setHold

; 146  : 					iLength	= 0;	//ランレングス圧縮初期化

  0042a	89 7d 10	 mov	 DWORD PTR _iLength$[ebp], edi
$L23999:

; 147  : 				}
; 148  : 				iValue = sweep(MML);

  0042d	8b 45 0c	 mov	 eax, DWORD PTR _MML$[ebp]
  00430	8b cb		 mov	 ecx, ebx
  00432	e8 00 00 00 00	 call	 ?sweep@Envelop@@QAEHPAVMMLfile@@@Z ; Envelop::sweep
  00437	89 45 f0	 mov	 DWORD PTR _iValue$[ebp], eax

; 149  : 				break;

  0043a	eb 52		 jmp	 SHORT $L23994
$L23989:

; 121  : 
; 122  : 			case(Env_Num):
; 123  : 				MML->Back();

  0043c	8b c6		 mov	 eax, esi
  0043e	e8 00 00 00 00	 call	 ?Back@MMLfile@@QAEXXZ	; MMLfile::Back

; 124  : 				i = MML->GetInt();

  00443	8b c6		 mov	 eax, esi
  00445	e8 00 00 00 00	 call	 ?GetInt@MMLfile@@QAEHXZ	; MMLfile::GetInt

; 125  : 				if( (i<-64) || (i>127)){

  0044a	83 f8 c0	 cmp	 eax, -64		; ffffffc0H
  0044d	89 45 ec	 mov	 DWORD PTR _i$[ebp], eax
  00450	7c 7c		 jl	 SHORT $L109206
  00452	83 f8 7f	 cmp	 eax, 127		; 0000007fH
  00455	7f 77		 jg	 SHORT $L109206

; 127  : 				}
; 128  : 
; 129  : 				if(iValue == i){

  00457	39 45 f0	 cmp	 DWORD PTR _iValue$[ebp], eax
  0045a	75 05		 jne	 SHORT $L23993

; 130  : 					iLength++;		//同じだったら、ランレングス圧縮する

  0045c	ff 45 10	 inc	 DWORD PTR _iLength$[ebp]

; 131  : 				} else {

  0045f	eb 2d		 jmp	 SHORT $L23994
$L23993:

; 132  : 					if(iLength>0){

  00461	8b 4d 10	 mov	 ecx, DWORD PTR _iLength$[ebp]
  00464	3b cf		 cmp	 ecx, edi
  00466	7e 10		 jle	 SHORT $L23995

; 133  : 						setHold(iLength-1);	//今までの時間を加算する。

  00468	8d 41 ff	 lea	 eax, DWORD PTR [ecx-1]
  0046b	8b f3		 mov	 esi, ebx
  0046d	e8 00 00 00 00	 call	 ?setHold@Envelop@@QAEXH@Z ; Envelop::setHold

; 134  : 						iLength	= 0;		//ランレングス圧縮初期化

  00472	8b 45 ec	 mov	 eax, DWORD PTR _i$[ebp]
  00475	89 7d 10	 mov	 DWORD PTR _iLength$[ebp], edi
$L23995:

; 135  : 					}
; 136  : 					iValue	= i;

  00478	89 45 f0	 mov	 DWORD PTR _iValue$[ebp], eax

; 137  : 
; 138  : 					code.append((char)1, (char)i & 0x7F);

  0047b	25 7f ff ff ff	 and	 eax, -129		; ffffff7fH
  00480	50		 push	 eax
  00481	6a 01		 push	 1
  00483	8d 4b 14	 lea	 ecx, DWORD PTR [ebx+20]
  00486	e8 00 00 00 00	 call	 ?append@?$basic_string@DU?$char_traits@D@std@@V?$allocator@D@2@@std@@QAEAAV12@ID@Z ; std::basic_string<char,std::char_traits<char>,std::allocator<char> >::append

; 139  : 					ptEnvelop++;

  0048b	ff 43 4c	 inc	 DWORD PTR [ebx+76]
$L23994:
  0048e	8b 7d 0c	 mov	 edi, DWORD PTR _MML$[ebp]
  00491	e8 00 00 00 00	 call	 ?GetChar@MMLfile@@QAEDXZ ; MMLfile::GetChar
  00496	3c 7d		 cmp	 al, 125			; 0000007dH
  00498	0f 85 57 fe ff
	ff		 jne	 $L23980

; 196  : 				break;
; 197  : 		}
; 198  : 	}
; 199  : 
; 200  : 	iValue	=255;			//ランレングス圧縮初期化
; 201  : 	if(iLength>0){

  0049e	8b 45 10	 mov	 eax, DWORD PTR _iLength$[ebp]
  004a1	85 c0		 test	 eax, eax
  004a3	7e 08		 jle	 SHORT $L24018

; 202  : 		setHold(iLength-1);	//ホールド時間出力

  004a5	48		 dec	 eax
  004a6	8b f3		 mov	 esi, ebx
  004a8	e8 00 00 00 00	 call	 ?setHold@Envelop@@QAEXH@Z ; Envelop::setHold
$L24018:

; 203  : 		iLength	= 0;		//ランレングス圧縮初期化
; 204  : 	}
; 205  : 
; 206  : 	if(Release == true){

  004ad	80 7b 48 01	 cmp	 BYTE PTR [ebx+72], 1

; 207  : 		SetLoop(MML, Loop_Release);

  004b1	8b 7d 0c	 mov	 edi, DWORD PTR _MML$[ebp]
  004b4	8b f3		 mov	 esi, ebx
  004b6	75 20		 jne	 SHORT $L24019
  004b8	8b 43 44	 mov	 eax, DWORD PTR [ebx+68]

; 208  : 	} else {

  004bb	eb 1e		 jmp	 SHORT $L109213
$L109204:

; 112  : 			MML->Err(_T("ブロックの終端を示す`}'がありません。"));

  004bd	68 00 00 00 00	 push	 OFFSET FLAT:??_C@_1CK@NIHEMDFE@0?V0?m0?C0?$KP0n?$HNBz?o0?$JCy?30Y?$AA?$GA?$AA?$HN?$AA?80L0B0?$IK0?$HO0?$FL0?$JD0?$AC@
  004c2	eb 2e		 jmp	 SHORT $L109214
$L109205:

; 154  : 					MML->Err(_T("維持時間は0〜255の範囲で指定して下さい。"));

  004c4	68 00 00 00 00	 push	 OFFSET FLAT:??_C@_1CO@PEJKHAOH@?$HN?$KNc?$ABfB?$JF?$JD0o?$AA0?$PP?$FO?$AA2?$AA5?$AA50n?$HL?DV?r0gc?$AH?$FL?$JK0W0fN?$AL0U@
  004c9	e9 83 fe ff ff	 jmp	 $L109215
$L109206:

; 126  : 					MML->Err(_T("エンベロープは-64〜127の範囲で指定して下さい。"));

  004ce	68 00 00 00 00	 push	 OFFSET FLAT:??_C@_1DG@HJBDEDMK@0?$KI0?s0?Y0?m0?$PM0?W0o?$AA?9?$AA6?$AA4?$PP?$FO?$AA1?$AA2?$AA70n?$HL?DV?r0gc?$AH?$FL?$JK@
  004d3	e9 79 fe ff ff	 jmp	 $L109215
$L24019:

; 209  : 		SetLoop(MML, Loop_Normal);

  004d8	8b 43 40	 mov	 eax, DWORD PTR [ebx+64]
$L109213:
  004db	e8 00 00 00 00	 call	 ?SetLoop@Envelop@@QAEXPAVMMLfile@@H@Z ; Envelop::SetLoop

; 210  : 	}
; 211  : 
; 212  : 	if(code.size() > 256){

  004e0	8b 43 28	 mov	 eax, DWORD PTR [ebx+40]
  004e3	3d 00 01 00 00	 cmp	 eax, 256		; 00000100H
  004e8	76 0d		 jbe	 SHORT $L24021

; 213  : 		MML->Err(_T("エンベロープの定義長が255Byteを越えました。"));

  004ea	8b 45 0c	 mov	 eax, DWORD PTR _MML$[ebp]
  004ed	68 00 00 00 00	 push	 OFFSET FLAT:??_C@_1DE@EKNGEJDF@0?$KI0?s0?Y0?m0?$PM0?W0n?$FL?$JK?$HP?$KJ?$JFw0L?$AA2?$AA5?$AA5?$AAB?$AAy?$AAt?$AAe0?$JC?$IN?$IK@
$L109214:
  004f2	e8 00 00 00 00	 call	 ?Err@MMLfile@@QAEXQBG@Z	; MMLfile::Err
$L109217:
$L24021:

; 214  : 	}
; 215  : 
; 216  : 	iSize = code.size();
; 217  : }

  004f7	8b 4d f4	 mov	 ecx, DWORD PTR __$EHRec$[ebp]
  004fa	5f		 pop	 edi
  004fb	89 43 30	 mov	 DWORD PTR [ebx+48], eax
  004fe	5e		 pop	 esi
  004ff	8b c3		 mov	 eax, ebx
  00501	5b		 pop	 ebx
  00502	64 89 0d 00 00
	00 00		 mov	 DWORD PTR fs:__except_list, ecx
  00509	c9		 leave
  0050a	c2 0c 00	 ret	 12			; 0000000cH
$L109210:
$L109120:
  00bd5	8b 4d 08	 mov	 ecx, DWORD PTR _this$[ebp]
  00bd8	e9 00 00 00 00	 jmp	 ??1MusicItem@@QAE@XZ	; MusicItem::~MusicItem
__ehhandler$??0Envelop@@QAE@PAVMMLfile@@IQBG@Z:
  00bdd	b8 00 00 00 00	 mov	 eax, OFFSET FLAT:$T109200
  00be2	e9 00 00 00 00	 jmp	 ___CxxFrameHandler
??0Envelop@@QAE@PAVMMLfile@@IQBG@Z ENDP			; Envelop::Envelop
; Function compile flags: /Ogsy
; File c:\program files (x86)\microsoft visual studio .net 2003\vc7\include\xlocnum
;	COMDAT _$E3
text$yc	SEGMENT
_$E3	PROC NEAR					; COMDAT

; 806  : 		{	// initialize from _Locinfo object

  00000	83 25 00 00 00
	00 00		 and	 DWORD PTR ?id@?$num_put@DV?$ostreambuf_iterator@DU?$char_traits@D@std@@@std@@@std@@2V0locale@2@A, 0 ; std::num_put<char,std::ostreambuf_iterator<char,std::char_traits<char> > >::id
  00007	c3		 ret	 0
_$E3	ENDP
END
