PUBLIC	??_GFileInput@@UAEPAXI@Z			; FileInput::`scalar deleting destructor'
PUBLIC	??_DFileInput@@QAEXXZ				; FileInput::`vbase destructor'
PUBLIC	?rfind@?$basic_string@DU?$char_traits@D@std@@V?$allocator@D@2@@std@@QBEIDI@Z ; std::basic_string<char,std::char_traits<char>,std::allocator<char> >::rfind
PUBLIC	?seekg@?$basic_istream@DU?$char_traits@D@std@@@std@@QAEAAV12@JH@Z ; std::basic_istream<char,std::char_traits<char> >::seekg
PUBLIC	??0?$basic_ifstream@DU?$char_traits@D@std@@@std@@QAE@XZ ; std::basic_ifstream<char,std::char_traits<char> >::basic_ifstream<char,std::char_traits<char> >
PUBLIC	?open@?$basic_ifstream@DU?$char_traits@D@std@@@std@@QAEXPBDHH@Z ; std::basic_ifstream<char,std::char_traits<char> >::open
PUBLIC	?_Getcat@?$codecvt@DDH@std@@SAIPAPBVfacet@locale@2@@Z ; std::codecvt<char,char,int>::_Getcat
PUBLIC	?rfind@?$basic_string@DU?$char_traits@D@std@@V?$allocator@D@2@@std@@QBEIPBDII@Z ; std::basic_string<char,std::char_traits<char>,std::allocator<char> >::rfind
PUBLIC	??0?$basic_istream@DU?$char_traits@D@std@@@std@@QAE@PAV?$basic_streambuf@DU?$char_traits@D@std@@@1@_N1@Z ; std::basic_istream<char,std::char_traits<char> >::basic_istream<char,std::char_traits<char> >
PUBLIC	??0?$basic_filebuf@DU?$char_traits@D@std@@@std@@QAE@PAU_iobuf@@@Z ; std::basic_filebuf<char,std::char_traits<char> >::basic_filebuf<char,std::char_traits<char> >
PUBLIC	?open@?$basic_filebuf@DU?$char_traits@D@std@@@std@@QAEPAV12@PBDHH@Z ; std::basic_filebuf<char,std::char_traits<char> >::open
PUBLIC	??0?$codecvt@DDH@std@@QAE@I@Z			; std::codecvt<char,char,int>::codecvt<char,char,int>
PUBLIC	?init@?$basic_ios@DU?$char_traits@D@std@@@std@@IAEXPAV?$basic_streambuf@DU?$char_traits@D@std@@@2@_N@Z ; std::basic_ios<char,std::char_traits<char> >::init
PUBLIC	??0?$basic_streambuf@DU?$char_traits@D@std@@@std@@IAE@XZ ; std::basic_streambuf<char,std::char_traits<char> >::basic_streambuf<char,std::char_traits<char> >
PUBLIC	?getloc@?$basic_streambuf@DU?$char_traits@D@std@@@std@@QBE?AVlocale@2@XZ ; std::basic_streambuf<char,std::char_traits<char> >::getloc
PUBLIC	?_Init@?$codecvt@DDH@std@@IAEXABV_Locinfo@2@@Z	; std::codecvt<char,char,int>::_Init
PUBLIC	?widen@?$basic_ios@DU?$char_traits@D@std@@@std@@QBEDD@Z ; std::basic_ios<char,std::char_traits<char> >::widen
PUBLIC	?widen@?$ctype@D@std@@QBEDD@Z			; std::ctype<char>::widen
PUBLIC	??_G?$basic_streambuf@DU?$char_traits@D@std@@@std@@UAEPAXI@Z ; std::basic_streambuf<char,std::char_traits<char> >::`scalar deleting destructor'
PUBLIC	?overflow@?$basic_streambuf@DU?$char_traits@D@std@@@std@@MAEHH@Z ; std::basic_streambuf<char,std::char_traits<char> >::overflow
PUBLIC	?pbackfail@?$basic_streambuf@DU?$char_traits@D@std@@@std@@MAEHH@Z ; std::basic_streambuf<char,std::char_traits<char> >::pbackfail
PUBLIC	?showmanyc@?$basic_streambuf@DU?$char_traits@D@std@@@std@@MAEHXZ ; std::basic_streambuf<char,std::char_traits<char> >::showmanyc
PUBLIC	?underflow@?$basic_streambuf@DU?$char_traits@D@std@@@std@@MAEHXZ ; std::basic_streambuf<char,std::char_traits<char> >::underflow
PUBLIC	?uflow@?$basic_streambuf@DU?$char_traits@D@std@@@std@@MAEHXZ ; std::basic_streambuf<char,std::char_traits<char> >::uflow
PUBLIC	?xsgetn@?$basic_streambuf@DU?$char_traits@D@std@@@std@@MAEHPADH@Z ; std::basic_streambuf<char,std::char_traits<char> >::xsgetn
PUBLIC	?gbump@?$basic_streambuf@DU?$char_traits@D@std@@@std@@IAEXH@Z ; std::basic_streambuf<char,std::char_traits<char> >::gbump
PUBLIC	?xsputn@?$basic_streambuf@DU?$char_traits@D@std@@@std@@MAEHPBDH@Z ; std::basic_streambuf<char,std::char_traits<char> >::xsputn
PUBLIC	?pbump@?$basic_streambuf@DU?$char_traits@D@std@@@std@@IAEXH@Z ; std::basic_streambuf<char,std::char_traits<char> >::pbump
PUBLIC	?seekoff@?$basic_streambuf@DU?$char_traits@D@std@@@std@@MAE?AV?$fpos@H@2@JHH@Z ; std::basic_streambuf<char,std::char_traits<char> >::seekoff
PUBLIC	?seekpos@?$basic_streambuf@DU?$char_traits@D@std@@@std@@MAE?AV?$fpos@H@2@V32@H@Z ; std::basic_streambuf<char,std::char_traits<char> >::seekpos
PUBLIC	?setbuf@?$basic_streambuf@DU?$char_traits@D@std@@@std@@MAEPAV12@PADH@Z ; std::basic_streambuf<char,std::char_traits<char> >::setbuf
PUBLIC	?sync@?$basic_streambuf@DU?$char_traits@D@std@@@std@@MAEHXZ ; std::basic_streambuf<char,std::char_traits<char> >::sync
PUBLIC	?imbue@?$basic_streambuf@DU?$char_traits@D@std@@@std@@MAEXABVlocale@2@@Z ; std::basic_streambuf<char,std::char_traits<char> >::imbue
PUBLIC	??_G?$codecvt@DDH@std@@MAEPAXI@Z		; std::codecvt<char,char,int>::`scalar deleting destructor'
PUBLIC	??1?$codecvt@DDH@std@@MAE@XZ			; std::codecvt<char,char,int>::~codecvt<char,char,int>
PUBLIC	?do_always_noconv@codecvt_base@std@@MBE_NXZ	; std::codecvt_base::do_always_noconv
PUBLIC	?do_max_length@codecvt_base@std@@MBEHXZ		; std::codecvt_base::do_max_length
PUBLIC	?do_encoding@codecvt_base@std@@MBEHXZ		; std::codecvt_base::do_encoding
PUBLIC	?do_in@?$codecvt@DDH@std@@MBEHAAHPBD1AAPBDPAD3AAPAD@Z ; std::codecvt<char,char,int>::do_in
PUBLIC	?do_out@?$codecvt@DDH@std@@MBEHAAHPBD1AAPBDPAD3AAPAD@Z ; std::codecvt<char,char,int>::do_out
PUBLIC	?do_unshift@?$codecvt@DDH@std@@MBEHAAHPAD1AAPAD@Z ; std::codecvt<char,char,int>::do_unshift
PUBLIC	?do_length@?$codecvt@DDH@std@@MBEHABHPBD1I@Z	; std::codecvt<char,char,int>::do_length
PUBLIC	??1codecvt_base@std@@UAE@XZ			; std::codecvt_base::~codecvt_base
PUBLIC	??_Gcodecvt_base@std@@UAEPAXI@Z			; std::codecvt_base::`scalar deleting destructor'
PUBLIC	??0codecvt_base@std@@QAE@I@Z			; std::codecvt_base::codecvt_base
PUBLIC	??$use_facet@V?$codecvt@DDH@std@@@std@@YAABV?$codecvt@DDH@0@ABVlocale@0@@Z ; std::use_facet<std::codecvt<char,char,int> >
PUBLIC	?_Initcvt@?$basic_filebuf@DU?$char_traits@D@std@@@std@@IAEXPAV?$codecvt@DDH@2@@Z ; std::basic_filebuf<char,std::char_traits<char> >::_Initcvt
PUBLIC	?always_noconv@codecvt_base@std@@QBE_NXZ	; std::codecvt_base::always_noconv
PUBLIC	??_G?$basic_filebuf@DU?$char_traits@D@std@@@std@@UAEPAXI@Z ; std::basic_filebuf<char,std::char_traits<char> >::`scalar deleting destructor'
PUBLIC	?overflow@?$basic_filebuf@DU?$char_traits@D@std@@@std@@MAEHH@Z ; std::basic_filebuf<char,std::char_traits<char> >::overflow
PUBLIC	?not_eof@?$char_traits@D@std@@SAHABH@Z		; std::char_traits<char>::not_eof
PUBLIC	?out@?$codecvt@DDH@std@@QBEHAAHPBD1AAPBDPAD3AAPAD@Z ; std::codecvt<char,char,int>::out
PUBLIC	??$_Fputc@D@std@@YA_NDPAU_iobuf@@@Z		; std::_Fputc<char>
PUBLIC	?pbackfail@?$basic_filebuf@DU?$char_traits@D@std@@@std@@MAEHH@Z ; std::basic_filebuf<char,std::char_traits<char> >::pbackfail
PUBLIC	?eback@?$basic_streambuf@DU?$char_traits@D@std@@@std@@IBEPADXZ ; std::basic_streambuf<char,std::char_traits<char> >::eback
PUBLIC	?_Gndec@?$basic_streambuf@DU?$char_traits@D@std@@@std@@IAEPADXZ ; std::basic_streambuf<char,std::char_traits<char> >::_Gndec
PUBLIC	??$_Ungetc@D@std@@YA_NABDPAU_iobuf@@@Z		; std::_Ungetc<char>
PUBLIC	?underflow@?$basic_filebuf@DU?$char_traits@D@std@@@std@@MAEHXZ ; std::basic_filebuf<char,std::char_traits<char> >::underflow
PUBLIC	?uflow@?$basic_filebuf@DU?$char_traits@D@std@@@std@@MAEHXZ ; std::basic_filebuf<char,std::char_traits<char> >::uflow
PUBLIC	??$_Fgetc@D@std@@YA_NAADPAU_iobuf@@@Z		; std::_Fgetc<char>
PUBLIC	?in@?$codecvt@DDH@std@@QBEHAAHPBD1AAPBDPAD3AAPAD@Z ; std::codecvt<char,char,int>::in
PUBLIC	?seekoff@?$basic_filebuf@DU?$char_traits@D@std@@@std@@MAE?AV?$fpos@H@2@JHH@Z ; std::basic_filebuf<char,std::char_traits<char> >::seekoff
PUBLIC	??0?$fpos@H@std@@QAE@H_J@Z			; std::fpos<int>::fpos<int>
PUBLIC	?seekpos@?$basic_filebuf@DU?$char_traits@D@std@@@std@@MAE?AV?$fpos@H@2@V32@H@Z ; std::basic_filebuf<char,std::char_traits<char> >::seekpos
PUBLIC	?seekpos@?$fpos@H@std@@QBE_JXZ			; std::fpos<int>::seekpos
PUBLIC	?state@?$fpos@H@std@@QBEHXZ			; std::fpos<int>::state
PUBLIC	?setbuf@?$basic_filebuf@DU?$char_traits@D@std@@@std@@MAEPAV?$basic_streambuf@DU?$char_traits@D@std@@@2@PADH@Z ; std::basic_filebuf<char,std::char_traits<char> >::setbuf
PUBLIC	?sync@?$basic_filebuf@DU?$char_traits@D@std@@@std@@MAEHXZ ; std::basic_filebuf<char,std::char_traits<char> >::sync
PUBLIC	?imbue@?$basic_filebuf@DU?$char_traits@D@std@@@std@@MAEXABVlocale@2@@Z ; std::basic_filebuf<char,std::char_traits<char> >::imbue
PUBLIC	??1?$basic_streambuf@DU?$char_traits@D@std@@@std@@UAE@XZ ; std::basic_streambuf<char,std::char_traits<char> >::~basic_streambuf<char,std::char_traits<char> >
PUBLIC	??_Glocale@std@@QAEPAXI@Z			; std::locale::`scalar deleting destructor'
PUBLIC	??_G?$basic_istream@DU?$char_traits@D@std@@@std@@UAEPAXI@Z ; std::basic_istream<char,std::char_traits<char> >::`scalar deleting destructor'
PUBLIC	??_D?$basic_istream@DU?$char_traits@D@std@@@std@@QAEXXZ ; std::basic_istream<char,std::char_traits<char> >::`vbase destructor'
PUBLIC	?eq@?$char_traits@D@std@@SA_NABD0@Z		; std::char_traits<char>::eq
PUBLIC	??1?$basic_filebuf@DU?$char_traits@D@std@@@std@@UAE@XZ ; std::basic_filebuf<char,std::char_traits<char> >::~basic_filebuf<char,std::char_traits<char> >
PUBLIC	??_G?$basic_string@DU?$char_traits@D@std@@V?$allocator@D@2@@std@@QAEPAXI@Z ; std::basic_string<char,std::char_traits<char>,std::allocator<char> >::`scalar deleting destructor'
PUBLIC	??_G?$basic_ifstream@DU?$char_traits@D@std@@@std@@UAEPAXI@Z ; std::basic_ifstream<char,std::char_traits<char> >::`scalar deleting destructor'
PUBLIC	??_D?$basic_ifstream@DU?$char_traits@D@std@@@std@@QAEXXZ ; std::basic_ifstream<char,std::char_traits<char> >::`vbase destructor'
PUBLIC	??1?$basic_istream@DU?$char_traits@D@std@@@std@@UAE@XZ ; std::basic_istream<char,std::char_traits<char> >::~basic_istream<char,std::char_traits<char> >
PUBLIC	?count@SearchPass@@QAEHXZ			; SearchPass::count
PUBLIC	??1?$basic_ifstream@DU?$char_traits@D@std@@@std@@UAE@XZ ; std::basic_ifstream<char,std::char_traits<char> >::~basic_ifstream<char,std::char_traits<char> >
EXTRN	??_EFileInput@@UAEPAXI@Z:NEAR			; FileInput::`vector deleting destructor'
EXTRN	??0locale@std@@QAE@XZ:NEAR			; std::locale::locale
EXTRN	??1_Mutex@std@@QAE@XZ:NEAR			; std::_Mutex::~_Mutex
EXTRN	??0_Mutex@std@@QAE@XZ:NEAR			; std::_Mutex::_Mutex
EXTRN	??_E?$basic_streambuf@DU?$char_traits@D@std@@@std@@UAEPAXI@Z:NEAR ; std::basic_streambuf<char,std::char_traits<char> >::`vector deleting destructor'
EXTRN	?_Addstd@ios_base@std@@QAEXXZ:NEAR		; std::ios_base::_Addstd
EXTRN	?_Init@ios_base@std@@IAEXXZ:NEAR		; std::ios_base::_Init
EXTRN	??_E?$codecvt@DDH@std@@MAEPAXI@Z:NEAR		; std::codecvt<char,char,int>::`vector deleting destructor'
EXTRN	??_Ecodecvt_base@std@@UAEPAXI@Z:NEAR		; std::codecvt_base::`vector deleting destructor'
EXTRN	?_Fiopen@std@@YAPAU_iobuf@@PBDHH@Z:NEAR		; std::_Fiopen
EXTRN	??_E?$basic_filebuf@DU?$char_traits@D@std@@@std@@UAEPAXI@Z:NEAR ; std::basic_filebuf<char,std::char_traits<char> >::`vector deleting destructor'
EXTRN	_fputc:NEAR
EXTRN	_ungetc:NEAR
EXTRN	_fgetc:NEAR
EXTRN	_fseek:NEAR
EXTRN	_fgetpos:NEAR
EXTRN	_fsetpos:NEAR
EXTRN	_setvbuf:NEAR
EXTRN	_fflush:NEAR
EXTRN	??_E?$basic_istream@DU?$char_traits@D@std@@@std@@UAEPAXI@Z:NEAR ; std::basic_istream<char,std::char_traits<char> >::`vector deleting destructor'
EXTRN	??_E?$basic_ifstream@DU?$char_traits@D@std@@@std@@UAEPAXI@Z:NEAR ; std::basic_ifstream<char,std::char_traits<char> >::`vector deleting destructor'
EXTRN	_perror:NEAR
EXTRN	__errno:NEAR
; Listing generated by Microsoft (R) Optimizing Compiler Version 13.10.3077 

	TITLE	.\FileInput.cpp
	.386P
include listing.inc
if @Version gt 510
.model FLAT
else
;	COMDAT ??_C@_1DE@FBAIPIIH@Qh0f0ni?$BM?$HN?$CC0?Q0?$LJ0g0?$AB0?U0?$KB0?$KE0?k0L?$IJ?$IL0d0K0?$IK0?$HO0?$FL@
CONST	SEGMENT DWORD USE32 PUBLIC 'CONST'
CONST	ENDS
text$yc	SEGMENT PARA USE32 PUBLIC 'CODE'
text$yc	ENDS
;	COMDAT ??_GFileInput@@UAEPAXI@Z
_TEXT	SEGMENT PARA USE32 PUBLIC 'CODE'
_TEXT	ENDS
;	COMDAT ??_DFileInput@@QAEXXZ
_TEXT	SEGMENT PARA USE32 PUBLIC 'CODE'
_TEXT	ENDS
;	COMDAT ?rfind@?$basic_string@DU?$char_traits@D@std@@V?$allocator@D@2@@std@@QBEIDI@Z
_TEXT	SEGMENT PARA USE32 PUBLIC 'CODE'
_TEXT	ENDS
;	COMDAT ?seekg@?$basic_istream@DU?$char_traits@D@std@@@std@@QAEAAV12@JH@Z
_TEXT	SEGMENT PARA USE32 PUBLIC 'CODE'
_TEXT	ENDS
;	COMDAT ??0?$basic_ifstream@DU?$char_traits@D@std@@@std@@QAE@XZ
_TEXT	SEGMENT PARA USE32 PUBLIC 'CODE'
_TEXT	ENDS
;	COMDAT ?open@?$basic_ifstream@DU?$char_traits@D@std@@@std@@QAEXPBDHH@Z
_TEXT	SEGMENT PARA USE32 PUBLIC 'CODE'
_TEXT	ENDS
;	COMDAT ?_Getcat@?$codecvt@DDH@std@@SAIPAPBVfacet@locale@2@@Z
_TEXT	SEGMENT PARA USE32 PUBLIC 'CODE'
_TEXT	ENDS
;	COMDAT ?rfind@?$basic_string@DU?$char_traits@D@std@@V?$allocator@D@2@@std@@QBEIPBDII@Z
_TEXT	SEGMENT PARA USE32 PUBLIC 'CODE'
_TEXT	ENDS
;	COMDAT ??0?$basic_istream@DU?$char_traits@D@std@@@std@@QAE@PAV?$basic_streambuf@DU?$char_traits@D@std@@@1@_N1@Z
_TEXT	SEGMENT PARA USE32 PUBLIC 'CODE'
_TEXT	ENDS
;	COMDAT ??0?$basic_filebuf@DU?$char_traits@D@std@@@std@@QAE@PAU_iobuf@@@Z
_TEXT	SEGMENT PARA USE32 PUBLIC 'CODE'
_TEXT	ENDS
;	COMDAT ?open@?$basic_filebuf@DU?$char_traits@D@std@@@std@@QAEPAV12@PBDHH@Z
_TEXT	SEGMENT PARA USE32 PUBLIC 'CODE'
_TEXT	ENDS
;	COMDAT ??0?$codecvt@DDH@std@@QAE@I@Z
_TEXT	SEGMENT PARA USE32 PUBLIC 'CODE'
_TEXT	ENDS
;	COMDAT ?init@?$basic_ios@DU?$char_traits@D@std@@@std@@IAEXPAV?$basic_streambuf@DU?$char_traits@D@std@@@2@_N@Z
_TEXT	SEGMENT PARA USE32 PUBLIC 'CODE'
_TEXT	ENDS
;	COMDAT ??0?$basic_streambuf@DU?$char_traits@D@std@@@std@@IAE@XZ
_TEXT	SEGMENT PARA USE32 PUBLIC 'CODE'
_TEXT	ENDS
;	COMDAT ?getloc@?$basic_streambuf@DU?$char_traits@D@std@@@std@@QBE?AVlocale@2@XZ
_TEXT	SEGMENT PARA USE32 PUBLIC 'CODE'
_TEXT	ENDS
;	COMDAT ?_Init@?$codecvt@DDH@std@@IAEXABV_Locinfo@2@@Z
_TEXT	SEGMENT PARA USE32 PUBLIC 'CODE'
_TEXT	ENDS
;	COMDAT ?widen@?$basic_ios@DU?$char_traits@D@std@@@std@@QBEDD@Z
_TEXT	SEGMENT PARA USE32 PUBLIC 'CODE'
_TEXT	ENDS
;	COMDAT _$E1
text$yc	SEGMENT PARA USE32 PUBLIC 'CODE'
text$yc	ENDS
;	COMDAT ?_Psave@?$_Facetptr@V?$codecvt@DDH@std@@@std@@2PBVfacet@locale@2@B
_DATA	SEGMENT DWORD USE32 PUBLIC 'DATA'
_DATA	ENDS
;	COMDAT ?widen@?$ctype@D@std@@QBEDD@Z
_TEXT	SEGMENT PARA USE32 PUBLIC 'CODE'
_TEXT	ENDS
;	COMDAT ??_7?$basic_streambuf@DU?$char_traits@D@std@@@std@@6B@
CONST	SEGMENT DWORD USE32 PUBLIC 'CONST'
CONST	ENDS
;	COMDAT ??_G?$basic_streambuf@DU?$char_traits@D@std@@@std@@UAEPAXI@Z
_TEXT	SEGMENT PARA USE32 PUBLIC 'CODE'
_TEXT	ENDS
;	COMDAT ?overflow@?$basic_streambuf@DU?$char_traits@D@std@@@std@@MAEHH@Z
_TEXT	SEGMENT PARA USE32 PUBLIC 'CODE'
_TEXT	ENDS
;	COMDAT ?pbackfail@?$basic_streambuf@DU?$char_traits@D@std@@@std@@MAEHH@Z
_TEXT	SEGMENT PARA USE32 PUBLIC 'CODE'
_TEXT	ENDS
;	COMDAT ?showmanyc@?$basic_streambuf@DU?$char_traits@D@std@@@std@@MAEHXZ
_TEXT	SEGMENT PARA USE32 PUBLIC 'CODE'
_TEXT	ENDS
;	COMDAT ?underflow@?$basic_streambuf@DU?$char_traits@D@std@@@std@@MAEHXZ
_TEXT	SEGMENT PARA USE32 PUBLIC 'CODE'
_TEXT	ENDS
;	COMDAT ?uflow@?$basic_streambuf@DU?$char_traits@D@std@@@std@@MAEHXZ
_TEXT	SEGMENT PARA USE32 PUBLIC 'CODE'
_TEXT	ENDS
;	COMDAT ?xsgetn@?$basic_streambuf@DU?$char_traits@D@std@@@std@@MAEHPADH@Z
_TEXT	SEGMENT PARA USE32 PUBLIC 'CODE'
_TEXT	ENDS
;	COMDAT ?gbump@?$basic_streambuf@DU?$char_traits@D@std@@@std@@IAEXH@Z
_TEXT	SEGMENT PARA USE32 PUBLIC 'CODE'
_TEXT	ENDS
;	COMDAT ?xsputn@?$basic_streambuf@DU?$char_traits@D@std@@@std@@MAEHPBDH@Z
_TEXT	SEGMENT PARA USE32 PUBLIC 'CODE'
_TEXT	ENDS
;	COMDAT ?pbump@?$basic_streambuf@DU?$char_traits@D@std@@@std@@IAEXH@Z
_TEXT	SEGMENT PARA USE32 PUBLIC 'CODE'
_TEXT	ENDS
;	COMDAT ?seekoff@?$basic_streambuf@DU?$char_traits@D@std@@@std@@MAE?AV?$fpos@H@2@JHH@Z
_TEXT	SEGMENT PARA USE32 PUBLIC 'CODE'
_TEXT	ENDS
;	COMDAT ?seekpos@?$basic_streambuf@DU?$char_traits@D@std@@@std@@MAE?AV?$fpos@H@2@V32@H@Z
_TEXT	SEGMENT PARA USE32 PUBLIC 'CODE'
_TEXT	ENDS
;	COMDAT ?setbuf@?$basic_streambuf@DU?$char_traits@D@std@@@std@@MAEPAV12@PADH@Z
_TEXT	SEGMENT PARA USE32 PUBLIC 'CODE'
_TEXT	ENDS
;	COMDAT ?sync@?$basic_streambuf@DU?$char_traits@D@std@@@std@@MAEHXZ
_TEXT	SEGMENT PARA USE32 PUBLIC 'CODE'
_TEXT	ENDS
;	COMDAT ?imbue@?$basic_streambuf@DU?$char_traits@D@std@@@std@@MAEXABVlocale@2@@Z
_TEXT	SEGMENT PARA USE32 PUBLIC 'CODE'
_TEXT	ENDS
;	COMDAT ??_7?$codecvt@DDH@std@@6B@
CONST	SEGMENT DWORD USE32 PUBLIC 'CONST'
CONST	ENDS
;	COMDAT ??_G?$codecvt@DDH@std@@MAEPAXI@Z
_TEXT	SEGMENT PARA USE32 PUBLIC 'CODE'
_TEXT	ENDS
;	COMDAT ??1?$codecvt@DDH@std@@MAE@XZ
_TEXT	SEGMENT PARA USE32 PUBLIC 'CODE'
_TEXT	ENDS
;	COMDAT ?do_always_noconv@codecvt_base@std@@MBE_NXZ
_TEXT	SEGMENT PARA USE32 PUBLIC 'CODE'
_TEXT	ENDS
;	COMDAT ?do_max_length@codecvt_base@std@@MBEHXZ
_TEXT	SEGMENT PARA USE32 PUBLIC 'CODE'
_TEXT	ENDS
;	COMDAT ?do_encoding@codecvt_base@std@@MBEHXZ
_TEXT	SEGMENT PARA USE32 PUBLIC 'CODE'
_TEXT	ENDS
;	COMDAT ?do_in@?$codecvt@DDH@std@@MBEHAAHPBD1AAPBDPAD3AAPAD@Z
_TEXT	SEGMENT PARA USE32 PUBLIC 'CODE'
_TEXT	ENDS
;	COMDAT ?do_out@?$codecvt@DDH@std@@MBEHAAHPBD1AAPBDPAD3AAPAD@Z
_TEXT	SEGMENT PARA USE32 PUBLIC 'CODE'
_TEXT	ENDS
;	COMDAT ?do_unshift@?$codecvt@DDH@std@@MBEHAAHPAD1AAPAD@Z
_TEXT	SEGMENT PARA USE32 PUBLIC 'CODE'
_TEXT	ENDS
;	COMDAT ?do_length@?$codecvt@DDH@std@@MBEHABHPBD1I@Z
_TEXT	SEGMENT PARA USE32 PUBLIC 'CODE'
_TEXT	ENDS
;	COMDAT ??1codecvt_base@std@@UAE@XZ
_TEXT	SEGMENT PARA USE32 PUBLIC 'CODE'
_TEXT	ENDS
;	COMDAT ??_7codecvt_base@std@@6B@
CONST	SEGMENT DWORD USE32 PUBLIC 'CONST'
CONST	ENDS
;	COMDAT ??_Gcodecvt_base@std@@UAEPAXI@Z
_TEXT	SEGMENT PARA USE32 PUBLIC 'CODE'
_TEXT	ENDS
;	COMDAT ??0codecvt_base@std@@QAE@I@Z
_TEXT	SEGMENT PARA USE32 PUBLIC 'CODE'
_TEXT	ENDS
;	COMDAT ??$use_facet@V?$codecvt@DDH@std@@@std@@YAABV?$codecvt@DDH@0@ABVlocale@0@@Z
_TEXT	SEGMENT PARA USE32 PUBLIC 'CODE'
_TEXT	ENDS
;	COMDAT ?_Initcvt@?$basic_filebuf@DU?$char_traits@D@std@@@std@@IAEXPAV?$codecvt@DDH@2@@Z
_TEXT	SEGMENT PARA USE32 PUBLIC 'CODE'
_TEXT	ENDS
;	COMDAT ?always_noconv@codecvt_base@std@@QBE_NXZ
_TEXT	SEGMENT PARA USE32 PUBLIC 'CODE'
_TEXT	ENDS
;	COMDAT ??_7?$basic_filebuf@DU?$char_traits@D@std@@@std@@6B@
CONST	SEGMENT DWORD USE32 PUBLIC 'CONST'
CONST	ENDS
;	COMDAT ??_G?$basic_filebuf@DU?$char_traits@D@std@@@std@@UAEPAXI@Z
_TEXT	SEGMENT PARA USE32 PUBLIC 'CODE'
_TEXT	ENDS
;	COMDAT ?overflow@?$basic_filebuf@DU?$char_traits@D@std@@@std@@MAEHH@Z
_TEXT	SEGMENT PARA USE32 PUBLIC 'CODE'
_TEXT	ENDS
;	COMDAT ?not_eof@?$char_traits@D@std@@SAHABH@Z
_TEXT	SEGMENT PARA USE32 PUBLIC 'CODE'
_TEXT	ENDS
;	COMDAT ?out@?$codecvt@DDH@std@@QBEHAAHPBD1AAPBDPAD3AAPAD@Z
_TEXT	SEGMENT PARA USE32 PUBLIC 'CODE'
_TEXT	ENDS
;	COMDAT ??$_Fputc@D@std@@YA_NDPAU_iobuf@@@Z
_TEXT	SEGMENT PARA USE32 PUBLIC 'CODE'
_TEXT	ENDS
;	COMDAT ?pbackfail@?$basic_filebuf@DU?$char_traits@D@std@@@std@@MAEHH@Z
_TEXT	SEGMENT PARA USE32 PUBLIC 'CODE'
_TEXT	ENDS
;	COMDAT ?eback@?$basic_streambuf@DU?$char_traits@D@std@@@std@@IBEPADXZ
_TEXT	SEGMENT PARA USE32 PUBLIC 'CODE'
_TEXT	ENDS
;	COMDAT ?_Gndec@?$basic_streambuf@DU?$char_traits@D@std@@@std@@IAEPADXZ
_TEXT	SEGMENT PARA USE32 PUBLIC 'CODE'
_TEXT	ENDS
;	COMDAT ??$_Ungetc@D@std@@YA_NABDPAU_iobuf@@@Z
_TEXT	SEGMENT PARA USE32 PUBLIC 'CODE'
_TEXT	ENDS
;	COMDAT ?underflow@?$basic_filebuf@DU?$char_traits@D@std@@@std@@MAEHXZ
_TEXT	SEGMENT PARA USE32 PUBLIC 'CODE'
_TEXT	ENDS
;	COMDAT ?uflow@?$basic_filebuf@DU?$char_traits@D@std@@@std@@MAEHXZ
_TEXT	SEGMENT PARA USE32 PUBLIC 'CODE'
_TEXT	ENDS
;	COMDAT ??$_Fgetc@D@std@@YA_NAADPAU_iobuf@@@Z
_TEXT	SEGMENT PARA USE32 PUBLIC 'CODE'
_TEXT	ENDS
;	COMDAT ?in@?$codecvt@DDH@std@@QBEHAAHPBD1AAPBDPAD3AAPAD@Z
_TEXT	SEGMENT PARA USE32 PUBLIC 'CODE'
_TEXT	ENDS
;	COMDAT ?seekoff@?$basic_filebuf@DU?$char_traits@D@std@@@std@@MAE?AV?$fpos@H@2@JHH@Z
_TEXT	SEGMENT PARA USE32 PUBLIC 'CODE'
_TEXT	ENDS
;	COMDAT ??0?$fpos@H@std@@QAE@H_J@Z
_TEXT	SEGMENT PARA USE32 PUBLIC 'CODE'
_TEXT	ENDS
;	COMDAT ?seekpos@?$basic_filebuf@DU?$char_traits@D@std@@@std@@MAE?AV?$fpos@H@2@V32@H@Z
_TEXT	SEGMENT PARA USE32 PUBLIC 'CODE'
_TEXT	ENDS
;	COMDAT ?seekpos@?$fpos@H@std@@QBE_JXZ
_TEXT	SEGMENT PARA USE32 PUBLIC 'CODE'
_TEXT	ENDS
;	COMDAT ?state@?$fpos@H@std@@QBEHXZ
_TEXT	SEGMENT PARA USE32 PUBLIC 'CODE'
_TEXT	ENDS
;	COMDAT ?setbuf@?$basic_filebuf@DU?$char_traits@D@std@@@std@@MAEPAV?$basic_streambuf@DU?$char_traits@D@std@@@2@PADH@Z
_TEXT	SEGMENT PARA USE32 PUBLIC 'CODE'
_TEXT	ENDS
;	COMDAT ?sync@?$basic_filebuf@DU?$char_traits@D@std@@@std@@MAEHXZ
_TEXT	SEGMENT PARA USE32 PUBLIC 'CODE'
_TEXT	ENDS
;	COMDAT ?imbue@?$basic_filebuf@DU?$char_traits@D@std@@@std@@MAEXABVlocale@2@@Z
_TEXT	SEGMENT PARA USE32 PUBLIC 'CODE'
_TEXT	ENDS
;	COMDAT ??1?$basic_streambuf@DU?$char_traits@D@std@@@std@@UAE@XZ
_TEXT	SEGMENT PARA USE32 PUBLIC 'CODE'
_TEXT	ENDS
;	COMDAT ??_Glocale@std@@QAEPAXI@Z
_TEXT	SEGMENT PARA USE32 PUBLIC 'CODE'
_TEXT	ENDS
;	COMDAT ??_7?$basic_istream@DU?$char_traits@D@std@@@std@@6B@
CONST	SEGMENT DWORD USE32 PUBLIC 'CONST'
CONST	ENDS
;	COMDAT ??_G?$basic_istream@DU?$char_traits@D@std@@@std@@UAEPAXI@Z
_TEXT	SEGMENT PARA USE32 PUBLIC 'CODE'
_TEXT	ENDS
;	COMDAT ??_D?$basic_istream@DU?$char_traits@D@std@@@std@@QAEXXZ
_TEXT	SEGMENT PARA USE32 PUBLIC 'CODE'
_TEXT	ENDS
;	COMDAT ??_8?$basic_istream@DU?$char_traits@D@std@@@std@@7B@
CONST	SEGMENT DWORD USE32 PUBLIC 'CONST'
CONST	ENDS
;	COMDAT ?eq@?$char_traits@D@std@@SA_NABD0@Z
_TEXT	SEGMENT PARA USE32 PUBLIC 'CODE'
_TEXT	ENDS
;	COMDAT ??1?$basic_filebuf@DU?$char_traits@D@std@@@std@@UAE@XZ
_TEXT	SEGMENT PARA USE32 PUBLIC 'CODE'
_TEXT	ENDS
;	COMDAT ??_G?$basic_string@DU?$char_traits@D@std@@V?$allocator@D@2@@std@@QAEPAXI@Z
_TEXT	SEGMENT PARA USE32 PUBLIC 'CODE'
_TEXT	ENDS
;	COMDAT ??_7?$basic_ifstream@DU?$char_traits@D@std@@@std@@6B@
CONST	SEGMENT DWORD USE32 PUBLIC 'CONST'
CONST	ENDS
;	COMDAT ??_G?$basic_ifstream@DU?$char_traits@D@std@@@std@@UAEPAXI@Z
_TEXT	SEGMENT PARA USE32 PUBLIC 'CODE'
_TEXT	ENDS
;	COMDAT ??_D?$basic_ifstream@DU?$char_traits@D@std@@@std@@QAEXXZ
_TEXT	SEGMENT PARA USE32 PUBLIC 'CODE'
_TEXT	ENDS
;	COMDAT ??1?$basic_istream@DU?$char_traits@D@std@@@std@@UAE@XZ
_TEXT	SEGMENT PARA USE32 PUBLIC 'CODE'
_TEXT	ENDS
;	COMDAT ??_8?$basic_ifstream@DU?$char_traits@D@std@@@std@@7B@
CONST	SEGMENT DWORD USE32 PUBLIC 'CONST'
CONST	ENDS
;	COMDAT ?count@SearchPass@@QAEHXZ
_TEXT	SEGMENT PARA USE32 PUBLIC 'CODE'
_TEXT	ENDS
;	COMDAT ??_7FileInput@@6B@
CONST	SEGMENT DWORD USE32 PUBLIC 'CONST'
CONST	ENDS
;	COMDAT ??1?$basic_ifstream@DU?$char_traits@D@std@@@std@@UAE@XZ
_TEXT	SEGMENT PARA USE32 PUBLIC 'CODE'
_TEXT	ENDS
;	COMDAT ??_8FileInput@@7B@
CONST	SEGMENT DWORD USE32 PUBLIC 'CONST'
CONST	ENDS
FLAT	GROUP _DATA, CONST, _BSS
	ASSUME	CS: FLAT, DS: FLAT, SS: FLAT
endif

INCLUDELIB LIBCMT
INCLUDELIB OLDNAMES

PUBLIC	??_C@_1DE@FBAIPIIH@Qh0f0ni?$BM?$HN?$CC0?Q0?$LJ0g0?$AB0?U0?$KB0?$KE0?k0L?$IJ?$IL0d0K0?$IK0?$HO0?$FL@ ; `string'
PUBLIC	?_Psave@?$_Facetptr@V?$codecvt@DDH@std@@@std@@2PBVfacet@locale@2@B ; std::_Facetptr<std::codecvt<char,char,int> >::_Psave
PUBLIC	??_7?$basic_streambuf@DU?$char_traits@D@std@@@std@@6B@ ; std::basic_streambuf<char,std::char_traits<char> >::`vftable'
PUBLIC	??_7?$codecvt@DDH@std@@6B@			; std::codecvt<char,char,int>::`vftable'
PUBLIC	??_7codecvt_base@std@@6B@			; std::codecvt_base::`vftable'
PUBLIC	??_7?$basic_filebuf@DU?$char_traits@D@std@@@std@@6B@ ; std::basic_filebuf<char,std::char_traits<char> >::`vftable'
PUBLIC	??_7?$basic_istream@DU?$char_traits@D@std@@@std@@6B@ ; std::basic_istream<char,std::char_traits<char> >::`vftable'
PUBLIC	??_8?$basic_istream@DU?$char_traits@D@std@@@std@@7B@ ; std::basic_istream<char,std::char_traits<char> >::`vbtable'
PUBLIC	??_7?$basic_ifstream@DU?$char_traits@D@std@@@std@@6B@ ; std::basic_ifstream<char,std::char_traits<char> >::`vftable'
PUBLIC	??_8?$basic_ifstream@DU?$char_traits@D@std@@@std@@7B@ ; std::basic_ifstream<char,std::char_traits<char> >::`vbtable'
PUBLIC	??_7FileInput@@6B@				; FileInput::`vftable'
PUBLIC	??_8FileInput@@7B@				; FileInput::`vbtable'
;	COMDAT ?_Psave@?$_Facetptr@V?$codecvt@DDH@std@@@std@@2PBVfacet@locale@2@B
_BSS	SEGMENT
?_Psave@?$_Facetptr@V?$codecvt@DDH@std@@@std@@2PBVfacet@locale@2@B DD 01H DUP (?) ; std::_Facetptr<std::codecvt<char,char,int> >::_Psave
_BSS	ENDS
;	COMDAT ??_C@_1DE@FBAIPIIH@Qh0f0ni?$BM?$HN?$CC0?Q0?$LJ0g0?$AB0?U0?$KB0?$KE0?k0L?$IJ?$IL0d0K0?$IK0?$HO0?$FL@
CONST	SEGMENT
??_C@_1DE@FBAIPIIH@Qh0f0ni?$BM?$HN?$CC0?Q0?$LJ0g0?$AB0?U0?$KB0?$KE0?k0L?$IJ?$IL0d0K0?$IK0?$HO0?$FL@ DB 'h'
	DB	'Qf0n0', 01cH, 'i"}', 0d1H, '0', 0b9H, '0g0', 01H, '0', 0d5H, '0'
	DB	0a1H, '0', 0a4H, '0', 0ebH, '0L0', 08bH, 089H, 'd0K0', 08aH, '0'
	DB	'~0[0', 093H, '0g0W0_0', 02H, '0', 00H, 00H	; `string'
CONST	ENDS
;	COMDAT ??_7FileInput@@6B@
CONST	SEGMENT
??_7FileInput@@6B@ DD FLAT:??_EFileInput@@UAEPAXI@Z	; FileInput::`vftable'
CONST	ENDS
;	COMDAT ??_8FileInput@@7B@
CONST	SEGMENT
??_8FileInput@@7B@ DD 00H				; FileInput::`vbtable'
	DD	088H
CONST	ENDS
;	COMDAT ??_7?$basic_streambuf@DU?$char_traits@D@std@@@std@@6B@
CONST	SEGMENT
??_7?$basic_streambuf@DU?$char_traits@D@std@@@std@@6B@ DD FLAT:??_E?$basic_streambuf@DU?$char_traits@D@std@@@std@@UAEPAXI@Z ; std::basic_streambuf<char,std::char_traits<char> >::`vftable'
	DD	FLAT:?overflow@?$basic_streambuf@DU?$char_traits@D@std@@@std@@MAEHH@Z
	DD	FLAT:?pbackfail@?$basic_streambuf@DU?$char_traits@D@std@@@std@@MAEHH@Z
	DD	FLAT:?showmanyc@?$basic_streambuf@DU?$char_traits@D@std@@@std@@MAEHXZ
	DD	FLAT:?underflow@?$basic_streambuf@DU?$char_traits@D@std@@@std@@MAEHXZ
	DD	FLAT:?uflow@?$basic_streambuf@DU?$char_traits@D@std@@@std@@MAEHXZ
	DD	FLAT:?xsgetn@?$basic_streambuf@DU?$char_traits@D@std@@@std@@MAEHPADH@Z
	DD	FLAT:?xsputn@?$basic_streambuf@DU?$char_traits@D@std@@@std@@MAEHPBDH@Z
	DD	FLAT:?seekoff@?$basic_streambuf@DU?$char_traits@D@std@@@std@@MAE?AV?$fpos@H@2@JHH@Z
	DD	FLAT:?seekpos@?$basic_streambuf@DU?$char_traits@D@std@@@std@@MAE?AV?$fpos@H@2@V32@H@Z
	DD	FLAT:?setbuf@?$basic_streambuf@DU?$char_traits@D@std@@@std@@MAEPAV12@PADH@Z
	DD	FLAT:?sync@?$basic_streambuf@DU?$char_traits@D@std@@@std@@MAEHXZ
	DD	FLAT:?imbue@?$basic_streambuf@DU?$char_traits@D@std@@@std@@MAEXABVlocale@2@@Z
CONST	ENDS
;	COMDAT ??_7?$basic_istream@DU?$char_traits@D@std@@@std@@6B@
CONST	SEGMENT
??_7?$basic_istream@DU?$char_traits@D@std@@@std@@6B@ DD FLAT:??_E?$basic_istream@DU?$char_traits@D@std@@@std@@UAEPAXI@Z ; std::basic_istream<char,std::char_traits<char> >::`vftable'
CONST	ENDS
;	COMDAT ??_8?$basic_istream@DU?$char_traits@D@std@@@std@@7B@
CONST	SEGMENT
??_8?$basic_istream@DU?$char_traits@D@std@@@std@@7B@ DD 00H ; std::basic_istream<char,std::char_traits<char> >::`vbtable'
	DD	08H
CONST	ENDS
;	COMDAT ??_7?$basic_filebuf@DU?$char_traits@D@std@@@std@@6B@
CONST	SEGMENT
??_7?$basic_filebuf@DU?$char_traits@D@std@@@std@@6B@ DD FLAT:??_E?$basic_filebuf@DU?$char_traits@D@std@@@std@@UAEPAXI@Z ; std::basic_filebuf<char,std::char_traits<char> >::`vftable'
	DD	FLAT:?overflow@?$basic_filebuf@DU?$char_traits@D@std@@@std@@MAEHH@Z
	DD	FLAT:?pbackfail@?$basic_filebuf@DU?$char_traits@D@std@@@std@@MAEHH@Z
	DD	FLAT:?showmanyc@?$basic_streambuf@DU?$char_traits@D@std@@@std@@MAEHXZ
	DD	FLAT:?underflow@?$basic_filebuf@DU?$char_traits@D@std@@@std@@MAEHXZ
	DD	FLAT:?uflow@?$basic_filebuf@DU?$char_traits@D@std@@@std@@MAEHXZ
	DD	FLAT:?xsgetn@?$basic_streambuf@DU?$char_traits@D@std@@@std@@MAEHPADH@Z
	DD	FLAT:?xsputn@?$basic_streambuf@DU?$char_traits@D@std@@@std@@MAEHPBDH@Z
	DD	FLAT:?seekoff@?$basic_filebuf@DU?$char_traits@D@std@@@std@@MAE?AV?$fpos@H@2@JHH@Z
	DD	FLAT:?seekpos@?$basic_filebuf@DU?$char_traits@D@std@@@std@@MAE?AV?$fpos@H@2@V32@H@Z
	DD	FLAT:?setbuf@?$basic_filebuf@DU?$char_traits@D@std@@@std@@MAEPAV?$basic_streambuf@DU?$char_traits@D@std@@@2@PADH@Z
	DD	FLAT:?sync@?$basic_filebuf@DU?$char_traits@D@std@@@std@@MAEHXZ
	DD	FLAT:?imbue@?$basic_filebuf@DU?$char_traits@D@std@@@std@@MAEXABVlocale@2@@Z
CONST	ENDS
;	COMDAT ??_7?$basic_ifstream@DU?$char_traits@D@std@@@std@@6B@
CONST	SEGMENT
??_7?$basic_ifstream@DU?$char_traits@D@std@@@std@@6B@ DD FLAT:??_E?$basic_ifstream@DU?$char_traits@D@std@@@std@@UAEPAXI@Z ; std::basic_ifstream<char,std::char_traits<char> >::`vftable'
CONST	ENDS
;	COMDAT ??_8?$basic_ifstream@DU?$char_traits@D@std@@@std@@7B@
CONST	SEGMENT
??_8?$basic_ifstream@DU?$char_traits@D@std@@@std@@7B@ DD 00H ; std::basic_ifstream<char,std::char_traits<char> >::`vbtable'
	DD	064H
CONST	ENDS
;	COMDAT ??_7codecvt_base@std@@6B@
CONST	SEGMENT
??_7codecvt_base@std@@6B@ DD FLAT:??_Ecodecvt_base@std@@UAEPAXI@Z ; std::codecvt_base::`vftable'
	DD	FLAT:?do_always_noconv@codecvt_base@std@@MBE_NXZ
	DD	FLAT:?do_max_length@codecvt_base@std@@MBEHXZ
	DD	FLAT:?do_encoding@codecvt_base@std@@MBEHXZ
CONST	ENDS
;	COMDAT ??_7?$codecvt@DDH@std@@6B@
CONST	SEGMENT
??_7?$codecvt@DDH@std@@6B@ DD FLAT:??_E?$codecvt@DDH@std@@MAEPAXI@Z ; std::codecvt<char,char,int>::`vftable'
	DD	FLAT:?do_always_noconv@codecvt_base@std@@MBE_NXZ
	DD	FLAT:?do_max_length@codecvt_base@std@@MBEHXZ
	DD	FLAT:?do_encoding@codecvt_base@std@@MBEHXZ
	DD	FLAT:?do_in@?$codecvt@DDH@std@@MBEHAAHPBD1AAPBDPAD3AAPAD@Z
	DD	FLAT:?do_out@?$codecvt@DDH@std@@MBEHAAHPBD1AAPBDPAD3AAPAD@Z
	DD	FLAT:?do_unshift@?$codecvt@DDH@std@@MBEHAAHPAD1AAPAD@Z
	DD	FLAT:?do_length@?$codecvt@DDH@std@@MBEHABHPBD1I@Z
; Function compile flags: /Ogsy
; File f:\nes\nsdl\src\nsc\searchpass.h
;	COMDAT ?count@SearchPass@@QAEHXZ
_TEXT	SEGMENT
?count@SearchPass@@QAEHXZ PROC NEAR			; SearchPass::count, COMDAT
; _this$ = eax

; 35   : 	int					count(){return(m_count);};	//ìoò^êîó ÇÃéÊìæ

  00000	8b 00		 mov	 eax, DWORD PTR [eax]
  00002	c3		 ret	 0
?count@SearchPass@@QAEHXZ ENDP				; SearchPass::count
; Function compile flags: /Ogsy
; File c:\program files (x86)\microsoft visual studio .net 2003\vc7\include\istream
_TEXT	ENDS
;	COMDAT ??1?$basic_istream@DU?$char_traits@D@std@@@std@@UAE@XZ
_TEXT	SEGMENT
??1?$basic_istream@DU?$char_traits@D@std@@@std@@UAE@XZ PROC NEAR ; std::basic_istream<char,std::char_traits<char> >::~basic_istream<char,std::char_traits<char> >, COMDAT
; _this$ = ecx

; 39   : 		{	// destroy the object

  00000	8b 41 f8	 mov	 eax, DWORD PTR [ecx-8]
  00003	8b 40 04	 mov	 eax, DWORD PTR [eax+4]
  00006	c7 44 08 f8 00
	00 00 00	 mov	 DWORD PTR [eax+ecx-8], OFFSET FLAT:??_7?$basic_istream@DU?$char_traits@D@std@@@std@@6B@

; 40   : 		}

  0000e	c3		 ret	 0
??1?$basic_istream@DU?$char_traits@D@std@@@std@@UAE@XZ ENDP ; std::basic_istream<char,std::char_traits<char> >::~basic_istream<char,std::char_traits<char> >
; Function compile flags: /Ogsy
; File c:\program files (x86)\microsoft visual studio .net 2003\vc7\include\iosfwd
_TEXT	ENDS
;	COMDAT ?eq@?$char_traits@D@std@@SA_NABD0@Z
_TEXT	SEGMENT
?eq@?$char_traits@D@std@@SA_NABD0@Z PROC NEAR		; std::char_traits<char>::eq, COMDAT
; __Left$ = eax
; __Right$ = ecx

; 336  : 		return (_Left == _Right);

  00000	8a 00		 mov	 al, BYTE PTR [eax]
  00002	2a 01		 sub	 al, BYTE PTR [ecx]
  00004	f6 d8		 neg	 al
  00006	1b c0		 sbb	 eax, eax
  00008	40		 inc	 eax

; 337  : 		}

  00009	c3		 ret	 0
?eq@?$char_traits@D@std@@SA_NABD0@Z ENDP		; std::char_traits<char>::eq
; Function compile flags: /Ogsy
; File c:\program files (x86)\microsoft visual studio .net 2003\vc7\include\fstream
_TEXT	ENDS
;	COMDAT ?setbuf@?$basic_filebuf@DU?$char_traits@D@std@@@std@@MAEPAV?$basic_streambuf@DU?$char_traits@D@std@@@2@PADH@Z
_TEXT	SEGMENT
__Buffer$ = 8						; size = 4
__Count$ = 12						; size = 4
?setbuf@?$basic_filebuf@DU?$char_traits@D@std@@@std@@MAEPAV?$basic_streambuf@DU?$char_traits@D@std@@@2@PADH@Z PROC NEAR ; std::basic_filebuf<char,std::char_traits<char> >::setbuf, COMDAT
; _this$ = ecx

; 372  : 		{	// offer _Buffer to C stream

  00000	56		 push	 esi
  00001	8b f1		 mov	 esi, ecx

; 373  : 		return (_Myfile == 0 || setvbuf(_Myfile, (char *)_Buffer,
; 374  : 			_Buffer == 0 && _Count == 0 ? _IONBF : _IOFBF,
; 375  : 			_Count * sizeof (_Elem)) != 0 ? 0 : this);

  00003	8b 46 58	 mov	 eax, DWORD PTR [esi+88]
  00006	85 c0		 test	 eax, eax
  00008	74 2f		 je	 SHORT $L35807
  0000a	83 7c 24 08 00	 cmp	 DWORD PTR __Buffer$[esp], 0
  0000f	75 0c		 jne	 SHORT $L35805
  00011	83 7c 24 0c 00	 cmp	 DWORD PTR __Count$[esp], 0
  00016	75 05		 jne	 SHORT $L35805
  00018	6a 04		 push	 4
  0001a	59		 pop	 ecx
  0001b	eb 02		 jmp	 SHORT $L35806
$L35805:
  0001d	33 c9		 xor	 ecx, ecx
$L35806:
  0001f	ff 74 24 0c	 push	 DWORD PTR __Count$[esp]
  00023	51		 push	 ecx
  00024	ff 74 24 10	 push	 DWORD PTR __Buffer$[esp+8]
  00028	50		 push	 eax
  00029	e8 00 00 00 00	 call	 _setvbuf
  0002e	83 c4 10	 add	 esp, 16			; 00000010H
  00031	85 c0		 test	 eax, eax
  00033	75 04		 jne	 SHORT $L35807
  00035	8b c6		 mov	 eax, esi
  00037	eb 02		 jmp	 SHORT $L35808
$L35807:
  00039	33 c0		 xor	 eax, eax
$L35808:
  0003b	5e		 pop	 esi

; 376  : 		}

  0003c	c2 08 00	 ret	 8
?setbuf@?$basic_filebuf@DU?$char_traits@D@std@@@std@@MAEPAV?$basic_streambuf@DU?$char_traits@D@std@@@2@PADH@Z ENDP ; std::basic_filebuf<char,std::char_traits<char> >::setbuf
; Function compile flags: /Ogsy
; File c:\program files (x86)\microsoft visual studio .net 2003\vc7\include\iosfwd
_TEXT	ENDS
;	COMDAT ?state@?$fpos@H@std@@QBEHXZ
_TEXT	SEGMENT
?state@?$fpos@H@std@@QBEHXZ PROC NEAR			; std::fpos<int>::state, COMDAT
; _this$ = eax

; 47   : 		return (_Mystate);

  00000	8b 40 10	 mov	 eax, DWORD PTR [eax+16]

; 48   : 		}

  00003	c3		 ret	 0
?state@?$fpos@H@std@@QBEHXZ ENDP			; std::fpos<int>::state
; Function compile flags: /Ogsy
_TEXT	ENDS
;	COMDAT ?seekpos@?$fpos@H@std@@QBE_JXZ
_TEXT	SEGMENT
?seekpos@?$fpos@H@std@@QBE_JXZ PROC NEAR		; std::fpos<int>::seekpos, COMDAT
; _this$ = ecx

; 57   : 		return (_Fpos);

  00000	8b 41 08	 mov	 eax, DWORD PTR [ecx+8]
  00003	8b 51 0c	 mov	 edx, DWORD PTR [ecx+12]

; 58   : 		}

  00006	c3		 ret	 0
?seekpos@?$fpos@H@std@@QBE_JXZ ENDP			; std::fpos<int>::seekpos
; Function compile flags: /Ogsy
_TEXT	ENDS
;	COMDAT ??0?$fpos@H@std@@QAE@H_J@Z
_TEXT	SEGMENT
__State$ = 8						; size = 4
__Fileposition$ = 12					; size = 8
??0?$fpos@H@std@@QAE@H_J@Z PROC NEAR			; std::fpos<int>::fpos<int>, COMDAT
; _this$ = eax

; 42   : 		{	// construct with conversion state and C file position

  00000	8b 4c 24 08	 mov	 ecx, DWORD PTR __Fileposition$[esp-4]
  00004	83 20 00	 and	 DWORD PTR [eax], 0
  00007	89 48 08	 mov	 DWORD PTR [eax+8], ecx
  0000a	8b 4c 24 0c	 mov	 ecx, DWORD PTR __Fileposition$[esp]
  0000e	89 48 0c	 mov	 DWORD PTR [eax+12], ecx
  00011	8b 4c 24 04	 mov	 ecx, DWORD PTR __State$[esp-4]
  00015	89 48 10	 mov	 DWORD PTR [eax+16], ecx

; 43   : 		}

  00018	c2 0c 00	 ret	 12			; 0000000cH
??0?$fpos@H@std@@QAE@H_J@Z ENDP				; std::fpos<int>::fpos<int>
; Function compile flags: /Ogsy
; File c:\program files (x86)\microsoft visual studio .net 2003\vc7\include\xlocale
_TEXT	ENDS
;	COMDAT ?in@?$codecvt@DDH@std@@QBEHAAHPBD1AAPBDPAD3AAPAD@Z
_TEXT	SEGMENT
__State$ = 8						; size = 4
__First1$ = 12						; size = 4
__Last1$ = 16						; size = 4
__Mid1$ = 20						; size = 4
__First2$ = 24						; size = 4
__Last2$ = 28						; size = 4
__Mid2$ = 32						; size = 4
?in@?$codecvt@DDH@std@@QBEHAAHPBD1AAPBDPAD3AAPAD@Z PROC NEAR ; std::codecvt<char,char,int>::in, COMDAT
; _this$ = ecx

; 557  : 		{	// convert bytes [_First1, _Last1) to [_First2, _Last)

  00000	55		 push	 ebp
  00001	8b ec		 mov	 ebp, esp

; 558  : 		return (do_in(_State,
; 559  : 			_First1, _Last1, _Mid1, _First2, _Last2, _Mid2));

  00003	8b 01		 mov	 eax, DWORD PTR [ecx]

; 560  : 		}

  00005	5d		 pop	 ebp

; 558  : 		return (do_in(_State,
; 559  : 			_First1, _Last1, _Mid1, _First2, _Last2, _Mid2));

  00006	ff 60 10	 jmp	 DWORD PTR [eax+16]
?in@?$codecvt@DDH@std@@QBEHAAHPBD1AAPBDPAD3AAPAD@Z ENDP	; std::codecvt<char,char,int>::in
; Function compile flags: /Ogsy
; File c:\program files (x86)\microsoft visual studio .net 2003\vc7\include\fstream
_TEXT	ENDS
;	COMDAT ??$_Fgetc@D@std@@YA_NAADPAU_iobuf@@@Z
_TEXT	SEGMENT
__Byte$ = 8						; size = 4
__File$ = 12						; size = 4
??$_Fgetc@D@std@@YA_NAADPAU_iobuf@@@Z PROC NEAR		; std::_Fgetc<char>, COMDAT

; 24   : 	int _Meta;
; 25   : 	if ((_Meta = fgetc(_File)) == EOF)

  00000	ff 74 24 08	 push	 DWORD PTR __File$[esp-4]
  00004	e8 00 00 00 00	 call	 _fgetc
  00009	83 f8 ff	 cmp	 eax, -1
  0000c	59		 pop	 ecx
  0000d	75 03		 jne	 SHORT $L9174

; 26   : 		return (false);

  0000f	32 c0		 xor	 al, al

; 31   : 		}
; 32   : 	}

  00011	c3		 ret	 0
$L9174:

; 27   : 	else
; 28   : 		{	// got one, convert to char
; 29   : 		_Byte = (char)_Meta;

  00012	8b 4c 24 04	 mov	 ecx, DWORD PTR __Byte$[esp-4]
  00016	88 01		 mov	 BYTE PTR [ecx], al

; 30   : 		return (true);

  00018	b0 01		 mov	 al, 1

; 31   : 		}
; 32   : 	}

  0001a	c3		 ret	 0
??$_Fgetc@D@std@@YA_NAADPAU_iobuf@@@Z ENDP		; std::_Fgetc<char>
; Function compile flags: /Ogsy
_TEXT	ENDS
;	COMDAT ??$_Ungetc@D@std@@YA_NABDPAU_iobuf@@@Z
_TEXT	SEGMENT
__File$ = 8						; size = 4
??$_Ungetc@D@std@@YA_NABDPAU_iobuf@@@Z PROC NEAR	; std::_Ungetc<char>, COMDAT
; __Byte$ = eax

; 74   : 	return (ungetc((unsigned char)_Byte, _File) != EOF);

  00000	0f b6 00	 movzx	 eax, BYTE PTR [eax]
  00003	ff 74 24 04	 push	 DWORD PTR __File$[esp-4]
  00007	50		 push	 eax
  00008	e8 00 00 00 00	 call	 _ungetc
  0000d	59		 pop	 ecx
  0000e	59		 pop	 ecx
  0000f	33 c9		 xor	 ecx, ecx
  00011	83 f8 ff	 cmp	 eax, -1
  00014	0f 95 c1	 setne	 cl
  00017	8a c1		 mov	 al, cl

; 75   : 	}

  00019	c3		 ret	 0
??$_Ungetc@D@std@@YA_NABDPAU_iobuf@@@Z ENDP		; std::_Ungetc<char>
; Function compile flags: /Ogsy
; File c:\program files (x86)\microsoft visual studio .net 2003\vc7\include\streambuf
_TEXT	ENDS
;	COMDAT ?_Gndec@?$basic_streambuf@DU?$char_traits@D@std@@@std@@IAEPADXZ
_TEXT	SEGMENT
?_Gndec@?$basic_streambuf@DU?$char_traits@D@std@@@std@@IAEPADXZ PROC NEAR ; std::basic_streambuf<char,std::char_traits<char> >::_Gndec, COMDAT
; _this$ = ecx

; 213  : 		++*_IGcount;

  00000	8b 41 30	 mov	 eax, DWORD PTR [ecx+48]
  00003	ff 00		 inc	 DWORD PTR [eax]

; 214  : 		return (--*_IGnext);

  00005	8b 41 20	 mov	 eax, DWORD PTR [ecx+32]
  00008	ff 08		 dec	 DWORD PTR [eax]
  0000a	8b 41 20	 mov	 eax, DWORD PTR [ecx+32]
  0000d	8b 00		 mov	 eax, DWORD PTR [eax]

; 215  : 		}

  0000f	c3		 ret	 0
?_Gndec@?$basic_streambuf@DU?$char_traits@D@std@@@std@@IAEPADXZ ENDP ; std::basic_streambuf<char,std::char_traits<char> >::_Gndec
; Function compile flags: /Ogsy
_TEXT	ENDS
;	COMDAT ?eback@?$basic_streambuf@DU?$char_traits@D@std@@@std@@IBEPADXZ
_TEXT	SEGMENT
?eback@?$basic_streambuf@DU?$char_traits@D@std@@@std@@IBEPADXZ PROC NEAR ; std::basic_streambuf<char,std::char_traits<char> >::eback, COMDAT
; _this$ = eax

; 170  : 		return (*_IGfirst);

  00000	8b 40 10	 mov	 eax, DWORD PTR [eax+16]
  00003	8b 00		 mov	 eax, DWORD PTR [eax]

; 171  : 		}

  00005	c3		 ret	 0
?eback@?$basic_streambuf@DU?$char_traits@D@std@@@std@@IBEPADXZ ENDP ; std::basic_streambuf<char,std::char_traits<char> >::eback
; Function compile flags: /Ogsy
; File c:\program files (x86)\microsoft visual studio .net 2003\vc7\include\fstream
_TEXT	ENDS
;	COMDAT ??$_Fputc@D@std@@YA_NDPAU_iobuf@@@Z
_TEXT	SEGMENT
__File$ = 8						; size = 4
??$_Fputc@D@std@@YA_NDPAU_iobuf@@@Z PROC NEAR		; std::_Fputc<char>, COMDAT
; __Byte$ = eax

; 56   : 	return (fputc(_Byte, _File) != EOF);

  00000	ff 74 24 04	 push	 DWORD PTR __File$[esp-4]
  00004	0f be c0	 movsx	 eax, al
  00007	50		 push	 eax
  00008	e8 00 00 00 00	 call	 _fputc
  0000d	59		 pop	 ecx
  0000e	59		 pop	 ecx
  0000f	33 c9		 xor	 ecx, ecx
  00011	83 f8 ff	 cmp	 eax, -1
  00014	0f 95 c1	 setne	 cl
  00017	8a c1		 mov	 al, cl

; 57   : 	}

  00019	c3		 ret	 0
??$_Fputc@D@std@@YA_NDPAU_iobuf@@@Z ENDP		; std::_Fputc<char>
; Function compile flags: /Ogsy
; File c:\program files (x86)\microsoft visual studio .net 2003\vc7\include\xlocale
_TEXT	ENDS
;	COMDAT ?out@?$codecvt@DDH@std@@QBEHAAHPBD1AAPBDPAD3AAPAD@Z
_TEXT	SEGMENT
__State$ = 8						; size = 4
__First1$ = 12						; size = 4
__Last1$ = 16						; size = 4
__Mid1$ = 20						; size = 4
__First2$ = 24						; size = 4
__Last2$ = 28						; size = 4
__Mid2$ = 32						; size = 4
?out@?$codecvt@DDH@std@@QBEHAAHPBD1AAPBDPAD3AAPAD@Z PROC NEAR ; std::codecvt<char,char,int>::out, COMDAT
; _this$ = ecx

; 565  : 		{	// convert [_First1, _Last1) to bytes [_First2, _Last2)

  00000	55		 push	 ebp
  00001	8b ec		 mov	 ebp, esp

; 566  : 		return (do_out(_State,
; 567  : 			_First1, _Last1, _Mid1, _First2, _Last2, _Mid2));

  00003	8b 01		 mov	 eax, DWORD PTR [ecx]

; 568  : 		}

  00005	5d		 pop	 ebp

; 566  : 		return (do_out(_State,
; 567  : 			_First1, _Last1, _Mid1, _First2, _Last2, _Mid2));

  00006	ff 60 14	 jmp	 DWORD PTR [eax+20]
?out@?$codecvt@DDH@std@@QBEHAAHPBD1AAPBDPAD3AAPAD@Z ENDP ; std::codecvt<char,char,int>::out
; Function compile flags: /Ogsy
_TEXT	ENDS
;	COMDAT ?always_noconv@codecvt_base@std@@QBE_NXZ
_TEXT	SEGMENT
?always_noconv@codecvt_base@std@@QBE_NXZ PROC NEAR	; std::codecvt_base::always_noconv, COMDAT
; _this$ = ecx

; 508  : 		return (do_always_noconv());

  00000	8b 01		 mov	 eax, DWORD PTR [ecx]
  00002	ff 60 04	 jmp	 DWORD PTR [eax+4]
?always_noconv@codecvt_base@std@@QBE_NXZ ENDP		; std::codecvt_base::always_noconv
; Function compile flags: /Ogsy
_TEXT	ENDS
;	COMDAT ?do_length@?$codecvt@DDH@std@@MBEHABHPBD1I@Z
_TEXT	SEGMENT
___formal$ = 8						; size = 4
__First1$ = 12						; size = 4
__Last1$ = 16						; size = 4
__Count$ = 20						; size = 4
?do_length@?$codecvt@DDH@std@@MBEHABHPBD1I@Z PROC NEAR	; std::codecvt<char,char,int>::do_length, COMDAT
; _this$ = ecx

; 638  : 		return ((int)(_Count < (size_t)(_Last1 - _First1)
; 639  : 			? _Count : _Last1 - _First1));	// assume 1-to-1 conversion

  00000	8b 44 24 0c	 mov	 eax, DWORD PTR __Last1$[esp-4]
  00004	2b 44 24 08	 sub	 eax, DWORD PTR __First1$[esp-4]
  00008	39 44 24 10	 cmp	 DWORD PTR __Count$[esp-4], eax
  0000c	73 04		 jae	 SHORT $L35847
  0000e	8b 44 24 10	 mov	 eax, DWORD PTR __Count$[esp-4]
$L35847:

; 640  : 		}

  00012	c2 10 00	 ret	 16			; 00000010H
?do_length@?$codecvt@DDH@std@@MBEHABHPBD1I@Z ENDP	; std::codecvt<char,char,int>::do_length
; Function compile flags: /Ogsy
_TEXT	ENDS
;	COMDAT ?do_unshift@?$codecvt@DDH@std@@MBEHAAHPAD1AAPAD@Z
_TEXT	SEGMENT
___formal$ = 8						; size = 4
___formal$ = 12						; size = 4
___formal$ = 16						; size = 4
___formal$ = 20						; size = 4
?do_unshift@?$codecvt@DDH@std@@MBEHAAHPAD1AAPAD@Z PROC NEAR ; std::codecvt<char,char,int>::do_unshift, COMDAT
; _this$ = ecx

; 632  : 		return (noconv);	// convert nothing

  00000	6a 03		 push	 3
  00002	58		 pop	 eax

; 633  : 		}

  00003	c2 10 00	 ret	 16			; 00000010H
?do_unshift@?$codecvt@DDH@std@@MBEHAAHPAD1AAPAD@Z ENDP	; std::codecvt<char,char,int>::do_unshift
; Function compile flags: /Ogsy
_TEXT	ENDS
;	COMDAT ?do_out@?$codecvt@DDH@std@@MBEHAAHPBD1AAPBDPAD3AAPAD@Z
_TEXT	SEGMENT
___formal$ = 8						; size = 4
__First1$ = 12						; size = 4
___formal$ = 16						; size = 4
__Mid1$ = 20						; size = 4
__First2$ = 24						; size = 4
___formal$ = 28						; size = 4
__Mid2$ = 32						; size = 4
?do_out@?$codecvt@DDH@std@@MBEHAAHPBD1AAPBDPAD3AAPAD@Z PROC NEAR ; std::codecvt<char,char,int>::do_out, COMDAT
; _this$ = ecx

; 625  : 		_Mid1 = _First1, _Mid2 = _First2;

  00000	8b 44 24 10	 mov	 eax, DWORD PTR __Mid1$[esp-4]
  00004	8b 4c 24 08	 mov	 ecx, DWORD PTR __First1$[esp-4]
  00008	89 08		 mov	 DWORD PTR [eax], ecx
  0000a	8b 44 24 1c	 mov	 eax, DWORD PTR __Mid2$[esp-4]
  0000e	8b 4c 24 14	 mov	 ecx, DWORD PTR __First2$[esp-4]

; 626  : 		return (noconv);	// convert nothing

  00012	6a 03		 push	 3
  00014	89 08		 mov	 DWORD PTR [eax], ecx
  00016	58		 pop	 eax

; 627  : 		}

  00017	c2 1c 00	 ret	 28			; 0000001cH
?do_out@?$codecvt@DDH@std@@MBEHAAHPBD1AAPBDPAD3AAPAD@Z ENDP ; std::codecvt<char,char,int>::do_out
; Function compile flags: /Ogsy
_TEXT	ENDS
;	COMDAT ?do_in@?$codecvt@DDH@std@@MBEHAAHPBD1AAPBDPAD3AAPAD@Z
_TEXT	SEGMENT
___formal$ = 8						; size = 4
__First1$ = 12						; size = 4
___formal$ = 16						; size = 4
__Mid1$ = 20						; size = 4
__First2$ = 24						; size = 4
___formal$ = 28						; size = 4
__Mid2$ = 32						; size = 4
?do_in@?$codecvt@DDH@std@@MBEHAAHPBD1AAPBDPAD3AAPAD@Z PROC NEAR ; std::codecvt<char,char,int>::do_in, COMDAT
; _this$ = ecx

; 617  : 		_Mid1 = _First1, _Mid2 = _First2;

  00000	8b 44 24 10	 mov	 eax, DWORD PTR __Mid1$[esp-4]
  00004	8b 4c 24 08	 mov	 ecx, DWORD PTR __First1$[esp-4]
  00008	89 08		 mov	 DWORD PTR [eax], ecx
  0000a	8b 44 24 1c	 mov	 eax, DWORD PTR __Mid2$[esp-4]
  0000e	8b 4c 24 14	 mov	 ecx, DWORD PTR __First2$[esp-4]

; 618  : 		return (noconv);	// convert nothing

  00012	6a 03		 push	 3
  00014	89 08		 mov	 DWORD PTR [eax], ecx
  00016	58		 pop	 eax

; 619  : 		}

  00017	c2 1c 00	 ret	 28			; 0000001cH
?do_in@?$codecvt@DDH@std@@MBEHAAHPBD1AAPBDPAD3AAPAD@Z ENDP ; std::codecvt<char,char,int>::do_in
; Function compile flags: /Ogsy
_TEXT	ENDS
;	COMDAT ?do_encoding@codecvt_base@std@@MBEHXZ
_TEXT	SEGMENT
?do_encoding@codecvt_base@std@@MBEHXZ PROC NEAR		; std::codecvt_base::do_encoding, COMDAT
; _this$ = ecx

; 538  : 		return (1);	// -1 ==> state dependent, 0 ==> varying length

  00000	33 c0		 xor	 eax, eax
  00002	40		 inc	 eax

; 539  : 		}

  00003	c3		 ret	 0
?do_encoding@codecvt_base@std@@MBEHXZ ENDP		; std::codecvt_base::do_encoding
; Function compile flags: /Ogsy
_TEXT	ENDS
;	COMDAT ?do_max_length@codecvt_base@std@@MBEHXZ
_TEXT	SEGMENT
?do_max_length@codecvt_base@std@@MBEHXZ PROC NEAR	; std::codecvt_base::do_max_length, COMDAT
; _this$ = ecx

; 533  : 		return (1);

  00000	33 c0		 xor	 eax, eax
  00002	40		 inc	 eax

; 534  : 		}

  00003	c3		 ret	 0
?do_max_length@codecvt_base@std@@MBEHXZ ENDP		; std::codecvt_base::do_max_length
; Function compile flags: /Ogsy
_TEXT	ENDS
;	COMDAT ?do_always_noconv@codecvt_base@std@@MBE_NXZ
_TEXT	SEGMENT
?do_always_noconv@codecvt_base@std@@MBE_NXZ PROC NEAR	; std::codecvt_base::do_always_noconv, COMDAT
; _this$ = ecx

; 528  : 		return (true);

  00000	b0 01		 mov	 al, 1

; 529  : 		}

  00002	c3		 ret	 0
?do_always_noconv@codecvt_base@std@@MBE_NXZ ENDP	; std::codecvt_base::do_always_noconv
; Function compile flags: /Ogsy
; File c:\program files (x86)\microsoft visual studio .net 2003\vc7\include\streambuf
_TEXT	ENDS
;	COMDAT ?imbue@?$basic_streambuf@DU?$char_traits@D@std@@@std@@MAEXABVlocale@2@@Z
_TEXT	SEGMENT
___formal$ = 8						; size = 4
?imbue@?$basic_streambuf@DU?$char_traits@D@std@@@std@@MAEXABVlocale@2@@Z PROC NEAR ; std::basic_streambuf<char,std::char_traits<char> >::imbue, COMDAT
; _this$ = ecx

; 373  : 		}

  00000	c2 04 00	 ret	 4
?imbue@?$basic_streambuf@DU?$char_traits@D@std@@@std@@MAEXABVlocale@2@@Z ENDP ; std::basic_streambuf<char,std::char_traits<char> >::imbue
; Function compile flags: /Ogsy
_TEXT	ENDS
;	COMDAT ?sync@?$basic_streambuf@DU?$char_traits@D@std@@@std@@MAEHXZ
_TEXT	SEGMENT
?sync@?$basic_streambuf@DU?$char_traits@D@std@@@std@@MAEHXZ PROC NEAR ; std::basic_streambuf<char,std::char_traits<char> >::sync, COMDAT
; _this$ = ecx

; 368  : 		return (0);

  00000	33 c0		 xor	 eax, eax

; 369  : 		}

  00002	c3		 ret	 0
?sync@?$basic_streambuf@DU?$char_traits@D@std@@@std@@MAEHXZ ENDP ; std::basic_streambuf<char,std::char_traits<char> >::sync
; Function compile flags: /Ogsy
_TEXT	ENDS
;	COMDAT ?setbuf@?$basic_streambuf@DU?$char_traits@D@std@@@std@@MAEPAV12@PADH@Z
_TEXT	SEGMENT
___formal$ = 8						; size = 4
___formal$ = 12						; size = 4
?setbuf@?$basic_streambuf@DU?$char_traits@D@std@@@std@@MAEPAV12@PADH@Z PROC NEAR ; std::basic_streambuf<char,std::char_traits<char> >::setbuf, COMDAT
; _this$ = ecx

; 362  : 		{	// offer buffer to external agent (do nothing)

  00000	8b c1		 mov	 eax, ecx

; 363  : 		return (this);
; 364  : 		}

  00002	c2 08 00	 ret	 8
?setbuf@?$basic_streambuf@DU?$char_traits@D@std@@@std@@MAEPAV12@PADH@Z ENDP ; std::basic_streambuf<char,std::char_traits<char> >::setbuf
; Function compile flags: /Ogsy
_TEXT	ENDS
;	COMDAT ?pbump@?$basic_streambuf@DU?$char_traits@D@std@@@std@@IAEXH@Z
_TEXT	SEGMENT
?pbump@?$basic_streambuf@DU?$char_traits@D@std@@@std@@IAEXH@Z PROC NEAR ; std::basic_streambuf<char,std::char_traits<char> >::pbump, COMDAT
; _this$ = edx
; __Off$ = ecx

; 225  : 		*_IPcount -= _Off;

  00000	8b 42 34	 mov	 eax, DWORD PTR [edx+52]
  00003	29 08		 sub	 DWORD PTR [eax], ecx

; 226  : 		*_IPnext += _Off;

  00005	8b 42 24	 mov	 eax, DWORD PTR [edx+36]
  00008	01 08		 add	 DWORD PTR [eax], ecx

; 227  : 		}

  0000a	c3		 ret	 0
?pbump@?$basic_streambuf@DU?$char_traits@D@std@@@std@@IAEXH@Z ENDP ; std::basic_streambuf<char,std::char_traits<char> >::pbump
; Function compile flags: /Ogsy
_TEXT	ENDS
;	COMDAT ?gbump@?$basic_streambuf@DU?$char_traits@D@std@@@std@@IAEXH@Z
_TEXT	SEGMENT
?gbump@?$basic_streambuf@DU?$char_traits@D@std@@@std@@IAEXH@Z PROC NEAR ; std::basic_streambuf<char,std::char_traits<char> >::gbump, COMDAT
; _this$ = edx
; __Off$ = ecx

; 195  : 		*_IGcount -= _Off;

  00000	8b 42 30	 mov	 eax, DWORD PTR [edx+48]
  00003	29 08		 sub	 DWORD PTR [eax], ecx

; 196  : 		*_IGnext += _Off;

  00005	8b 42 20	 mov	 eax, DWORD PTR [edx+32]
  00008	01 08		 add	 DWORD PTR [eax], ecx

; 197  : 		}

  0000a	c3		 ret	 0
?gbump@?$basic_streambuf@DU?$char_traits@D@std@@@std@@IAEXH@Z ENDP ; std::basic_streambuf<char,std::char_traits<char> >::gbump
; Function compile flags: /Ogsy
_TEXT	ENDS
;	COMDAT ?showmanyc@?$basic_streambuf@DU?$char_traits@D@std@@@std@@MAEHXZ
_TEXT	SEGMENT
?showmanyc@?$basic_streambuf@DU?$char_traits@D@std@@@std@@MAEHXZ PROC NEAR ; std::basic_streambuf<char,std::char_traits<char> >::showmanyc, COMDAT
; _this$ = ecx

; 277  : 		return (0);

  00000	33 c0		 xor	 eax, eax

; 278  : 		}

  00002	c3		 ret	 0
?showmanyc@?$basic_streambuf@DU?$char_traits@D@std@@@std@@MAEHXZ ENDP ; std::basic_streambuf<char,std::char_traits<char> >::showmanyc
; Function compile flags: /Ogsy
; File c:\program files (x86)\microsoft visual studio .net 2003\vc7\include\xlocale
_TEXT	ENDS
;	COMDAT ?widen@?$ctype@D@std@@QBEDD@Z
_TEXT	SEGMENT
__Byte$ = 8						; size = 1
?widen@?$ctype@D@std@@QBEDD@Z PROC NEAR			; std::ctype<char>::widen, COMDAT
; _this$ = ecx

; 1194 : 		return (do_widen(_Byte));

  00000	8b 01		 mov	 eax, DWORD PTR [ecx]
  00002	ff 60 18	 jmp	 DWORD PTR [eax+24]
?widen@?$ctype@D@std@@QBEDD@Z ENDP			; std::ctype<char>::widen
; Function compile flags: /Ogsy
_TEXT	ENDS
;	COMDAT ?_Init@?$codecvt@DDH@std@@IAEXABV_Locinfo@2@@Z
_TEXT	SEGMENT
__Lobj$ = 8						; size = 4
?_Init@?$codecvt@DDH@std@@IAEXABV_Locinfo@2@@Z PROC NEAR ; std::codecvt<char,char,int>::_Init, COMDAT
; _this$ = ecx

; 611  : 		}

  00000	c2 04 00	 ret	 4
?_Init@?$codecvt@DDH@std@@IAEXABV_Locinfo@2@@Z ENDP	; std::codecvt<char,char,int>::_Init
; Function compile flags: /Ogsy
;	COMDAT ??_D?$basic_istream@DU?$char_traits@D@std@@@std@@QAEXXZ
_TEXT	SEGMENT
??_D?$basic_istream@DU?$char_traits@D@std@@@std@@QAEXXZ PROC NEAR ; std::basic_istream<char,std::char_traits<char> >::`vbase destructor', COMDAT
; _this$ = ecx
  00000	8b 01		 mov	 eax, DWORD PTR [ecx]
  00002	8b 40 04	 mov	 eax, DWORD PTR [eax+4]
  00005	83 c1 08	 add	 ecx, 8
  00008	c7 44 08 f8 00
	00 00 00	 mov	 DWORD PTR [eax+ecx-8], OFFSET FLAT:??_7?$basic_istream@DU?$char_traits@D@std@@@std@@6B@
  00010	e9 00 00 00 00	 jmp	 ??1?$basic_ios@DU?$char_traits@D@std@@@std@@UAE@XZ ; std::basic_ios<char,std::char_traits<char> >::~basic_ios<char,std::char_traits<char> >
??_D?$basic_istream@DU?$char_traits@D@std@@@std@@QAEXXZ ENDP ; std::basic_istream<char,std::char_traits<char> >::`vbase destructor'
; Function compile flags: /Ogsy
_TEXT	ENDS
;	COMDAT ??_G?$basic_istream@DU?$char_traits@D@std@@@std@@UAEPAXI@Z
_TEXT	SEGMENT
___flags$ = 8						; size = 4
??_G?$basic_istream@DU?$char_traits@D@std@@@std@@UAEPAXI@Z PROC NEAR ; std::basic_istream<char,std::char_traits<char> >::`scalar deleting destructor', COMDAT
; _this$ = ecx
  00000	56		 push	 esi
  00001	8d 71 f8	 lea	 esi, DWORD PTR [ecx-8]
  00004	8b ce		 mov	 ecx, esi
  00006	e8 00 00 00 00	 call	 ??_D?$basic_istream@DU?$char_traits@D@std@@@std@@QAEXXZ
  0000b	f6 44 24 08 01	 test	 BYTE PTR ___flags$[esp], 1
  00010	74 07		 je	 SHORT $L23436
  00012	56		 push	 esi
  00013	e8 00 00 00 00	 call	 ??3@YAXPAX@Z		; operator delete
  00018	59		 pop	 ecx
$L23436:
  00019	8b c6		 mov	 eax, esi
  0001b	5e		 pop	 esi
  0001c	c2 04 00	 ret	 4
??_G?$basic_istream@DU?$char_traits@D@std@@@std@@UAEPAXI@Z ENDP ; std::basic_istream<char,std::char_traits<char> >::`scalar deleting destructor'
; Function compile flags: /Ogsy
_TEXT	ENDS
;	COMDAT ??_Glocale@std@@QAEPAXI@Z
_TEXT	SEGMENT
___flags$ = 8						; size = 4
??_Glocale@std@@QAEPAXI@Z PROC NEAR			; std::locale::`scalar deleting destructor', COMDAT
; _this$ = ecx
  00000	56		 push	 esi
  00001	8b f1		 mov	 esi, ecx
  00003	e8 00 00 00 00	 call	 ??1locale@std@@QAE@XZ	; std::locale::~locale
  00008	f6 44 24 08 01	 test	 BYTE PTR ___flags$[esp], 1
  0000d	74 07		 je	 SHORT $L23424
  0000f	56		 push	 esi
  00010	e8 00 00 00 00	 call	 ??3@YAXPAX@Z		; operator delete
  00015	59		 pop	 ecx
$L23424:
  00016	8b c6		 mov	 eax, esi
  00018	5e		 pop	 esi
  00019	c2 04 00	 ret	 4
??_Glocale@std@@QAEPAXI@Z ENDP				; std::locale::`scalar deleting destructor'
; Function compile flags: /Ogsy
; File c:\program files (x86)\microsoft visual studio .net 2003\vc7\include\streambuf
_TEXT	ENDS
;	COMDAT ??1?$basic_streambuf@DU?$char_traits@D@std@@@std@@UAE@XZ
_TEXT	SEGMENT
??1?$basic_streambuf@DU?$char_traits@D@std@@@std@@UAE@XZ PROC NEAR ; std::basic_streambuf<char,std::char_traits<char> >::~basic_streambuf<char,std::char_traits<char> >, COMDAT
; _this$ = ecx

; 38   : 		{	// destroy the object

  00000	56		 push	 esi
  00001	8b f1		 mov	 esi, ecx
  00003	57		 push	 edi

; 39   : 		_DELETE_CRT(_Plocale);

  00004	8b 7e 38	 mov	 edi, DWORD PTR [esi+56]
  00007	85 ff		 test	 edi, edi
  00009	c7 06 00 00 00
	00		 mov	 DWORD PTR [esi], OFFSET FLAT:??_7?$basic_streambuf@DU?$char_traits@D@std@@@std@@6B@
  0000f	74 0e		 je	 SHORT $L41576
  00011	8b cf		 mov	 ecx, edi
  00013	e8 00 00 00 00	 call	 ??1locale@std@@QAE@XZ	; std::locale::~locale
  00018	57		 push	 edi
  00019	e8 00 00 00 00	 call	 ??3@YAXPAX@Z		; operator delete
  0001e	59		 pop	 ecx
$L41576:
  0001f	5f		 pop	 edi

; 40   : 		}

  00020	8d 4e 04	 lea	 ecx, DWORD PTR [esi+4]
  00023	5e		 pop	 esi
  00024	e9 00 00 00 00	 jmp	 ??1_Mutex@std@@QAE@XZ	; std::_Mutex::~_Mutex
??1?$basic_streambuf@DU?$char_traits@D@std@@@std@@UAE@XZ ENDP ; std::basic_streambuf<char,std::char_traits<char> >::~basic_streambuf<char,std::char_traits<char> >
; Function compile flags: /Ogsy
; File c:\program files (x86)\microsoft visual studio .net 2003\vc7\include\fstream
_TEXT	ENDS
;	COMDAT ?sync@?$basic_filebuf@DU?$char_traits@D@std@@@std@@MAEHXZ
_TEXT	SEGMENT
?sync@?$basic_filebuf@DU?$char_traits@D@std@@@std@@MAEHXZ PROC NEAR ; std::basic_filebuf<char,std::char_traits<char> >::sync, COMDAT
; _this$ = ecx

; 379  : 		{	// synchronize C stream with external file

  00000	56		 push	 esi
  00001	8b f1		 mov	 esi, ecx

; 380  : 		return (_Myfile == 0
; 381  : 			|| _Traits::eq_int_type(_Traits::eof(), overflow())
; 382  : 			|| 0 <= fflush(_Myfile) ? 0 : -1);

  00003	83 7e 58 00	 cmp	 DWORD PTR [esi+88], 0
  00007	74 1e		 je	 SHORT $L41589
  00009	8b 06		 mov	 eax, DWORD PTR [esi]
  0000b	6a ff		 push	 -1
  0000d	ff 50 04	 call	 DWORD PTR [eax+4]
  00010	83 f8 ff	 cmp	 eax, -1
  00013	74 12		 je	 SHORT $L41589
  00015	ff 76 58	 push	 DWORD PTR [esi+88]
  00018	e8 00 00 00 00	 call	 _fflush
  0001d	85 c0		 test	 eax, eax
  0001f	59		 pop	 ecx
  00020	7d 05		 jge	 SHORT $L41589
  00022	83 c8 ff	 or	 eax, -1
  00025	5e		 pop	 esi

; 383  : 		}

  00026	c3		 ret	 0
$L41589:

; 380  : 		return (_Myfile == 0
; 381  : 			|| _Traits::eq_int_type(_Traits::eof(), overflow())
; 382  : 			|| 0 <= fflush(_Myfile) ? 0 : -1);

  00027	33 c0		 xor	 eax, eax
  00029	5e		 pop	 esi

; 383  : 		}

  0002a	c3		 ret	 0
?sync@?$basic_filebuf@DU?$char_traits@D@std@@@std@@MAEHXZ ENDP ; std::basic_filebuf<char,std::char_traits<char> >::sync
; Function compile flags: /Ogsy
_TEXT	ENDS
;	COMDAT ?underflow@?$basic_filebuf@DU?$char_traits@D@std@@@std@@MAEHXZ
_TEXT	SEGMENT
?underflow@?$basic_filebuf@DU?$char_traits@D@std@@@std@@MAEHXZ PROC NEAR ; std::basic_filebuf<char,std::char_traits<char> >::underflow, COMDAT
; _this$ = ecx

; 248  : 		{	// get an element from stream, but don't point past it

  00000	56		 push	 esi
  00001	8b f1		 mov	 esi, ecx

; 249  : 		int_type _Meta;
; 250  : 		if (_Mysb::gptr() != 0
; 251  : 			&& _Mysb::gptr() < _Mysb::egptr())

  00003	8b 46 20	 mov	 eax, DWORD PTR [esi+32]
  00006	8b 08		 mov	 ecx, DWORD PTR [eax]
  00008	85 c9		 test	 ecx, ecx
  0000a	74 12		 je	 SHORT $L23300
  0000c	8b 56 30	 mov	 edx, DWORD PTR [esi+48]
  0000f	8b 00		 mov	 eax, DWORD PTR [eax]
  00011	8b 12		 mov	 edx, DWORD PTR [edx]
  00013	03 d0		 add	 edx, eax
  00015	3b c2		 cmp	 eax, edx
  00017	73 05		 jae	 SHORT $L23300

; 252  : 			return (_Traits::to_int_type(*_Mysb::gptr()));	// return buffered

  00019	0f b6 01	 movzx	 eax, BYTE PTR [ecx]
  0001c	5e		 pop	 esi

; 259  : 			}
; 260  : 		}

  0001d	c3		 ret	 0
$L23300:

; 253  : 		else if (_Traits::eq_int_type(_Traits::eof(), _Meta = uflow()))

  0001e	8b 06		 mov	 eax, DWORD PTR [esi]
  00020	57		 push	 edi
  00021	8b ce		 mov	 ecx, esi
  00023	ff 50 14	 call	 DWORD PTR [eax+20]
  00026	8b f8		 mov	 edi, eax
  00028	83 c8 ff	 or	 eax, -1
  0002b	3b f8		 cmp	 edi, eax

; 254  : 			return (_Meta);	// uflow failed, return EOF

  0002d	74 0a		 je	 SHORT $L41628

; 255  : 		else
; 256  : 			{	// get a char, don't point past it
; 257  : 			pbackfail(_Meta);

  0002f	8b 06		 mov	 eax, DWORD PTR [esi]
  00031	57		 push	 edi
  00032	8b ce		 mov	 ecx, esi
  00034	ff 50 08	 call	 DWORD PTR [eax+8]

; 258  : 			return (_Meta);

  00037	8b c7		 mov	 eax, edi
$L41628:
  00039	5f		 pop	 edi
  0003a	5e		 pop	 esi

; 259  : 			}
; 260  : 		}

  0003b	c3		 ret	 0
?underflow@?$basic_filebuf@DU?$char_traits@D@std@@@std@@MAEHXZ ENDP ; std::basic_filebuf<char,std::char_traits<char> >::underflow
; Function compile flags: /Ogsy
; File c:\program files (x86)\microsoft visual studio .net 2003\vc7\include\iosfwd
_TEXT	ENDS
;	COMDAT ?not_eof@?$char_traits@D@std@@SAHABH@Z
_TEXT	SEGMENT
?not_eof@?$char_traits@D@std@@SAHABH@Z PROC NEAR	; std::char_traits<char>::not_eof, COMDAT
; __Meta$ = eax

; 401  : 		return (_Meta != eof() ? _Meta : !eof());

  00000	8b 08		 mov	 ecx, DWORD PTR [eax]
  00002	8b c1		 mov	 eax, ecx
  00004	40		 inc	 eax
  00005	f7 d8		 neg	 eax
  00007	1b c0		 sbb	 eax, eax
  00009	23 c1		 and	 eax, ecx

; 402  : 		}

  0000b	c3		 ret	 0
?not_eof@?$char_traits@D@std@@SAHABH@Z ENDP		; std::char_traits<char>::not_eof
; Function compile flags: /Ogsy
; File c:\program files (x86)\microsoft visual studio .net 2003\vc7\include\xlocale
_TEXT	ENDS
;	COMDAT ??0codecvt_base@std@@QAE@I@Z
_TEXT	SEGMENT
__Refs$ = 8						; size = 4
??0codecvt_base@std@@QAE@I@Z PROC NEAR			; std::codecvt_base::codecvt_base, COMDAT
; _this$ = ecx

; 503  : 		{	// default constructor

  00000	8b c1		 mov	 eax, ecx
  00002	8b 4c 24 04	 mov	 ecx, DWORD PTR __Refs$[esp-4]
  00006	89 48 04	 mov	 DWORD PTR [eax+4], ecx
  00009	c7 00 00 00 00
	00		 mov	 DWORD PTR [eax], OFFSET FLAT:??_7codecvt_base@std@@6B@

; 504  : 		}

  0000f	c2 04 00	 ret	 4
??0codecvt_base@std@@QAE@I@Z ENDP			; std::codecvt_base::codecvt_base
; Function compile flags: /Ogsy
_TEXT	ENDS
;	COMDAT ??1codecvt_base@std@@UAE@XZ
_TEXT	SEGMENT
??1codecvt_base@std@@UAE@XZ PROC NEAR			; std::codecvt_base::~codecvt_base, COMDAT
; _this$ = ecx

; 523  : 		}

  00000	c7 01 00 00 00
	00		 mov	 DWORD PTR [ecx], OFFSET FLAT:??_7facet@locale@std@@6B@
  00006	c3		 ret	 0
??1codecvt_base@std@@UAE@XZ ENDP			; std::codecvt_base::~codecvt_base
; Function compile flags: /Ogsy
_TEXT	ENDS
;	COMDAT ??1?$codecvt@DDH@std@@MAE@XZ
_TEXT	SEGMENT
??1?$codecvt@DDH@std@@MAE@XZ PROC NEAR			; std::codecvt<char,char,int>::~codecvt<char,char,int>, COMDAT
; _this$ = ecx

; 606  : 		}

  00000	c7 01 00 00 00
	00		 mov	 DWORD PTR [ecx], OFFSET FLAT:??_7facet@locale@std@@6B@
  00006	c3		 ret	 0
??1?$codecvt@DDH@std@@MAE@XZ ENDP			; std::codecvt<char,char,int>::~codecvt<char,char,int>
; Function compile flags: /Ogsy
_TEXT	ENDS
;	COMDAT ??_G?$codecvt@DDH@std@@MAEPAXI@Z
_TEXT	SEGMENT
___flags$ = 8						; size = 4
??_G?$codecvt@DDH@std@@MAEPAXI@Z PROC NEAR		; std::codecvt<char,char,int>::`scalar deleting destructor', COMDAT
; _this$ = ecx
  00000	56		 push	 esi
  00001	8b f1		 mov	 esi, ecx
  00003	e8 00 00 00 00	 call	 ??1?$codecvt@DDH@std@@MAE@XZ ; std::codecvt<char,char,int>::~codecvt<char,char,int>
  00008	f6 44 24 08 01	 test	 BYTE PTR ___flags$[esp], 1
  0000d	74 07		 je	 SHORT $L23711
  0000f	56		 push	 esi
  00010	e8 00 00 00 00	 call	 ??3@YAXPAX@Z		; operator delete
  00015	59		 pop	 ecx
$L23711:
  00016	8b c6		 mov	 eax, esi
  00018	5e		 pop	 esi
  00019	c2 04 00	 ret	 4
??_G?$codecvt@DDH@std@@MAEPAXI@Z ENDP			; std::codecvt<char,char,int>::`scalar deleting destructor'
; Function compile flags: /Ogsy
; File c:\program files (x86)\microsoft visual studio .net 2003\vc7\include\streambuf
_TEXT	ENDS
;	COMDAT ?seekpos@?$basic_streambuf@DU?$char_traits@D@std@@@std@@MAE?AV?$fpos@H@2@V32@H@Z
_TEXT	SEGMENT
___$ReturnUdt$ = 8					; size = 4
___formal$ = 12						; size = 24
___formal$ = 36						; size = 4
?seekpos@?$basic_streambuf@DU?$char_traits@D@std@@@std@@MAE?AV?$fpos@H@2@V32@H@Z PROC NEAR ; std::basic_streambuf<char,std::char_traits<char> >::seekpos, COMDAT
; _this$ = ecx

; 358  : 		return (streampos(_BADOFF));

  00000	8b 44 24 04	 mov	 eax, DWORD PTR ___$ReturnUdt$[esp-4]
  00004	8b 0d 00 00 00
	00		 mov	 ecx, DWORD PTR ?_BADOFF@std@@3JB ; std::_BADOFF
  0000a	89 08		 mov	 DWORD PTR [eax], ecx
  0000c	8b 0d 00 00 00
	00		 mov	 ecx, DWORD PTR ?_Fpz@std@@3_JA
  00012	89 48 08	 mov	 DWORD PTR [eax+8], ecx
  00015	8b 0d 04 00 00
	00		 mov	 ecx, DWORD PTR ?_Fpz@std@@3_JA+4
  0001b	89 48 0c	 mov	 DWORD PTR [eax+12], ecx
  0001e	8b 0d 00 00 00
	00		 mov	 ecx, DWORD PTR ?_Stz@?$fpos@H@std@@0HA ; std::fpos<int>::_Stz
  00024	89 48 10	 mov	 DWORD PTR [eax+16], ecx

; 359  : 		}

  00027	c2 20 00	 ret	 32			; 00000020H
?seekpos@?$basic_streambuf@DU?$char_traits@D@std@@@std@@MAE?AV?$fpos@H@2@V32@H@Z ENDP ; std::basic_streambuf<char,std::char_traits<char> >::seekpos
; Function compile flags: /Ogsy
_TEXT	ENDS
;	COMDAT ?seekoff@?$basic_streambuf@DU?$char_traits@D@std@@@std@@MAE?AV?$fpos@H@2@JHH@Z
_TEXT	SEGMENT
___$ReturnUdt$ = 8					; size = 4
___formal$ = 12						; size = 4
___formal$ = 16						; size = 4
___formal$ = 20						; size = 4
?seekoff@?$basic_streambuf@DU?$char_traits@D@std@@@std@@MAE?AV?$fpos@H@2@JHH@Z PROC NEAR ; std::basic_streambuf<char,std::char_traits<char> >::seekoff, COMDAT
; _this$ = ecx

; 352  : 		return (streampos(_BADOFF));

  00000	8b 44 24 04	 mov	 eax, DWORD PTR ___$ReturnUdt$[esp-4]
  00004	8b 0d 00 00 00
	00		 mov	 ecx, DWORD PTR ?_BADOFF@std@@3JB ; std::_BADOFF
  0000a	89 08		 mov	 DWORD PTR [eax], ecx
  0000c	8b 0d 00 00 00
	00		 mov	 ecx, DWORD PTR ?_Fpz@std@@3_JA
  00012	89 48 08	 mov	 DWORD PTR [eax+8], ecx
  00015	8b 0d 04 00 00
	00		 mov	 ecx, DWORD PTR ?_Fpz@std@@3_JA+4
  0001b	89 48 0c	 mov	 DWORD PTR [eax+12], ecx
  0001e	8b 0d 00 00 00
	00		 mov	 ecx, DWORD PTR ?_Stz@?$fpos@H@std@@0HA ; std::fpos<int>::_Stz
  00024	89 48 10	 mov	 DWORD PTR [eax+16], ecx

; 353  : 		}

  00027	c2 10 00	 ret	 16			; 00000010H
?seekoff@?$basic_streambuf@DU?$char_traits@D@std@@@std@@MAE?AV?$fpos@H@2@JHH@Z ENDP ; std::basic_streambuf<char,std::char_traits<char> >::seekoff
; Function compile flags: /Ogsy
_TEXT	ENDS
;	COMDAT ?xsputn@?$basic_streambuf@DU?$char_traits@D@std@@@std@@MAEHPBDH@Z
_TEXT	SEGMENT
__Copied$ = -4						; size = 4
__Ptr$ = 8						; size = 4
__Count$ = 12						; size = 4
?xsputn@?$basic_streambuf@DU?$char_traits@D@std@@@std@@MAEHPBDH@Z PROC NEAR ; std::basic_streambuf<char,std::char_traits<char> >::xsputn, COMDAT
; _this$ = ecx

; 322  : 		{	// put _Count characters to stream

  00000	55		 push	 ebp
  00001	8b ec		 mov	 ebp, esp
  00003	51		 push	 ecx

; 323  : 		streamsize _Size, _Copied;
; 324  : 
; 325  : 		for (_Copied = 0; 0 < _Count; )

  00004	83 65 fc 00	 and	 DWORD PTR __Copied$[ebp], 0
  00008	83 7d 0c 00	 cmp	 DWORD PTR __Count$[ebp], 0
  0000c	57		 push	 edi
  0000d	8b f9		 mov	 edi, ecx
  0000f	7e 5d		 jle	 SHORT $L41718
  00011	53		 push	 ebx
  00012	8b 5d 08	 mov	 ebx, DWORD PTR __Ptr$[ebp]
  00015	56		 push	 esi
$L23017:

; 326  : 			if (pptr() != 0 && 0 < (_Size = (streamsize)(epptr() - pptr())))

  00016	8b 47 24	 mov	 eax, DWORD PTR [edi+36]
  00019	8b 00		 mov	 eax, DWORD PTR [eax]
  0001b	85 c0		 test	 eax, eax
  0001d	74 30		 je	 SHORT $L23020
  0001f	8b 4f 34	 mov	 ecx, DWORD PTR [edi+52]
  00022	8b 31		 mov	 esi, DWORD PTR [ecx]
  00024	85 f6		 test	 esi, esi
  00026	7e 27		 jle	 SHORT $L23020

; 327  : 				{	// copy to write buffer
; 328  : 				if (_Count < _Size)

  00028	39 75 0c	 cmp	 DWORD PTR __Count$[ebp], esi
  0002b	7d 03		 jge	 SHORT $L23021

; 329  : 					_Size = _Count;

  0002d	8b 75 0c	 mov	 esi, DWORD PTR __Count$[ebp]
$L23021:

; 330  : 				_Traits::copy(pptr(), _Ptr, _Size);

  00030	56		 push	 esi
  00031	53		 push	 ebx
  00032	50		 push	 eax
  00033	e8 00 00 00 00	 call	 ?copy@?$char_traits@D@std@@SAPADPADPBDI@Z ; std::char_traits<char>::copy

; 331  : 				_Ptr += _Size;
; 332  : 				_Copied += _Size;
; 333  : 				_Count -= _Size;
; 334  : 				pbump((int)_Size);

  00038	8b 47 34	 mov	 eax, DWORD PTR [edi+52]
  0003b	29 30		 sub	 DWORD PTR [eax], esi
  0003d	8b 47 24	 mov	 eax, DWORD PTR [edi+36]
  00040	01 75 fc	 add	 DWORD PTR __Copied$[ebp], esi
  00043	29 75 0c	 sub	 DWORD PTR __Count$[ebp], esi
  00046	83 c4 0c	 add	 esp, 12			; 0000000cH
  00049	03 de		 add	 ebx, esi
  0004b	01 30		 add	 DWORD PTR [eax], esi

; 335  : 				}
; 336  : 			else if (_Traits::eq_int_type(_Traits::eof(),

  0004d	eb 17		 jmp	 SHORT $L23027
$L23020:

; 337  : 				overflow(_Traits::to_int_type(*_Ptr))))

  0004f	0f b6 0b	 movzx	 ecx, BYTE PTR [ebx]
  00052	8b 07		 mov	 eax, DWORD PTR [edi]
  00054	51		 push	 ecx
  00055	8b cf		 mov	 ecx, edi
  00057	ff 50 04	 call	 DWORD PTR [eax+4]
  0005a	83 f8 ff	 cmp	 eax, -1
  0005d	74 0d		 je	 SHORT $L41720

; 338  : 				break;	// single character put failed, quit
; 339  : 			else
; 340  : 				{	// count character successfully put
; 341  : 				++_Ptr;

  0005f	43		 inc	 ebx

; 342  : 				++_Copied;

  00060	ff 45 fc	 inc	 DWORD PTR __Copied$[ebp]

; 343  : 				--_Count;

  00063	ff 4d 0c	 dec	 DWORD PTR __Count$[ebp]
$L23027:

; 323  : 		streamsize _Size, _Copied;
; 324  : 
; 325  : 		for (_Copied = 0; 0 < _Count; )

  00066	83 7d 0c 00	 cmp	 DWORD PTR __Count$[ebp], 0
  0006a	7f aa		 jg	 SHORT $L23017
$L41720:
  0006c	5e		 pop	 esi
  0006d	5b		 pop	 ebx
$L41718:

; 344  : 				}
; 345  : 
; 346  : 		return (_Copied);

  0006e	8b 45 fc	 mov	 eax, DWORD PTR __Copied$[ebp]
  00071	5f		 pop	 edi

; 347  : 		}

  00072	c9		 leave
  00073	c2 08 00	 ret	 8
?xsputn@?$basic_streambuf@DU?$char_traits@D@std@@@std@@MAEHPBDH@Z ENDP ; std::basic_streambuf<char,std::char_traits<char> >::xsputn
; Function compile flags: /Ogsy
_TEXT	ENDS
;	COMDAT ?xsgetn@?$basic_streambuf@DU?$char_traits@D@std@@@std@@MAEHPADH@Z
_TEXT	SEGMENT
__Copied$ = -4						; size = 4
__Ptr$ = 8						; size = 4
__Count$ = 12						; size = 4
?xsgetn@?$basic_streambuf@DU?$char_traits@D@std@@@std@@MAEHPADH@Z PROC NEAR ; std::basic_streambuf<char,std::char_traits<char> >::xsgetn, COMDAT
; _this$ = ecx

; 293  : 		{	// get _Count characters from stream

  00000	55		 push	 ebp
  00001	8b ec		 mov	 ebp, esp
  00003	51		 push	 ecx

; 294  : 		int_type _Meta;
; 295  : 		streamsize _Size, _Copied;
; 296  : 
; 297  : 		for (_Copied = 0; 0 < _Count; )

  00004	83 65 fc 00	 and	 DWORD PTR __Copied$[ebp], 0
  00008	83 7d 0c 00	 cmp	 DWORD PTR __Count$[ebp], 0
  0000c	57		 push	 edi
  0000d	8b f9		 mov	 edi, ecx
  0000f	7e 5b		 jle	 SHORT $L41754
  00011	53		 push	 ebx
  00012	8b 5d 08	 mov	 ebx, DWORD PTR __Ptr$[ebp]
  00015	56		 push	 esi
$L23002:

; 298  : 			if (gptr() != 0 && 0 < (_Size = (streamsize)(egptr() - gptr())))

  00016	8b 47 20	 mov	 eax, DWORD PTR [edi+32]
  00019	8b 00		 mov	 eax, DWORD PTR [eax]
  0001b	85 c0		 test	 eax, eax
  0001d	74 30		 je	 SHORT $L23005
  0001f	8b 4f 30	 mov	 ecx, DWORD PTR [edi+48]
  00022	8b 31		 mov	 esi, DWORD PTR [ecx]
  00024	85 f6		 test	 esi, esi
  00026	7e 27		 jle	 SHORT $L23005

; 299  : 				{	// copy from read buffer
; 300  : 				if (_Count < _Size)

  00028	39 75 0c	 cmp	 DWORD PTR __Count$[ebp], esi
  0002b	7d 03		 jge	 SHORT $L23006

; 301  : 					_Size = _Count;

  0002d	8b 75 0c	 mov	 esi, DWORD PTR __Count$[ebp]
$L23006:

; 302  : 				_Traits::copy(_Ptr, gptr(), _Size);

  00030	56		 push	 esi
  00031	50		 push	 eax
  00032	53		 push	 ebx
  00033	e8 00 00 00 00	 call	 ?copy@?$char_traits@D@std@@SAPADPADPBDI@Z ; std::char_traits<char>::copy

; 303  : 				_Ptr += _Size;
; 304  : 				_Copied += _Size;
; 305  : 				_Count -= _Size;
; 306  : 				gbump((int)_Size);

  00038	8b 47 30	 mov	 eax, DWORD PTR [edi+48]
  0003b	29 30		 sub	 DWORD PTR [eax], esi
  0003d	8b 47 20	 mov	 eax, DWORD PTR [edi+32]
  00040	01 75 fc	 add	 DWORD PTR __Copied$[ebp], esi
  00043	29 75 0c	 sub	 DWORD PTR __Count$[ebp], esi
  00046	83 c4 0c	 add	 esp, 12			; 0000000cH
  00049	03 de		 add	 ebx, esi
  0004b	01 30		 add	 DWORD PTR [eax], esi

; 307  : 				}
; 308  : 			else if (_Traits::eq_int_type(_Traits::eof(), _Meta = uflow()))

  0004d	eb 15		 jmp	 SHORT $L23011
$L23005:
  0004f	8b 07		 mov	 eax, DWORD PTR [edi]
  00051	8b cf		 mov	 ecx, edi
  00053	ff 50 14	 call	 DWORD PTR [eax+20]
  00056	83 f8 ff	 cmp	 eax, -1
  00059	74 0f		 je	 SHORT $L41756

; 309  : 				break;	// end of file, quit
; 310  : 			else
; 311  : 				{	// get a single character
; 312  : 				*_Ptr++ = _Traits::to_char_type(_Meta);

  0005b	88 03		 mov	 BYTE PTR [ebx], al
  0005d	43		 inc	 ebx

; 313  : 				++_Copied;

  0005e	ff 45 fc	 inc	 DWORD PTR __Copied$[ebp]

; 314  : 				--_Count;

  00061	ff 4d 0c	 dec	 DWORD PTR __Count$[ebp]
$L23011:

; 294  : 		int_type _Meta;
; 295  : 		streamsize _Size, _Copied;
; 296  : 
; 297  : 		for (_Copied = 0; 0 < _Count; )

  00064	83 7d 0c 00	 cmp	 DWORD PTR __Count$[ebp], 0
  00068	7f ac		 jg	 SHORT $L23002
$L41756:
  0006a	5e		 pop	 esi
  0006b	5b		 pop	 ebx
$L41754:

; 315  : 				}
; 316  : 
; 317  : 		return (_Copied);

  0006c	8b 45 fc	 mov	 eax, DWORD PTR __Copied$[ebp]
  0006f	5f		 pop	 edi

; 318  : 		}

  00070	c9		 leave
  00071	c2 08 00	 ret	 8
?xsgetn@?$basic_streambuf@DU?$char_traits@D@std@@@std@@MAEHPADH@Z ENDP ; std::basic_streambuf<char,std::char_traits<char> >::xsgetn
; Function compile flags: /Ogsy
_TEXT	ENDS
;	COMDAT ?uflow@?$basic_streambuf@DU?$char_traits@D@std@@@std@@MAEHXZ
_TEXT	SEGMENT
?uflow@?$basic_streambuf@DU?$char_traits@D@std@@@std@@MAEHXZ PROC NEAR ; std::basic_streambuf<char,std::char_traits<char> >::uflow, COMDAT
; _this$ = ecx

; 286  : 		{	// get a character from stream, point past it

  00000	56		 push	 esi
  00001	8b f1		 mov	 esi, ecx

; 287  : 		return (_Traits::eq_int_type(_Traits::eof(), underflow())
; 288  : 			? _Traits::eof() : _Traits::to_int_type(*_Gninc()));

  00003	8b 06		 mov	 eax, DWORD PTR [esi]
  00005	ff 50 10	 call	 DWORD PTR [eax+16]
  00008	83 f8 ff	 cmp	 eax, -1
  0000b	75 04		 jne	 SHORT $L41761
  0000d	0b c0		 or	 eax, eax
  0000f	5e		 pop	 esi

; 289  : 		}

  00010	c3		 ret	 0
$L41761:

; 287  : 		return (_Traits::eq_int_type(_Traits::eof(), underflow())
; 288  : 			? _Traits::eof() : _Traits::to_int_type(*_Gninc()));

  00011	8b 46 30	 mov	 eax, DWORD PTR [esi+48]
  00014	ff 08		 dec	 DWORD PTR [eax]
  00016	8b 46 20	 mov	 eax, DWORD PTR [esi+32]
  00019	8b 08		 mov	 ecx, DWORD PTR [eax]
  0001b	8d 51 01	 lea	 edx, DWORD PTR [ecx+1]
  0001e	89 10		 mov	 DWORD PTR [eax], edx
  00020	0f b6 01	 movzx	 eax, BYTE PTR [ecx]
  00023	5e		 pop	 esi

; 289  : 		}

  00024	c3		 ret	 0
?uflow@?$basic_streambuf@DU?$char_traits@D@std@@@std@@MAEHXZ ENDP ; std::basic_streambuf<char,std::char_traits<char> >::uflow
; Function compile flags: /Ogsy
_TEXT	ENDS
;	COMDAT ?underflow@?$basic_streambuf@DU?$char_traits@D@std@@@std@@MAEHXZ
_TEXT	SEGMENT
?underflow@?$basic_streambuf@DU?$char_traits@D@std@@@std@@MAEHXZ PROC NEAR ; std::basic_streambuf<char,std::char_traits<char> >::underflow, COMDAT
; _this$ = ecx

; 282  : 		return (_Traits::eof());

  00000	83 c8 ff	 or	 eax, -1

; 283  : 		}

  00003	c3		 ret	 0
?underflow@?$basic_streambuf@DU?$char_traits@D@std@@@std@@MAEHXZ ENDP ; std::basic_streambuf<char,std::char_traits<char> >::underflow
; Function compile flags: /Ogsy
_TEXT	ENDS
;	COMDAT ?pbackfail@?$basic_streambuf@DU?$char_traits@D@std@@@std@@MAEHH@Z
_TEXT	SEGMENT
___formal$ = 8						; size = 4
?pbackfail@?$basic_streambuf@DU?$char_traits@D@std@@@std@@MAEHH@Z PROC NEAR ; std::basic_streambuf<char,std::char_traits<char> >::pbackfail, COMDAT
; _this$ = ecx

; 272  : 		return (_Traits::eof());

  00000	83 c8 ff	 or	 eax, -1

; 273  : 		}

  00003	c2 04 00	 ret	 4
?pbackfail@?$basic_streambuf@DU?$char_traits@D@std@@@std@@MAEHH@Z ENDP ; std::basic_streambuf<char,std::char_traits<char> >::pbackfail
; Function compile flags: /Ogsy
_TEXT	ENDS
;	COMDAT ?overflow@?$basic_streambuf@DU?$char_traits@D@std@@@std@@MAEHH@Z
_TEXT	SEGMENT
___formal$ = 8						; size = 4
?overflow@?$basic_streambuf@DU?$char_traits@D@std@@@std@@MAEHH@Z PROC NEAR ; std::basic_streambuf<char,std::char_traits<char> >::overflow, COMDAT
; _this$ = ecx

; 267  : 		return (_Traits::eof());

  00000	83 c8 ff	 or	 eax, -1

; 268  : 		}

  00003	c2 04 00	 ret	 4
?overflow@?$basic_streambuf@DU?$char_traits@D@std@@@std@@MAEHH@Z ENDP ; std::basic_streambuf<char,std::char_traits<char> >::overflow
; Function compile flags: /Ogsy
_TEXT	ENDS
;	COMDAT ??_G?$basic_streambuf@DU?$char_traits@D@std@@@std@@UAEPAXI@Z
_TEXT	SEGMENT
___flags$ = 8						; size = 4
??_G?$basic_streambuf@DU?$char_traits@D@std@@@std@@UAEPAXI@Z PROC NEAR ; std::basic_streambuf<char,std::char_traits<char> >::`scalar deleting destructor', COMDAT
; _this$ = ecx
  00000	56		 push	 esi
  00001	8b f1		 mov	 esi, ecx
  00003	e8 00 00 00 00	 call	 ??1?$basic_streambuf@DU?$char_traits@D@std@@@std@@UAE@XZ ; std::basic_streambuf<char,std::char_traits<char> >::~basic_streambuf<char,std::char_traits<char> >
  00008	f6 44 24 08 01	 test	 BYTE PTR ___flags$[esp], 1
  0000d	74 07		 je	 SHORT $L23439
  0000f	56		 push	 esi
  00010	e8 00 00 00 00	 call	 ??3@YAXPAX@Z		; operator delete
  00015	59		 pop	 ecx
$L23439:
  00016	8b c6		 mov	 eax, esi
  00018	5e		 pop	 esi
  00019	c2 04 00	 ret	 4
??_G?$basic_streambuf@DU?$char_traits@D@std@@@std@@UAEPAXI@Z ENDP ; std::basic_streambuf<char,std::char_traits<char> >::`scalar deleting destructor'
_TEXT	ENDS
;	COMDAT xdata$x
xdata$x	SEGMENT
$T41810	DD	0ffffffffH
	DD	FLAT:$L41806
$T41808	DD	019930520H
	DD	01H
	DD	FLAT:$T41810
	DD	2 DUP(00H)
	DD	2 DUP(00H)
; Function compile flags: /Ogsy
xdata$x	ENDS
;	COMDAT ??0?$basic_streambuf@DU?$char_traits@D@std@@@std@@IAE@XZ
_TEXT	SEGMENT
_this$ = -16						; size = 4
__$EHRec$ = -12						; size = 12
??0?$basic_streambuf@DU?$char_traits@D@std@@@std@@IAE@XZ PROC NEAR ; std::basic_streambuf<char,std::char_traits<char> >::basic_streambuf<char,std::char_traits<char> >, COMDAT
; _this$ = ecx

; 24   : 		{	// construct with no buffers

  00000	b8 00 00 00 00	 mov	 eax, __ehhandler$??0?$basic_streambuf@DU?$char_traits@D@std@@@std@@IAE@XZ
  00005	e8 00 00 00 00	 call	 __EH_prolog
  0000a	51		 push	 ecx
  0000b	56		 push	 esi
  0000c	8b f1		 mov	 esi, ecx
  0000e	8d 4e 04	 lea	 ecx, DWORD PTR [esi+4]
  00011	89 75 f0	 mov	 DWORD PTR _this$[ebp], esi
  00014	c7 06 00 00 00
	00		 mov	 DWORD PTR [esi], OFFSET FLAT:??_7?$basic_streambuf@DU?$char_traits@D@std@@@std@@6B@
  0001a	e8 00 00 00 00	 call	 ??0_Mutex@std@@QAE@XZ	; std::_Mutex::_Mutex
  0001f	83 65 fc 00	 and	 DWORD PTR __$EHRec$[ebp+8], 0
  00023	6a 04		 push	 4
  00025	e8 00 00 00 00	 call	 ??2@YAPAXI@Z		; operator new
  0002a	85 c0		 test	 eax, eax
  0002c	59		 pop	 ecx
  0002d	74 09		 je	 SHORT $L41804
  0002f	8b c8		 mov	 ecx, eax
  00031	e8 00 00 00 00	 call	 ??0locale@std@@QAE@XZ	; std::locale::locale
  00036	eb 02		 jmp	 SHORT $L41805
$L41804:
  00038	33 c0		 xor	 eax, eax
$L41805:

; 25   : 		_Init();

  0003a	8b ce		 mov	 ecx, esi
  0003c	89 46 38	 mov	 DWORD PTR [esi+56], eax
  0003f	e8 00 00 00 00	 call	 ?_Init@?$basic_streambuf@DU?$char_traits@D@std@@@std@@IAEXXZ ; std::basic_streambuf<char,std::char_traits<char> >::_Init

; 26   : 		}

  00044	8b 4d f4	 mov	 ecx, DWORD PTR __$EHRec$[ebp]
  00047	8b c6		 mov	 eax, esi
  00049	5e		 pop	 esi
  0004a	64 89 0d 00 00
	00 00		 mov	 DWORD PTR fs:__except_list, ecx
  00051	c9		 leave
  00052	c3		 ret	 0
_TEXT	ENDS
;	COMDAT text$x
text$x	SEGMENT
$L41806:
  00000	8b 4d f0	 mov	 ecx, DWORD PTR _this$[ebp]
  00003	83 c1 04	 add	 ecx, 4
  00006	e9 00 00 00 00	 jmp	 ??1_Mutex@std@@QAE@XZ	; std::_Mutex::~_Mutex
__ehhandler$??0?$basic_streambuf@DU?$char_traits@D@std@@@std@@IAE@XZ:
  0000b	b8 00 00 00 00	 mov	 eax, OFFSET FLAT:$T41808
  00010	e9 00 00 00 00	 jmp	 ___CxxFrameHandler
text$x	ENDS
??0?$basic_streambuf@DU?$char_traits@D@std@@@std@@IAE@XZ ENDP ; std::basic_streambuf<char,std::char_traits<char> >::basic_streambuf<char,std::char_traits<char> >
;	COMDAT xdata$x
; File c:\program files (x86)\microsoft visual studio .net 2003\vc7\include\xlocale
xdata$x	SEGMENT
$T41832	DD	0ffffffffH
	DD	FLAT:$L41816
$T41830	DD	019930520H
	DD	01H
	DD	FLAT:$T41832
	DD	2 DUP(00H)
	DD	2 DUP(00H)
; Function compile flags: /Ogsy
xdata$x	ENDS
;	COMDAT ??0?$codecvt@DDH@std@@QAE@I@Z
_TEXT	SEGMENT
$T41815 = -132						; size = 116
_this$ = -16						; size = 4
__$EHRec$ = -12						; size = 12
__Refs$ = 8						; size = 4
??0?$codecvt@DDH@std@@QAE@I@Z PROC NEAR			; std::codecvt<char,char,int>::codecvt<char,char,int>, COMDAT
; _this$ = ecx

; 586  : 		{	// construct from current locale

  00000	b8 00 00 00 00	 mov	 eax, __ehhandler$??0?$codecvt@DDH@std@@QAE@I@Z
  00005	e8 00 00 00 00	 call	 __EH_prolog
  0000a	83 ec 78	 sub	 esp, 120		; 00000078H
  0000d	8b 45 08	 mov	 eax, DWORD PTR __Refs$[ebp]
  00010	56		 push	 esi
  00011	8b f1		 mov	 esi, ecx
  00013	89 75 f0	 mov	 DWORD PTR _this$[ebp], esi
  00016	89 46 04	 mov	 DWORD PTR [esi+4], eax
  00019	83 65 fc 00	 and	 DWORD PTR __$EHRec$[ebp+8], 0

; 587  : 		_Init(_Locinfo());

  0001d	68 00 00 00 00	 push	 OFFSET FLAT:??_C@_01GFHCPBMG@C?$AA@
  00022	8d 8d 7c ff ff
	ff		 lea	 ecx, DWORD PTR $T41815[ebp]
  00028	c7 06 00 00 00
	00		 mov	 DWORD PTR [esi], OFFSET FLAT:??_7?$codecvt@DDH@std@@6B@
  0002e	e8 00 00 00 00	 call	 ??0_Locinfo@std@@QAE@PBD@Z ; std::_Locinfo::_Locinfo
  00033	8d 8d 7c ff ff
	ff		 lea	 ecx, DWORD PTR $T41815[ebp]
  00039	e8 00 00 00 00	 call	 ??1_Locinfo@std@@QAE@XZ	; std::_Locinfo::~_Locinfo

; 588  : 		}

  0003e	8b 4d f4	 mov	 ecx, DWORD PTR __$EHRec$[ebp]
  00041	8b c6		 mov	 eax, esi
  00043	5e		 pop	 esi
  00044	64 89 0d 00 00
	00 00		 mov	 DWORD PTR fs:__except_list, ecx
  0004b	c9		 leave
  0004c	c2 04 00	 ret	 4
_TEXT	ENDS
;	COMDAT text$x
text$x	SEGMENT
$L41816:
  00000	8b 4d f0	 mov	 ecx, DWORD PTR _this$[ebp]
  00003	e9 00 00 00 00	 jmp	 ??1codecvt_base@std@@UAE@XZ ; std::codecvt_base::~codecvt_base
__ehhandler$??0?$codecvt@DDH@std@@QAE@I@Z:
  00008	b8 00 00 00 00	 mov	 eax, OFFSET FLAT:$T41830
  0000d	e9 00 00 00 00	 jmp	 ___CxxFrameHandler
text$x	ENDS
??0?$codecvt@DDH@std@@QAE@I@Z ENDP			; std::codecvt<char,char,int>::codecvt<char,char,int>
; Function compile flags: /Ogsy
; File c:\program files (x86)\microsoft visual studio .net 2003\vc7\include\fstream
;	COMDAT ??0?$basic_filebuf@DU?$char_traits@D@std@@@std@@QAE@PAU_iobuf@@@Z
_TEXT	SEGMENT
__File$ = 8						; size = 4
??0?$basic_filebuf@DU?$char_traits@D@std@@@std@@QAE@PAU_iobuf@@@Z PROC NEAR ; std::basic_filebuf<char,std::char_traits<char> >::basic_filebuf<char,std::char_traits<char> >, COMDAT
; _this$ = ecx

; 113  : 		{	// construct from pointer to C stream

  00000	56		 push	 esi
  00001	8b f1		 mov	 esi, ecx
  00003	e8 00 00 00 00	 call	 ??0?$basic_streambuf@DU?$char_traits@D@std@@@std@@IAE@XZ ; std::basic_streambuf<char,std::char_traits<char> >::basic_streambuf<char,std::char_traits<char> >
  00008	83 66 48 00	 and	 DWORD PTR [esi+72], 0

; 114  : 		_Init(_File, _Newfl);

  0000c	6a 00		 push	 0
  0000e	ff 74 24 0c	 push	 DWORD PTR __File$[esp+4]
  00012	8b ce		 mov	 ecx, esi
  00014	c7 06 00 00 00
	00		 mov	 DWORD PTR [esi], OFFSET FLAT:??_7?$basic_filebuf@DU?$char_traits@D@std@@@std@@6B@
  0001a	e8 00 00 00 00	 call	 ?_Init@?$basic_filebuf@DU?$char_traits@D@std@@@std@@IAEXPAU_iobuf@@W4_Initfl@12@@Z ; std::basic_filebuf<char,std::char_traits<char> >::_Init

; 115  : 		}

  0001f	8b c6		 mov	 eax, esi
  00021	5e		 pop	 esi
  00022	c2 04 00	 ret	 4
??0?$basic_filebuf@DU?$char_traits@D@std@@@std@@QAE@PAU_iobuf@@@Z ENDP ; std::basic_filebuf<char,std::char_traits<char> >::basic_filebuf<char,std::char_traits<char> >
; Function compile flags: /Ogsy
; File c:\program files (x86)\microsoft visual studio .net 2003\vc7\include\xstring
_TEXT	ENDS
;	COMDAT ?rfind@?$basic_string@DU?$char_traits@D@std@@V?$allocator@D@2@@std@@QBEIPBDII@Z
_TEXT	SEGMENT
tv170 = -4						; size = 4
__Ptr$ = 8						; size = 4
__Count$ = 12						; size = 4
?rfind@?$basic_string@DU?$char_traits@D@std@@V?$allocator@D@2@@std@@QBEIPBDII@Z PROC NEAR ; std::basic_string<char,std::char_traits<char>,std::allocator<char> >::rfind, COMDAT
; _this$ = eax
; __Off$ = edx

; 1223 : 		{	// look for [_Ptr, _Ptr + _Count) beginning before _Off

  00000	55		 push	 ebp
  00001	8b ec		 mov	 ebp, esp
  00003	51		 push	 ecx

; 1224 : 		if (_Count == 0)

  00004	83 7d 0c 00	 cmp	 DWORD PTR __Count$[ebp], 0
  00008	75 0b		 jne	 SHORT $L24267

; 1225 : 			return (_Off < _Mysize ? _Off : _Mysize);	// null always matches

  0000a	8b 40 14	 mov	 eax, DWORD PTR [eax+20]
  0000d	3b d0		 cmp	 edx, eax
  0000f	73 67		 jae	 SHORT $L24266
  00011	8b c2		 mov	 eax, edx
  00013	eb 63		 jmp	 SHORT $L24266
$L24267:

; 1226 : 		if (_Count <= _Mysize)

  00015	8b 48 14	 mov	 ecx, DWORD PTR [eax+20]
  00018	39 4d 0c	 cmp	 DWORD PTR __Count$[ebp], ecx
  0001b	53		 push	 ebx
  0001c	56		 push	 esi
  0001d	57		 push	 edi
  0001e	77 52		 ja	 SHORT $L41874

; 1227 : 			{	// room for match, look for it
; 1228 : 			const _Elem *_Uptr = _Myptr() +
; 1229 : 				(_Off < _Mysize - _Count ? _Off : _Mysize - _Count);

  00020	2b 4d 0c	 sub	 ecx, DWORD PTR __Count$[ebp]
  00023	3b d1		 cmp	 edx, ecx
  00025	73 02		 jae	 SHORT $L41844
  00027	8b ca		 mov	 ecx, edx
$L41844:
  00029	8b 50 18	 mov	 edx, DWORD PTR [eax+24]
  0002c	89 55 fc	 mov	 DWORD PTR tv170[ebp], edx
  0002f	83 fa 10	 cmp	 edx, 16			; 00000010H
  00032	8d 50 04	 lea	 edx, DWORD PTR [eax+4]
  00035	72 04		 jb	 SHORT $L41849
  00037	8b 02		 mov	 eax, DWORD PTR [edx]
  00039	eb 02		 jmp	 SHORT $L41850
$L41849:
  0003b	8b c2		 mov	 eax, edx
$L41850:
  0003d	03 c1		 add	 eax, ecx
$L24270:

; 1231 : 				if (_Traits::eq(*_Uptr, *_Ptr)
; 1232 : 					&& _Traits::compare(_Uptr, _Ptr, _Count) == 0)

  0003f	8b 7d 08	 mov	 edi, DWORD PTR __Ptr$[ebp]
  00042	8a 0f		 mov	 cl, BYTE PTR [edi]
  00044	38 08		 cmp	 BYTE PTR [eax], cl
  00046	75 0b		 jne	 SHORT $L24273
  00048	8b 4d 0c	 mov	 ecx, DWORD PTR __Count$[ebp]
  0004b	8b f0		 mov	 esi, eax
  0004d	33 db		 xor	 ebx, ebx
  0004f	f3 a6		 repe cmpsb
  00051	74 13		 je	 SHORT $L41873
$L24273:

; 1234 : 				else if (_Uptr == _Myptr())

  00053	83 7d fc 10	 cmp	 DWORD PTR tv170[ebp], 16 ; 00000010H
  00057	72 04		 jb	 SHORT $L41869
  00059	8b 0a		 mov	 ecx, DWORD PTR [edx]
  0005b	eb 02		 jmp	 SHORT $L41870
$L41869:
  0005d	8b ca		 mov	 ecx, edx
$L41870:
  0005f	3b c1		 cmp	 eax, ecx
  00061	74 0f		 je	 SHORT $L41874

; 1230 : 			for (; ; --_Uptr)

  00063	48		 dec	 eax
  00064	eb d9		 jmp	 SHORT $L24270
$L41873:

; 1233 : 					return (_Uptr - _Myptr());	// found a match

  00066	83 7d fc 10	 cmp	 DWORD PTR tv170[ebp], 16 ; 00000010H
  0006a	72 02		 jb	 SHORT $L41863
  0006c	8b 12		 mov	 edx, DWORD PTR [edx]
$L41863:
  0006e	2b c2		 sub	 eax, edx
  00070	eb 03		 jmp	 SHORT $L41876
$L41874:

; 1235 : 					break;	// at beginning, no more chance for match
; 1236 : 			}
; 1237 : 
; 1238 : 		return (npos);	// no match

  00072	83 c8 ff	 or	 eax, -1
$L41876:
  00075	5f		 pop	 edi
  00076	5e		 pop	 esi
  00077	5b		 pop	 ebx
$L24266:

; 1239 : 		}

  00078	c9		 leave
  00079	c2 08 00	 ret	 8
?rfind@?$basic_string@DU?$char_traits@D@std@@V?$allocator@D@2@@std@@QBEIPBDII@Z ENDP ; std::basic_string<char,std::char_traits<char>,std::allocator<char> >::rfind
_TEXT	ENDS
;	COMDAT xdata$x
; File c:\program files (x86)\microsoft visual studio .net 2003\vc7\include\xlocale
xdata$x	SEGMENT
$T41889	DD	0ffffffffH
	DD	FLAT:$L41885
$T41887	DD	019930520H
	DD	01H
	DD	FLAT:$T41889
	DD	2 DUP(00H)
	DD	2 DUP(00H)
; Function compile flags: /Ogsy
xdata$x	ENDS
;	COMDAT ?_Getcat@?$codecvt@DDH@std@@SAIPAPBVfacet@locale@2@@Z
_TEXT	SEGMENT
__$EHRec$ = -12						; size = 12
$T41882 = 8						; size = 4
__Ppf$ = 8						; size = 4
?_Getcat@?$codecvt@DDH@std@@SAIPAPBVfacet@locale@2@@Z PROC NEAR ; std::codecvt<char,char,int>::_Getcat, COMDAT

; 597  : 		{	// return locale category mask and construct standard facet

  00000	b8 00 00 00 00	 mov	 eax, __ehhandler$?_Getcat@?$codecvt@DDH@std@@SAIPAPBVfacet@locale@2@@Z
  00005	e8 00 00 00 00	 call	 __EH_prolog
  0000a	56		 push	 esi

; 598  : 		if (_Ppf != 0 && *_Ppf == 0)

  0000b	8b 75 08	 mov	 esi, DWORD PTR __Ppf$[ebp]
  0000e	85 f6		 test	 esi, esi
  00010	74 27		 je	 SHORT $L24233
  00012	83 3e 00	 cmp	 DWORD PTR [esi], 0
  00015	75 22		 jne	 SHORT $L24233

; 599  : 			*_Ppf = _NEW_CRT codecvt<_Elem, _Byte, _Statype>;

  00017	6a 08		 push	 8
  00019	e8 00 00 00 00	 call	 ??2@YAPAXI@Z		; operator new
  0001e	59		 pop	 ecx
  0001f	8b c8		 mov	 ecx, eax
  00021	89 4d 08	 mov	 DWORD PTR $T41882[ebp], ecx
  00024	83 65 fc 00	 and	 DWORD PTR __$EHRec$[ebp+8], 0
  00028	85 c9		 test	 ecx, ecx
  0002a	74 09		 je	 SHORT $L41883
  0002c	6a 00		 push	 0
  0002e	e8 00 00 00 00	 call	 ??0?$codecvt@DDH@std@@QAE@I@Z ; std::codecvt<char,char,int>::codecvt<char,char,int>
  00033	eb 02		 jmp	 SHORT $L41884
$L41883:
  00035	33 c0		 xor	 eax, eax
$L41884:
  00037	89 06		 mov	 DWORD PTR [esi], eax
$L24233:

; 600  : 		return (_X_CTYPE);
; 601  : 		}

  00039	8b 4d f4	 mov	 ecx, DWORD PTR __$EHRec$[ebp]
  0003c	6a 02		 push	 2
  0003e	58		 pop	 eax
  0003f	5e		 pop	 esi
  00040	64 89 0d 00 00
	00 00		 mov	 DWORD PTR fs:__except_list, ecx
  00047	c9		 leave
  00048	c3		 ret	 0
_TEXT	ENDS
;	COMDAT text$x
text$x	SEGMENT
$L41885:
  00000	ff 75 08	 push	 DWORD PTR $T41882[ebp]
  00003	e8 00 00 00 00	 call	 ??3@YAXPAX@Z		; operator delete
  00008	59		 pop	 ecx
  00009	c3		 ret	 0
__ehhandler$?_Getcat@?$codecvt@DDH@std@@SAIPAPBVfacet@locale@2@@Z:
  0000a	b8 00 00 00 00	 mov	 eax, OFFSET FLAT:$T41887
  0000f	e9 00 00 00 00	 jmp	 ___CxxFrameHandler
text$x	ENDS
?_Getcat@?$codecvt@DDH@std@@SAIPAPBVfacet@locale@2@@Z ENDP ; std::codecvt<char,char,int>::_Getcat
; Function compile flags: /Ogsy
; File c:\program files (x86)\microsoft visual studio .net 2003\vc7\include\xstring
;	COMDAT ?rfind@?$basic_string@DU?$char_traits@D@std@@V?$allocator@D@2@@std@@QBEIDI@Z
_TEXT	SEGMENT
_this$ = 8						; size = 4
__Ch$ = 12						; size = 1
?rfind@?$basic_string@DU?$char_traits@D@std@@V?$allocator@D@2@@std@@QBEIDI@Z PROC NEAR ; std::basic_string<char,std::char_traits<char>,std::allocator<char> >::rfind, COMDAT
; __Off$ = edx

; 1248 : 		return (rfind((const _Elem *)&_Ch, _Off, 1));

  00000	6a 01		 push	 1
  00002	8d 44 24 0c	 lea	 eax, DWORD PTR __Ch$[esp]
  00006	50		 push	 eax
  00007	8b 44 24 0c	 mov	 eax, DWORD PTR _this$[esp+4]
  0000b	e8 00 00 00 00	 call	 ?rfind@?$basic_string@DU?$char_traits@D@std@@V?$allocator@D@2@@std@@QBEIPBDII@Z ; std::basic_string<char,std::char_traits<char>,std::allocator<char> >::rfind

; 1249 : 		}

  00010	c2 08 00	 ret	 8
?rfind@?$basic_string@DU?$char_traits@D@std@@V?$allocator@D@2@@std@@QBEIDI@Z ENDP ; std::basic_string<char,std::char_traits<char>,std::allocator<char> >::rfind
; Function compile flags: /Ogsy
; File c:\program files (x86)\microsoft visual studio .net 2003\vc7\include\fstream
;	COMDAT ?pbackfail@?$basic_filebuf@DU?$char_traits@D@std@@@std@@MAEHH@Z
_TEXT	SEGMENT
__Meta$ = 8						; size = 4
$T54243 = 11						; size = 1
?pbackfail@?$basic_filebuf@DU?$char_traits@D@std@@@std@@MAEHH@Z PROC NEAR ; std::basic_filebuf<char,std::char_traits<char> >::pbackfail, COMDAT
; _this$ = ecx

; 223  : 		{	// put an element back to stream

  00000	55		 push	 ebp
  00001	8b ec		 mov	 ebp, esp
  00003	53		 push	 ebx

; 224  : 		if (_Mysb::gptr() != 0
; 225  : 			&& _Mysb::eback() < _Mysb::gptr()
; 226  : 			&& (_Traits::eq_int_type(_Traits::eof(), _Meta)
; 227  : 			|| _Traits::eq_int_type(_Traits::to_int_type(_Mysb::gptr()[-1]),
; 228  : 				_Meta)))

  00004	8b 5d 08	 mov	 ebx, DWORD PTR __Meta$[ebp]
  00007	56		 push	 esi
  00008	8b f1		 mov	 esi, ecx
  0000a	8b 46 20	 mov	 eax, DWORD PTR [esi+32]
  0000d	8b 00		 mov	 eax, DWORD PTR [eax]
  0000f	85 c0		 test	 eax, eax
  00011	74 29		 je	 SHORT $L23285
  00013	8b 4e 10	 mov	 ecx, DWORD PTR [esi+16]
  00016	39 01		 cmp	 DWORD PTR [ecx], eax
  00018	73 22		 jae	 SHORT $L23285
  0001a	83 fb ff	 cmp	 ebx, -1
  0001d	74 08		 je	 SHORT $L23286
  0001f	0f b6 40 ff	 movzx	 eax, BYTE PTR [eax-1]
  00023	3b c3		 cmp	 eax, ebx
  00025	75 15		 jne	 SHORT $L23285
$L23286:

; 229  : 			{	// just back up position
; 230  : 			_Mysb::_Gndec();

  00027	8b 46 30	 mov	 eax, DWORD PTR [esi+48]
  0002a	ff 00		 inc	 DWORD PTR [eax]
  0002c	8b 76 20	 mov	 esi, DWORD PTR [esi+32]
  0002f	ff 0e		 dec	 DWORD PTR [esi]

; 231  : 			return (_Traits::not_eof(_Meta));

  00031	8b c3		 mov	 eax, ebx
  00033	40		 inc	 eax
  00034	f7 d8		 neg	 eax
  00036	1b c0		 sbb	 eax, eax
  00038	23 c3		 and	 eax, ebx
  0003a	eb 4e		 jmp	 SHORT $L23296
$L23285:

; 232  : 			}
; 233  : 		else if (_Myfile == 0 || _Traits::eq_int_type(_Traits::eof(), _Meta))

  0003c	8b 46 58	 mov	 eax, DWORD PTR [esi+88]
  0003f	85 c0		 test	 eax, eax
  00041	74 44		 je	 SHORT $L23290
  00043	83 fb ff	 cmp	 ebx, -1
  00046	74 3f		 je	 SHORT $L23290

; 235  : 		else if (_Pcvt == 0 && _Ungetc(_Traits::to_char_type(_Meta), _Myfile))

  00048	83 7e 3c 00	 cmp	 DWORD PTR [esi+60], 0
  0004c	75 15		 jne	 SHORT $L23293
  0004e	50		 push	 eax
  0004f	8d 45 0b	 lea	 eax, DWORD PTR $T54243[ebp]
  00052	88 5d 0b	 mov	 BYTE PTR $T54243[ebp], bl
  00055	e8 00 00 00 00	 call	 ??$_Ungetc@D@std@@YA_NABDPAU_iobuf@@@Z ; std::_Ungetc<char>
  0005a	84 c0		 test	 al, al
  0005c	59		 pop	 ecx
  0005d	74 04		 je	 SHORT $L23293
$L54318:

; 236  : 			return (_Meta);	// no facet and unget succeeded, return

  0005f	8b c3		 mov	 eax, ebx
  00061	eb 27		 jmp	 SHORT $L23296
$L23293:

; 237  : 		else if (_Mysb::gptr() != &_Mychar)

  00063	8b 4e 20	 mov	 ecx, DWORD PTR [esi+32]
  00066	8d 46 44	 lea	 eax, DWORD PTR [esi+68]
  00069	39 01		 cmp	 DWORD PTR [ecx], eax
  0006b	74 1a		 je	 SHORT $L23290

; 238  : 			{	// putback to _Mychar
; 239  : 			_Mychar = _Traits::to_char_type(_Meta);
; 240  : 			_Mysb::setg(&_Mychar, &_Mychar, &_Mychar + 1);

  0006d	8b 4e 10	 mov	 ecx, DWORD PTR [esi+16]
  00070	88 18		 mov	 BYTE PTR [eax], bl
  00072	89 01		 mov	 DWORD PTR [ecx], eax
  00074	8b 4e 20	 mov	 ecx, DWORD PTR [esi+32]
  00077	89 01		 mov	 DWORD PTR [ecx], eax
  00079	8b ce		 mov	 ecx, esi
  0007b	2b c8		 sub	 ecx, eax
  0007d	8b 46 30	 mov	 eax, DWORD PTR [esi+48]
  00080	83 c1 45	 add	 ecx, 69			; 00000045H
  00083	89 08		 mov	 DWORD PTR [eax], ecx

; 241  : 			return (_Meta);

  00085	eb d8		 jmp	 SHORT $L54318
$L23290:

; 234  : 			return (_Traits::eof());	// no open C stream or EOF, fail

  00087	83 c8 ff	 or	 eax, -1
$L23296:
  0008a	5e		 pop	 esi
  0008b	5b		 pop	 ebx

; 242  : 			}
; 243  : 		else
; 244  : 			return (_Traits::eof());	// nowhere to put back
; 245  : 		}

  0008c	5d		 pop	 ebp
  0008d	c2 04 00	 ret	 4
?pbackfail@?$basic_filebuf@DU?$char_traits@D@std@@@std@@MAEHH@Z ENDP ; std::basic_filebuf<char,std::char_traits<char> >::pbackfail
_TEXT	ENDS
;	COMDAT xdata$x
; File c:\program files (x86)\microsoft visual studio .net 2003\vc7\include\xlocale
xdata$x	SEGMENT
$T54328	DD	0ffffffffH
	DD	FLAT:$L54323
$T54325	DD	019930520H
	DD	01H
	DD	FLAT:$T54328
	DD	2 DUP(00H)
	DD	2 DUP(00H)
; Function compile flags: /Ogsy
xdata$x	ENDS
;	COMDAT ??$use_facet@V?$codecvt@DDH@std@@@std@@YAABV?$codecvt@DDH@0@ABVlocale@0@@Z
_TEXT	SEGMENT
$T54321 = -32						; size = 12
__Lock$ = -20						; size = 4
__Psave$ = -16						; size = 4
__$EHRec$ = -12						; size = 12
__Loc$ = 8						; size = 4
??$use_facet@V?$codecvt@DDH@std@@@std@@YAABV?$codecvt@DDH@0@ABVlocale@0@@Z PROC NEAR ; std::use_facet<std::codecvt<char,char,int> >, COMDAT

; 315  : 	{	// get facet reference from locale

  00000	b8 00 00 00 00	 mov	 eax, __ehhandler$??$use_facet@V?$codecvt@DDH@std@@@std@@YAABV?$codecvt@DDH@0@ABVlocale@0@@Z
  00005	e8 00 00 00 00	 call	 __EH_prolog
  0000a	83 ec 14	 sub	 esp, 20			; 00000014H
  0000d	56		 push	 esi
  0000e	57		 push	 edi

; 316  : 	_Lockit _Lock(_LOCK_LOCALE);	// the thread lock, make get atomic

  0000f	6a 00		 push	 0
  00011	8d 4d ec	 lea	 ecx, DWORD PTR __Lock$[ebp]
  00014	e8 00 00 00 00	 call	 ??0_Lockit@std@@QAE@H@Z	; std::_Lockit::_Lockit
  00019	83 65 fc 00	 and	 DWORD PTR __$EHRec$[ebp+8], 0

; 317  : 	const locale::facet *_Psave =
; 318  : 		_Facetptr<_Facet>::_Psave;	// static pointer to lazy facet

  0001d	8b 35 00 00 00
	00		 mov	 esi, DWORD PTR ?_Psave@?$_Facetptr@V?$codecvt@DDH@std@@@std@@2PBVfacet@locale@2@B ; std::_Facetptr<std::codecvt<char,char,int> >::_Psave

; 319  : 
; 320  : 	size_t _Id = _Facet::id;

  00023	b9 00 00 00 00	 mov	 ecx, OFFSET FLAT:?id@?$codecvt@DDH@std@@2V0locale@2@A ; std::codecvt<char,char,int>::id
  00028	89 75 f0	 mov	 DWORD PTR __Psave$[ebp], esi
  0002b	e8 00 00 00 00	 call	 ??Bid@locale@std@@QAEIXZ ; std::locale::id::operator unsigned int

; 321  : 	const locale::facet *_Pf = _Loc._Getfacet(_Id);

  00030	8b 4d 08	 mov	 ecx, DWORD PTR __Loc$[ebp]
  00033	50		 push	 eax
  00034	e8 00 00 00 00	 call	 ?_Getfacet@locale@std@@QBEPBVfacet@12@I@Z ; std::locale::_Getfacet
  00039	8b f8		 mov	 edi, eax

; 322  : 
; 323  : 	if (_Pf != 0)

  0003b	85 ff		 test	 edi, edi
  0003d	75 49		 jne	 SHORT $L23907

; 324  : 		;	// got facet from locale
; 325  : 	else if (_Psave != 0)

  0003f	85 f6		 test	 esi, esi
  00041	74 04		 je	 SHORT $L23901

; 326  : 		_Pf = _Psave;	// lazy facet already allocated

  00043	8b fe		 mov	 edi, esi

; 327  : 	else if (_Facet::_Getcat(&_Psave) == (size_t)(-1))

  00045	eb 41		 jmp	 SHORT $L23907
$L23901:
  00047	8d 45 f0	 lea	 eax, DWORD PTR __Psave$[ebp]
  0004a	50		 push	 eax
  0004b	e8 00 00 00 00	 call	 ?_Getcat@?$codecvt@DDH@std@@SAIPAPBVfacet@locale@2@@Z ; std::codecvt<char,char,int>::_Getcat
  00050	83 f8 ff	 cmp	 eax, -1
  00053	59		 pop	 ecx
  00054	75 1b		 jne	 SHORT $L23904

; 328  : 
; 329  :  #if _HAS_EXCEPTIONS
; 330  : 		throw bad_cast();	// lazy disallowed

  00056	68 00 00 00 00	 push	 OFFSET FLAT:??_C@_08EPJLHIJG@bad?5cast?$AA@
  0005b	8d 4d e0	 lea	 ecx, DWORD PTR $T54321[ebp]
  0005e	e8 00 00 00 00	 call	 ??0bad_cast@@QAE@PBD@Z	; bad_cast::bad_cast
  00063	68 00 00 00 00	 push	 OFFSET FLAT:__TI2?AVbad_cast@@
  00068	8d 45 e0	 lea	 eax, DWORD PTR $T54321[ebp]
  0006b	50		 push	 eax
  0006c	e8 00 00 00 00	 call	 __CxxThrowException@8
$L54329:
$L23904:

; 331  : 
; 332  :  #else /* _HAS_EXCEPTIONS */
; 333  : 		abort();	// lazy disallowed
; 334  :  #endif /* _HAS_EXCEPTIONS */
; 335  : 
; 336  : 	else
; 337  : 		{	// queue up lazy facet for destruction
; 338  : 		_Pf = _Psave;

  00071	8b 7d f0	 mov	 edi, DWORD PTR __Psave$[ebp]

; 339  : 		_Facetptr<_Facet>::_Psave = _Psave;
; 340  : 
; 341  : 		locale::facet *_Pfmod = (_Facet *)_Psave;
; 342  : 		_Pfmod->_Incref();

  00074	8b cf		 mov	 ecx, edi
  00076	89 3d 00 00 00
	00		 mov	 DWORD PTR ?_Psave@?$_Facetptr@V?$codecvt@DDH@std@@@std@@2PBVfacet@locale@2@B, edi ; std::_Facetptr<std::codecvt<char,char,int> >::_Psave
  0007c	e8 00 00 00 00	 call	 ?_Incref@facet@locale@std@@QAEXXZ ; std::locale::facet::_Incref

; 343  : 		_Pfmod->_Register();

  00081	8b cf		 mov	 ecx, edi
  00083	e8 00 00 00 00	 call	 ?_Register@facet@locale@std@@QAEXXZ ; std::locale::facet::_Register
$L23907:

; 344  : 		}
; 345  : 
; 346  : 	return ((const _Facet&)(*_Pf));	// should be dynamic_cast

  00088	83 4d fc ff	 or	 DWORD PTR __$EHRec$[ebp+8], -1
  0008c	8d 4d ec	 lea	 ecx, DWORD PTR __Lock$[ebp]
  0008f	e8 00 00 00 00	 call	 ??1_Lockit@std@@QAE@XZ	; std::_Lockit::~_Lockit

; 347  : 	}

  00094	8b 4d f4	 mov	 ecx, DWORD PTR __$EHRec$[ebp]
  00097	8b c7		 mov	 eax, edi
  00099	5f		 pop	 edi
  0009a	5e		 pop	 esi
  0009b	64 89 0d 00 00
	00 00		 mov	 DWORD PTR fs:__except_list, ecx
  000a2	c9		 leave
  000a3	c3		 ret	 0
$L54327:
_TEXT	ENDS
;	COMDAT text$x
text$x	SEGMENT
$L54323:
  00000	8d 4d ec	 lea	 ecx, DWORD PTR __Lock$[ebp]
  00003	e9 00 00 00 00	 jmp	 ??1_Lockit@std@@QAE@XZ	; std::_Lockit::~_Lockit
__ehhandler$??$use_facet@V?$codecvt@DDH@std@@@std@@YAABV?$codecvt@DDH@0@ABVlocale@0@@Z:
  00008	b8 00 00 00 00	 mov	 eax, OFFSET FLAT:$T54325
  0000d	e9 00 00 00 00	 jmp	 ___CxxFrameHandler
text$x	ENDS
??$use_facet@V?$codecvt@DDH@std@@@std@@YAABV?$codecvt@DDH@0@ABVlocale@0@@Z ENDP ; std::use_facet<std::codecvt<char,char,int> >
; Function compile flags: /Ogsy
;	COMDAT ??_Gcodecvt_base@std@@UAEPAXI@Z
_TEXT	SEGMENT
___flags$ = 8						; size = 4
??_Gcodecvt_base@std@@UAEPAXI@Z PROC NEAR		; std::codecvt_base::`scalar deleting destructor', COMDAT
; _this$ = ecx
  00000	56		 push	 esi
  00001	8b f1		 mov	 esi, ecx
  00003	e8 00 00 00 00	 call	 ??1codecvt_base@std@@UAE@XZ ; std::codecvt_base::~codecvt_base
  00008	f6 44 24 08 01	 test	 BYTE PTR ___flags$[esp], 1
  0000d	74 07		 je	 SHORT $L5227
  0000f	56		 push	 esi
  00010	e8 00 00 00 00	 call	 ??3@YAXPAX@Z		; operator delete
  00015	59		 pop	 ecx
$L5227:
  00016	8b c6		 mov	 eax, esi
  00018	5e		 pop	 esi
  00019	c2 04 00	 ret	 4
??_Gcodecvt_base@std@@UAEPAXI@Z ENDP			; std::codecvt_base::`scalar deleting destructor'
_TEXT	ENDS
;	COMDAT xdata$x
xdata$x	SEGMENT
$T54345	DD	0ffffffffH
	DD	FLAT:$L54338
$T54343	DD	019930520H
	DD	01H
	DD	FLAT:$T54345
	DD	2 DUP(00H)
	DD	2 DUP(00H)
; Function compile flags: /Ogsy
; File c:\program files (x86)\microsoft visual studio .net 2003\vc7\include\ios
xdata$x	ENDS
;	COMDAT ?widen@?$basic_ios@DU?$char_traits@D@std@@@std@@QBEDD@Z
_TEXT	SEGMENT
$T54337 = -16						; size = 4
__$EHRec$ = -12						; size = 12
__Byte$ = 8						; size = 1
?widen@?$basic_ios@DU?$char_traits@D@std@@@std@@QBEDD@Z PROC NEAR ; std::basic_ios<char,std::char_traits<char> >::widen, COMDAT
; _this$ = ecx

; 119  : 		{	// convert _Byte to character using imbued locale

  00000	b8 00 00 00 00	 mov	 eax, __ehhandler$?widen@?$basic_ios@DU?$char_traits@D@std@@@std@@QBEDD@Z
  00005	e8 00 00 00 00	 call	 __EH_prolog
  0000a	51		 push	 ecx
  0000b	56		 push	 esi

; 120  : 		const _Ctype& _Ctype_fac = _USE(getloc(), _Ctype);

  0000c	8d 45 f0	 lea	 eax, DWORD PTR $T54337[ebp]
  0000f	50		 push	 eax
  00010	e8 00 00 00 00	 call	 ?getloc@ios_base@std@@QBE?AVlocale@2@XZ ; std::ios_base::getloc
  00015	83 65 fc 00	 and	 DWORD PTR __$EHRec$[ebp+8], 0
  00019	50		 push	 eax
  0001a	e8 00 00 00 00	 call	 ??$use_facet@V?$ctype@D@std@@@std@@YAABV?$ctype@D@0@ABVlocale@0@@Z ; std::use_facet<std::ctype<char> >
  0001f	83 4d fc ff	 or	 DWORD PTR __$EHRec$[ebp+8], -1
  00023	59		 pop	 ecx
  00024	8d 4d f0	 lea	 ecx, DWORD PTR $T54337[ebp]
  00027	8b f0		 mov	 esi, eax
  00029	e8 00 00 00 00	 call	 ??1locale@std@@QAE@XZ	; std::locale::~locale

; 121  : 		return (_Ctype_fac.widen(_Byte));

  0002e	ff 75 08	 push	 DWORD PTR __Byte$[ebp]
  00031	8b 06		 mov	 eax, DWORD PTR [esi]
  00033	8b ce		 mov	 ecx, esi
  00035	ff 50 18	 call	 DWORD PTR [eax+24]

; 122  : 		}

  00038	8b 4d f4	 mov	 ecx, DWORD PTR __$EHRec$[ebp]
  0003b	5e		 pop	 esi
  0003c	64 89 0d 00 00
	00 00		 mov	 DWORD PTR fs:__except_list, ecx
  00043	c9		 leave
  00044	c2 04 00	 ret	 4
_TEXT	ENDS
;	COMDAT text$x
text$x	SEGMENT
$L54338:
  00000	8d 4d f0	 lea	 ecx, DWORD PTR $T54337[ebp]
  00003	e9 00 00 00 00	 jmp	 ??1locale@std@@QAE@XZ	; std::locale::~locale
__ehhandler$?widen@?$basic_ios@DU?$char_traits@D@std@@@std@@QBEDD@Z:
  00008	b8 00 00 00 00	 mov	 eax, OFFSET FLAT:$T54343
  0000d	e9 00 00 00 00	 jmp	 ___CxxFrameHandler
text$x	ENDS
?widen@?$basic_ios@DU?$char_traits@D@std@@@std@@QBEDD@Z ENDP ; std::basic_ios<char,std::char_traits<char> >::widen
; Function compile flags: /Ogsy
; File c:\program files (x86)\microsoft visual studio .net 2003\vc7\include\streambuf
;	COMDAT ?getloc@?$basic_streambuf@DU?$char_traits@D@std@@@std@@QBE?AVlocale@2@XZ
_TEXT	SEGMENT
$T54351 = -4						; size = 4
___$ReturnUdt$ = 8					; size = 4
?getloc@?$basic_streambuf@DU?$char_traits@D@std@@@std@@QBE?AVlocale@2@XZ PROC NEAR ; std::basic_streambuf<char,std::char_traits<char> >::getloc, COMDAT
; _this$ = eax

; 84   : 		{	// get locale

  00000	55		 push	 ebp
  00001	8b ec		 mov	 ebp, esp
  00003	51		 push	 ecx

; 85   : 		return (*_Plocale);

  00004	ff 70 38	 push	 DWORD PTR [eax+56]
  00007	8b 4d 08	 mov	 ecx, DWORD PTR ___$ReturnUdt$[ebp]
  0000a	83 65 fc 00	 and	 DWORD PTR $T54351[ebp], 0
  0000e	e8 00 00 00 00	 call	 ??0locale@std@@QAE@ABV01@@Z ; std::locale::locale
  00013	8b 45 08	 mov	 eax, DWORD PTR ___$ReturnUdt$[ebp]

; 86   : 		}

  00016	c9		 leave
  00017	c2 04 00	 ret	 4
?getloc@?$basic_streambuf@DU?$char_traits@D@std@@@std@@QBE?AVlocale@2@XZ ENDP ; std::basic_streambuf<char,std::char_traits<char> >::getloc
; Function compile flags: /Ogsy
; File c:\program files (x86)\microsoft visual studio .net 2003\vc7\include\ios
_TEXT	ENDS
;	COMDAT ?init@?$basic_ios@DU?$char_traits@D@std@@@std@@IAEXPAV?$basic_streambuf@DU?$char_traits@D@std@@@2@_N@Z
_TEXT	SEGMENT
__Strbuf$ = 8						; size = 4
__Isstd$ = 12						; size = 1
?init@?$basic_ios@DU?$char_traits@D@std@@@std@@IAEXPAV?$basic_streambuf@DU?$char_traits@D@std@@@2@_N@Z PROC NEAR ; std::basic_ios<char,std::char_traits<char> >::init, COMDAT
; _this$ = ecx

; 127  : 		{	// initialize with stream buffer pointer

  00000	53		 push	 ebx
  00001	56		 push	 esi
  00002	8b f1		 mov	 esi, ecx

; 128  : 		_Init();	// initialize ios_base

  00004	e8 00 00 00 00	 call	 ?_Init@ios_base@std@@IAEXXZ ; std::ios_base::_Init

; 129  : 		_Mystrbuf = _Strbuf;

  00009	8b 44 24 0c	 mov	 eax, DWORD PTR __Strbuf$[esp+4]

; 130  : 		_Tiestr = 0;

  0000d	33 db		 xor	 ebx, ebx

; 131  : 		_Fillch = widen(' ');

  0000f	6a 20		 push	 32			; 00000020H
  00011	8b ce		 mov	 ecx, esi
  00013	89 46 28	 mov	 DWORD PTR [esi+40], eax
  00016	89 5e 2c	 mov	 DWORD PTR [esi+44], ebx
  00019	e8 00 00 00 00	 call	 ?widen@?$basic_ios@DU?$char_traits@D@std@@@std@@QBEDD@Z ; std::basic_ios<char,std::char_traits<char> >::widen

; 132  : 
; 133  : 		if (_Mystrbuf == 0)

  0001e	39 5e 28	 cmp	 DWORD PTR [esi+40], ebx
  00021	88 46 30	 mov	 BYTE PTR [esi+48], al
  00024	75 0f		 jne	 SHORT $L54363

; 134  : 			setstate(badbit);

  00026	8b 46 08	 mov	 eax, DWORD PTR [esi+8]
  00029	53		 push	 ebx
  0002a	83 c8 04	 or	 eax, 4
  0002d	50		 push	 eax
  0002e	8b ce		 mov	 ecx, esi
  00030	e8 00 00 00 00	 call	 ?clear@?$basic_ios@DU?$char_traits@D@std@@@std@@QAEXH_N@Z ; std::basic_ios<char,std::char_traits<char> >::clear
$L54363:

; 135  : 
; 136  : 		if (_Isstd)

  00035	38 5c 24 10	 cmp	 BYTE PTR __Isstd$[esp+4], bl
  00039	74 09		 je	 SHORT $L24302

; 137  : 			_Addstd();	// special handling for standard streams

  0003b	8b ce		 mov	 ecx, esi
  0003d	e8 00 00 00 00	 call	 ?_Addstd@ios_base@std@@QAEXXZ ; std::ios_base::_Addstd

; 138  : 		else

  00042	eb 03		 jmp	 SHORT $L24303
$L24302:

; 139  : 			_Stdstr = 0;

  00044	89 5e 04	 mov	 DWORD PTR [esi+4], ebx
$L24303:
  00047	5e		 pop	 esi
  00048	5b		 pop	 ebx

; 140  : 		}

  00049	c2 08 00	 ret	 8
?init@?$basic_ios@DU?$char_traits@D@std@@@std@@IAEXPAV?$basic_streambuf@DU?$char_traits@D@std@@@2@_N@Z ENDP ; std::basic_ios<char,std::char_traits<char> >::init
_TEXT	ENDS
;	COMDAT xdata$x
; File c:\program files (x86)\microsoft visual studio .net 2003\vc7\include\xiosbase
xdata$x	SEGMENT
$T54383	DD	0ffffffffH
	DD	FLAT:$L54369
$T54381	DD	019930520H
	DD	01H
	DD	FLAT:$T54383
	DD	2 DUP(00H)
	DD	2 DUP(00H)
; Function compile flags: /Ogsy
; File c:\program files (x86)\microsoft visual studio .net 2003\vc7\include\istream
xdata$x	ENDS
;	COMDAT ??0?$basic_istream@DU?$char_traits@D@std@@@std@@QAE@PAV?$basic_streambuf@DU?$char_traits@D@std@@@1@_N1@Z
_TEXT	SEGMENT
$T54368 = -16						; size = 4
__$EHRec$ = -12						; size = 12
_this$ = 8						; size = 4
__Strbuf$ = 12						; size = 4
__Isstd$ = 16						; size = 1
__Noinit$ = 20						; size = 1
_$initVBases$ = 24					; size = 4
??0?$basic_istream@DU?$char_traits@D@std@@@std@@QAE@PAV?$basic_streambuf@DU?$char_traits@D@std@@@1@_N1@Z PROC NEAR ; std::basic_istream<char,std::char_traits<char> >::basic_istream<char,std::char_traits<char> >, COMDAT

; 28   : 		{	// construct from stream buffer pointer

  00000	b8 00 00 00 00	 mov	 eax, __ehhandler$??0?$basic_istream@DU?$char_traits@D@std@@@std@@QAE@PAV?$basic_streambuf@DU?$char_traits@D@std@@@1@_N1@Z
  00005	e8 00 00 00 00	 call	 __EH_prolog
  0000a	51		 push	 ecx
  0000b	33 c0		 xor	 eax, eax
  0000d	39 45 18	 cmp	 DWORD PTR _$initVBases$[ebp], eax
  00010	56		 push	 esi
  00011	8b 75 08	 mov	 esi, DWORD PTR _this$[ebp]
  00014	89 45 f0	 mov	 DWORD PTR $T54368[ebp], eax
  00017	74 17		 je	 SHORT $L24279
  00019	c7 06 00 00 00
	00		 mov	 DWORD PTR [esi], OFFSET FLAT:??_8?$basic_istream@DU?$char_traits@D@std@@@std@@7B@
  0001f	c7 46 08 00 00
	00 00		 mov	 DWORD PTR [esi+8], OFFSET FLAT:??_7?$basic_ios@DU?$char_traits@D@std@@@std@@6B@
  00026	89 45 fc	 mov	 DWORD PTR __$EHRec$[ebp+8], eax
  00029	c7 45 f0 01 00
	00 00		 mov	 DWORD PTR $T54368[ebp], 1
$L24279:

; 29   : 		if (!_Noinit)

  00030	38 45 14	 cmp	 BYTE PTR __Noinit$[ebp], al
  00033	8b 0e		 mov	 ecx, DWORD PTR [esi]
  00035	8b 49 04	 mov	 ecx, DWORD PTR [ecx+4]
  00038	c7 04 0e 00 00
	00 00		 mov	 DWORD PTR [esi+ecx], OFFSET FLAT:??_7?$basic_istream@DU?$char_traits@D@std@@@std@@6B@
  0003f	89 46 04	 mov	 DWORD PTR [esi+4], eax
  00042	75 12		 jne	 SHORT $L24280

; 30   : 			_Myios::init(_Strbuf, _Isstd);

  00044	ff 75 10	 push	 DWORD PTR __Isstd$[ebp]
  00047	8b 06		 mov	 eax, DWORD PTR [esi]
  00049	8b 48 04	 mov	 ecx, DWORD PTR [eax+4]
  0004c	ff 75 0c	 push	 DWORD PTR __Strbuf$[ebp]
  0004f	03 ce		 add	 ecx, esi
  00051	e8 00 00 00 00	 call	 ?init@?$basic_ios@DU?$char_traits@D@std@@@std@@IAEXPAV?$basic_streambuf@DU?$char_traits@D@std@@@2@_N@Z ; std::basic_ios<char,std::char_traits<char> >::init
$L24280:

; 31   : 		}

  00056	8b 4d f4	 mov	 ecx, DWORD PTR __$EHRec$[ebp]
  00059	8b c6		 mov	 eax, esi
  0005b	5e		 pop	 esi
  0005c	64 89 0d 00 00
	00 00		 mov	 DWORD PTR fs:__except_list, ecx
  00063	c9		 leave
  00064	c2 14 00	 ret	 20			; 00000014H
_TEXT	ENDS
;	COMDAT text$x
text$x	SEGMENT
$L54369:
  00000	8b 45 f0	 mov	 eax, DWORD PTR $T54368[ebp]
  00003	83 e0 01	 and	 eax, 1
  00006	0f 84 0f 00 00
	00		 je	 $L54370
  0000c	83 65 f0 fe	 and	 DWORD PTR $T54368[ebp], -2 ; fffffffeH
  00010	8b 4d 08	 mov	 ecx, DWORD PTR _this$[ebp]
  00013	83 c1 08	 add	 ecx, 8
  00016	e9 00 00 00 00	 jmp	 ??1?$basic_ios@DU?$char_traits@D@std@@@std@@UAE@XZ ; std::basic_ios<char,std::char_traits<char> >::~basic_ios<char,std::char_traits<char> >
$L54370:
  0001b	c3		 ret	 0
__ehhandler$??0?$basic_istream@DU?$char_traits@D@std@@@std@@QAE@PAV?$basic_streambuf@DU?$char_traits@D@std@@@1@_N1@Z:
  0001c	b8 00 00 00 00	 mov	 eax, OFFSET FLAT:$T54381
  00021	e9 00 00 00 00	 jmp	 ___CxxFrameHandler
text$x	ENDS
??0?$basic_istream@DU?$char_traits@D@std@@@std@@QAE@PAV?$basic_streambuf@DU?$char_traits@D@std@@@1@_N1@Z ENDP ; std::basic_istream<char,std::char_traits<char> >::basic_istream<char,std::char_traits<char> >
; Function compile flags: /Ogsy
;	COMDAT ?seekg@?$basic_istream@DU?$char_traits@D@std@@@std@@QAEAAV12@JH@Z
_TEXT	SEGMENT
$T54388 = -24						; size = 24
__Off$ = 8						; size = 4
__Way$ = 12						; size = 4
?seekg@?$basic_istream@DU?$char_traits@D@std@@@std@@QAEAAV12@JH@Z PROC NEAR ; std::basic_istream<char,std::char_traits<char> >::seekg, COMDAT
; _this$ = esi

; 781  : 		{	// change input stream position by _Off, according to _Way

  00000	55		 push	 ebp
  00001	8b ec		 mov	 ebp, esp
  00003	83 ec 18	 sub	 esp, 24			; 00000018H

; 782  : 		if (!ios_base::fail()
; 783  : 			&& (off_type)_Myios::rdbuf()->pubseekoff(_Off, _Way,
; 784  : 				ios_base::in) == _BADOFF)

  00006	8b 06		 mov	 eax, DWORD PTR [esi]
  00008	8b 48 04	 mov	 ecx, DWORD PTR [eax+4]
  0000b	f6 44 31 08 06	 test	 BYTE PTR [ecx+esi+8], 6
  00010	75 3c		 jne	 SHORT $L54416
  00012	6a 01		 push	 1
  00014	ff 75 0c	 push	 DWORD PTR __Way$[ebp]
  00017	8b c1		 mov	 eax, ecx
  00019	ff 75 08	 push	 DWORD PTR __Off$[ebp]
  0001c	8b 4c 30 28	 mov	 ecx, DWORD PTR [eax+esi+40]
  00020	8b 01		 mov	 eax, DWORD PTR [ecx]
  00022	8d 55 e8	 lea	 edx, DWORD PTR $T54388[ebp]
  00025	52		 push	 edx
  00026	ff 50 20	 call	 DWORD PTR [eax+32]
  00029	8b 45 f0	 mov	 eax, DWORD PTR $T54388[ebp+8]
  0002c	8b 4d e8	 mov	 ecx, DWORD PTR $T54388[ebp]
  0002f	03 c8		 add	 ecx, eax
  00031	3b 0d 00 00 00
	00		 cmp	 ecx, DWORD PTR ?_BADOFF@std@@3JB ; std::_BADOFF
  00037	75 15		 jne	 SHORT $L54416

; 785  : 			_Myios::setstate(ios_base::failbit);

  00039	8b 06		 mov	 eax, DWORD PTR [esi]
  0003b	8b 48 04	 mov	 ecx, DWORD PTR [eax+4]
  0003e	03 ce		 add	 ecx, esi
  00040	8b 41 08	 mov	 eax, DWORD PTR [ecx+8]
  00043	6a 00		 push	 0
  00045	83 c8 02	 or	 eax, 2
  00048	50		 push	 eax
  00049	e8 00 00 00 00	 call	 ?clear@?$basic_ios@DU?$char_traits@D@std@@@std@@QAEXH_N@Z ; std::basic_ios<char,std::char_traits<char> >::clear
$L54416:

; 786  : 		return (*this);

  0004e	8b c6		 mov	 eax, esi

; 787  : 		}

  00050	c9		 leave
  00051	c2 08 00	 ret	 8
?seekg@?$basic_istream@DU?$char_traits@D@std@@@std@@QAEAAV12@JH@Z ENDP ; std::basic_istream<char,std::char_traits<char> >::seekg
_TEXT	ENDS
PUBLIC	?StreamPointerMove@FileInput@@QAEXJ@Z		; FileInput::StreamPointerMove
; Function compile flags: /Ogsy
; File f:\nes\nsdl\src\nsc\fileinput.cpp
_TEXT	SEGMENT
_iSize$ = 8						; size = 4
?StreamPointerMove@FileInput@@QAEXJ@Z PROC NEAR		; FileInput::StreamPointerMove
; _this$ = esi

; 151  : 		seekg((long)iSize,ios::beg);

  00000	6a 00		 push	 0
  00002	ff 74 24 08	 push	 DWORD PTR _iSize$[esp]
  00006	e8 00 00 00 00	 call	 ?seekg@?$basic_istream@DU?$char_traits@D@std@@@std@@QAEAAV12@JH@Z ; std::basic_istream<char,std::char_traits<char> >::seekg

; 152  : };

  0000b	c2 04 00	 ret	 4
?StreamPointerMove@FileInput@@QAEXJ@Z ENDP		; FileInput::StreamPointerMove
_TEXT	ENDS
PUBLIC	?StreamPointerAdd@FileInput@@QAEXJ@Z		; FileInput::StreamPointerAdd
; Function compile flags: /Ogsy
_TEXT	SEGMENT
_iSize$ = 8						; size = 4
?StreamPointerAdd@FileInput@@QAEXJ@Z PROC NEAR		; FileInput::StreamPointerAdd
; _this$ = esi

; 144  : 	seekg((long)iSize,ios::cur);

  0000e	6a 01		 push	 1
  00010	ff 74 24 08	 push	 DWORD PTR _iSize$[esp]
  00014	e8 00 00 00 00	 call	 ?seekg@?$basic_istream@DU?$char_traits@D@std@@@std@@QAEAAV12@JH@Z ; std::basic_istream<char,std::char_traits<char> >::seekg

; 145  : };

  00019	c2 04 00	 ret	 4
?StreamPointerAdd@FileInput@@QAEXJ@Z ENDP		; FileInput::StreamPointerAdd
; Function compile flags: /Ogsy
;	COMDAT ??_G?$basic_string@DU?$char_traits@D@std@@V?$allocator@D@2@@std@@QAEPAXI@Z
_TEXT	SEGMENT
___flags$ = 8						; size = 4
??_G?$basic_string@DU?$char_traits@D@std@@V?$allocator@D@2@@std@@QAEPAXI@Z PROC NEAR ; std::basic_string<char,std::char_traits<char>,std::allocator<char> >::`scalar deleting destructor', COMDAT
; _this$ = ecx
  00000	56		 push	 esi
  00001	6a 00		 push	 0
  00003	6a 01		 push	 1
  00005	8b f1		 mov	 esi, ecx
  00007	e8 00 00 00 00	 call	 ?_Tidy@?$basic_string@DU?$char_traits@D@std@@V?$allocator@D@2@@std@@IAEX_NI@Z ; std::basic_string<char,std::char_traits<char>,std::allocator<char> >::_Tidy
  0000c	f6 44 24 08 01	 test	 BYTE PTR ___flags$[esp], 1
  00011	74 07		 je	 SHORT $L23448
  00013	56		 push	 esi
  00014	e8 00 00 00 00	 call	 ??3@YAXPAX@Z		; operator delete
  00019	59		 pop	 ecx
$L23448:
  0001a	8b c6		 mov	 eax, esi
  0001c	5e		 pop	 esi
  0001d	c2 04 00	 ret	 4
??_G?$basic_string@DU?$char_traits@D@std@@V?$allocator@D@2@@std@@QAEPAXI@Z ENDP ; std::basic_string<char,std::char_traits<char>,std::allocator<char> >::`scalar deleting destructor'
; Function compile flags: /Ogsy
; File c:\program files (x86)\microsoft visual studio .net 2003\vc7\include\fstream
_TEXT	ENDS
;	COMDAT ?uflow@?$basic_filebuf@DU?$char_traits@D@std@@@std@@MAEHXZ
_TEXT	SEGMENT
__Dest$23318 = -16					; size = 4
$T61147 = -12						; size = 4
__Source$23319 = -8					; size = 4
__Ch$23317 = -1						; size = 1
__Ch$23312 = -1						; size = 1
?uflow@?$basic_filebuf@DU?$char_traits@D@std@@@std@@MAEHXZ PROC NEAR ; std::basic_filebuf<char,std::char_traits<char> >::uflow, COMDAT
; _this$ = ecx

; 263  : 		{	// get an element from stream, point past it

  00000	55		 push	 ebp
  00001	8b ec		 mov	 ebp, esp
  00003	83 ec 10	 sub	 esp, 16			; 00000010H
  00006	56		 push	 esi
  00007	8b f1		 mov	 esi, ecx

; 264  : 		if (_Mysb::gptr() != 0
; 265  : 			&& _Mysb::gptr() < _Mysb::egptr())

  00009	8b 4e 20	 mov	 ecx, DWORD PTR [esi+32]
  0000c	33 d2		 xor	 edx, edx
  0000e	39 11		 cmp	 DWORD PTR [ecx], edx
  00010	57		 push	 edi
  00011	74 21		 je	 SHORT $L23307
  00013	8b 46 30	 mov	 eax, DWORD PTR [esi+48]
  00016	8b 09		 mov	 ecx, DWORD PTR [ecx]
  00018	8b 38		 mov	 edi, DWORD PTR [eax]
  0001a	03 f9		 add	 edi, ecx
  0001c	3b cf		 cmp	 ecx, edi
  0001e	73 14		 jae	 SHORT $L23307

; 266  : 			return (_Traits::to_int_type(
; 267  : 				*_Mysb::_Gninc()));	// return buffered

  00020	ff 08		 dec	 DWORD PTR [eax]
  00022	8b 76 20	 mov	 esi, DWORD PTR [esi+32]
  00025	8b 06		 mov	 eax, DWORD PTR [esi]
  00027	8d 48 01	 lea	 ecx, DWORD PTR [eax+1]
  0002a	89 0e		 mov	 DWORD PTR [esi], ecx
  0002c	0f b6 00	 movzx	 eax, BYTE PTR [eax]
  0002f	e9 2a 01 00 00	 jmp	 $L23316
$L23307:

; 268  : 		else if (_Myfile == 0)

  00034	8b 46 58	 mov	 eax, DWORD PTR [esi+88]
  00037	3b c2		 cmp	 eax, edx
  00039	75 08		 jne	 SHORT $L23309
$L61054:

; 269  : 			return (_Traits::eof());	// no open C stream, fail

  0003b	83 c8 ff	 or	 eax, -1
  0003e	e9 1b 01 00 00	 jmp	 $L23316
$L23309:

; 270  : 		else if (_Pcvt == 0)

  00043	39 56 3c	 cmp	 DWORD PTR [esi+60], edx
  00046	75 1c		 jne	 SHORT $L23311

; 271  : 			{	// no codecvt facet, just get it
; 272  : 			_Elem _Ch = 0;
; 273  : 			return (_Fgetc(_Ch, _Myfile) ? _Traits::to_int_type(_Ch)
; 274  : 				: _Traits::eof());

  00048	50		 push	 eax
  00049	8d 45 ff	 lea	 eax, DWORD PTR __Ch$23312[ebp]
  0004c	50		 push	 eax
  0004d	88 55 ff	 mov	 BYTE PTR __Ch$23312[ebp], dl
  00050	e8 00 00 00 00	 call	 ??$_Fgetc@D@std@@YA_NAADPAU_iobuf@@@Z ; std::_Fgetc<char>
  00055	84 c0		 test	 al, al
  00057	59		 pop	 ecx
  00058	59		 pop	 ecx
  00059	74 e0		 je	 SHORT $L61054
  0005b	0f b6 45 ff	 movzx	 eax, BYTE PTR __Ch$23312[ebp]
  0005f	e9 fa 00 00 00	 jmp	 $L23316
$L23311:

; 275  : 			}
; 276  : 		else
; 277  : 			for (_State0 = _State, _Mystr->erase(); ; )

  00064	8b 46 50	 mov	 eax, DWORD PTR [esi+80]
  00067	8b 4e 48	 mov	 ecx, DWORD PTR [esi+72]
  0006a	53		 push	 ebx
  0006b	6a ff		 push	 -1
  0006d	89 46 40	 mov	 DWORD PTR [esi+64], eax
  00070	52		 push	 edx

; 278  : 				{	// get using codecvt facet
; 279  : 				_Elem _Ch, *_Dest;
; 280  : 				const char *_Source;
; 281  : 				ptrdiff_t _Nleft;
; 282  : 				int _Meta = fgetc(_Myfile);

  00071	e9 8d 00 00 00	 jmp	 $L61306
$L23315:

; 286  : 
; 287  : 				_Mystr->append(1, (char)_Meta);	// append byte and convert

  00076	8b 4e 48	 mov	 ecx, DWORD PTR [esi+72]
  00079	50		 push	 eax
  0007a	6a 01		 push	 1
  0007c	e8 00 00 00 00	 call	 ?append@?$basic_string@DU?$char_traits@D@std@@V?$allocator@D@2@@std@@QAEAAV12@ID@Z ; std::basic_string<char,std::char_traits<char>,std::allocator<char> >::append

; 288  : 				switch (_Pcvt->in(_State,
; 289  : 					&*_Mystr->begin(), &*_Mystr->begin() + _Mystr->size(),
; 290  : 						_Source, &_Ch, &_Ch + 1, _Dest))

  00081	8b 46 48	 mov	 eax, DWORD PTR [esi+72]
  00084	83 78 18 10	 cmp	 DWORD PTR [eax+24], 16	; 00000010H
  00088	72 05		 jb	 SHORT $L61111
  0008a	8b 78 04	 mov	 edi, DWORD PTR [eax+4]
  0008d	eb 03		 jmp	 SHORT $L61112
$L61111:
  0008f	8d 78 04	 lea	 edi, DWORD PTR [eax+4]
$L61112:
  00092	83 78 18 10	 cmp	 DWORD PTR [eax+24], 16	; 00000010H
  00096	8b 50 14	 mov	 edx, DWORD PTR [eax+20]
  00099	72 05		 jb	 SHORT $L61151
  0009b	8b 40 04	 mov	 eax, DWORD PTR [eax+4]
  0009e	eb 03		 jmp	 SHORT $L61307
$L61151:
  000a0	83 c0 04	 add	 eax, 4
$L61307:
  000a3	8b 4e 3c	 mov	 ecx, DWORD PTR [esi+60]
  000a6	8b 19		 mov	 ebx, DWORD PTR [ecx]
  000a8	89 45 f4	 mov	 DWORD PTR $T61147[ebp], eax
  000ab	8d 45 f0	 lea	 eax, DWORD PTR __Dest$23318[ebp]
  000ae	50		 push	 eax
  000af	8d 45 00	 lea	 eax, DWORD PTR __Ch$23317[ebp+1]
  000b2	50		 push	 eax
  000b3	8d 45 ff	 lea	 eax, DWORD PTR __Ch$23317[ebp]
  000b6	50		 push	 eax
  000b7	8d 45 f8	 lea	 eax, DWORD PTR __Source$23319[ebp]
  000ba	50		 push	 eax
  000bb	03 fa		 add	 edi, edx
  000bd	57		 push	 edi
  000be	ff 75 f4	 push	 DWORD PTR $T61147[ebp]
  000c1	8d 46 50	 lea	 eax, DWORD PTR [esi+80]
  000c4	50		 push	 eax
  000c5	ff 53 10	 call	 DWORD PTR [ebx+16]
  000c8	83 e8 00	 sub	 eax, 0
  000cb	74 5a		 je	 SHORT $L23339
  000cd	48		 dec	 eax
  000ce	74 1a		 je	 SHORT $L23330
  000d0	48		 dec	 eax
  000d1	48		 dec	 eax
  000d2	75 46		 jne	 SHORT $L23344

; 295  : 					break;
; 296  : 
; 297  : 				case codecvt_base::noconv:
; 298  : 					if (_Mystr->size() < sizeof (_Elem))

  000d4	8b 46 48	 mov	 eax, DWORD PTR [esi+72]
  000d7	83 78 14 01	 cmp	 DWORD PTR [eax+20], 1
  000db	72 2b		 jb	 SHORT $L23327

; 299  : 						break;	// no conversion, but need more chars
; 300  : 
; 301  : 					memcpy(&_Ch, &*_Mystr->begin(),
; 302  : 						sizeof (_Elem));	// copy raw bytes to element

  000dd	8b f0		 mov	 esi, eax
  000df	83 7e 18 10	 cmp	 DWORD PTR [esi+24], 16	; 00000010H
  000e3	72 3a		 jb	 SHORT $L61233
  000e5	8b 76 04	 mov	 esi, DWORD PTR [esi+4]
  000e8	eb 38		 jmp	 SHORT $L61234
$L23330:

; 291  : 				{	// test result of converting one element
; 292  : 				case codecvt_base::partial:
; 293  : 					_Mystr->erase((size_t)0,	// partial, not done yet
; 294  : 						(size_t)(_Source - &*_Mystr->begin()));

  000ea	8b 4e 48	 mov	 ecx, DWORD PTR [esi+72]
  000ed	83 79 18 10	 cmp	 DWORD PTR [ecx+24], 16	; 00000010H
  000f1	72 05		 jb	 SHORT $L61193
  000f3	8b 41 04	 mov	 eax, DWORD PTR [ecx+4]
  000f6	eb 03		 jmp	 SHORT $L61194
$L61193:
  000f8	8d 41 04	 lea	 eax, DWORD PTR [ecx+4]
$L61194:
  000fb	8b 55 f8	 mov	 edx, DWORD PTR __Source$23319[ebp]
  000fe	2b d0		 sub	 edx, eax
  00100	52		 push	 edx
  00101	6a 00		 push	 0
$L61306:
  00103	e8 00 00 00 00	 call	 ?erase@?$basic_string@DU?$char_traits@D@std@@V?$allocator@D@2@@std@@QAEAAV12@II@Z ; std::basic_string<char,std::char_traits<char>,std::allocator<char> >::erase
$L23327:

; 278  : 				{	// get using codecvt facet
; 279  : 				_Elem _Ch, *_Dest;
; 280  : 				const char *_Source;
; 281  : 				ptrdiff_t _Nleft;
; 282  : 				int _Meta = fgetc(_Myfile);

  00108	ff 76 58	 push	 DWORD PTR [esi+88]
  0010b	e8 00 00 00 00	 call	 _fgetc

; 283  : 
; 284  : 				if (_Meta == EOF)

  00110	83 f8 ff	 cmp	 eax, -1
  00113	59		 pop	 ecx
  00114	0f 85 5c ff ff
	ff		 jne	 $L23315
$L23344:

; 285  : 					return (_Traits::eof());	// partial char?

  0011a	83 c8 ff	 or	 eax, -1
  0011d	eb 3e		 jmp	 SHORT $L61304

; 299  : 						break;	// no conversion, but need more chars
; 300  : 
; 301  : 					memcpy(&_Ch, &*_Mystr->begin(),
; 302  : 						sizeof (_Elem));	// copy raw bytes to element

$L61233:
  0011f	83 c6 04	 add	 esi, 4
$L61234:

; 303  : 					return (_Traits::to_int_type(_Ch));	// return result

  00122	0f b6 06	 movzx	 eax, BYTE PTR [esi]
  00125	eb 36		 jmp	 SHORT $L61304
$L23339:

; 304  : 
; 305  : 				case codecvt_base::ok:
; 306  : 					for (_Nleft = &*_Mystr->begin() + _Mystr->size() - _Source;

  00127	8b 46 48	 mov	 eax, DWORD PTR [esi+72]
  0012a	83 78 18 10	 cmp	 DWORD PTR [eax+24], 16	; 00000010H
  0012e	72 05		 jb	 SHORT $L61272
  00130	8b 48 04	 mov	 ecx, DWORD PTR [eax+4]
  00133	eb 03		 jmp	 SHORT $L61273
$L61272:
  00135	8d 48 04	 lea	 ecx, DWORD PTR [eax+4]
$L61273:
  00138	8b 78 14	 mov	 edi, DWORD PTR [eax+20]
  0013b	2b 7d f8	 sub	 edi, DWORD PTR __Source$23319[ebp]
  0013e	03 f9		 add	 edi, ecx
  00140	eb 13		 jmp	 SHORT $L61308
$L23342:

; 308  : 						ungetc(_Source[--_Nleft], _Myfile);

  00142	8b 45 f8	 mov	 eax, DWORD PTR __Source$23319[ebp]
  00145	ff 76 58	 push	 DWORD PTR [esi+88]
  00148	4f		 dec	 edi
  00149	0f be 04 07	 movsx	 eax, BYTE PTR [edi+eax]
  0014d	50		 push	 eax
  0014e	e8 00 00 00 00	 call	 _ungetc
  00153	59		 pop	 ecx
  00154	59		 pop	 ecx
$L61308:

; 307  : 						0 < _Nleft; )

  00155	85 ff		 test	 edi, edi
  00157	7f e9		 jg	 SHORT $L23342

; 309  : 					return (_Traits::to_int_type(_Ch));	// return result

  00159	0f b6 45 ff	 movzx	 eax, BYTE PTR __Ch$23317[ebp]
$L61304:
  0015d	5b		 pop	 ebx
$L23316:
  0015e	5f		 pop	 edi
  0015f	5e		 pop	 esi

; 310  : 
; 311  : 				default:
; 312  : 					return (_Traits::eof());	// conversion failed
; 313  : 				}
; 314  : 				}
; 315  : 		}

  00160	c9		 leave
  00161	c3		 ret	 0
?uflow@?$basic_filebuf@DU?$char_traits@D@std@@@std@@MAEHXZ ENDP ; std::basic_filebuf<char,std::char_traits<char> >::uflow
_TEXT	ENDS
;	COMDAT xdata$x
; File c:\program files (x86)\microsoft visual studio .net 2003\vc7\include\xstring
xdata$x	SEGMENT
$T61570	DD	0ffffffffH
	DD	FLAT:$L61325
$T61554	DD	019930520H
	DD	01H
	DD	FLAT:$T61570
	DD	2 DUP(00H)
	DD	2 DUP(00H)
; Function compile flags: /Ogsy
; File c:\program files (x86)\microsoft visual studio .net 2003\vc7\include\fstream
xdata$x	ENDS
;	COMDAT ?overflow@?$basic_filebuf@DU?$char_traits@D@std@@@std@@MAEHH@Z
_TEXT	SEGMENT
__Source$23062 = -56					; size = 4
__Dest$23063 = -52					; size = 4
__Ch$23061 = -45					; size = 1
__Str$23064 = -44					; size = 28
__$ArrayPad$ = -16					; size = 4
__$EHRec$ = -12						; size = 12
__$ReturnAddr$ = 4					; size = 4
__Meta$ = 8						; size = 4
?overflow@?$basic_filebuf@DU?$char_traits@D@std@@@std@@MAEHH@Z PROC NEAR ; std::basic_filebuf<char,std::char_traits<char> >::overflow, COMDAT
; _this$ = ecx

; 168  : 		{	// put an element to stream

  00000	b8 00 00 00 00	 mov	 eax, __ehhandler$?overflow@?$basic_filebuf@DU?$char_traits@D@std@@@std@@MAEHH@Z
  00005	e8 00 00 00 00	 call	 __EH_prolog
  0000a	83 ec 2c	 sub	 esp, 44			; 0000002cH
  0000d	a1 00 00 00 00	 mov	 eax, DWORD PTR ___security_cookie
  00012	53		 push	 ebx

; 169  : 		if (_Traits::eq_int_type(_Traits::eof(), _Meta))

  00013	8b 5d 08	 mov	 ebx, DWORD PTR __Meta$[ebp]
  00016	83 fb ff	 cmp	 ebx, -1
  00019	56		 push	 esi
  0001a	89 45 f0	 mov	 DWORD PTR __$ArrayPad$[ebp], eax
  0001d	8b f1		 mov	 esi, ecx
  0001f	75 07		 jne	 SHORT $L23052

; 170  : 			return (_Traits::not_eof(_Meta));	// EOF, return success code

  00021	33 c0		 xor	 eax, eax
  00023	e9 48 01 00 00	 jmp	 $L61552
$L23052:

; 171  : 		else if (_Mysb::pptr() != 0
; 172  : 			&& _Mysb::pptr() < _Mysb::epptr())

  00028	8b 46 24	 mov	 eax, DWORD PTR [esi+36]
  0002b	8b 08		 mov	 ecx, DWORD PTR [eax]
  0002d	57		 push	 edi
  0002e	33 ff		 xor	 edi, edi
  00030	3b cf		 cmp	 ecx, edi
  00032	74 1b		 je	 SHORT $L61562
  00034	8b 46 34	 mov	 eax, DWORD PTR [esi+52]
  00037	8b 10		 mov	 edx, DWORD PTR [eax]
  00039	03 d1		 add	 edx, ecx
  0003b	3b ca		 cmp	 ecx, edx
  0003d	73 10		 jae	 SHORT $L61562

; 173  : 			{	// room in buffer, store it
; 174  : 			*_Mysb::_Pninc() = _Traits::to_char_type(_Meta);

  0003f	ff 08		 dec	 DWORD PTR [eax]
  00041	8b 76 24	 mov	 esi, DWORD PTR [esi+36]
  00044	8b 06		 mov	 eax, DWORD PTR [esi]
  00046	8d 48 01	 lea	 ecx, DWORD PTR [eax+1]
  00049	89 0e		 mov	 DWORD PTR [esi], ecx
  0004b	88 18		 mov	 BYTE PTR [eax], bl

; 175  : 			return (_Meta);

  0004d	eb 21		 jmp	 SHORT $L61569
$L61562:

; 176  : 			}
; 177  : 		else if (_Myfile == 0)

  0004f	8b 46 58	 mov	 eax, DWORD PTR [esi+88]
  00052	3b c7		 cmp	 eax, edi

; 178  : 			return (_Traits::eof());	// no open C stream, fail

  00054	0f 84 12 01 00
	00		 je	 $L61566

; 179  : 		else if (_Pcvt == 0)

  0005a	39 7e 3c	 cmp	 DWORD PTR [esi+60], edi
  0005d	75 18		 jne	 SHORT $L23058

; 180  : 			return (_Fputc(_Traits::to_char_type(_Meta), _Myfile)
; 181  : 				? _Meta : _Traits::eof());	// no codecvt facet, put as is

  0005f	50		 push	 eax
  00060	8a c3		 mov	 al, bl
  00062	e8 00 00 00 00	 call	 ??$_Fputc@D@std@@YA_NDPAU_iobuf@@@Z ; std::_Fputc<char>
  00067	84 c0		 test	 al, al
  00069	59		 pop	 ecx
  0006a	0f 84 fc 00 00
	00		 je	 $L61566
$L61569:
  00070	8b c3		 mov	 eax, ebx
  00072	e9 f8 00 00 00	 jmp	 $L61565
$L23058:

; 182  : 		else
; 183  : 			{	// put using codecvt facet
; 184  : 			const int _STRING_INC = 8;
; 185  : 			const _Elem _Ch = _Traits::to_char_type(_Meta);
; 186  : 			const _Elem *_Source;
; 187  : 			char *_Dest;
; 188  : 
; 189  : 			_Mystr->erase();

  00077	8b 4e 48	 mov	 ecx, DWORD PTR [esi+72]
  0007a	6a ff		 push	 -1
  0007c	57		 push	 edi
  0007d	88 5d d3	 mov	 BYTE PTR __Ch$23061[ebp], bl
  00080	e8 00 00 00 00	 call	 ?erase@?$basic_string@DU?$char_traits@D@std@@V?$allocator@D@2@@std@@QAEAAV12@II@Z ; std::basic_string<char,std::char_traits<char>,std::allocator<char> >::erase

; 190  : 			string _Str(_STRING_INC, '\0');

  00085	57		 push	 edi
  00086	6a 08		 push	 8
  00088	8d 4d d4	 lea	 ecx, DWORD PTR __Str$23064[ebp]
  0008b	e8 00 00 00 00	 call	 ??0?$basic_string@DU?$char_traits@D@std@@V?$allocator@D@2@@std@@QAE@ID@Z ; std::basic_string<char,std::char_traits<char>,std::allocator<char> >::basic_string<char,std::char_traits<char>,std::allocator<char> >
  00090	89 7d fc	 mov	 DWORD PTR __$EHRec$[ebp+8], edi
$L23145:

; 191  : 			for (; ; )
; 192  : 				switch (_Pcvt->out(_State,
; 193  : 					&_Ch, &_Ch + 1, _Source,
; 194  : 					&*_Str.begin(), &*_Str.begin() + _Str.size(), _Dest))

  00093	83 7d ec 10	 cmp	 DWORD PTR __Str$23064[ebp+24], 16 ; 00000010H
  00097	8b 45 d8	 mov	 eax, DWORD PTR __Str$23064[ebp+4]
  0009a	0f 83 8d 00 00
	00		 jae	 $L61568
  000a0	8d 45 d8	 lea	 eax, DWORD PTR __Str$23064[ebp+4]
  000a3	8b d0		 mov	 edx, eax
$L61440:
  000a5	8b 4e 3c	 mov	 ecx, DWORD PTR [esi+60]
  000a8	8b 39		 mov	 edi, DWORD PTR [ecx]
  000aa	8d 5d cc	 lea	 ebx, DWORD PTR __Dest$23063[ebp]
  000ad	53		 push	 ebx
  000ae	8b 5d e8	 mov	 ebx, DWORD PTR __Str$23064[ebp+20]
  000b1	03 d8		 add	 ebx, eax
  000b3	53		 push	 ebx
  000b4	52		 push	 edx
  000b5	8d 45 c8	 lea	 eax, DWORD PTR __Source$23062[ebp]
  000b8	50		 push	 eax
  000b9	8d 45 d4	 lea	 eax, DWORD PTR __Ch$23061[ebp+1]
  000bc	50		 push	 eax
  000bd	8d 45 d3	 lea	 eax, DWORD PTR __Ch$23061[ebp]
  000c0	50		 push	 eax
  000c1	8d 46 50	 lea	 eax, DWORD PTR [esi+80]
  000c4	50		 push	 eax
  000c5	ff 57 14	 call	 DWORD PTR [edi+20]
  000c8	33 db		 xor	 ebx, ebx
  000ca	3b c3		 cmp	 eax, ebx
  000cc	0f 8c 8f 00 00
	00		 jl	 $L61561
  000d2	83 f8 01	 cmp	 eax, 1
  000d5	7f 5e		 jg	 SHORT $L61556

; 195  : 				{	// test result of converting one element
; 196  : 				case codecvt_base::partial:
; 197  : 				case codecvt_base::ok:
; 198  : 					{	// converted something, try to put it out
; 199  : 					size_t _Count = _Dest - &*_Str.begin();

  000d7	83 7d ec 10	 cmp	 DWORD PTR __Str$23064[ebp+24], 16 ; 00000010H
  000db	8b 45 d8	 mov	 eax, DWORD PTR __Str$23064[ebp+4]
  000de	73 03		 jae	 SHORT $L61479
  000e0	8d 45 d8	 lea	 eax, DWORD PTR __Str$23064[ebp+4]
$L61479:
  000e3	8b 7d cc	 mov	 edi, DWORD PTR __Dest$23063[ebp]
  000e6	2b f8		 sub	 edi, eax

; 200  : 					if (0 < _Count && _Count !=
; 201  : 						fwrite(&*_Str.begin(), 1, _Count, _Myfile))

  000e8	74 1f		 je	 SHORT $L23272
  000ea	83 7d ec 10	 cmp	 DWORD PTR __Str$23064[ebp+24], 16 ; 00000010H
  000ee	8b 45 d8	 mov	 eax, DWORD PTR __Str$23064[ebp+4]
  000f1	73 03		 jae	 SHORT $L61514
  000f3	8d 45 d8	 lea	 eax, DWORD PTR __Str$23064[ebp+4]
$L61514:
  000f6	ff 76 58	 push	 DWORD PTR [esi+88]
  000f9	57		 push	 edi
  000fa	6a 01		 push	 1
  000fc	50		 push	 eax
  000fd	e8 00 00 00 00	 call	 _fwrite
  00102	83 c4 10	 add	 esp, 16			; 00000010H
  00105	3b f8		 cmp	 edi, eax
  00107	75 46		 jne	 SHORT $L61557
$L23272:

; 203  : 
; 204  : 					_Wrotesome = true;	// write succeeded
; 205  : 					if (_Source != &_Ch)

  00109	8d 45 d3	 lea	 eax, DWORD PTR __Ch$23061[ebp]
  0010c	39 45 c8	 cmp	 DWORD PTR __Source$23062[ebp], eax
  0010f	c6 46 4c 01	 mov	 BYTE PTR [esi+76], 1
  00113	75 35		 jne	 SHORT $L61558

; 206  : 						return (_Meta);	// converted whole element
; 207  : 					if (_Count == 0)

  00115	3b fb		 cmp	 edi, ebx
  00117	0f 85 76 ff ff
	ff		 jne	 $L23145

; 208  : 						_Str.append(_STRING_INC, '\0');	// try with more space

  0011d	53		 push	 ebx
  0011e	6a 08		 push	 8
  00120	8d 4d d4	 lea	 ecx, DWORD PTR __Str$23064[ebp]
  00123	e8 00 00 00 00	 call	 ?append@?$basic_string@DU?$char_traits@D@std@@V?$allocator@D@2@@std@@QAEAAV12@ID@Z ; std::basic_string<char,std::char_traits<char>,std::allocator<char> >::append

; 218  : 				}

  00128	e9 66 ff ff ff	 jmp	 $L23145
$L61568:

; 191  : 			for (; ; )
; 192  : 				switch (_Pcvt->out(_State,
; 193  : 					&_Ch, &_Ch + 1, _Source,
; 194  : 					&*_Str.begin(), &*_Str.begin() + _Str.size(), _Dest))

  0012d	8b 55 d8	 mov	 edx, DWORD PTR __Str$23064[ebp+4]
  00130	e9 70 ff ff ff	 jmp	 $L61440
$L61556:
  00135	83 f8 03	 cmp	 eax, 3
  00138	75 27		 jne	 SHORT $L61561

; 209  : 					break;
; 210  : 					}
; 211  : 
; 212  : 				case codecvt_base::noconv:
; 213  : 					return (_Fputc(_Ch, _Myfile) ? _Meta
; 214  : 						: _Traits::eof());	// no conversion, put as is

  0013a	ff 76 58	 push	 DWORD PTR [esi+88]
  0013d	8a 45 d3	 mov	 al, BYTE PTR __Ch$23061[ebp]
  00140	e8 00 00 00 00	 call	 ??$_Fputc@D@std@@YA_NDPAU_iobuf@@@Z ; std::_Fputc<char>
  00145	84 c0		 test	 al, al
  00147	59		 pop	 ecx
  00148	74 05		 je	 SHORT $L61557
$L61558:
  0014a	8b 75 08	 mov	 esi, DWORD PTR __Meta$[ebp]
  0014d	eb 03		 jmp	 SHORT $L61559
$L61557:
  0014f	83 ce ff	 or	 esi, -1
$L61559:

; 202  : 						return (_Traits::eof());	// write failed

  00152	53		 push	 ebx
  00153	6a 01		 push	 1
  00155	8d 4d d4	 lea	 ecx, DWORD PTR __Str$23064[ebp]
  00158	e8 00 00 00 00	 call	 ?_Tidy@?$basic_string@DU?$char_traits@D@std@@V?$allocator@D@2@@std@@IAEX_NI@Z ; std::basic_string<char,std::char_traits<char>,std::allocator<char> >::_Tidy
  0015d	8b c6		 mov	 eax, esi
  0015f	eb 0e		 jmp	 SHORT $L61565
$L61561:

; 215  : 
; 216  : 				default:
; 217  : 					return (_Traits::eof());	// conversion failed

  00161	53		 push	 ebx
  00162	6a 01		 push	 1
  00164	8d 4d d4	 lea	 ecx, DWORD PTR __Str$23064[ebp]
  00167	e8 00 00 00 00	 call	 ?_Tidy@?$basic_string@DU?$char_traits@D@std@@V?$allocator@D@2@@std@@IAEX_NI@Z ; std::basic_string<char,std::char_traits<char>,std::allocator<char> >::_Tidy
$L61566:
  0016c	83 c8 ff	 or	 eax, -1
$L61565:
  0016f	5f		 pop	 edi

; 219  : 			}

$L61552:

; 220  : 		}

  00170	8b 4d f4	 mov	 ecx, DWORD PTR __$EHRec$[ebp]
  00173	5e		 pop	 esi
  00174	64 89 0d 00 00
	00 00		 mov	 DWORD PTR fs:__except_list, ecx
  0017b	8b 4d f0	 mov	 ecx, DWORD PTR __$ArrayPad$[ebp]
  0017e	5b		 pop	 ebx
  0017f	e8 00 00 00 00	 call	 @__security_check_cookie@4
  00184	c9		 leave
  00185	c2 04 00	 ret	 4
_TEXT	ENDS
;	COMDAT text$x
text$x	SEGMENT
$L61325:
  00000	8d 4d d4	 lea	 ecx, DWORD PTR __Str$23064[ebp]
  00003	e9 00 00 00 00	 jmp	 ??1?$basic_string@DU?$char_traits@D@std@@V?$allocator@D@2@@std@@QAE@XZ ; std::basic_string<char,std::char_traits<char>,std::allocator<char> >::~basic_string<char,std::char_traits<char>,std::allocator<char> >
__ehhandler$?overflow@?$basic_filebuf@DU?$char_traits@D@std@@@std@@MAEHH@Z:
  00008	b8 00 00 00 00	 mov	 eax, OFFSET FLAT:$T61554
  0000d	e9 00 00 00 00	 jmp	 ___CxxFrameHandler
text$x	ENDS
?overflow@?$basic_filebuf@DU?$char_traits@D@std@@@std@@MAEHH@Z ENDP ; std::basic_filebuf<char,std::char_traits<char> >::overflow
; Function compile flags: /Ogsy
;	COMDAT ?_Initcvt@?$basic_filebuf@DU?$char_traits@D@std@@@std@@IAEXPAV?$codecvt@DDH@2@@Z
_TEXT	SEGMENT
__Newpcvt$ = 8						; size = 4
?_Initcvt@?$basic_filebuf@DU?$char_traits@D@std@@@std@@IAEXPAV?$codecvt@DDH@2@@Z PROC NEAR ; std::basic_filebuf<char,std::char_traits<char> >::_Initcvt, COMDAT
; _this$ = ecx

; 457  : 		{	// initialize codecvt pointer

  00000	56		 push	 esi
  00001	57		 push	 edi

; 458  : 		if (_Newpcvt->always_noconv())

  00002	8b 7c 24 0c	 mov	 edi, DWORD PTR __Newpcvt$[esp+4]
  00006	8b 07		 mov	 eax, DWORD PTR [edi]
  00008	8b f1		 mov	 esi, ecx
  0000a	8b cf		 mov	 ecx, edi
  0000c	ff 50 04	 call	 DWORD PTR [eax+4]
  0000f	84 c0		 test	 al, al
  00011	74 06		 je	 SHORT $L23662

; 459  : 			_Pcvt = 0;	// nothing to do

  00013	83 66 3c 00	 and	 DWORD PTR [esi+60], 0

; 460  : 		else

  00017	eb 2a		 jmp	 SHORT $L23664
$L23662:

; 461  : 			{	// set up for nontrivial codecvt facet
; 462  : 			_Pcvt = _Newpcvt;
; 463  : 			_Mysb::_Init();	// reset any buffering

  00019	8b ce		 mov	 ecx, esi
  0001b	89 7e 3c	 mov	 DWORD PTR [esi+60], edi
  0001e	e8 00 00 00 00	 call	 ?_Init@?$basic_streambuf@DU?$char_traits@D@std@@@std@@IAEXXZ ; std::basic_streambuf<char,std::char_traits<char> >::_Init

; 464  : 			if (_Mystr == 0)

  00023	83 7e 48 00	 cmp	 DWORD PTR [esi+72], 0
  00027	75 1a		 jne	 SHORT $L23664

; 465  : 				_Mystr = _NEW_CRT _STRING_CRT;	// buy conversion buffer

  00029	6a 1c		 push	 28			; 0000001cH
  0002b	e8 00 00 00 00	 call	 ??2@YAPAXI@Z		; operator new
  00030	85 c0		 test	 eax, eax
  00032	59		 pop	 ecx
  00033	74 09		 je	 SHORT $L61577
  00035	8b c8		 mov	 ecx, eax
  00037	e8 00 00 00 00	 call	 ??0?$basic_string@DU?$char_traits@D@std@@V?$allocator@D@2@@std@@QAE@XZ ; std::basic_string<char,std::char_traits<char>,std::allocator<char> >::basic_string<char,std::char_traits<char>,std::allocator<char> >
  0003c	eb 02		 jmp	 SHORT $L61578
$L61577:
  0003e	33 c0		 xor	 eax, eax
$L61578:
  00040	89 46 48	 mov	 DWORD PTR [esi+72], eax
$L23664:
  00043	5f		 pop	 edi
  00044	5e		 pop	 esi

; 466  : 			}
; 467  : 		}

  00045	c2 04 00	 ret	 4
?_Initcvt@?$basic_filebuf@DU?$char_traits@D@std@@@std@@IAEXPAV?$codecvt@DDH@2@@Z ENDP ; std::basic_filebuf<char,std::char_traits<char> >::_Initcvt
_TEXT	ENDS
;	COMDAT xdata$x
xdata$x	SEGMENT
$T61591	DD	0ffffffffH
	DD	FLAT:$L61587
$T61589	DD	019930520H
	DD	01H
	DD	FLAT:$T61591
	DD	2 DUP(00H)
	DD	2 DUP(00H)
; Function compile flags: /Ogsy
xdata$x	ENDS
;	COMDAT ?open@?$basic_filebuf@DU?$char_traits@D@std@@@std@@QAEPAV12@PBDHH@Z
_TEXT	SEGMENT
__$EHRec$ = -12						; size = 12
__Filename$ = 8						; size = 4
__Mode$ = 12						; size = 4
$T61586 = 16						; size = 4
__Prot$ = 16						; size = 4
?open@?$basic_filebuf@DU?$char_traits@D@std@@@std@@QAEPAV12@PBDHH@Z PROC NEAR ; std::basic_filebuf<char,std::char_traits<char> >::open, COMDAT
; _this$ = esi

; 140  : 		{	// open a C stream with specified mode

  00000	b8 00 00 00 00	 mov	 eax, __ehhandler$?open@?$basic_filebuf@DU?$char_traits@D@std@@@std@@QAEPAV12@PBDHH@Z
  00005	e8 00 00 00 00	 call	 __EH_prolog

; 141  : 		_Filet *_File;
; 142  : 		if (_Myfile != 0 || (_File = _Fiopen(_Filename, _Mode, _Prot)) == 0)

  0000a	83 7e 58 00	 cmp	 DWORD PTR [esi+88], 0
  0000e	75 49		 jne	 SHORT $L24293
  00010	ff 75 10	 push	 DWORD PTR __Prot$[ebp]
  00013	ff 75 0c	 push	 DWORD PTR __Mode$[ebp]
  00016	ff 75 08	 push	 DWORD PTR __Filename$[ebp]
  00019	e8 00 00 00 00	 call	 ?_Fiopen@std@@YAPAU_iobuf@@PBDHH@Z ; std::_Fiopen
  0001e	83 c4 0c	 add	 esp, 12			; 0000000cH
  00021	85 c0		 test	 eax, eax
  00023	74 34		 je	 SHORT $L24293

; 144  : 
; 145  : 		_Init(_File, _Openfl);

  00025	6a 01		 push	 1
  00027	50		 push	 eax
  00028	8b ce		 mov	 ecx, esi
  0002a	e8 00 00 00 00	 call	 ?_Init@?$basic_filebuf@DU?$char_traits@D@std@@@std@@IAEXPAU_iobuf@@W4_Initfl@12@@Z ; std::basic_filebuf<char,std::char_traits<char> >::_Init

; 146  : 		_Initcvt((_Cvt *)&_USE(_Mysb::getloc(), _Cvt));

  0002f	8d 45 10	 lea	 eax, DWORD PTR $T61586[ebp]
  00032	50		 push	 eax
  00033	8b c6		 mov	 eax, esi
  00035	e8 00 00 00 00	 call	 ?getloc@?$basic_streambuf@DU?$char_traits@D@std@@@std@@QBE?AVlocale@2@XZ ; std::basic_streambuf<char,std::char_traits<char> >::getloc
  0003a	83 65 fc 00	 and	 DWORD PTR __$EHRec$[ebp+8], 0
  0003e	50		 push	 eax
  0003f	e8 00 00 00 00	 call	 ??$use_facet@V?$codecvt@DDH@std@@@std@@YAABV?$codecvt@DDH@0@ABVlocale@0@@Z ; std::use_facet<std::codecvt<char,char,int> >
  00044	59		 pop	 ecx
  00045	50		 push	 eax
  00046	8b ce		 mov	 ecx, esi
  00048	e8 00 00 00 00	 call	 ?_Initcvt@?$basic_filebuf@DU?$char_traits@D@std@@@std@@IAEXPAV?$codecvt@DDH@2@@Z ; std::basic_filebuf<char,std::char_traits<char> >::_Initcvt
  0004d	8d 4d 10	 lea	 ecx, DWORD PTR $T61586[ebp]
  00050	e8 00 00 00 00	 call	 ??1locale@std@@QAE@XZ	; std::locale::~locale

; 147  : 		return (this);	// open succeeded

  00055	8b c6		 mov	 eax, esi
  00057	eb 02		 jmp	 SHORT $L24290
$L24293:

; 143  : 			return (0);	// open failed

  00059	33 c0		 xor	 eax, eax
$L24290:

; 148  : 		}

  0005b	8b 4d f4	 mov	 ecx, DWORD PTR __$EHRec$[ebp]
  0005e	64 89 0d 00 00
	00 00		 mov	 DWORD PTR fs:__except_list, ecx
  00065	c9		 leave
  00066	c2 0c 00	 ret	 12			; 0000000cH
_TEXT	ENDS
;	COMDAT text$x
text$x	SEGMENT
$L61587:
  00000	8d 4d 10	 lea	 ecx, DWORD PTR $T61586[ebp]
  00003	e9 00 00 00 00	 jmp	 ??1locale@std@@QAE@XZ	; std::locale::~locale
__ehhandler$?open@?$basic_filebuf@DU?$char_traits@D@std@@@std@@QAEPAV12@PBDHH@Z:
  00008	b8 00 00 00 00	 mov	 eax, OFFSET FLAT:$T61589
  0000d	e9 00 00 00 00	 jmp	 ___CxxFrameHandler
text$x	ENDS
?open@?$basic_filebuf@DU?$char_traits@D@std@@@std@@QAEPAV12@PBDHH@Z ENDP ; std::basic_filebuf<char,std::char_traits<char> >::open
; Function compile flags: /Ogsy
;	COMDAT ?open@?$basic_ifstream@DU?$char_traits@D@std@@@std@@QAEXPBDHH@Z
_TEXT	SEGMENT
__Filename$ = 8						; size = 4
__Prot$ = 12						; size = 4
?open@?$basic_ifstream@DU?$char_traits@D@std@@@std@@QAEXPBDHH@Z PROC NEAR ; std::basic_ifstream<char,std::char_traits<char> >::open, COMDAT
; _this$ = edi
; __Mode$ = eax

; 539  : 		{	// open a C stream with specified mode

  00000	56		 push	 esi

; 540  : 		if (_Filebuffer.open(_Filename, _Mode | ios_base::in, _Prot) == 0)

  00001	ff 74 24 0c	 push	 DWORD PTR __Prot$[esp]
  00005	83 c8 01	 or	 eax, 1
  00008	50		 push	 eax
  00009	ff 74 24 10	 push	 DWORD PTR __Filename$[esp+8]
  0000d	8d 77 08	 lea	 esi, DWORD PTR [edi+8]
  00010	e8 00 00 00 00	 call	 ?open@?$basic_filebuf@DU?$char_traits@D@std@@@std@@QAEPAV12@PBDHH@Z ; std::basic_filebuf<char,std::char_traits<char> >::open
  00015	85 c0		 test	 eax, eax
  00017	5e		 pop	 esi
  00018	75 15		 jne	 SHORT $L61604

; 541  : 			_Myios::setstate(ios_base::failbit);

  0001a	8b 07		 mov	 eax, DWORD PTR [edi]
  0001c	8b 48 04	 mov	 ecx, DWORD PTR [eax+4]
  0001f	03 cf		 add	 ecx, edi
  00021	8b 41 08	 mov	 eax, DWORD PTR [ecx+8]
  00024	6a 00		 push	 0
  00026	83 c8 02	 or	 eax, 2
  00029	50		 push	 eax
  0002a	e8 00 00 00 00	 call	 ?clear@?$basic_ios@DU?$char_traits@D@std@@@std@@QAEXH_N@Z ; std::basic_ios<char,std::char_traits<char> >::clear
$L61604:

; 542  : 		}

  0002f	c2 08 00	 ret	 8
?open@?$basic_ifstream@DU?$char_traits@D@std@@@std@@QAEXPBDHH@Z ENDP ; std::basic_ifstream<char,std::char_traits<char> >::open
_TEXT	ENDS
PUBLIC	?GetSize@FileInput@@QAEIXZ			; FileInput::GetSize
; Function compile flags: /Ogsy
; File f:\nes\nsdl\src\nsc\fileinput.cpp
_TEXT	SEGMENT
$T61611 = -24						; size = 24
$T61610 = -24						; size = 24
_this$ = 8						; size = 4
?GetSize@FileInput@@QAEIXZ PROC NEAR			; FileInput::GetSize

; 180  : unsigned	int	FileInput::GetSize(){

  0001c	55		 push	 ebp
  0001d	8b ec		 mov	 ebp, esp
  0001f	83 ec 18	 sub	 esp, 24			; 00000018H

; 181  : 
; 182  : 	unsigned	int	iData;
; 183  : 	unsigned	int	iDataT = tellg();

  00022	8b 45 08	 mov	 eax, DWORD PTR _this$[ebp]
  00025	53		 push	 ebx
  00026	56		 push	 esi
  00027	57		 push	 edi
  00028	8d 75 e8	 lea	 esi, DWORD PTR $T61610[ebp]
  0002b	e8 00 00 00 00	 call	 ?tellg@?$basic_istream@DU?$char_traits@D@std@@@std@@QAE?AV?$fpos@H@2@XZ ; std::basic_istream<char,std::char_traits<char> >::tellg
  00030	8b 78 08	 mov	 edi, DWORD PTR [eax+8]

; 184  : 
; 185  : 	seekg(0		,ios::end);

  00033	8b 75 08	 mov	 esi, DWORD PTR _this$[ebp]
  00036	03 38		 add	 edi, DWORD PTR [eax]
  00038	6a 02		 push	 2
  0003a	6a 00		 push	 0
  0003c	e8 00 00 00 00	 call	 ?seekg@?$basic_istream@DU?$char_traits@D@std@@@std@@QAEAAV12@JH@Z ; std::basic_istream<char,std::char_traits<char> >::seekg

; 186  : 	iData = tellg();

  00041	8b 45 08	 mov	 eax, DWORD PTR _this$[ebp]
  00044	8d 75 e8	 lea	 esi, DWORD PTR $T61611[ebp]
  00047	e8 00 00 00 00	 call	 ?tellg@?$basic_istream@DU?$char_traits@D@std@@@std@@QAE?AV?$fpos@H@2@XZ ; std::basic_istream<char,std::char_traits<char> >::tellg
  0004c	8b 58 08	 mov	 ebx, DWORD PTR [eax+8]

; 187  : 	seekg(iDataT,ios::beg);

  0004f	8b 75 08	 mov	 esi, DWORD PTR _this$[ebp]
  00052	03 18		 add	 ebx, DWORD PTR [eax]
  00054	6a 00		 push	 0
  00056	57		 push	 edi
  00057	e8 00 00 00 00	 call	 ?seekg@?$basic_istream@DU?$char_traits@D@std@@@std@@QAEAAV12@JH@Z ; std::basic_istream<char,std::char_traits<char> >::seekg
  0005c	5f		 pop	 edi
  0005d	5e		 pop	 esi

; 188  : 
; 189  : 	return(iData);

  0005e	8b c3		 mov	 eax, ebx
  00060	5b		 pop	 ebx

; 190  : };

  00061	c9		 leave
  00062	c2 04 00	 ret	 4
?GetSize@FileInput@@QAEIXZ ENDP				; FileInput::GetSize
_TEXT	ENDS
PUBLIC	?cRead@FileInput@@QAEEXZ			; FileInput::cRead
; Function compile flags: /Ogsy
_TEXT	SEGMENT
?cRead@FileInput@@QAEEXZ PROC NEAR			; FileInput::cRead
; _this$ = edi

; 169  : {

  00065	56		 push	 esi

; 170  : 	read((char*)&readData, sizeof(unsigned char));

  00066	6a 01		 push	 1
  00068	8d b7 84 00 00
	00		 lea	 esi, DWORD PTR [edi+132]
  0006e	56		 push	 esi
  0006f	57		 push	 edi
  00070	e8 00 00 00 00	 call	 ?read@?$basic_istream@DU?$char_traits@D@std@@@std@@QAEAAV12@PADH@Z ; std::basic_istream<char,std::char_traits<char> >::read

; 171  : 	if(readData == 0x0A){

  00075	8a 06		 mov	 al, BYTE PTR [esi]
  00077	3c 0a		 cmp	 al, 10			; 0000000aH
  00079	5e		 pop	 esi
  0007a	75 06		 jne	 SHORT $L24182

; 172  : 		iLine++;

  0007c	ff 87 80 00 00
	00		 inc	 DWORD PTR [edi+128]
$L24182:

; 173  : 	}
; 174  : 
; 175  : 	return(readData);
; 176  : };

  00082	c3		 ret	 0
?cRead@FileInput@@QAEEXZ ENDP				; FileInput::cRead
_TEXT	ENDS
PUBLIC	?Back@FileInput@@QAEXXZ				; FileInput::Back
; Function compile flags: /Ogsy
_TEXT	SEGMENT
?Back@FileInput@@QAEXXZ PROC NEAR			; FileInput::Back
; _this$ = eax

; 155  : {

  00083	56		 push	 esi

; 156  : 	StreamPointerAdd(-1);

  00084	6a 01		 push	 1
  00086	8b f0		 mov	 esi, eax
  00088	6a ff		 push	 -1
  0008a	e8 00 00 00 00	 call	 ?seekg@?$basic_istream@DU?$char_traits@D@std@@@std@@QAEAAV12@JH@Z ; std::basic_istream<char,std::char_traits<char> >::seekg

; 157  : 	if(readData == 0x0A){

  0008f	8d 86 84 00 00
	00		 lea	 eax, DWORD PTR [esi+132]
  00095	80 38 0a	 cmp	 BYTE PTR [eax], 10	; 0000000aH
  00098	75 06		 jne	 SHORT $L24174

; 158  : 		iLine--;

  0009a	ff 8e 80 00 00
	00		 dec	 DWORD PTR [esi+128]
$L24174:

; 159  : 	}
; 160  : 
; 161  : 	//çXêV
; 162  : 	read((char*)&readData, sizeof(unsigned char));

  000a0	6a 01		 push	 1
  000a2	50		 push	 eax
  000a3	56		 push	 esi
  000a4	e8 00 00 00 00	 call	 ?read@?$basic_istream@DU?$char_traits@D@std@@@std@@QAEAAV12@PADH@Z ; std::basic_istream<char,std::char_traits<char> >::read

; 163  : 	StreamPointerAdd(-1);

  000a9	6a 01		 push	 1
  000ab	6a ff		 push	 -1
  000ad	e8 00 00 00 00	 call	 ?seekg@?$basic_istream@DU?$char_traits@D@std@@@std@@QAEAAV12@JH@Z ; std::basic_istream<char,std::char_traits<char> >::seekg
  000b2	5e		 pop	 esi

; 164  : }

  000b3	c3		 ret	 0
?Back@FileInput@@QAEXXZ ENDP				; FileInput::Back
;	COMDAT xdata$x
; File c:\program files (x86)\microsoft visual studio .net 2003\vc7\include\fstream
xdata$x	SEGMENT
$T63383	DD	0ffffffffH
	DD	FLAT:$L63379
$T63381	DD	019930520H
	DD	01H
	DD	FLAT:$T63383
	DD	2 DUP(00H)
	DD	2 DUP(00H)
; Function compile flags: /Ogsy
xdata$x	ENDS
;	COMDAT ??1?$basic_filebuf@DU?$char_traits@D@std@@@std@@UAE@XZ
_TEXT	SEGMENT
_this$ = -16						; size = 4
__$EHRec$ = -12						; size = 12
??1?$basic_filebuf@DU?$char_traits@D@std@@@std@@UAE@XZ PROC NEAR ; std::basic_filebuf<char,std::char_traits<char> >::~basic_filebuf<char,std::char_traits<char> >, COMDAT
; _this$ = ecx

; 105  : 		{	// destroy the object

  00000	b8 00 00 00 00	 mov	 eax, __ehhandler$??1?$basic_filebuf@DU?$char_traits@D@std@@@std@@UAE@XZ
  00005	e8 00 00 00 00	 call	 __EH_prolog
  0000a	51		 push	 ecx
  0000b	56		 push	 esi
  0000c	8b f1		 mov	 esi, ecx
  0000e	89 75 f0	 mov	 DWORD PTR _this$[ebp], esi
  00011	c7 06 00 00 00
	00		 mov	 DWORD PTR [esi], OFFSET FLAT:??_7?$basic_filebuf@DU?$char_traits@D@std@@@std@@6B@
  00017	83 65 fc 00	 and	 DWORD PTR __$EHRec$[ebp+8], 0

; 106  : 		if (_Closef)

  0001b	80 7e 54 00	 cmp	 BYTE PTR [esi+84], 0
  0001f	74 05		 je	 SHORT $L23046

; 107  : 			close();

  00021	e8 00 00 00 00	 call	 ?close@?$basic_filebuf@DU?$char_traits@D@std@@@std@@QAEPAV12@XZ ; std::basic_filebuf<char,std::char_traits<char> >::close
$L23046:

; 108  : 		_DELETE_CRT(_Mystr);

  00026	8b 4e 48	 mov	 ecx, DWORD PTR [esi+72]
  00029	85 c9		 test	 ecx, ecx
  0002b	74 07		 je	 SHORT $L63377
  0002d	6a 01		 push	 1
  0002f	e8 00 00 00 00	 call	 ??_G?$basic_string@DU?$char_traits@D@std@@V?$allocator@D@2@@std@@QAEPAXI@Z
$L63377:

; 109  : 		}

  00034	83 4d fc ff	 or	 DWORD PTR __$EHRec$[ebp+8], -1
  00038	8b ce		 mov	 ecx, esi
  0003a	e8 00 00 00 00	 call	 ??1?$basic_streambuf@DU?$char_traits@D@std@@@std@@UAE@XZ ; std::basic_streambuf<char,std::char_traits<char> >::~basic_streambuf<char,std::char_traits<char> >
  0003f	8b 4d f4	 mov	 ecx, DWORD PTR __$EHRec$[ebp]
  00042	5e		 pop	 esi
  00043	64 89 0d 00 00
	00 00		 mov	 DWORD PTR fs:__except_list, ecx
  0004a	c9		 leave
  0004b	c3		 ret	 0
_TEXT	ENDS
;	COMDAT text$x
text$x	SEGMENT
$L63379:
  00000	8b 4d f0	 mov	 ecx, DWORD PTR _this$[ebp]
  00003	e9 00 00 00 00	 jmp	 ??1?$basic_streambuf@DU?$char_traits@D@std@@@std@@UAE@XZ ; std::basic_streambuf<char,std::char_traits<char> >::~basic_streambuf<char,std::char_traits<char> >
__ehhandler$??1?$basic_filebuf@DU?$char_traits@D@std@@@std@@UAE@XZ:
  00008	b8 00 00 00 00	 mov	 eax, OFFSET FLAT:$T63381
  0000d	e9 00 00 00 00	 jmp	 ___CxxFrameHandler
text$x	ENDS
??1?$basic_filebuf@DU?$char_traits@D@std@@@std@@UAE@XZ ENDP ; std::basic_filebuf<char,std::char_traits<char> >::~basic_filebuf<char,std::char_traits<char> >
; Function compile flags: /Ogsy
;	COMDAT ?imbue@?$basic_filebuf@DU?$char_traits@D@std@@@std@@MAEXABVlocale@2@@Z
_TEXT	SEGMENT
__Loc$ = 8						; size = 4
?imbue@?$basic_filebuf@DU?$char_traits@D@std@@@std@@MAEXABVlocale@2@@Z PROC NEAR ; std::basic_filebuf<char,std::char_traits<char> >::imbue, COMDAT
; _this$ = ecx

; 386  : 		{	// set locale to argument (capture nontrivial codecvt facet)

  00000	56		 push	 esi

; 387  : 		_Initcvt((_Cvt *)&_USE(_Loc, _Cvt));

  00001	ff 74 24 08	 push	 DWORD PTR __Loc$[esp]
  00005	8b f1		 mov	 esi, ecx
  00007	e8 00 00 00 00	 call	 ??$use_facet@V?$codecvt@DDH@std@@@std@@YAABV?$codecvt@DDH@0@ABVlocale@0@@Z ; std::use_facet<std::codecvt<char,char,int> >
  0000c	59		 pop	 ecx
  0000d	50		 push	 eax
  0000e	8b ce		 mov	 ecx, esi
  00010	e8 00 00 00 00	 call	 ?_Initcvt@?$basic_filebuf@DU?$char_traits@D@std@@@std@@IAEXPAV?$codecvt@DDH@2@@Z ; std::basic_filebuf<char,std::char_traits<char> >::_Initcvt
  00015	5e		 pop	 esi

; 388  : 		}

  00016	c2 04 00	 ret	 4
?imbue@?$basic_filebuf@DU?$char_traits@D@std@@@std@@MAEXABVlocale@2@@Z ENDP ; std::basic_filebuf<char,std::char_traits<char> >::imbue
; Function compile flags: /Ogsy
_TEXT	ENDS
;	COMDAT ?seekpos@?$basic_filebuf@DU?$char_traits@D@std@@@std@@MAE?AV?$fpos@H@2@V32@H@Z
_TEXT	SEGMENT
__Fileposition$ = -8					; size = 8
___$ReturnUdt$ = 8					; size = 4
__Pos$ = 12						; size = 24
___formal$ = 36						; size = 4
?seekpos@?$basic_filebuf@DU?$char_traits@D@std@@@std@@MAE?AV?$fpos@H@2@V32@H@Z PROC NEAR ; std::basic_filebuf<char,std::char_traits<char> >::seekpos, COMDAT
; _this$ = ecx

; 351  : 		{	// change position to _Pos

  00000	55		 push	 ebp
  00001	8b ec		 mov	 ebp, esp
  00003	51		 push	 ecx
  00004	51		 push	 ecx

; 352  : 		fpos_t _Fileposition = _POS_TYPE_TO_FPOS_T(_Pos);

  00005	8b 45 14	 mov	 eax, DWORD PTR __Pos$[ebp+8]
  00008	56		 push	 esi
  00009	8b f1		 mov	 esi, ecx

; 353  : 		off_type _Off = (off_type)_Pos - _FPOSOFF(_Fileposition);
; 354  : 
; 355  : 		if (_Myfile == 0 || !_Endwrite()
; 356  : 			|| fsetpos(_Myfile, &_Fileposition) != 0
; 357  : 			|| _Off != 0 && fseek(_Myfile, (long)_Off, SEEK_CUR) != 0
; 358  : 			|| fgetpos(_Myfile, &_Fileposition) != 0)

  0000b	83 7e 58 00	 cmp	 DWORD PTR [esi+88], 0
  0000f	89 45 f8	 mov	 DWORD PTR __Fileposition$[ebp], eax
  00012	8b 45 18	 mov	 eax, DWORD PTR __Pos$[ebp+12]
  00015	89 45 fc	 mov	 DWORD PTR __Fileposition$[ebp+4], eax
  00018	0f 84 9a 00 00
	00		 je	 $L23377
  0001e	e8 00 00 00 00	 call	 ?_Endwrite@?$basic_filebuf@DU?$char_traits@D@std@@@std@@IAE_NXZ ; std::basic_filebuf<char,std::char_traits<char> >::_Endwrite
  00023	84 c0		 test	 al, al
  00025	0f 84 8d 00 00
	00		 je	 $L23377
  0002b	8d 45 f8	 lea	 eax, DWORD PTR __Fileposition$[ebp]
  0002e	50		 push	 eax
  0002f	ff 76 58	 push	 DWORD PTR [esi+88]
  00032	e8 00 00 00 00	 call	 _fsetpos
  00037	85 c0		 test	 eax, eax
  00039	59		 pop	 ecx
  0003a	59		 pop	 ecx
  0003b	75 7b		 jne	 SHORT $L23377
  0003d	39 45 0c	 cmp	 DWORD PTR __Pos$[ebp], eax
  00040	74 14		 je	 SHORT $L23378
  00042	6a 01		 push	 1
  00044	ff 75 0c	 push	 DWORD PTR __Pos$[ebp]
  00047	ff 76 58	 push	 DWORD PTR [esi+88]
  0004a	e8 00 00 00 00	 call	 _fseek
  0004f	83 c4 0c	 add	 esp, 12			; 0000000cH
  00052	85 c0		 test	 eax, eax
  00054	75 62		 jne	 SHORT $L23377
$L23378:
  00056	8d 45 f8	 lea	 eax, DWORD PTR __Fileposition$[ebp]
  00059	50		 push	 eax
  0005a	ff 76 58	 push	 DWORD PTR [esi+88]
  0005d	e8 00 00 00 00	 call	 _fgetpos
  00062	85 c0		 test	 eax, eax
  00064	59		 pop	 ecx
  00065	59		 pop	 ecx
  00066	75 50		 jne	 SHORT $L23377

; 360  : 		if (_Mystr != 0)

  00068	8b 4e 48	 mov	 ecx, DWORD PTR [esi+72]
  0006b	85 c9		 test	 ecx, ecx
  0006d	74 0f		 je	 SHORT $L23380

; 361  : 			{	// restore state
; 362  : 			_State = _POS_TYPE_TO_STATE(_Pos);

  0006f	8b 45 1c	 mov	 eax, DWORD PTR __Pos$[ebp+16]

; 363  : 			_Mystr->erase();

  00072	6a ff		 push	 -1
  00074	6a 00		 push	 0
  00076	89 46 50	 mov	 DWORD PTR [esi+80], eax
  00079	e8 00 00 00 00	 call	 ?erase@?$basic_string@DU?$char_traits@D@std@@V?$allocator@D@2@@std@@QAEAAV12@II@Z ; std::basic_string<char,std::char_traits<char>,std::allocator<char> >::erase
$L23380:

; 364  : 			}
; 365  : 		if (_Mysb::gptr() == &_Mychar)

  0007e	8b 4e 20	 mov	 ecx, DWORD PTR [esi+32]
  00081	8d 46 44	 lea	 eax, DWORD PTR [esi+68]
  00084	39 01		 cmp	 DWORD PTR [ecx], eax
  00086	75 16		 jne	 SHORT $L63411

; 366  : 			_Mysb::setg(&_Mychar, &_Mychar, &_Mychar);	// discard any putback

  00088	8b 4e 10	 mov	 ecx, DWORD PTR [esi+16]
  0008b	89 01		 mov	 DWORD PTR [ecx], eax
  0008d	8b 4e 20	 mov	 ecx, DWORD PTR [esi+32]
  00090	89 01		 mov	 DWORD PTR [ecx], eax
  00092	8b ce		 mov	 ecx, esi
  00094	2b c8		 sub	 ecx, eax
  00096	8b 46 30	 mov	 eax, DWORD PTR [esi+48]
  00099	83 c1 44	 add	 ecx, 68			; 00000044H
  0009c	89 08		 mov	 DWORD PTR [eax], ecx
$L63411:

; 367  : 		return (_POS_TYPE_FROM_STATE(pos_type, _State,

  0009e	8b 45 08	 mov	 eax, DWORD PTR ___$ReturnUdt$[ebp]
  000a1	8b 76 50	 mov	 esi, DWORD PTR [esi+80]
  000a4	8b 4d f8	 mov	 ecx, DWORD PTR __Fileposition$[ebp]
  000a7	83 20 00	 and	 DWORD PTR [eax], 0
  000aa	89 48 08	 mov	 DWORD PTR [eax+8], ecx
  000ad	8b 4d fc	 mov	 ecx, DWORD PTR __Fileposition$[ebp+4]
  000b0	89 48 0c	 mov	 DWORD PTR [eax+12], ecx
  000b3	89 70 10	 mov	 DWORD PTR [eax+16], esi
  000b6	eb 26		 jmp	 SHORT $L23370
$L23377:

; 359  : 			return (pos_type(_BADOFF));	// report failure

  000b8	8b 45 08	 mov	 eax, DWORD PTR ___$ReturnUdt$[ebp]
  000bb	8b 0d 00 00 00
	00		 mov	 ecx, DWORD PTR ?_BADOFF@std@@3JB ; std::_BADOFF
  000c1	89 08		 mov	 DWORD PTR [eax], ecx
  000c3	8b 0d 00 00 00
	00		 mov	 ecx, DWORD PTR ?_Fpz@std@@3_JA
  000c9	89 48 08	 mov	 DWORD PTR [eax+8], ecx
  000cc	8b 0d 04 00 00
	00		 mov	 ecx, DWORD PTR ?_Fpz@std@@3_JA+4
  000d2	89 48 0c	 mov	 DWORD PTR [eax+12], ecx
  000d5	8b 0d 00 00 00
	00		 mov	 ecx, DWORD PTR ?_Stz@?$fpos@H@std@@0HA ; std::fpos<int>::_Stz
  000db	89 48 10	 mov	 DWORD PTR [eax+16], ecx
$L23370:
  000de	5e		 pop	 esi

; 368  : 			_Fileposition));	// return new position
; 369  : 		}

  000df	c9		 leave
  000e0	c2 20 00	 ret	 32			; 00000020H
?seekpos@?$basic_filebuf@DU?$char_traits@D@std@@@std@@MAE?AV?$fpos@H@2@V32@H@Z ENDP ; std::basic_filebuf<char,std::char_traits<char> >::seekpos
; Function compile flags: /Ogsy
_TEXT	ENDS
;	COMDAT ?seekoff@?$basic_filebuf@DU?$char_traits@D@std@@@std@@MAE?AV?$fpos@H@2@JHH@Z
_TEXT	SEGMENT
__Fileposition$ = -8					; size = 8
___$ReturnUdt$ = 8					; size = 4
__Off$ = 12						; size = 4
__Way$ = 16						; size = 4
___formal$ = 20						; size = 4
?seekoff@?$basic_filebuf@DU?$char_traits@D@std@@@std@@MAE?AV?$fpos@H@2@JHH@Z PROC NEAR ; std::basic_filebuf<char,std::char_traits<char> >::seekoff, COMDAT
; _this$ = ecx

; 321  : 		{	// change position by _Off

  00000	55		 push	 ebp
  00001	8b ec		 mov	 ebp, esp
  00003	51		 push	 ecx
  00004	51		 push	 ecx
  00005	53		 push	 ebx
  00006	56		 push	 esi
  00007	8b f1		 mov	 esi, ecx

; 322  : 		fpos_t _Fileposition;
; 323  : 
; 324  : 		if (_Mysb::egptr() <= _Mysb::gptr()	// nothing buffered
; 325  : 			|| _Mysb::gptr() != &_Mychar	// nothing putback
; 326  : 			|| _Way != ios_base::cur)		// not a relative seek

  00009	8b 46 20	 mov	 eax, DWORD PTR [esi+32]
  0000c	8b 56 30	 mov	 edx, DWORD PTR [esi+48]
  0000f	8b 08		 mov	 ecx, DWORD PTR [eax]
  00011	8b 12		 mov	 edx, DWORD PTR [edx]
  00013	03 d1		 add	 edx, ecx
  00015	33 db		 xor	 ebx, ebx
  00017	3b d1		 cmp	 edx, ecx
  00019	76 57		 jbe	 SHORT $L63470
  0001b	8d 4e 44	 lea	 ecx, DWORD PTR [esi+68]
  0001e	39 08		 cmp	 DWORD PTR [eax], ecx
  00020	75 50		 jne	 SHORT $L63470
  00022	83 7d 10 01	 cmp	 DWORD PTR __Way$[ebp], 1
  00026	75 4a		 jne	 SHORT $L63470

; 327  : 			;	// don't have to worry about putback character
; 328  : 		else if (_Pcvt == 0)

  00028	39 5e 3c	 cmp	 DWORD PTR [esi+60], ebx
  0002b	75 05		 jne	 SHORT $L23352

; 329  : 			_Off -= (off_type)sizeof (_Elem);	// back up over _Elem bytes

  0002d	ff 4d 0c	 dec	 DWORD PTR __Off$[ebp]

; 330  : 		else

  00030	eb 40		 jmp	 SHORT $L63470
$L23352:

; 331  : 			{	// back up over converted bytes
; 332  : 			for (ptrdiff_t _Nleft = _Mystr->size(); 0 < _Nleft; )

  00032	8b 46 48	 mov	 eax, DWORD PTR [esi+72]
  00035	57		 push	 edi
  00036	8b 78 14	 mov	 edi, DWORD PTR [eax+20]
  00039	eb 21		 jmp	 SHORT $L63472
$L23358:

; 333  : 				ungetc(_Mystr->operator[](--_Nleft), _Myfile);

  0003b	8b 46 48	 mov	 eax, DWORD PTR [esi+72]
  0003e	4f		 dec	 edi
  0003f	83 78 18 10	 cmp	 DWORD PTR [eax+24], 16	; 00000010H
  00043	72 05		 jb	 SHORT $L63448
  00045	8b 40 04	 mov	 eax, DWORD PTR [eax+4]
  00048	eb 03		 jmp	 SHORT $L63449
$L63448:
  0004a	83 c0 04	 add	 eax, 4
$L63449:
  0004d	0f be 04 38	 movsx	 eax, BYTE PTR [eax+edi]
  00051	ff 76 58	 push	 DWORD PTR [esi+88]
  00054	50		 push	 eax
  00055	e8 00 00 00 00	 call	 _ungetc
  0005a	59		 pop	 ecx
  0005b	59		 pop	 ecx
$L63472:

; 331  : 			{	// back up over converted bytes
; 332  : 			for (ptrdiff_t _Nleft = _Mystr->size(); 0 < _Nleft; )

  0005c	3b fb		 cmp	 edi, ebx
  0005e	7f db		 jg	 SHORT $L23358

; 334  : 			_Mystr->erase();

  00060	8b 4e 48	 mov	 ecx, DWORD PTR [esi+72]
  00063	6a ff		 push	 -1
  00065	53		 push	 ebx
  00066	e8 00 00 00 00	 call	 ?erase@?$basic_string@DU?$char_traits@D@std@@V?$allocator@D@2@@std@@QAEAAV12@II@Z ; std::basic_string<char,std::char_traits<char>,std::allocator<char> >::erase

; 335  : 			_State = _State0;

  0006b	8b 46 40	 mov	 eax, DWORD PTR [esi+64]
  0006e	89 46 50	 mov	 DWORD PTR [esi+80], eax
  00071	5f		 pop	 edi
$L63470:

; 336  : 			}
; 337  : 		if (_Myfile == 0 || !_Endwrite()
; 338  : 			|| (_Off != 0 || _Way != ios_base::cur)
; 339  : 				&& fseek(_Myfile, (long)_Off, _Way) != 0
; 340  : 			|| fgetpos(_Myfile, &_Fileposition) != 0)

  00072	39 5e 58	 cmp	 DWORD PTR [esi+88], ebx
  00075	74 76		 je	 SHORT $L23362
  00077	8b ce		 mov	 ecx, esi
  00079	e8 00 00 00 00	 call	 ?_Endwrite@?$basic_filebuf@DU?$char_traits@D@std@@@std@@IAE_NXZ ; std::basic_filebuf<char,std::char_traits<char> >::_Endwrite
  0007e	84 c0		 test	 al, al
  00080	74 6b		 je	 SHORT $L23362
  00082	39 5d 0c	 cmp	 DWORD PTR __Off$[ebp], ebx
  00085	75 06		 jne	 SHORT $L63471
  00087	83 7d 10 01	 cmp	 DWORD PTR __Way$[ebp], 1
  0008b	74 15		 je	 SHORT $L23363
$L63471:
  0008d	ff 75 10	 push	 DWORD PTR __Way$[ebp]
  00090	ff 75 0c	 push	 DWORD PTR __Off$[ebp]
  00093	ff 76 58	 push	 DWORD PTR [esi+88]
  00096	e8 00 00 00 00	 call	 _fseek
  0009b	83 c4 0c	 add	 esp, 12			; 0000000cH
  0009e	85 c0		 test	 eax, eax
  000a0	75 4b		 jne	 SHORT $L23362
$L23363:
  000a2	8d 45 f8	 lea	 eax, DWORD PTR __Fileposition$[ebp]
  000a5	50		 push	 eax
  000a6	ff 76 58	 push	 DWORD PTR [esi+88]
  000a9	e8 00 00 00 00	 call	 _fgetpos
  000ae	85 c0		 test	 eax, eax
  000b0	59		 pop	 ecx
  000b1	59		 pop	 ecx
  000b2	75 39		 jne	 SHORT $L23362

; 342  : 		if (_Mysb::gptr() == &_Mychar)

  000b4	8b 4e 20	 mov	 ecx, DWORD PTR [esi+32]
  000b7	8d 46 44	 lea	 eax, DWORD PTR [esi+68]
  000ba	39 01		 cmp	 DWORD PTR [ecx], eax
  000bc	75 16		 jne	 SHORT $L63460

; 343  : 			_Mysb::setg(&_Mychar, &_Mychar, &_Mychar);	// discard any putback

  000be	8b 4e 10	 mov	 ecx, DWORD PTR [esi+16]
  000c1	89 01		 mov	 DWORD PTR [ecx], eax
  000c3	8b 4e 20	 mov	 ecx, DWORD PTR [esi+32]
  000c6	89 01		 mov	 DWORD PTR [ecx], eax
  000c8	8b ce		 mov	 ecx, esi
  000ca	2b c8		 sub	 ecx, eax
  000cc	8b 46 30	 mov	 eax, DWORD PTR [esi+48]
  000cf	83 c1 44	 add	 ecx, 68			; 00000044H
  000d2	89 08		 mov	 DWORD PTR [eax], ecx
$L63460:

; 344  : 		return (_POS_TYPE_FROM_STATE(pos_type, _State,

  000d4	8b 45 08	 mov	 eax, DWORD PTR ___$ReturnUdt$[ebp]
  000d7	8b 76 50	 mov	 esi, DWORD PTR [esi+80]
  000da	8b 4d f8	 mov	 ecx, DWORD PTR __Fileposition$[ebp]
  000dd	89 48 08	 mov	 DWORD PTR [eax+8], ecx
  000e0	8b 4d fc	 mov	 ecx, DWORD PTR __Fileposition$[ebp+4]
  000e3	89 18		 mov	 DWORD PTR [eax], ebx
  000e5	89 48 0c	 mov	 DWORD PTR [eax+12], ecx
  000e8	89 70 10	 mov	 DWORD PTR [eax+16], esi
  000eb	eb 26		 jmp	 SHORT $L23347
$L23362:

; 341  : 			return (pos_type(_BADOFF));	// report failure

  000ed	8b 45 08	 mov	 eax, DWORD PTR ___$ReturnUdt$[ebp]
  000f0	8b 0d 00 00 00
	00		 mov	 ecx, DWORD PTR ?_BADOFF@std@@3JB ; std::_BADOFF
  000f6	89 08		 mov	 DWORD PTR [eax], ecx
  000f8	8b 0d 00 00 00
	00		 mov	 ecx, DWORD PTR ?_Fpz@std@@3_JA
  000fe	89 48 08	 mov	 DWORD PTR [eax+8], ecx
  00101	8b 0d 04 00 00
	00		 mov	 ecx, DWORD PTR ?_Fpz@std@@3_JA+4
  00107	89 48 0c	 mov	 DWORD PTR [eax+12], ecx
  0010a	8b 0d 00 00 00
	00		 mov	 ecx, DWORD PTR ?_Stz@?$fpos@H@std@@0HA ; std::fpos<int>::_Stz
  00110	89 48 10	 mov	 DWORD PTR [eax+16], ecx
$L23347:
  00113	5e		 pop	 esi
  00114	5b		 pop	 ebx

; 345  : 			_Fileposition));	// return new position
; 346  : 		}

  00115	c9		 leave
  00116	c2 10 00	 ret	 16			; 00000010H
?seekoff@?$basic_filebuf@DU?$char_traits@D@std@@@std@@MAE?AV?$fpos@H@2@JHH@Z ENDP ; std::basic_filebuf<char,std::char_traits<char> >::seekoff
; Function compile flags: /Ogsy
_TEXT	ENDS
;	COMDAT ??_G?$basic_filebuf@DU?$char_traits@D@std@@@std@@UAEPAXI@Z
_TEXT	SEGMENT
___flags$ = 8						; size = 4
??_G?$basic_filebuf@DU?$char_traits@D@std@@@std@@UAEPAXI@Z PROC NEAR ; std::basic_filebuf<char,std::char_traits<char> >::`scalar deleting destructor', COMDAT
; _this$ = ecx
  00000	56		 push	 esi
  00001	8b f1		 mov	 esi, ecx
  00003	e8 00 00 00 00	 call	 ??1?$basic_filebuf@DU?$char_traits@D@std@@@std@@UAE@XZ ; std::basic_filebuf<char,std::char_traits<char> >::~basic_filebuf<char,std::char_traits<char> >
  00008	f6 44 24 08 01	 test	 BYTE PTR ___flags$[esp], 1
  0000d	74 07		 je	 SHORT $L23445
  0000f	56		 push	 esi
  00010	e8 00 00 00 00	 call	 ??3@YAXPAX@Z		; operator delete
  00015	59		 pop	 ecx
$L23445:
  00016	8b c6		 mov	 eax, esi
  00018	5e		 pop	 esi
  00019	c2 04 00	 ret	 4
??_G?$basic_filebuf@DU?$char_traits@D@std@@@std@@UAEPAXI@Z ENDP ; std::basic_filebuf<char,std::char_traits<char> >::`scalar deleting destructor'
_TEXT	ENDS
;	COMDAT xdata$x
; File c:\program files (x86)\microsoft visual studio .net 2003\vc7\include\xiosbase
xdata$x	SEGMENT
$T63495	DD	0ffffffffH
	DD	FLAT:$L63479
	DD	00H
	DD	FLAT:$L63481
$T63493	DD	019930520H
	DD	02H
	DD	FLAT:$T63495
	DD	2 DUP(00H)
	DD	2 DUP(00H)
; Function compile flags: /Ogsy
; File c:\program files (x86)\microsoft visual studio .net 2003\vc7\include\fstream
xdata$x	ENDS
;	COMDAT ??0?$basic_ifstream@DU?$char_traits@D@std@@@std@@QAE@XZ
_TEXT	SEGMENT
$T63478 = -16						; size = 4
__$EHRec$ = -12						; size = 12
_this$ = 8						; size = 4
_$initVBases$ = 12					; size = 4
??0?$basic_ifstream@DU?$char_traits@D@std@@@std@@QAE@XZ PROC NEAR ; std::basic_ifstream<char,std::char_traits<char> >::basic_ifstream<char,std::char_traits<char> >, COMDAT

; 505  : 		{	// construct unopened

  00000	b8 00 00 00 00	 mov	 eax, __ehhandler$??0?$basic_ifstream@DU?$char_traits@D@std@@@std@@QAE@XZ
  00005	e8 00 00 00 00	 call	 __EH_prolog
  0000a	51		 push	 ecx
  0000b	53		 push	 ebx
  0000c	56		 push	 esi
  0000d	8b 75 08	 mov	 esi, DWORD PTR _this$[ebp]
  00010	33 db		 xor	 ebx, ebx
  00012	57		 push	 edi
  00013	33 ff		 xor	 edi, edi
  00015	43		 inc	 ebx
  00016	39 7d 0c	 cmp	 DWORD PTR _$initVBases$[ebp], edi
  00019	89 7d f0	 mov	 DWORD PTR $T63478[ebp], edi
  0001c	74 13		 je	 SHORT $L24228
  0001e	c7 06 00 00 00
	00		 mov	 DWORD PTR [esi], OFFSET FLAT:??_8?$basic_ifstream@DU?$char_traits@D@std@@@std@@7B@
  00024	c7 46 64 00 00
	00 00		 mov	 DWORD PTR [esi+100], OFFSET FLAT:??_7?$basic_ios@DU?$char_traits@D@std@@@std@@6B@
  0002b	89 7d fc	 mov	 DWORD PTR __$EHRec$[ebp+8], edi
  0002e	89 5d f0	 mov	 DWORD PTR $T63478[ebp], ebx
$L24228:
  00031	57		 push	 edi
  00032	57		 push	 edi
  00033	57		 push	 edi
  00034	8d 46 08	 lea	 eax, DWORD PTR [esi+8]
  00037	50		 push	 eax
  00038	56		 push	 esi
  00039	e8 00 00 00 00	 call	 ??0?$basic_istream@DU?$char_traits@D@std@@@std@@QAE@PAV?$basic_streambuf@DU?$char_traits@D@std@@@1@_N1@Z ; std::basic_istream<char,std::char_traits<char> >::basic_istream<char,std::char_traits<char> >
  0003e	89 5d fc	 mov	 DWORD PTR __$EHRec$[ebp+8], ebx
  00041	8b 06		 mov	 eax, DWORD PTR [esi]
  00043	8b 40 04	 mov	 eax, DWORD PTR [eax+4]
  00046	57		 push	 edi
  00047	8d 4e 08	 lea	 ecx, DWORD PTR [esi+8]
  0004a	c7 04 06 00 00
	00 00		 mov	 DWORD PTR [esi+eax], OFFSET FLAT:??_7?$basic_ifstream@DU?$char_traits@D@std@@@std@@6B@
  00051	e8 00 00 00 00	 call	 ??0?$basic_filebuf@DU?$char_traits@D@std@@@std@@QAE@PAU_iobuf@@@Z ; std::basic_filebuf<char,std::char_traits<char> >::basic_filebuf<char,std::char_traits<char> >

; 506  : 		}

  00056	8b 4d f4	 mov	 ecx, DWORD PTR __$EHRec$[ebp]
  00059	5f		 pop	 edi
  0005a	8b c6		 mov	 eax, esi
  0005c	5e		 pop	 esi
  0005d	5b		 pop	 ebx
  0005e	64 89 0d 00 00
	00 00		 mov	 DWORD PTR fs:__except_list, ecx
  00065	c9		 leave
  00066	c2 08 00	 ret	 8
_TEXT	ENDS
;	COMDAT text$x
text$x	SEGMENT
$L63479:
  00000	8b 45 f0	 mov	 eax, DWORD PTR $T63478[ebp]
  00003	83 e0 01	 and	 eax, 1
  00006	0f 84 0f 00 00
	00		 je	 $L63480
  0000c	83 65 f0 fe	 and	 DWORD PTR $T63478[ebp], -2 ; fffffffeH
  00010	8b 4d 08	 mov	 ecx, DWORD PTR _this$[ebp]
  00013	83 c1 64	 add	 ecx, 100		; 00000064H
  00016	e9 00 00 00 00	 jmp	 ??1?$basic_ios@DU?$char_traits@D@std@@@std@@UAE@XZ ; std::basic_ios<char,std::char_traits<char> >::~basic_ios<char,std::char_traits<char> >
$L63480:
  0001b	c3		 ret	 0
$L63481:
  0001c	8b 4d 08	 mov	 ecx, DWORD PTR _this$[ebp]
  0001f	83 c1 08	 add	 ecx, 8
  00022	e9 00 00 00 00	 jmp	 ??1?$basic_istream@DU?$char_traits@D@std@@@std@@UAE@XZ ; std::basic_istream<char,std::char_traits<char> >::~basic_istream<char,std::char_traits<char> >
__ehhandler$??0?$basic_ifstream@DU?$char_traits@D@std@@@std@@QAE@XZ:
  00027	b8 00 00 00 00	 mov	 eax, OFFSET FLAT:$T63493
  0002c	e9 00 00 00 00	 jmp	 ___CxxFrameHandler
text$x	ENDS
??0?$basic_ifstream@DU?$char_traits@D@std@@@std@@QAE@XZ ENDP ; std::basic_ifstream<char,std::char_traits<char> >::basic_ifstream<char,std::char_traits<char> >
PUBLIC	?fileopen@FileInput@@QAEXPBD@Z			; FileInput::fileopen
; Function compile flags: /Ogsy
; File f:\nes\nsdl\src\nsc\fileinput.cpp
_TEXT	SEGMENT
__strFileName$ = 8					; size = 4
?fileopen@FileInput@@QAEXPBD@Z PROC NEAR		; FileInput::fileopen
; _this$ = eax

; 47   : void	FileInput::fileopen(const char*	_strFileName){

  000b4	57		 push	 edi
  000b5	8b f8		 mov	 edi, eax

; 48   : 
; 49   : 	errno = 0;	//ÉOÉçÅ[ÉoÉãïœêî errno ÇÇOÇ…èâä˙âª

  000b7	e8 00 00 00 00	 call	 __errno
  000bc	83 20 00	 and	 DWORD PTR [eax], 0

; 50   : 	clear();	//ÉtÉâÉOÇÃÉNÉäÉA

  000bf	8b 07		 mov	 eax, DWORD PTR [edi]
  000c1	8b 48 04	 mov	 ecx, DWORD PTR [eax+4]
  000c4	03 cf		 add	 ecx, edi
  000c6	8b 41 28	 mov	 eax, DWORD PTR [ecx+40]
  000c9	f7 d8		 neg	 eax
  000cb	1b c0		 sbb	 eax, eax
  000cd	83 e0 fc	 and	 eax, -4			; fffffffcH
  000d0	83 c0 04	 add	 eax, 4
  000d3	6a 00		 push	 0
  000d5	50		 push	 eax
  000d6	e8 00 00 00 00	 call	 ?clear@ios_base@std@@QAEXH_N@Z ; std::ios_base::clear

; 51   : 
; 52   : 	open(_strFileName,ios_base::in | ios_base::binary);

  000db	68 b6 01 00 00	 push	 438			; 000001b6H
  000e0	ff 74 24 0c	 push	 DWORD PTR __strFileName$[esp+4]
  000e4	6a 21		 push	 33			; 00000021H
  000e6	58		 pop	 eax
  000e7	e8 00 00 00 00	 call	 ?open@?$basic_ifstream@DU?$char_traits@D@std@@@std@@QAEXPBDHH@Z ; std::basic_ifstream<char,std::char_traits<char> >::open

; 53   : 	if(good()==false){

  000ec	8b 07		 mov	 eax, DWORD PTR [edi]
  000ee	8b 40 04	 mov	 eax, DWORD PTR [eax+4]
  000f1	83 7c 38 08 00	 cmp	 DWORD PTR [eax+edi+8], 0

; 54   : 		perror(_strFileName);

  000f6	ff 74 24 08	 push	 DWORD PTR __strFileName$[esp]
  000fa	74 0e		 je	 SHORT $L23938
  000fc	e8 00 00 00 00	 call	 _perror

; 55   : 		nsc_exit(EXIT_FAILURE);

  00101	33 c0		 xor	 eax, eax
  00103	59		 pop	 ecx
  00104	40		 inc	 eax
  00105	e8 00 00 00 00	 call	 ?nsc_exit@@YAXH@Z	; nsc_exit
$L63521:
$L23938:

; 56   : 	};
; 57   : 	strFilename = _strFileName;

  0010a	8d 4f 64	 lea	 ecx, DWORD PTR [edi+100]
  0010d	e8 00 00 00 00	 call	 ?assign@?$basic_string@DU?$char_traits@D@std@@V?$allocator@D@2@@std@@QAEAAV12@PBD@Z ; std::basic_string<char,std::char_traits<char>,std::allocator<char> >::assign
  00112	5f		 pop	 edi

; 58   : };

  00113	c2 04 00	 ret	 4
$L63520:
?fileopen@FileInput@@QAEXPBD@Z ENDP			; FileInput::fileopen
;	COMDAT xdata$x
; File c:\program files (x86)\microsoft visual studio .net 2003\vc7\include\istream
xdata$x	SEGMENT
$T65847	DD	0ffffffffH
	DD	FLAT:$L65838
$T65845	DD	019930520H
	DD	01H
	DD	FLAT:$T65847
	DD	2 DUP(00H)
	DD	2 DUP(00H)
; Function compile flags: /Ogsy
; File c:\program files (x86)\microsoft visual studio .net 2003\vc7\include\fstream
xdata$x	ENDS
;	COMDAT ??1?$basic_ifstream@DU?$char_traits@D@std@@@std@@UAE@XZ
_TEXT	SEGMENT
_this$ = -16						; size = 4
__$EHRec$ = -12						; size = 12
??1?$basic_ifstream@DU?$char_traits@D@std@@@std@@UAE@XZ PROC NEAR ; std::basic_ifstream<char,std::char_traits<char> >::~basic_ifstream<char,std::char_traits<char> >, COMDAT
; _this$ = ecx

; 523  : 		{	// destroy the object

  00000	b8 00 00 00 00	 mov	 eax, __ehhandler$??1?$basic_ifstream@DU?$char_traits@D@std@@@std@@UAE@XZ
  00005	e8 00 00 00 00	 call	 __EH_prolog
  0000a	51		 push	 ecx
  0000b	8b 41 9c	 mov	 eax, DWORD PTR [ecx-100]
  0000e	8b 40 04	 mov	 eax, DWORD PTR [eax+4]
  00011	56		 push	 esi
  00012	89 4d f0	 mov	 DWORD PTR _this$[ebp], ecx
  00015	c7 44 08 9c 00
	00 00 00	 mov	 DWORD PTR [eax+ecx-100], OFFSET FLAT:??_7?$basic_ifstream@DU?$char_traits@D@std@@@std@@6B@
  0001d	83 65 fc 00	 and	 DWORD PTR __$EHRec$[ebp+8], 0

; 524  : 		}

  00021	8d 71 a4	 lea	 esi, DWORD PTR [ecx-92]
  00024	8b ce		 mov	 ecx, esi
  00026	e8 00 00 00 00	 call	 ??1?$basic_filebuf@DU?$char_traits@D@std@@@std@@UAE@XZ ; std::basic_filebuf<char,std::char_traits<char> >::~basic_filebuf<char,std::char_traits<char> >
  0002b	8b 46 f8	 mov	 eax, DWORD PTR [esi-8]
  0002e	8b 40 04	 mov	 eax, DWORD PTR [eax+4]
  00031	8b 4d f4	 mov	 ecx, DWORD PTR __$EHRec$[ebp]
  00034	c7 44 30 f8 00
	00 00 00	 mov	 DWORD PTR [eax+esi-8], OFFSET FLAT:??_7?$basic_istream@DU?$char_traits@D@std@@@std@@6B@
  0003c	5e		 pop	 esi
  0003d	64 89 0d 00 00
	00 00		 mov	 DWORD PTR fs:__except_list, ecx
  00044	c9		 leave
  00045	c3		 ret	 0
_TEXT	ENDS
;	COMDAT text$x
text$x	SEGMENT
$L65838:
  00000	8b 4d f0	 mov	 ecx, DWORD PTR _this$[ebp]
  00003	83 e9 5c	 sub	 ecx, 92			; 0000005cH
  00006	e9 00 00 00 00	 jmp	 ??1?$basic_istream@DU?$char_traits@D@std@@@std@@UAE@XZ ; std::basic_istream<char,std::char_traits<char> >::~basic_istream<char,std::char_traits<char> >
__ehhandler$??1?$basic_ifstream@DU?$char_traits@D@std@@@std@@UAE@XZ:
  0000b	b8 00 00 00 00	 mov	 eax, OFFSET FLAT:$T65845
  00010	e9 00 00 00 00	 jmp	 ___CxxFrameHandler
text$x	ENDS
??1?$basic_ifstream@DU?$char_traits@D@std@@@std@@UAE@XZ ENDP ; std::basic_ifstream<char,std::char_traits<char> >::~basic_ifstream<char,std::char_traits<char> >
; Function compile flags: /Ogsy
;	COMDAT ??_D?$basic_ifstream@DU?$char_traits@D@std@@@std@@QAEXXZ
_TEXT	SEGMENT
??_D?$basic_ifstream@DU?$char_traits@D@std@@@std@@QAEXXZ PROC NEAR ; std::basic_ifstream<char,std::char_traits<char> >::`vbase destructor', COMDAT
; _this$ = eax
  00000	56		 push	 esi
  00001	8b f0		 mov	 esi, eax
  00003	83 c6 64	 add	 esi, 100		; 00000064H
  00006	8b ce		 mov	 ecx, esi
  00008	e8 00 00 00 00	 call	 ??1?$basic_ifstream@DU?$char_traits@D@std@@@std@@UAE@XZ ; std::basic_ifstream<char,std::char_traits<char> >::~basic_ifstream<char,std::char_traits<char> >
  0000d	8b ce		 mov	 ecx, esi
  0000f	5e		 pop	 esi
  00010	e9 00 00 00 00	 jmp	 ??1?$basic_ios@DU?$char_traits@D@std@@@std@@UAE@XZ ; std::basic_ios<char,std::char_traits<char> >::~basic_ios<char,std::char_traits<char> >
??_D?$basic_ifstream@DU?$char_traits@D@std@@@std@@QAEXXZ ENDP ; std::basic_ifstream<char,std::char_traits<char> >::`vbase destructor'
; Function compile flags: /Ogsy
_TEXT	ENDS
;	COMDAT ??_G?$basic_ifstream@DU?$char_traits@D@std@@@std@@UAEPAXI@Z
_TEXT	SEGMENT
___flags$ = 8						; size = 4
??_G?$basic_ifstream@DU?$char_traits@D@std@@@std@@UAEPAXI@Z PROC NEAR ; std::basic_ifstream<char,std::char_traits<char> >::`scalar deleting destructor', COMDAT
; _this$ = ecx
  00000	56		 push	 esi
  00001	8d 71 9c	 lea	 esi, DWORD PTR [ecx-100]
  00004	8b c6		 mov	 eax, esi
  00006	e8 00 00 00 00	 call	 ??_D?$basic_ifstream@DU?$char_traits@D@std@@@std@@QAEXXZ
  0000b	f6 44 24 08 01	 test	 BYTE PTR ___flags$[esp], 1
  00010	74 07		 je	 SHORT $L23442
  00012	56		 push	 esi
  00013	e8 00 00 00 00	 call	 ??3@YAXPAX@Z		; operator delete
  00018	59		 pop	 ecx
$L23442:
  00019	8b c6		 mov	 eax, esi
  0001b	5e		 pop	 esi
  0001c	c2 04 00	 ret	 4
??_G?$basic_ifstream@DU?$char_traits@D@std@@@std@@UAEPAXI@Z ENDP ; std::basic_ifstream<char,std::char_traits<char> >::`scalar deleting destructor'
_TEXT	ENDS
PUBLIC	??1FileInput@@UAE@XZ				; FileInput::~FileInput
; Function compile flags: /Ogsy
; File f:\nes\nsdl\src\nsc\fileinput.cpp
_TEXT	SEGMENT
??1FileInput@@UAE@XZ PROC NEAR				; FileInput::~FileInput
; _this$ = eax

; 41   : {

  00116	8b 88 78 ff ff
	ff		 mov	 ecx, DWORD PTR [eax-136]
  0011c	8b 49 04	 mov	 ecx, DWORD PTR [ecx+4]
  0011f	56		 push	 esi

; 42   : }

  00120	8d 70 dc	 lea	 esi, DWORD PTR [eax-36]
  00123	6a 00		 push	 0
  00125	c7 84 01 78 ff
	ff ff 00 00 00
	00		 mov	 DWORD PTR [ecx+eax-136], OFFSET FLAT:??_7FileInput@@6B@
  00130	6a 01		 push	 1
  00132	8b ce		 mov	 ecx, esi
  00134	e8 00 00 00 00	 call	 ?_Tidy@?$basic_string@DU?$char_traits@D@std@@V?$allocator@D@2@@std@@IAEX_NI@Z ; std::basic_string<char,std::char_traits<char>,std::allocator<char> >::_Tidy
  00139	8b ce		 mov	 ecx, esi
  0013b	5e		 pop	 esi
  0013c	e9 00 00 00 00	 jmp	 ??1?$basic_ifstream@DU?$char_traits@D@std@@@std@@UAE@XZ ; std::basic_ifstream<char,std::char_traits<char> >::~basic_ifstream<char,std::char_traits<char> >
??1FileInput@@UAE@XZ ENDP				; FileInput::~FileInput
; Function compile flags: /Ogsy
_TEXT	ENDS
;	COMDAT ??_DFileInput@@QAEXXZ
_TEXT	SEGMENT
??_DFileInput@@QAEXXZ PROC NEAR				; FileInput::`vbase destructor', COMDAT
; _this$ = eax
  00000	56		 push	 esi
  00001	8b f0		 mov	 esi, eax
  00003	81 c6 88 00 00
	00		 add	 esi, 136		; 00000088H
  00009	8b c6		 mov	 eax, esi
  0000b	e8 00 00 00 00	 call	 ??1FileInput@@UAE@XZ	; FileInput::~FileInput
  00010	8b ce		 mov	 ecx, esi
  00012	5e		 pop	 esi
  00013	e9 00 00 00 00	 jmp	 ??1?$basic_ios@DU?$char_traits@D@std@@@std@@UAE@XZ ; std::basic_ios<char,std::char_traits<char> >::~basic_ios<char,std::char_traits<char> >
??_DFileInput@@QAEXXZ ENDP				; FileInput::`vbase destructor'
; Function compile flags: /Ogsy
_TEXT	ENDS
;	COMDAT ??_GFileInput@@UAEPAXI@Z
_TEXT	SEGMENT
___flags$ = 8						; size = 4
??_GFileInput@@UAEPAXI@Z PROC NEAR			; FileInput::`scalar deleting destructor', COMDAT
; _this$ = ecx
  00000	56		 push	 esi
  00001	8d b1 78 ff ff
	ff		 lea	 esi, DWORD PTR [ecx-136]
  00007	8b c6		 mov	 eax, esi
  00009	e8 00 00 00 00	 call	 ??_DFileInput@@QAEXXZ
  0000e	f6 44 24 08 01	 test	 BYTE PTR ___flags$[esp], 1
  00013	74 07		 je	 SHORT $L23926
  00015	56		 push	 esi
  00016	e8 00 00 00 00	 call	 ??3@YAXPAX@Z		; operator delete
  0001b	59		 pop	 ecx
$L23926:
  0001c	8b c6		 mov	 eax, esi
  0001e	5e		 pop	 esi
  0001f	c2 04 00	 ret	 4
??_GFileInput@@UAEPAXI@Z ENDP				; FileInput::`scalar deleting destructor'
_TEXT	ENDS
PUBLIC	??0FileInput@@QAE@XZ				; FileInput::FileInput
$T65890	DD	0ffffffffH
	DD	FLAT:$L65874
$T65888	DD	019930520H
	DD	01H
	DD	FLAT:$T65890
	DD	2 DUP(00H)
	DD	2 DUP(00H)
; Function compile flags: /Ogsy
_TEXT	SEGMENT
$T65873 = -16						; size = 4
__$EHRec$ = -12						; size = 12
_this$ = 8						; size = 4
_$initVBases$ = 12					; size = 4
??0FileInput@@QAE@XZ PROC NEAR				; FileInput::FileInput

; 29   : {

  00141	b8 00 00 00 00	 mov	 eax, __ehhandler$??0FileInput@@QAE@XZ
  00146	e8 00 00 00 00	 call	 __EH_prolog
  0014b	51		 push	 ecx
  0014c	53		 push	 ebx
  0014d	56		 push	 esi
  0014e	8b 75 08	 mov	 esi, DWORD PTR _this$[ebp]
  00151	57		 push	 edi
  00152	33 ff		 xor	 edi, edi
  00154	33 db		 xor	 ebx, ebx
  00156	47		 inc	 edi
  00157	39 5d 0c	 cmp	 DWORD PTR _$initVBases$[ebp], ebx
  0015a	89 5d f0	 mov	 DWORD PTR $T65873[ebp], ebx
  0015d	74 16		 je	 SHORT $L23922
  0015f	c7 06 00 00 00
	00		 mov	 DWORD PTR [esi], OFFSET FLAT:??_8FileInput@@7B@
  00165	c7 86 88 00 00
	00 00 00 00 00	 mov	 DWORD PTR [esi+136], OFFSET FLAT:??_7?$basic_ios@DU?$char_traits@D@std@@@std@@6B@
  0016f	89 5d fc	 mov	 DWORD PTR __$EHRec$[ebp+8], ebx
  00172	89 7d f0	 mov	 DWORD PTR $T65873[ebp], edi
$L23922:
  00175	53		 push	 ebx
  00176	56		 push	 esi
  00177	e8 00 00 00 00	 call	 ??0?$basic_ifstream@DU?$char_traits@D@std@@@std@@QAE@XZ ; std::basic_ifstream<char,std::char_traits<char> >::basic_ifstream<char,std::char_traits<char> >
  0017c	8b 06		 mov	 eax, DWORD PTR [esi]
  0017e	8b 40 04	 mov	 eax, DWORD PTR [eax+4]
  00181	8d 4e 64	 lea	 ecx, DWORD PTR [esi+100]
  00184	c7 04 06 00 00
	00 00		 mov	 DWORD PTR [esi+eax], OFFSET FLAT:??_7FileInput@@6B@
  0018b	e8 00 00 00 00	 call	 ??0?$basic_string@DU?$char_traits@D@std@@V?$allocator@D@2@@std@@QAE@XZ ; std::basic_string<char,std::char_traits<char>,std::allocator<char> >::basic_string<char,std::char_traits<char>,std::allocator<char> >

; 30   : }

  00190	8b 4d f4	 mov	 ecx, DWORD PTR __$EHRec$[ebp]
  00193	89 be 80 00 00
	00		 mov	 DWORD PTR [esi+128], edi
  00199	88 9e 84 00 00
	00		 mov	 BYTE PTR [esi+132], bl
  0019f	5f		 pop	 edi
  001a0	8b c6		 mov	 eax, esi
  001a2	5e		 pop	 esi
  001a3	5b		 pop	 ebx
  001a4	64 89 0d 00 00
	00 00		 mov	 DWORD PTR fs:__except_list, ecx
  001ab	c9		 leave
  001ac	c2 08 00	 ret	 8
$L65874:
  00092	8b 45 f0	 mov	 eax, DWORD PTR $T65873[ebp]
  00095	83 e0 01	 and	 eax, 1
  00098	0f 84 12 00 00
	00		 je	 $L65875
  0009e	83 65 f0 fe	 and	 DWORD PTR $T65873[ebp], -2 ; fffffffeH
  000a2	8b 4d 08	 mov	 ecx, DWORD PTR _this$[ebp]
  000a5	81 c1 88 00 00
	00		 add	 ecx, 136		; 00000088H
  000ab	e9 00 00 00 00	 jmp	 ??1?$basic_ios@DU?$char_traits@D@std@@@std@@UAE@XZ ; std::basic_ios<char,std::char_traits<char> >::~basic_ios<char,std::char_traits<char> >
$L65875:
  000b0	c3		 ret	 0
__ehhandler$??0FileInput@@QAE@XZ:
  000b1	b8 00 00 00 00	 mov	 eax, OFFSET FLAT:$T65888
  000b6	e9 00 00 00 00	 jmp	 ___CxxFrameHandler
??0FileInput@@QAE@XZ ENDP				; FileInput::FileInput
PUBLIC	?fileopen@FileInput@@QAEXPBDPAVSearchPass@@@Z	; FileInput::fileopen
$T79522	DD	0ffffffffH
	DD	FLAT:$L79331
	DD	00H
	DD	FLAT:$L79332
$T79514	DD	019930520H
	DD	02H
	DD	FLAT:$T79522
	DD	2 DUP(00H)
	DD	2 DUP(00H)
; Function compile flags: /Ogsy
_TEXT	SEGMENT
_iSize$23949 = -88					; size = 4
_i$23948 = -84						; size = 4
$T79409 = -80						; size = 1
_success$ = -73						; size = 1
_workName$23951 = -72					; size = 28
_name$23950 = -44					; size = 28
__$ArrayPad$ = -16					; size = 4
__$EHRec$ = -12						; size = 12
__$ReturnAddr$ = 4					; size = 4
__strFileName$ = 8					; size = 4
__pass$ = 12						; size = 4
?fileopen@FileInput@@QAEXPBDPAVSearchPass@@@Z PROC NEAR	; FileInput::fileopen
; _this$ = ecx

; 64   : {

  001af	b8 00 00 00 00	 mov	 eax, __ehhandler$?fileopen@FileInput@@QAEXPBDPAVSearchPass@@@Z
  001b4	e8 00 00 00 00	 call	 __EH_prolog
  001b9	83 ec 4c	 sub	 esp, 76			; 0000004cH
  001bc	a1 00 00 00 00	 mov	 eax, DWORD PTR ___security_cookie
  001c1	53		 push	 ebx
  001c2	56		 push	 esi
  001c3	57		 push	 edi

; 65   : 	bool	success	= false;

  001c4	33 db		 xor	 ebx, ebx
  001c6	89 45 f0	 mov	 DWORD PTR __$ArrayPad$[ebp], eax
  001c9	8b f9		 mov	 edi, ecx
  001cb	88 5d b7	 mov	 BYTE PTR _success$[ebp], bl

; 66   : 
; 67   : 	//êÊÇ∏ÇÕÅAÇªÇÃÇ‹Ç‹
; 68   : 	errno = 0;	//ÉOÉçÅ[ÉoÉãïœêî errno ÇÇOÇ…èâä˙âª

  001ce	e8 00 00 00 00	 call	 __errno
  001d3	89 18		 mov	 DWORD PTR [eax], ebx

; 69   : 	clear();	//ÉtÉâÉOÇÃÉNÉäÉA

  001d5	8b 07		 mov	 eax, DWORD PTR [edi]
  001d7	8b 48 04	 mov	 ecx, DWORD PTR [eax+4]
  001da	03 cf		 add	 ecx, edi
  001dc	8b 41 28	 mov	 eax, DWORD PTR [ecx+40]
  001df	f7 d8		 neg	 eax
  001e1	1b c0		 sbb	 eax, eax
  001e3	83 e0 fc	 and	 eax, -4			; fffffffcH
  001e6	83 c0 04	 add	 eax, 4
  001e9	53		 push	 ebx
  001ea	50		 push	 eax
  001eb	e8 00 00 00 00	 call	 ?clear@ios_base@std@@QAEXH_N@Z ; std::ios_base::clear

; 70   : 	open(_strFileName,ios_base::in | ios_base::binary);

  001f0	be b6 01 00 00	 mov	 esi, 438		; 000001b6H
  001f5	56		 push	 esi
  001f6	ff 75 08	 push	 DWORD PTR __strFileName$[ebp]
  001f9	6a 21		 push	 33			; 00000021H
  001fb	58		 pop	 eax
  001fc	e8 00 00 00 00	 call	 ?open@?$basic_ifstream@DU?$char_traits@D@std@@@std@@QAEXPBDHH@Z ; std::basic_ifstream<char,std::char_traits<char> >::open

; 71   : 	if(cOptionSW->flag_SearchPass){

  00201	a1 00 00 00 00	 mov	 eax, DWORD PTR ?cOptionSW@@3PAVOPSW@@A ; cOptionSW
  00206	38 58 07	 cmp	 BYTE PTR [eax+7], bl
  00209	74 09		 je	 SHORT $L23945

; 72   : 		perror(_strFileName);

  0020b	ff 75 08	 push	 DWORD PTR __strFileName$[ebp]
  0020e	e8 00 00 00 00	 call	 _perror
  00213	59		 pop	 ecx
$L23945:

; 73   : 	}
; 74   : 
; 75   : 	if(good()==true){

  00214	8b 07		 mov	 eax, DWORD PTR [edi]
  00216	8b 40 04	 mov	 eax, DWORD PTR [eax+4]
  00219	39 5c 38 08	 cmp	 DWORD PTR [eax+edi+8], ebx

; 76   : 		success = true;
; 77   : 	} else {

  0021d	0f 84 c8 01 00
	00		 je	 $L23962

; 78   : 
; 79   : 		//åüçıÉpÉX
; 80   : 		int		i		= 0;
; 81   : 		int		iSize	= _pass->count();

  00223	8b 45 0c	 mov	 eax, DWORD PTR __pass$[ebp]
  00226	8b 00		 mov	 eax, DWORD PTR [eax]

; 82   : 		string	name;

  00228	53		 push	 ebx
  00229	8d 4d d4	 lea	 ecx, DWORD PTR _name$23950[ebp]
  0022c	89 5d ac	 mov	 DWORD PTR _i$23948[ebp], ebx
  0022f	89 45 a8	 mov	 DWORD PTR _iSize$23949[ebp], eax
  00232	c7 45 ec 0f 00
	00 00		 mov	 DWORD PTR _name$23950[ebp+24], 15 ; 0000000fH
  00239	e8 00 00 00 00	 call	 ?_Eos@?$basic_string@DU?$char_traits@D@std@@V?$allocator@D@2@@std@@IAEXI@Z ; std::basic_string<char,std::char_traits<char>,std::allocator<char> >::_Eos

; 83   : 		string	workName= string(_strFileName);

  0023e	ff 75 08	 push	 DWORD PTR __strFileName$[ebp]
  00241	8d 4d b8	 lea	 ecx, DWORD PTR _workName$23951[ebp]
  00244	89 5d fc	 mov	 DWORD PTR __$EHRec$[ebp+8], ebx
  00247	e8 00 00 00 00	 call	 ??0?$basic_string@DU?$char_traits@D@std@@V?$allocator@D@2@@std@@QAE@PBD@Z ; std::basic_string<char,std::char_traits<char>,std::allocator<char> >::basic_string<char,std::char_traits<char>,std::allocator<char> >

; 84   : 		int		loc		= workName.rfind('/');

  0024c	6a 01		 push	 1
  0024e	8d 45 b0	 lea	 eax, DWORD PTR $T79409[ebp]
  00251	50		 push	 eax
  00252	c6 45 fc 01	 mov	 BYTE PTR __$EHRec$[ebp+8], 1
  00256	83 ca ff	 or	 edx, -1
  00259	8d 45 b8	 lea	 eax, DWORD PTR _workName$23951[ebp]
  0025c	c6 45 b0 2f	 mov	 BYTE PTR $T79409[ebp], 47 ; 0000002fH
  00260	e8 00 00 00 00	 call	 ?rfind@?$basic_string@DU?$char_traits@D@std@@V?$allocator@D@2@@std@@QBEIPBDII@Z ; std::basic_string<char,std::char_traits<char>,std::allocator<char> >::rfind

; 85   : 
; 86   : 		//éwíËÇÃÉtÉ@ÉCÉãÇ…ÉpÉXÇ™èëÇ©ÇÍÇƒÇ¢ÇΩÇÁÅAè¡Ç∑ÅB
; 87   : 		if(loc != string::npos){

  00265	83 f8 ff	 cmp	 eax, -1
  00268	74 0a		 je	 SHORT $L79515

; 88   : 			workName.erase(0, loc);		//ÉtÉ@ÉCÉãñºÇÃÇ›

  0026a	50		 push	 eax
  0026b	53		 push	 ebx
  0026c	8d 4d b8	 lea	 ecx, DWORD PTR _workName$23951[ebp]
  0026f	e8 00 00 00 00	 call	 ?erase@?$basic_string@DU?$char_traits@D@std@@V?$allocator@D@2@@std@@QAEAAV12@II@Z ; std::basic_string<char,std::char_traits<char>,std::allocator<char> >::erase
$L79515:

; 89   : 		}
; 90   : 
; 91   : 		while(i < iSize){

  00274	39 5d a8	 cmp	 DWORD PTR _iSize$23949[ebp], ebx
  00277	0f 8e 1c 01 00
	00		 jle	 $L23957
$L23956:

; 92   : 
; 93   : #ifdef _WIN32
; 94   : 			//WindowsÇÃèÍçáÇÕÅAëäëŒÉpÉXÇ‡ä‹ÇﬂÇƒåüçıÇ∑ÇÈÅiUNIXånÇÕïsâ¬Åj
; 95   : 			//éwíËÇÃåüçıÉpÉXÇäÓèÄÇ∆ÇµÇΩëäëŒÉpÉXÇ‡åüçıÇ∑ÇÈÅB
; 96   : 			errno = 0;	//ÉOÉçÅ[ÉoÉãïœêî errno ÇÇOÇ…èâä˙âª

  0027d	e8 00 00 00 00	 call	 __errno
  00282	89 18		 mov	 DWORD PTR [eax], ebx

; 97   : 			clear();	//ÉtÉâÉOÇÃÉNÉäÉA

  00284	8b 07		 mov	 eax, DWORD PTR [edi]
  00286	8b 48 04	 mov	 ecx, DWORD PTR [eax+4]
  00289	03 cf		 add	 ecx, edi
  0028b	8b 41 28	 mov	 eax, DWORD PTR [ecx+40]
  0028e	f7 d8		 neg	 eax
  00290	1b c0		 sbb	 eax, eax
  00292	83 e0 fc	 and	 eax, -4			; fffffffcH
  00295	83 c0 04	 add	 eax, 4
  00298	53		 push	 ebx
  00299	50		 push	 eax
  0029a	e8 00 00 00 00	 call	 ?clear@ios_base@std@@QAEXH_N@Z ; std::ios_base::clear

; 98   : 
; 99   : 			name.assign(_pass->get(i));

  0029f	ff 75 ac	 push	 DWORD PTR _i$23948[ebp]
  002a2	8b 45 0c	 mov	 eax, DWORD PTR __pass$[ebp]
  002a5	e8 00 00 00 00	 call	 ?get@SearchPass@@QAEPBDH@Z ; SearchPass::get
  002aa	50		 push	 eax
  002ab	8d 4d d4	 lea	 ecx, DWORD PTR _name$23950[ebp]
  002ae	e8 00 00 00 00	 call	 ?assign@?$basic_string@DU?$char_traits@D@std@@V?$allocator@D@2@@std@@QAEAAV12@PBD@Z ; std::basic_string<char,std::char_traits<char>,std::allocator<char> >::assign

; 100  : 			name.append(_strFileName);

  002b3	ff 75 08	 push	 DWORD PTR __strFileName$[ebp]
  002b6	8d 45 d4	 lea	 eax, DWORD PTR _name$23950[ebp]
  002b9	50		 push	 eax
  002ba	e8 00 00 00 00	 call	 ?append@?$basic_string@DU?$char_traits@D@std@@V?$allocator@D@2@@std@@QAEAAV12@PBD@Z ; std::basic_string<char,std::char_traits<char>,std::allocator<char> >::append

; 101  : 			open(name.c_str(),ios_base::in | ios_base::binary);

  002bf	83 7d ec 10	 cmp	 DWORD PTR _name$23950[ebp+24], 16 ; 00000010H
  002c3	8b 45 d8	 mov	 eax, DWORD PTR _name$23950[ebp+4]
  002c6	73 03		 jae	 SHORT $L79430
  002c8	8d 45 d8	 lea	 eax, DWORD PTR _name$23950[ebp+4]
$L79430:
  002cb	56		 push	 esi
  002cc	50		 push	 eax
  002cd	6a 21		 push	 33			; 00000021H
  002cf	58		 pop	 eax
  002d0	e8 00 00 00 00	 call	 ?open@?$basic_ifstream@DU?$char_traits@D@std@@@std@@QAEXPBDHH@Z ; std::basic_ifstream<char,std::char_traits<char> >::open

; 102  : 			if(cOptionSW->flag_SearchPass){

  002d5	a1 00 00 00 00	 mov	 eax, DWORD PTR ?cOptionSW@@3PAVOPSW@@A ; cOptionSW
  002da	38 58 07	 cmp	 BYTE PTR [eax+7], bl
  002dd	74 13		 je	 SHORT $L23958

; 103  : 				perror(name.c_str());

  002df	83 7d ec 10	 cmp	 DWORD PTR _name$23950[ebp+24], 16 ; 00000010H
  002e3	8b 45 d8	 mov	 eax, DWORD PTR _name$23950[ebp+4]
  002e6	73 03		 jae	 SHORT $L79444
  002e8	8d 45 d8	 lea	 eax, DWORD PTR _name$23950[ebp+4]
$L79444:
  002eb	50		 push	 eax
  002ec	e8 00 00 00 00	 call	 _perror
  002f1	59		 pop	 ecx
$L23958:

; 104  : 			}
; 105  : 			if(good()==true){

  002f2	8b 07		 mov	 eax, DWORD PTR [edi]
  002f4	8b 40 04	 mov	 eax, DWORD PTR [eax+4]
  002f7	39 5c 38 08	 cmp	 DWORD PTR [eax+edi+8], ebx
  002fb	0f 84 94 00 00
	00		 je	 $L79517

; 106  : 				success = true;
; 107  : 				break;
; 108  : 			};
; 109  : #endif
; 110  : 			//WINDOWS, UNIXånã§í 
; 111  : 			//åüçıÉpÉXÅ{ÉtÉ@ÉCÉãñºÇÃÇ›Ç≈åüçıÅB
; 112  : 			errno = 0;	//ÉOÉçÅ[ÉoÉãïœêî errno ÇÇOÇ…èâä˙âª

  00301	e8 00 00 00 00	 call	 __errno
  00306	89 18		 mov	 DWORD PTR [eax], ebx

; 113  : 			clear();	//ÉtÉâÉOÇÃÉNÉäÉA

  00308	8b 07		 mov	 eax, DWORD PTR [edi]
  0030a	8b 48 04	 mov	 ecx, DWORD PTR [eax+4]
  0030d	03 cf		 add	 ecx, edi
  0030f	8b 41 28	 mov	 eax, DWORD PTR [ecx+40]
  00312	f7 d8		 neg	 eax
  00314	1b c0		 sbb	 eax, eax
  00316	83 e0 fc	 and	 eax, -4			; fffffffcH
  00319	83 c0 04	 add	 eax, 4
  0031c	53		 push	 ebx
  0031d	50		 push	 eax
  0031e	e8 00 00 00 00	 call	 ?clear@ios_base@std@@QAEXH_N@Z ; std::ios_base::clear

; 114  : 
; 115  : 			name.assign(_pass->get(i));

  00323	ff 75 ac	 push	 DWORD PTR _i$23948[ebp]
  00326	8b 45 0c	 mov	 eax, DWORD PTR __pass$[ebp]
  00329	e8 00 00 00 00	 call	 ?get@SearchPass@@QAEPBDH@Z ; SearchPass::get
  0032e	50		 push	 eax
  0032f	8d 4d d4	 lea	 ecx, DWORD PTR _name$23950[ebp]
  00332	e8 00 00 00 00	 call	 ?assign@?$basic_string@DU?$char_traits@D@std@@V?$allocator@D@2@@std@@QAEAAV12@PBD@Z ; std::basic_string<char,std::char_traits<char>,std::allocator<char> >::assign

; 116  : 			name.append(workName);

  00337	6a ff		 push	 -1
  00339	53		 push	 ebx
  0033a	8d 45 b8	 lea	 eax, DWORD PTR _workName$23951[ebp]
  0033d	50		 push	 eax
  0033e	8d 4d d4	 lea	 ecx, DWORD PTR _name$23950[ebp]
  00341	e8 00 00 00 00	 call	 ?append@?$basic_string@DU?$char_traits@D@std@@V?$allocator@D@2@@std@@QAEAAV12@ABV12@II@Z ; std::basic_string<char,std::char_traits<char>,std::allocator<char> >::append

; 117  : 			open(name.c_str(),ios_base::in | ios_base::binary);

  00346	83 7d ec 10	 cmp	 DWORD PTR _name$23950[ebp+24], 16 ; 00000010H
  0034a	8b 45 d8	 mov	 eax, DWORD PTR _name$23950[ebp+4]
  0034d	73 03		 jae	 SHORT $L79478
  0034f	8d 45 d8	 lea	 eax, DWORD PTR _name$23950[ebp+4]
$L79478:
  00352	56		 push	 esi
  00353	50		 push	 eax
  00354	6a 21		 push	 33			; 00000021H
  00356	58		 pop	 eax
  00357	e8 00 00 00 00	 call	 ?open@?$basic_ifstream@DU?$char_traits@D@std@@@std@@QAEXPBDHH@Z ; std::basic_ifstream<char,std::char_traits<char> >::open

; 118  : 			if(cOptionSW->flag_SearchPass){

  0035c	a1 00 00 00 00	 mov	 eax, DWORD PTR ?cOptionSW@@3PAVOPSW@@A ; cOptionSW
  00361	38 58 07	 cmp	 BYTE PTR [eax+7], bl
  00364	74 13		 je	 SHORT $L23960

; 119  : 				perror(name.c_str());

  00366	83 7d ec 10	 cmp	 DWORD PTR _name$23950[ebp+24], 16 ; 00000010H
  0036a	8b 45 d8	 mov	 eax, DWORD PTR _name$23950[ebp+4]
  0036d	73 03		 jae	 SHORT $L79492
  0036f	8d 45 d8	 lea	 eax, DWORD PTR _name$23950[ebp+4]
$L79492:
  00372	50		 push	 eax
  00373	e8 00 00 00 00	 call	 _perror
  00378	59		 pop	 ecx
$L23960:

; 120  : 			}
; 121  : 			if(good()==true){

  00379	8b 07		 mov	 eax, DWORD PTR [edi]
  0037b	8b 40 04	 mov	 eax, DWORD PTR [eax+4]
  0037e	39 5c 38 08	 cmp	 DWORD PTR [eax+edi+8], ebx
  00382	74 11		 je	 SHORT $L79517

; 123  : 				break;
; 124  : 			};
; 125  : 
; 126  : 			i++;

  00384	ff 45 ac	 inc	 DWORD PTR _i$23948[ebp]
  00387	8b 45 ac	 mov	 eax, DWORD PTR _i$23948[ebp]
  0038a	3b 45 a8	 cmp	 eax, DWORD PTR _iSize$23949[ebp]
  0038d	0f 8c ea fe ff
	ff		 jl	 $L23956

; 120  : 			}
; 121  : 			if(good()==true){

  00393	eb 04		 jmp	 SHORT $L23957
$L79517:

; 122  : 				success = true;

  00395	c6 45 b7 01	 mov	 BYTE PTR _success$[ebp], 1
$L23957:

; 127  : 		}
; 128  : 
; 129  : 	};

  00399	53		 push	 ebx
  0039a	6a 01		 push	 1
  0039c	8d 4d b8	 lea	 ecx, DWORD PTR _workName$23951[ebp]
  0039f	e8 00 00 00 00	 call	 ?_Tidy@?$basic_string@DU?$char_traits@D@std@@V?$allocator@D@2@@std@@IAEX_NI@Z ; std::basic_string<char,std::char_traits<char>,std::allocator<char> >::_Tidy
  003a4	83 4d fc ff	 or	 DWORD PTR __$EHRec$[ebp+8], -1
  003a8	53		 push	 ebx
  003a9	6a 01		 push	 1
  003ab	8d 4d d4	 lea	 ecx, DWORD PTR _name$23950[ebp]
  003ae	e8 00 00 00 00	 call	 ?_Tidy@?$basic_string@DU?$char_traits@D@std@@V?$allocator@D@2@@std@@IAEX_NI@Z ; std::basic_string<char,std::char_traits<char>,std::allocator<char> >::_Tidy

; 130  : 
; 131  : 	if(success == false){

  003b3	38 5d b7	 cmp	 BYTE PTR _success$[ebp], bl
  003b6	75 33		 jne	 SHORT $L23962

; 132  : 		_CERR << _T("ëSÇƒÇÃåüçıÉpÉXÇ≈ÅAÉtÉ@ÉCÉãÇ™å©Ç¬Ç©ÇËÇ‹ÇπÇÒÇ≈ÇµÇΩÅB") << endl;

  003b8	68 00 00 00 00	 push	 OFFSET FLAT:??_C@_1DE@FBAIPIIH@Qh0f0ni?$BM?$HN?$CC0?Q0?$LJ0g0?$AB0?U0?$KB0?$KE0?k0L?$IJ?$IL0d0K0?$IK0?$HO0?$FL@
  003bd	68 00 00 00 00	 push	 OFFSET FLAT:?wcerr@std@@3V?$basic_ostream@GU?$char_traits@G@std@@@1@A ; std::wcerr
  003c2	e8 00 00 00 00	 call	 ??$?6GU?$char_traits@G@std@@@std@@YAAAV?$basic_ostream@GU?$char_traits@G@std@@@0@AAV10@PBG@Z ; std::operator<<<unsigned short,std::char_traits<unsigned short> >
  003c7	50		 push	 eax
  003c8	e8 00 00 00 00	 call	 ?endl@std@@YAAAV?$basic_ostream@GU?$char_traits@G@std@@@1@AAV21@@Z ; std::endl

; 133  : 		if(cOptionSW->flag_SearchPass == false){

  003cd	a1 00 00 00 00	 mov	 eax, DWORD PTR ?cOptionSW@@3PAVOPSW@@A ; cOptionSW
  003d2	83 c4 0c	 add	 esp, 12			; 0000000cH
  003d5	38 58 07	 cmp	 BYTE PTR [eax+7], bl
  003d8	75 09		 jne	 SHORT $L24159

; 134  : 			perror(_strFileName);

  003da	ff 75 08	 push	 DWORD PTR __strFileName$[ebp]
  003dd	e8 00 00 00 00	 call	 _perror
  003e2	59		 pop	 ecx
$L24159:

; 135  : 		}
; 136  : 		nsc_exit(EXIT_FAILURE);

  003e3	33 c0		 xor	 eax, eax
  003e5	40		 inc	 eax
  003e6	e8 00 00 00 00	 call	 ?nsc_exit@@YAXH@Z	; nsc_exit
$L79523:
$L23962:

; 137  : 	}
; 138  : }

  003eb	8b 4d f4	 mov	 ecx, DWORD PTR __$EHRec$[ebp]
  003ee	5f		 pop	 edi
  003ef	5e		 pop	 esi
  003f0	64 89 0d 00 00
	00 00		 mov	 DWORD PTR fs:__except_list, ecx
  003f7	8b 4d f0	 mov	 ecx, DWORD PTR __$ArrayPad$[ebp]
  003fa	5b		 pop	 ebx
  003fb	e8 00 00 00 00	 call	 @__security_check_cookie@4
  00400	c9		 leave
  00401	c2 08 00	 ret	 8
$L79521:
$L79331:
  00146	8d 4d d4	 lea	 ecx, DWORD PTR _name$23950[ebp]
  00149	e9 00 00 00 00	 jmp	 ??1?$basic_string@DU?$char_traits@D@std@@V?$allocator@D@2@@std@@QAE@XZ ; std::basic_string<char,std::char_traits<char>,std::allocator<char> >::~basic_string<char,std::char_traits<char>,std::allocator<char> >
$L79332:
  0014e	8d 4d b8	 lea	 ecx, DWORD PTR _workName$23951[ebp]
  00151	e9 00 00 00 00	 jmp	 ??1?$basic_string@DU?$char_traits@D@std@@V?$allocator@D@2@@std@@QAE@XZ ; std::basic_string<char,std::char_traits<char>,std::allocator<char> >::~basic_string<char,std::char_traits<char>,std::allocator<char> >
__ehhandler$?fileopen@FileInput@@QAEXPBDPAVSearchPass@@@Z:
  00156	b8 00 00 00 00	 mov	 eax, OFFSET FLAT:$T79514
  0015b	e9 00 00 00 00	 jmp	 ___CxxFrameHandler
?fileopen@FileInput@@QAEXPBDPAVSearchPass@@@Z ENDP	; FileInput::fileopen
; Function compile flags: /Ogsy
; File c:\program files (x86)\microsoft visual studio .net 2003\vc7\include\ios
;	COMDAT _$E1
text$yc	SEGMENT
_$E1	PROC NEAR					; COMDAT

; 119  : 		{	// convert _Byte to character using imbued locale

  00000	83 25 00 00 00
	00 00		 and	 DWORD PTR ?id@?$codecvt@DDH@std@@2V0locale@2@A, 0 ; std::codecvt<char,char,int>::id
  00007	c3		 ret	 0
_$E1	ENDP
END
