; Listing generated by Microsoft (R) Optimizing Compiler Version 13.10.3077 

	TITLE	.\mml_general.cpp
	.386P
include listing.inc
if @Version gt 510
.model FLAT
else
;	COMDAT ??_C@_1CE@PKCMOCCM@0?Q0?i0?a0?$PM0?$LP0nP$0L?$HL?DV?r0?$JC?$IN?$IK0H0?$HO0W0_0?$AC?$AA?$AA@
CONST	SEGMENT DWORD USE32 PUBLIC 'CONST'
CONST	ENDS
text$yc	SEGMENT PARA USE32 PUBLIC 'CODE'
text$yc	ENDS
;	COMDAT _$E1
text$yc	SEGMENT PARA USE32 PUBLIC 'CODE'
text$yc	ENDS
;	COMDAT ??_7mml_general@@6B@
CONST	SEGMENT DWORD USE32 PUBLIC 'CONST'
CONST	ENDS
FLAT	GROUP _DATA, CONST, _BSS
	ASSUME	CS: FLAT, DS: FLAT, SS: FLAT
endif

INCLUDELIB LIBCMT
INCLUDELIB OLDNAMES

PUBLIC	??_C@_1CE@PKCMOCCM@0?Q0?i0?a0?$PM0?$LP0nP$0L?$HL?DV?r0?$JC?$IN?$IK0H0?$HO0W0_0?$AC?$AA?$AA@ ; `string'
PUBLIC	??_7mml_general@@6B@				; mml_general::`vftable'
;	COMDAT ??_C@_1CE@PKCMOCCM@0?Q0?i0?a0?$PM0?$LP0nP$0L?$HL?DV?r0?$JC?$IN?$IK0H0?$HO0W0_0?$AC?$AA?$AA@
CONST	SEGMENT
??_C@_1CE@PKCMOCCM@0?Q0?i0?a0?$PM0?$LP0nP$0L?$HL?DV?r0?$JC?$IN?$IK0H0?$HO0W0_0?$AC?$AA?$AA@ DB 0d1H
	DB	'0', 0e9H, '0', 0e1H, '0', 0fcH, '0', 0bfH, '0n0$PL0', 0c4H, '{'
	DB	0f2H, 'V', 092H, '0', 08aH, 08dH, 'H0~0W0_0', 02H, '0', 00H, 00H ; `string'
CONST	ENDS
;	COMDAT ??_7mml_general@@6B@
CONST	SEGMENT
??_7mml_general@@6B@ DD FLAT:?getCode@MusicItem@@UAEXPAV?$basic_string@DU?$char_traits@D@std@@V?$allocator@D@2@@std@@@Z ; mml_general::`vftable'
	DD	FLAT:?setCode@MusicItem@@UAEXPAV?$basic_string@DU?$char_traits@D@std@@V?$allocator@D@2@@std@@@Z
	DD	FLAT:?getAsm@MusicItem@@UAEXPAVMusicFile@@@Z
PUBLIC	??1mml_general@@QAE@XZ				; mml_general::~mml_general
; Function compile flags: /Ogsy
; File f:\nes\nsdl\src\nsc\mml_general.cpp
_TEXT	SEGMENT
??1mml_general@@QAE@XZ PROC NEAR			; mml_general::~mml_general
; _this$ = ecx

; 130  : }

  00000	c7 01 00 00 00
	00		 mov	 DWORD PTR [ecx], OFFSET FLAT:??_7MusicEvent@@6B@
  00006	e9 00 00 00 00	 jmp	 ??1MusicItem@@QAE@XZ	; MusicItem::~MusicItem
??1mml_general@@QAE@XZ ENDP				; mml_general::~mml_general
_TEXT	ENDS
PUBLIC	??0mml_general@@QAE@EDDDDQBG@Z			; mml_general::mml_general
$T84554	DD	0ffffffffH
	DD	FLAT:$L84466
$T84552	DD	019930520H
	DD	01H
	DD	FLAT:$T84554
	DD	2 DUP(00H)
	DD	2 DUP(00H)
; Function compile flags: /Ogsy
_TEXT	SEGMENT
__$EHRec$ = -12						; size = 12
_this$ = 8						; size = 4
__code$ = 12						; size = 1
__n1$ = 16						; size = 1
__n2$ = 20						; size = 1
__n3$ = 24						; size = 1
__n4$ = 28						; size = 1
__strName$ = 32						; size = 4
??0mml_general@@QAE@EDDDDQBG@Z PROC NEAR		; mml_general::mml_general

; 110  : {

  0000b	b8 00 00 00 00	 mov	 eax, __ehhandler$??0mml_general@@QAE@EDDDDQBG@Z
  00010	e8 00 00 00 00	 call	 __EH_prolog
  00015	56		 push	 esi
  00016	8b 75 08	 mov	 esi, DWORD PTR _this$[ebp]
  00019	57		 push	 edi
  0001a	ff 75 20	 push	 DWORD PTR __strName$[ebp]
  0001d	e8 00 00 00 00	 call	 ??0MusicEvent@@QAE@QBG@Z ; MusicEvent::MusicEvent
  00022	83 65 fc 00	 and	 DWORD PTR __$EHRec$[ebp+8], 0

; 111  : 	iSize = 5;

  00026	6a 05		 push	 5
  00028	58		 pop	 eax

; 112  : 	code.resize(iSize);

  00029	8d 7e 14	 lea	 edi, DWORD PTR [esi+20]
  0002c	6a 00		 push	 0
  0002e	8b cf		 mov	 ecx, edi
  00030	c7 06 00 00 00
	00		 mov	 DWORD PTR [esi], OFFSET FLAT:??_7mml_general@@6B@
  00036	89 46 30	 mov	 DWORD PTR [esi+48], eax
  00039	e8 00 00 00 00	 call	 ?resize@?$basic_string@DU?$char_traits@D@std@@V?$allocator@D@2@@std@@QAEXID@Z ; std::basic_string<char,std::char_traits<char>,std::allocator<char> >::resize

; 113  : 	code[0] = _code;

  0003e	6a 10		 push	 16			; 00000010H
  00040	59		 pop	 ecx
  00041	39 4f 18	 cmp	 DWORD PTR [edi+24], ecx
  00044	72 05		 jb	 SHORT $L84482
  00046	8b 47 04	 mov	 eax, DWORD PTR [edi+4]
  00049	eb 03		 jmp	 SHORT $L84483
$L84482:
  0004b	8d 47 04	 lea	 eax, DWORD PTR [edi+4]
$L84483:
  0004e	8a 55 0c	 mov	 dl, BYTE PTR __code$[ebp]
  00051	88 10		 mov	 BYTE PTR [eax], dl

; 114  : 	code[1] = _n1;

  00053	39 4f 18	 cmp	 DWORD PTR [edi+24], ecx
  00056	72 05		 jb	 SHORT $L84498
  00058	8b 47 04	 mov	 eax, DWORD PTR [edi+4]
  0005b	eb 03		 jmp	 SHORT $L84499
$L84498:
  0005d	8d 47 04	 lea	 eax, DWORD PTR [edi+4]
$L84499:
  00060	8a 55 10	 mov	 dl, BYTE PTR __n1$[ebp]
  00063	88 50 01	 mov	 BYTE PTR [eax+1], dl

; 115  : 	code[2] = _n2;

  00066	39 4f 18	 cmp	 DWORD PTR [edi+24], ecx
  00069	72 05		 jb	 SHORT $L84514
  0006b	8b 47 04	 mov	 eax, DWORD PTR [edi+4]
  0006e	eb 03		 jmp	 SHORT $L84515
$L84514:
  00070	8d 47 04	 lea	 eax, DWORD PTR [edi+4]
$L84515:
  00073	8a 55 14	 mov	 dl, BYTE PTR __n2$[ebp]
  00076	88 50 02	 mov	 BYTE PTR [eax+2], dl

; 116  : 	code[3] = _n3;

  00079	39 4f 18	 cmp	 DWORD PTR [edi+24], ecx
  0007c	72 05		 jb	 SHORT $L84530
  0007e	8b 47 04	 mov	 eax, DWORD PTR [edi+4]
  00081	eb 03		 jmp	 SHORT $L84531
$L84530:
  00083	8d 47 04	 lea	 eax, DWORD PTR [edi+4]
$L84531:
  00086	8a 55 18	 mov	 dl, BYTE PTR __n3$[ebp]
  00089	88 50 03	 mov	 BYTE PTR [eax+3], dl

; 117  : 	code[4] = _n4;

  0008c	39 4f 18	 cmp	 DWORD PTR [edi+24], ecx
  0008f	72 05		 jb	 SHORT $L84546
  00091	8b 7f 04	 mov	 edi, DWORD PTR [edi+4]
  00094	eb 03		 jmp	 SHORT $L84547
$L84546:
  00096	83 c7 04	 add	 edi, 4
$L84547:
  00099	8a 45 1c	 mov	 al, BYTE PTR __n4$[ebp]

; 118  : }

  0009c	8b 4d f4	 mov	 ecx, DWORD PTR __$EHRec$[ebp]
  0009f	88 47 04	 mov	 BYTE PTR [edi+4], al
  000a2	5f		 pop	 edi
  000a3	8b c6		 mov	 eax, esi
  000a5	5e		 pop	 esi
  000a6	64 89 0d 00 00
	00 00		 mov	 DWORD PTR fs:__except_list, ecx
  000ad	c9		 leave
  000ae	c2 1c 00	 ret	 28			; 0000001cH
$L84466:
  001fb	8b 4d 08	 mov	 ecx, DWORD PTR _this$[ebp]
  001fe	e9 00 00 00 00	 jmp	 ??1MusicEvent@@QAE@XZ	; MusicEvent::~MusicEvent
__ehhandler$??0mml_general@@QAE@EDDDDQBG@Z:
  00203	b8 00 00 00 00	 mov	 eax, OFFSET FLAT:$T84552
  00208	e9 00 00 00 00	 jmp	 ___CxxFrameHandler
??0mml_general@@QAE@EDDDDQBG@Z ENDP			; mml_general::mml_general
PUBLIC	??0mml_general@@QAE@EDDQBG@Z			; mml_general::mml_general
$T84612	DD	0ffffffffH
	DD	FLAT:$L84556
$T84610	DD	019930520H
	DD	01H
	DD	FLAT:$T84612
	DD	2 DUP(00H)
	DD	2 DUP(00H)
; Function compile flags: /Ogsy
_TEXT	SEGMENT
__$EHRec$ = -12						; size = 12
_this$ = 8						; size = 4
__code$ = 12						; size = 1
__n1$ = 16						; size = 1
__n2$ = 20						; size = 1
__strName$ = 24						; size = 4
??0mml_general@@QAE@EDDQBG@Z PROC NEAR			; mml_general::mml_general

; 87   : {

  000b1	b8 00 00 00 00	 mov	 eax, __ehhandler$??0mml_general@@QAE@EDDQBG@Z
  000b6	e8 00 00 00 00	 call	 __EH_prolog
  000bb	56		 push	 esi
  000bc	8b 75 08	 mov	 esi, DWORD PTR _this$[ebp]
  000bf	57		 push	 edi
  000c0	ff 75 18	 push	 DWORD PTR __strName$[ebp]
  000c3	e8 00 00 00 00	 call	 ??0MusicEvent@@QAE@QBG@Z ; MusicEvent::MusicEvent
  000c8	83 65 fc 00	 and	 DWORD PTR __$EHRec$[ebp+8], 0

; 88   : 	iSize = 3;

  000cc	6a 03		 push	 3
  000ce	58		 pop	 eax

; 89   : 	code.resize(iSize);

  000cf	8d 7e 14	 lea	 edi, DWORD PTR [esi+20]
  000d2	6a 00		 push	 0
  000d4	8b cf		 mov	 ecx, edi
  000d6	c7 06 00 00 00
	00		 mov	 DWORD PTR [esi], OFFSET FLAT:??_7mml_general@@6B@
  000dc	89 46 30	 mov	 DWORD PTR [esi+48], eax
  000df	e8 00 00 00 00	 call	 ?resize@?$basic_string@DU?$char_traits@D@std@@V?$allocator@D@2@@std@@QAEXID@Z ; std::basic_string<char,std::char_traits<char>,std::allocator<char> >::resize

; 90   : 	code[0] = _code;

  000e4	83 7f 18 10	 cmp	 DWORD PTR [edi+24], 16	; 00000010H
  000e8	72 05		 jb	 SHORT $L84572
  000ea	8b 47 04	 mov	 eax, DWORD PTR [edi+4]
  000ed	eb 03		 jmp	 SHORT $L84573
$L84572:
  000ef	8d 47 04	 lea	 eax, DWORD PTR [edi+4]
$L84573:
  000f2	8a 4d 0c	 mov	 cl, BYTE PTR __code$[ebp]
  000f5	88 08		 mov	 BYTE PTR [eax], cl

; 91   : 	code[1] = _n1;

  000f7	83 7f 18 10	 cmp	 DWORD PTR [edi+24], 16	; 00000010H
  000fb	72 05		 jb	 SHORT $L84588
  000fd	8b 47 04	 mov	 eax, DWORD PTR [edi+4]
  00100	eb 03		 jmp	 SHORT $L84589
$L84588:
  00102	8d 47 04	 lea	 eax, DWORD PTR [edi+4]
$L84589:
  00105	8a 4d 10	 mov	 cl, BYTE PTR __n1$[ebp]
  00108	88 48 01	 mov	 BYTE PTR [eax+1], cl

; 92   : 	code[2] = _n2;

  0010b	83 7f 18 10	 cmp	 DWORD PTR [edi+24], 16	; 00000010H
  0010f	72 05		 jb	 SHORT $L84604
  00111	8b 7f 04	 mov	 edi, DWORD PTR [edi+4]
  00114	eb 03		 jmp	 SHORT $L84605
$L84604:
  00116	83 c7 04	 add	 edi, 4
$L84605:
  00119	8a 45 14	 mov	 al, BYTE PTR __n2$[ebp]

; 93   : }

  0011c	8b 4d f4	 mov	 ecx, DWORD PTR __$EHRec$[ebp]
  0011f	88 47 02	 mov	 BYTE PTR [edi+2], al
  00122	5f		 pop	 edi
  00123	8b c6		 mov	 eax, esi
  00125	5e		 pop	 esi
  00126	64 89 0d 00 00
	00 00		 mov	 DWORD PTR fs:__except_list, ecx
  0012d	c9		 leave
  0012e	c2 14 00	 ret	 20			; 00000014H
$L84556:
  0020d	8b 4d 08	 mov	 ecx, DWORD PTR _this$[ebp]
  00210	e9 00 00 00 00	 jmp	 ??1MusicEvent@@QAE@XZ	; MusicEvent::~MusicEvent
__ehhandler$??0mml_general@@QAE@EDDQBG@Z:
  00215	b8 00 00 00 00	 mov	 eax, OFFSET FLAT:$T84610
  0021a	e9 00 00 00 00	 jmp	 ___CxxFrameHandler
??0mml_general@@QAE@EDDQBG@Z ENDP			; mml_general::mml_general
PUBLIC	??0mml_general@@QAE@EDQBG@Z			; mml_general::mml_general
$T84654	DD	0ffffffffH
	DD	FLAT:$L84614
$T84652	DD	019930520H
	DD	01H
	DD	FLAT:$T84654
	DD	2 DUP(00H)
	DD	2 DUP(00H)
; Function compile flags: /Ogsy
_TEXT	SEGMENT
__$EHRec$ = -12						; size = 12
_this$ = 8						; size = 4
__code$ = 12						; size = 1
__data$ = 16						; size = 1
__strName$ = 20						; size = 4
??0mml_general@@QAE@EDQBG@Z PROC NEAR			; mml_general::mml_general

; 67   : {

  00131	b8 00 00 00 00	 mov	 eax, __ehhandler$??0mml_general@@QAE@EDQBG@Z
  00136	e8 00 00 00 00	 call	 __EH_prolog
  0013b	56		 push	 esi
  0013c	8b 75 08	 mov	 esi, DWORD PTR _this$[ebp]
  0013f	57		 push	 edi
  00140	ff 75 14	 push	 DWORD PTR __strName$[ebp]
  00143	e8 00 00 00 00	 call	 ??0MusicEvent@@QAE@QBG@Z ; MusicEvent::MusicEvent
  00148	83 65 fc 00	 and	 DWORD PTR __$EHRec$[ebp+8], 0

; 68   : 	iSize = 2;

  0014c	6a 02		 push	 2
  0014e	58		 pop	 eax

; 69   : 	code.resize(iSize);

  0014f	8d 7e 14	 lea	 edi, DWORD PTR [esi+20]
  00152	6a 00		 push	 0
  00154	8b cf		 mov	 ecx, edi
  00156	c7 06 00 00 00
	00		 mov	 DWORD PTR [esi], OFFSET FLAT:??_7mml_general@@6B@
  0015c	89 46 30	 mov	 DWORD PTR [esi+48], eax
  0015f	e8 00 00 00 00	 call	 ?resize@?$basic_string@DU?$char_traits@D@std@@V?$allocator@D@2@@std@@QAEXID@Z ; std::basic_string<char,std::char_traits<char>,std::allocator<char> >::resize

; 70   : 	code[0] = _code;

  00164	83 7f 18 10	 cmp	 DWORD PTR [edi+24], 16	; 00000010H
  00168	72 05		 jb	 SHORT $L84630
  0016a	8b 47 04	 mov	 eax, DWORD PTR [edi+4]
  0016d	eb 03		 jmp	 SHORT $L84631
$L84630:
  0016f	8d 47 04	 lea	 eax, DWORD PTR [edi+4]
$L84631:
  00172	8a 4d 0c	 mov	 cl, BYTE PTR __code$[ebp]
  00175	88 08		 mov	 BYTE PTR [eax], cl

; 71   : 	code[1] = _data;

  00177	83 7f 18 10	 cmp	 DWORD PTR [edi+24], 16	; 00000010H
  0017b	72 05		 jb	 SHORT $L84646
  0017d	8b 7f 04	 mov	 edi, DWORD PTR [edi+4]
  00180	eb 03		 jmp	 SHORT $L84647
$L84646:
  00182	83 c7 04	 add	 edi, 4
$L84647:
  00185	8a 45 10	 mov	 al, BYTE PTR __data$[ebp]

; 72   : }

  00188	8b 4d f4	 mov	 ecx, DWORD PTR __$EHRec$[ebp]
  0018b	88 47 01	 mov	 BYTE PTR [edi+1], al
  0018e	5f		 pop	 edi
  0018f	8b c6		 mov	 eax, esi
  00191	5e		 pop	 esi
  00192	64 89 0d 00 00
	00 00		 mov	 DWORD PTR fs:__except_list, ecx
  00199	c9		 leave
  0019a	c2 10 00	 ret	 16			; 00000010H
$L84614:
  0021f	8b 4d 08	 mov	 ecx, DWORD PTR _this$[ebp]
  00222	e9 00 00 00 00	 jmp	 ??1MusicEvent@@QAE@XZ	; MusicEvent::~MusicEvent
__ehhandler$??0mml_general@@QAE@EDQBG@Z:
  00227	b8 00 00 00 00	 mov	 eax, OFFSET FLAT:$T84652
  0022c	e9 00 00 00 00	 jmp	 ___CxxFrameHandler
??0mml_general@@QAE@EDQBG@Z ENDP			; mml_general::mml_general
PUBLIC	??0mml_general@@QAE@EQBG@Z			; mml_general::mml_general
$T84680	DD	0ffffffffH
	DD	FLAT:$L84656
$T84678	DD	019930520H
	DD	01H
	DD	FLAT:$T84680
	DD	2 DUP(00H)
	DD	2 DUP(00H)
; Function compile flags: /Ogsy
_TEXT	SEGMENT
__$EHRec$ = -12						; size = 12
_this$ = 8						; size = 4
__code$ = 12						; size = 1
__strName$ = 16						; size = 4
??0mml_general@@QAE@EQBG@Z PROC NEAR			; mml_general::mml_general

; 24   : {

  0019d	b8 00 00 00 00	 mov	 eax, __ehhandler$??0mml_general@@QAE@EQBG@Z
  001a2	e8 00 00 00 00	 call	 __EH_prolog
  001a7	56		 push	 esi
  001a8	8b 75 08	 mov	 esi, DWORD PTR _this$[ebp]
  001ab	57		 push	 edi
  001ac	ff 75 10	 push	 DWORD PTR __strName$[ebp]
  001af	e8 00 00 00 00	 call	 ??0MusicEvent@@QAE@QBG@Z ; MusicEvent::MusicEvent
  001b4	83 65 fc 00	 and	 DWORD PTR __$EHRec$[ebp+8], 0

; 25   : 	iSize = 1;

  001b8	33 c0		 xor	 eax, eax
  001ba	40		 inc	 eax

; 26   : 	code.resize(iSize);

  001bb	8d 7e 14	 lea	 edi, DWORD PTR [esi+20]
  001be	6a 00		 push	 0
  001c0	8b cf		 mov	 ecx, edi
  001c2	c7 06 00 00 00
	00		 mov	 DWORD PTR [esi], OFFSET FLAT:??_7mml_general@@6B@
  001c8	89 46 30	 mov	 DWORD PTR [esi+48], eax
  001cb	e8 00 00 00 00	 call	 ?resize@?$basic_string@DU?$char_traits@D@std@@V?$allocator@D@2@@std@@QAEXID@Z ; std::basic_string<char,std::char_traits<char>,std::allocator<char> >::resize

; 27   : 	code[0] = _code;

  001d0	83 7f 18 10	 cmp	 DWORD PTR [edi+24], 16	; 00000010H
  001d4	72 05		 jb	 SHORT $L84672
  001d6	8b 7f 04	 mov	 edi, DWORD PTR [edi+4]
  001d9	eb 03		 jmp	 SHORT $L84673
$L84672:
  001db	83 c7 04	 add	 edi, 4
$L84673:
  001de	8a 45 0c	 mov	 al, BYTE PTR __code$[ebp]

; 28   : }

  001e1	8b 4d f4	 mov	 ecx, DWORD PTR __$EHRec$[ebp]
  001e4	88 07		 mov	 BYTE PTR [edi], al
  001e6	5f		 pop	 edi
  001e7	8b c6		 mov	 eax, esi
  001e9	5e		 pop	 esi
  001ea	64 89 0d 00 00
	00 00		 mov	 DWORD PTR fs:__except_list, ecx
  001f1	c9		 leave
  001f2	c2 0c 00	 ret	 12			; 0000000cH
$L84656:
  00231	8b 4d 08	 mov	 ecx, DWORD PTR _this$[ebp]
  00234	e9 00 00 00 00	 jmp	 ??1MusicEvent@@QAE@XZ	; MusicEvent::~MusicEvent
__ehhandler$??0mml_general@@QAE@EQBG@Z:
  00239	b8 00 00 00 00	 mov	 eax, OFFSET FLAT:$T84678
  0023e	e9 00 00 00 00	 jmp	 ___CxxFrameHandler
??0mml_general@@QAE@EQBG@Z ENDP				; mml_general::mml_general
PUBLIC	??0mml_general@@QAE@EPAVMMLfile@@QBG@Z		; mml_general::mml_general
$T105647 DD	0ffffffffH
	DD	FLAT:$L105606
$T105644 DD	019930520H
	DD	01H
	DD	FLAT:$T105647
	DD	2 DUP(00H)
	DD	2 DUP(00H)
; Function compile flags: /Ogsy
_TEXT	SEGMENT
__$EHRec$ = -12						; size = 12
_this$ = 8						; size = 4
__code$ = 12						; size = 1
_MML$ = 16						; size = 4
__strName$ = 20						; size = 4
??0mml_general@@QAE@EPAVMMLfile@@QBG@Z PROC NEAR	; mml_general::mml_general

; 42   : {

  001f5	b8 00 00 00 00	 mov	 eax, __ehhandler$??0mml_general@@QAE@EPAVMMLfile@@QBG@Z
  001fa	e8 00 00 00 00	 call	 __EH_prolog
  001ff	53		 push	 ebx
  00200	56		 push	 esi
  00201	8b 75 08	 mov	 esi, DWORD PTR _this$[ebp]
  00204	57		 push	 edi
  00205	ff 75 14	 push	 DWORD PTR __strName$[ebp]
  00208	e8 00 00 00 00	 call	 ??0MusicEvent@@QAE@QBG@Z ; MusicEvent::MusicEvent
  0020d	83 65 fc 00	 and	 DWORD PTR __$EHRec$[ebp+8], 0

; 43   : 	int		_data = MML->GetInt();

  00211	8b 45 10	 mov	 eax, DWORD PTR _MML$[ebp]
  00214	c7 06 00 00 00
	00		 mov	 DWORD PTR [esi], OFFSET FLAT:??_7mml_general@@6B@
  0021a	e8 00 00 00 00	 call	 ?GetInt@MMLfile@@QAEHXZ	; MMLfile::GetInt
  0021f	8b d8		 mov	 ebx, eax

; 44   : 
; 45   : 	if( (_data<-128) || (_data>255) ){

  00221	83 fb 80	 cmp	 ebx, -128		; ffffff80H
  00224	7c 51		 jl	 SHORT $L23929
  00226	81 fb ff 00 00
	00		 cmp	 ebx, 255		; 000000ffH
  0022c	7f 49		 jg	 SHORT $L23929

; 47   : 	}
; 48   : 
; 49   : 	iSize = 2;

  0022e	6a 02		 push	 2
  00230	58		 pop	 eax

; 50   : 	code.resize(iSize);

  00231	8d 7e 14	 lea	 edi, DWORD PTR [esi+20]
  00234	6a 00		 push	 0
  00236	8b cf		 mov	 ecx, edi
  00238	89 46 30	 mov	 DWORD PTR [esi+48], eax
  0023b	e8 00 00 00 00	 call	 ?resize@?$basic_string@DU?$char_traits@D@std@@V?$allocator@D@2@@std@@QAEXID@Z ; std::basic_string<char,std::char_traits<char>,std::allocator<char> >::resize

; 51   : 	code[0] = (unsigned char)_code;

  00240	83 7f 18 10	 cmp	 DWORD PTR [edi+24], 16	; 00000010H
  00244	72 05		 jb	 SHORT $L105621
  00246	8b 47 04	 mov	 eax, DWORD PTR [edi+4]
  00249	eb 03		 jmp	 SHORT $L105622
$L105621:
  0024b	8d 47 04	 lea	 eax, DWORD PTR [edi+4]
$L105622:
  0024e	8a 4d 0c	 mov	 cl, BYTE PTR __code$[ebp]
  00251	88 08		 mov	 BYTE PTR [eax], cl

; 52   : 	code[1] = (unsigned char)_data;

  00253	83 7f 18 10	 cmp	 DWORD PTR [edi+24], 16	; 00000010H
  00257	72 05		 jb	 SHORT $L105637
  00259	8b 7f 04	 mov	 edi, DWORD PTR [edi+4]
  0025c	eb 03		 jmp	 SHORT $L105638
$L105637:
  0025e	83 c7 04	 add	 edi, 4
$L105638:

; 53   : }

  00261	8b 4d f4	 mov	 ecx, DWORD PTR __$EHRec$[ebp]
  00264	88 5f 01	 mov	 BYTE PTR [edi+1], bl
  00267	5f		 pop	 edi
  00268	8b c6		 mov	 eax, esi
  0026a	5e		 pop	 esi
  0026b	5b		 pop	 ebx
  0026c	64 89 0d 00 00
	00 00		 mov	 DWORD PTR fs:__except_list, ecx
  00273	c9		 leave
  00274	c2 10 00	 ret	 16			; 00000010H
$L23929:

; 46   : 		MML->Err(_T("パラメータの値が範囲を越えました。"));

  00277	8b 45 10	 mov	 eax, DWORD PTR _MML$[ebp]
  0027a	68 00 00 00 00	 push	 OFFSET FLAT:??_C@_1CE@PKCMOCCM@0?Q0?i0?a0?$PM0?$LP0nP$0L?$HL?DV?r0?$JC?$IN?$IK0H0?$HO0W0_0?$AC?$AA?$AA@
  0027f	e8 00 00 00 00	 call	 ?Err@MMLfile@@QAEXQBG@Z	; MMLfile::Err
$L105648:
$L105646:
  00284	cc		 int	 3
$L105606:
  0088f	8b 4d 08	 mov	 ecx, DWORD PTR _this$[ebp]
  00892	e9 00 00 00 00	 jmp	 ??1MusicEvent@@QAE@XZ	; MusicEvent::~MusicEvent
__ehhandler$??0mml_general@@QAE@EPAVMMLfile@@QBG@Z:
  00897	b8 00 00 00 00	 mov	 eax, OFFSET FLAT:$T105644
  0089c	e9 00 00 00 00	 jmp	 ___CxxFrameHandler
??0mml_general@@QAE@EPAVMMLfile@@QBG@Z ENDP		; mml_general::mml_general
END
