; Listing generated by Microsoft (R) Optimizing Compiler Version 13.10.3077 

	TITLE	.\mml_Address.cpp
	.386P
include listing.inc
if @Version gt 510
.model FLAT
else
;	COMDAT ??_C@_1FC@BCJCJMFB@?$AAm?$AAm?$AAl?$AA_?$AAA?$AAd?$AAd?$AAr?$AAe?$AAs?$AAs?$AA?3?$AA?3?$AAs?$AAe?$AAt?$AA_?$AAA?$AAd?$AAd@
CONST	SEGMENT DWORD USE32 PUBLIC 'CONST'
CONST	ENDS
text$yc	SEGMENT PARA USE32 PUBLIC 'CODE'
text$yc	ENDS
;	COMDAT _$E1
text$yc	SEGMENT PARA USE32 PUBLIC 'CODE'
text$yc	ENDS
;	COMDAT ??_7mml_Address@@6B@
CONST	SEGMENT DWORD USE32 PUBLIC 'CONST'
CONST	ENDS
FLAT	GROUP _DATA, CONST, _BSS
	ASSUME	CS: FLAT, DS: FLAT, SS: FLAT
endif

INCLUDELIB LIBCMT
INCLUDELIB OLDNAMES

PUBLIC	??_C@_1FC@BCJCJMFB@?$AAm?$AAm?$AAl?$AA_?$AAA?$AAd?$AAd?$AAr?$AAe?$AAs?$AAs?$AA?3?$AA?3?$AAs?$AAe?$AAt?$AA_?$AAA?$AAd?$AAd@ ; `string'
PUBLIC	??_7mml_Address@@6B@				; mml_Address::`vftable'
;	COMDAT ??_C@_1FC@BCJCJMFB@?$AAm?$AAm?$AAl?$AA_?$AAA?$AAd?$AAd?$AAr?$AAe?$AAs?$AAs?$AA?3?$AA?3?$AAs?$AAe?$AAt?$AA_?$AAA?$AAd?$AAd@
CONST	SEGMENT
??_C@_1FC@BCJCJMFB@?$AAm?$AAm?$AAl?$AA_?$AAA?$AAd?$AAd?$AAr?$AAe?$AAs?$AAs?$AA?3?$AA?3?$AAs?$AAe?$AAt?$AA_?$AAA?$AAd?$AAd@ DB 'm'
	DB	00H, 'm', 00H, 'l', 00H, '_', 00H, 'A', 00H, 'd', 00H, 'd', 00H
	DB	'r', 00H, 'e', 00H, 's', 00H, 's', 00H, ':', 00H, ':', 00H, 's'
	DB	00H, 'e', 00H, 't', 00H, '_', 00H, 'A', 00H, 'd', 00H, 'd', 00H
	DB	'r', 00H, 'e', 00H, 's', 00H, 's', 00H, '(', 00H, ')', 00H, 0a2H
	DB	095H, 'peg0', 0a8H, '0', 0e9H, '0', 0fcH, '0L0zv', 01fH, 'uW0~'
	DB	'0W0_0', 02H, '0', 00H, 00H			; `string'
CONST	ENDS
;	COMDAT ??_7mml_Address@@6B@
CONST	SEGMENT
??_7mml_Address@@6B@ DD FLAT:?getCode@MusicItem@@UAEXPAV?$basic_string@DU?$char_traits@D@std@@V?$allocator@D@2@@std@@@Z ; mml_Address::`vftable'
	DD	FLAT:?setCode@MusicItem@@UAEXPAV?$basic_string@DU?$char_traits@D@std@@V?$allocator@D@2@@std@@@Z
	DD	FLAT:?getAsm@MusicItem@@UAEXPAVMusicFile@@@Z
PUBLIC	?get_flag@mml_Address@@QAE_NXZ			; mml_Address::get_flag
; Function compile flags: /Ogsy
; File f:\nes\nsdl\src\nsc\mml_address.cpp
_TEXT	SEGMENT
?get_flag@mml_Address@@QAE_NXZ PROC NEAR		; mml_Address::get_flag
; _this$ = eax

; 147  : 	return(f_id);

  00000	8a 40 40	 mov	 al, BYTE PTR [eax+64]

; 148  : }

  00003	c3		 ret	 0
?get_flag@mml_Address@@QAE_NXZ ENDP			; mml_Address::get_flag
_TEXT	ENDS
PUBLIC	?get_id@mml_Address@@QAEIXZ			; mml_Address::get_id
; Function compile flags: /Ogsy
_TEXT	SEGMENT
?get_id@mml_Address@@QAEIXZ PROC NEAR			; mml_Address::get_id
; _this$ = eax

; 135  : 	return(m_id);

  00004	8b 40 3c	 mov	 eax, DWORD PTR [eax+60]

; 136  : }

  00007	c3		 ret	 0
?get_id@mml_Address@@QAEIXZ ENDP			; mml_Address::get_id
_TEXT	ENDS
PUBLIC	?set_id@mml_Address@@QAEXI@Z			; mml_Address::set_id
; Function compile flags: /Ogsy
_TEXT	SEGMENT
?set_id@mml_Address@@QAEXI@Z PROC NEAR			; mml_Address::set_id
; _this$ = eax
; __id$ = ecx

; 121  : 	f_id = true;

  00008	c6 40 40 01	 mov	 BYTE PTR [eax+64], 1

; 122  : 	m_id = _id;

  0000c	89 48 3c	 mov	 DWORD PTR [eax+60], ecx

; 123  : }

  0000f	c3		 ret	 0
?set_id@mml_Address@@QAEXI@Z ENDP			; mml_Address::set_id
PUBLIC	?set_Address@mml_Address@@QAEXI@Z		; mml_Address::set_Address
; Function compile flags: /Ogsy
_TEXT	SEGMENT
?set_Address@mml_Address@@QAEXI@Z PROC NEAR		; mml_Address::set_Address
; _this$ = eax
; __addr$ = ecx

; 78   : 	switch(iSize){

  00010	8b 50 30	 mov	 edx, DWORD PTR [eax+48]
  00013	83 ea 03	 sub	 edx, 3
  00016	74 49		 je	 SHORT $L23939
  00018	4a		 dec	 edx
  00019	74 20		 je	 SHORT $L23942

; 86   : 			break;
; 87   : 		default:
; 88   : 			_CERR << _T("mml_Address::set_Address()ŠÖ”‚ÅƒGƒ‰[‚ª”­¶‚µ‚Ü‚µ‚½B") << endl;

  0001b	68 00 00 00 00	 push	 OFFSET FLAT:??_C@_1FC@BCJCJMFB@?$AAm?$AAm?$AAl?$AA_?$AAA?$AAd?$AAd?$AAr?$AAe?$AAs?$AAs?$AA?3?$AA?3?$AAs?$AAe?$AAt?$AA_?$AAA?$AAd?$AAd@
  00020	68 00 00 00 00	 push	 OFFSET FLAT:?wcerr@std@@3V?$basic_ostream@GU?$char_traits@G@std@@@1@A ; std::wcerr
  00025	e8 00 00 00 00	 call	 ??$?6GU?$char_traits@G@std@@@std@@YAAAV?$basic_ostream@GU?$char_traits@G@std@@@0@AAV10@PBG@Z ; std::operator<<<unsigned short,std::char_traits<unsigned short> >
  0002a	50		 push	 eax
  0002b	e8 00 00 00 00	 call	 ?endl@std@@YAAAV?$basic_ostream@GU?$char_traits@G@std@@@1@AAV21@@Z ; std::endl

; 89   : 			nsc_exit(EXIT_FAILURE);

  00030	33 c0		 xor	 eax, eax
  00032	83 c4 0c	 add	 esp, 12			; 0000000cH
  00035	40		 inc	 eax
  00036	e9 00 00 00 00	 jmp	 ?nsc_exit@@YAXH@Z	; nsc_exit
$L23942:

; 82   : 			break;
; 83   : 		case(4):
; 84   : 			code[2] = (unsigned char)((_addr     ) & 0xFF);

  0003b	83 78 2c 10	 cmp	 DWORD PTR [eax+44], 16	; 00000010H
  0003f	72 05		 jb	 SHORT $L68168
  00041	8b 50 18	 mov	 edx, DWORD PTR [eax+24]
  00044	eb 03		 jmp	 SHORT $L68169
$L68168:
  00046	8d 50 18	 lea	 edx, DWORD PTR [eax+24]
$L68169:
  00049	88 4a 02	 mov	 BYTE PTR [edx+2], cl

; 85   : 			code[3] = (unsigned char)((_addr >> 8) & 0xFF);

  0004c	83 78 2c 10	 cmp	 DWORD PTR [eax+44], 16	; 00000010H
  00050	72 05		 jb	 SHORT $L68184
  00052	8b 40 18	 mov	 eax, DWORD PTR [eax+24]
  00055	eb 03		 jmp	 SHORT $L68185
$L68184:
  00057	83 c0 18	 add	 eax, 24			; 00000018H
$L68185:
  0005a	c1 e9 08	 shr	 ecx, 8
  0005d	88 48 03	 mov	 BYTE PTR [eax+3], cl

; 90   : 			break;
; 91   : 	}
; 92   : 	
; 93   : 
; 94   : }

  00060	c3		 ret	 0
$L23939:

; 79   : 		case(3):
; 80   : 			code[1] = (unsigned char)((_addr     ) & 0xFF);

  00061	83 78 2c 10	 cmp	 DWORD PTR [eax+44], 16	; 00000010H
  00065	72 05		 jb	 SHORT $L68136
  00067	8b 50 18	 mov	 edx, DWORD PTR [eax+24]
  0006a	eb 03		 jmp	 SHORT $L68137
$L68136:
  0006c	8d 50 18	 lea	 edx, DWORD PTR [eax+24]
$L68137:
  0006f	88 4a 01	 mov	 BYTE PTR [edx+1], cl

; 81   : 			code[2] = (unsigned char)((_addr >> 8) & 0xFF);

  00072	83 78 2c 10	 cmp	 DWORD PTR [eax+44], 16	; 00000010H
  00076	72 05		 jb	 SHORT $L68152
  00078	8b 40 18	 mov	 eax, DWORD PTR [eax+24]
  0007b	eb 03		 jmp	 SHORT $L68153
$L68152:
  0007d	83 c0 18	 add	 eax, 24			; 00000018H
$L68153:
  00080	c1 e9 08	 shr	 ecx, 8
  00083	88 48 02	 mov	 BYTE PTR [eax+2], cl

; 90   : 			break;
; 91   : 	}
; 92   : 	
; 93   : 
; 94   : }

  00086	c3		 ret	 0
?set_Address@mml_Address@@QAEXI@Z ENDP			; mml_Address::set_Address
PUBLIC	??1mml_Address@@QAE@XZ				; mml_Address::~mml_Address
; Function compile flags: /Ogsy
_TEXT	SEGMENT
??1mml_Address@@QAE@XZ PROC NEAR			; mml_Address::~mml_Address
; _this$ = ecx

; 66   : }

  00087	c7 01 00 00 00
	00		 mov	 DWORD PTR [ecx], OFFSET FLAT:??_7MusicEvent@@6B@
  0008d	e9 00 00 00 00	 jmp	 ??1MusicItem@@QAE@XZ	; MusicItem::~MusicItem
??1mml_Address@@QAE@XZ ENDP				; mml_Address::~mml_Address
_TEXT	ENDS
PUBLIC	??0mml_Address@@QAE@EEQBG@Z			; mml_Address::mml_Address
$T84760	DD	0ffffffffH
	DD	FLAT:$L84688
$T84758	DD	019930520H
	DD	01H
	DD	FLAT:$T84760
	DD	2 DUP(00H)
	DD	2 DUP(00H)
; Function compile flags: /Ogsy
_TEXT	SEGMENT
__$EHRec$ = -12						; size = 12
_this$ = 8						; size = 4
__code$ = 12						; size = 1
__data$ = 16						; size = 1
__strName$ = 20						; size = 4
??0mml_Address@@QAE@EEQBG@Z PROC NEAR			; mml_Address::mml_Address

; 47   : {

  00092	b8 00 00 00 00	 mov	 eax, __ehhandler$??0mml_Address@@QAE@EEQBG@Z
  00097	e8 00 00 00 00	 call	 __EH_prolog
  0009c	53		 push	 ebx
  0009d	56		 push	 esi
  0009e	8b 75 08	 mov	 esi, DWORD PTR _this$[ebp]
  000a1	57		 push	 edi
  000a2	ff 75 14	 push	 DWORD PTR __strName$[ebp]
  000a5	e8 00 00 00 00	 call	 ??0MusicEvent@@QAE@QBG@Z ; MusicEvent::MusicEvent

; 48   : 	iSize = 4;

  000aa	6a 04		 push	 4
  000ac	33 db		 xor	 ebx, ebx
  000ae	58		 pop	 eax
  000af	89 5d fc	 mov	 DWORD PTR __$EHRec$[ebp+8], ebx

; 49   : 	code.resize(iSize);

  000b2	8d 7e 14	 lea	 edi, DWORD PTR [esi+20]
  000b5	53		 push	 ebx
  000b6	8b cf		 mov	 ecx, edi
  000b8	c7 06 00 00 00
	00		 mov	 DWORD PTR [esi], OFFSET FLAT:??_7mml_Address@@6B@
  000be	88 5e 40	 mov	 BYTE PTR [esi+64], bl
  000c1	89 46 30	 mov	 DWORD PTR [esi+48], eax
  000c4	e8 00 00 00 00	 call	 ?resize@?$basic_string@DU?$char_traits@D@std@@V?$allocator@D@2@@std@@QAEXID@Z ; std::basic_string<char,std::char_traits<char>,std::allocator<char> >::resize

; 50   : 	code[0] = _code;

  000c9	6a 10		 push	 16			; 00000010H
  000cb	59		 pop	 ecx
  000cc	39 4f 18	 cmp	 DWORD PTR [edi+24], ecx
  000cf	72 05		 jb	 SHORT $L84704
  000d1	8b 47 04	 mov	 eax, DWORD PTR [edi+4]
  000d4	eb 03		 jmp	 SHORT $L84705
$L84704:
  000d6	8d 47 04	 lea	 eax, DWORD PTR [edi+4]
$L84705:
  000d9	8a 55 0c	 mov	 dl, BYTE PTR __code$[ebp]
  000dc	88 10		 mov	 BYTE PTR [eax], dl

; 51   : 	code[1] = _data;

  000de	39 4f 18	 cmp	 DWORD PTR [edi+24], ecx
  000e1	72 05		 jb	 SHORT $L84720
  000e3	8b 47 04	 mov	 eax, DWORD PTR [edi+4]
  000e6	eb 03		 jmp	 SHORT $L84721
$L84720:
  000e8	8d 47 04	 lea	 eax, DWORD PTR [edi+4]
$L84721:
  000eb	8a 55 10	 mov	 dl, BYTE PTR __data$[ebp]
  000ee	88 50 01	 mov	 BYTE PTR [eax+1], dl

; 52   : 	code[2] = 0;

  000f1	39 4f 18	 cmp	 DWORD PTR [edi+24], ecx
  000f4	72 05		 jb	 SHORT $L84736
  000f6	8b 47 04	 mov	 eax, DWORD PTR [edi+4]
  000f9	eb 03		 jmp	 SHORT $L84737
$L84736:
  000fb	8d 47 04	 lea	 eax, DWORD PTR [edi+4]
$L84737:
  000fe	88 58 02	 mov	 BYTE PTR [eax+2], bl

; 53   : 	code[3] = 0;

  00101	39 4f 18	 cmp	 DWORD PTR [edi+24], ecx
  00104	72 05		 jb	 SHORT $L84752
  00106	8b 7f 04	 mov	 edi, DWORD PTR [edi+4]
  00109	eb 03		 jmp	 SHORT $L84753
$L84752:
  0010b	83 c7 04	 add	 edi, 4
$L84753:

; 54   : }

  0010e	8b 4d f4	 mov	 ecx, DWORD PTR __$EHRec$[ebp]
  00111	88 5f 03	 mov	 BYTE PTR [edi+3], bl
  00114	5f		 pop	 edi
  00115	8b c6		 mov	 eax, esi
  00117	5e		 pop	 esi
  00118	5b		 pop	 ebx
  00119	64 89 0d 00 00
	00 00		 mov	 DWORD PTR fs:__except_list, ecx
  00120	c9		 leave
  00121	c2 10 00	 ret	 16			; 00000010H
$L84688:
  00243	8b 4d 08	 mov	 ecx, DWORD PTR _this$[ebp]
  00246	e9 00 00 00 00	 jmp	 ??1MusicEvent@@QAE@XZ	; MusicEvent::~MusicEvent
__ehhandler$??0mml_Address@@QAE@EEQBG@Z:
  0024b	b8 00 00 00 00	 mov	 eax, OFFSET FLAT:$T84758
  00250	e9 00 00 00 00	 jmp	 ___CxxFrameHandler
??0mml_Address@@QAE@EEQBG@Z ENDP			; mml_Address::mml_Address
PUBLIC	??0mml_Address@@QAE@EQBG@Z			; mml_Address::mml_Address
$T84818	DD	0ffffffffH
	DD	FLAT:$L84762
$T84816	DD	019930520H
	DD	01H
	DD	FLAT:$T84818
	DD	2 DUP(00H)
	DD	2 DUP(00H)
; Function compile flags: /Ogsy
_TEXT	SEGMENT
__$EHRec$ = -12						; size = 12
_this$ = 8						; size = 4
__code$ = 12						; size = 1
__strName$ = 16						; size = 4
??0mml_Address@@QAE@EQBG@Z PROC NEAR			; mml_Address::mml_Address

; 25   : {

  00124	b8 00 00 00 00	 mov	 eax, __ehhandler$??0mml_Address@@QAE@EQBG@Z
  00129	e8 00 00 00 00	 call	 __EH_prolog
  0012e	53		 push	 ebx
  0012f	56		 push	 esi
  00130	8b 75 08	 mov	 esi, DWORD PTR _this$[ebp]
  00133	57		 push	 edi
  00134	ff 75 10	 push	 DWORD PTR __strName$[ebp]
  00137	e8 00 00 00 00	 call	 ??0MusicEvent@@QAE@QBG@Z ; MusicEvent::MusicEvent

; 26   : 
; 27   : 	iSize = 3;

  0013c	6a 03		 push	 3
  0013e	33 db		 xor	 ebx, ebx
  00140	58		 pop	 eax
  00141	89 5d fc	 mov	 DWORD PTR __$EHRec$[ebp+8], ebx

; 28   : 	code.resize(iSize);

  00144	8d 7e 14	 lea	 edi, DWORD PTR [esi+20]
  00147	53		 push	 ebx
  00148	8b cf		 mov	 ecx, edi
  0014a	c7 06 00 00 00
	00		 mov	 DWORD PTR [esi], OFFSET FLAT:??_7mml_Address@@6B@
  00150	88 5e 40	 mov	 BYTE PTR [esi+64], bl
  00153	89 46 30	 mov	 DWORD PTR [esi+48], eax
  00156	e8 00 00 00 00	 call	 ?resize@?$basic_string@DU?$char_traits@D@std@@V?$allocator@D@2@@std@@QAEXID@Z ; std::basic_string<char,std::char_traits<char>,std::allocator<char> >::resize

; 29   : 	code[0] = _code;

  0015b	83 7f 18 10	 cmp	 DWORD PTR [edi+24], 16	; 00000010H
  0015f	72 05		 jb	 SHORT $L84778
  00161	8b 47 04	 mov	 eax, DWORD PTR [edi+4]
  00164	eb 03		 jmp	 SHORT $L84779
$L84778:
  00166	8d 47 04	 lea	 eax, DWORD PTR [edi+4]
$L84779:
  00169	8a 4d 0c	 mov	 cl, BYTE PTR __code$[ebp]
  0016c	88 08		 mov	 BYTE PTR [eax], cl

; 30   : 	code[1] = 0;

  0016e	83 7f 18 10	 cmp	 DWORD PTR [edi+24], 16	; 00000010H
  00172	72 05		 jb	 SHORT $L84794
  00174	8b 47 04	 mov	 eax, DWORD PTR [edi+4]
  00177	eb 03		 jmp	 SHORT $L84795
$L84794:
  00179	8d 47 04	 lea	 eax, DWORD PTR [edi+4]
$L84795:
  0017c	88 58 01	 mov	 BYTE PTR [eax+1], bl

; 31   : 	code[2] = 0;

  0017f	83 7f 18 10	 cmp	 DWORD PTR [edi+24], 16	; 00000010H
  00183	72 05		 jb	 SHORT $L84810
  00185	8b 7f 04	 mov	 edi, DWORD PTR [edi+4]
  00188	eb 03		 jmp	 SHORT $L84811
$L84810:
  0018a	83 c7 04	 add	 edi, 4
$L84811:

; 32   : }

  0018d	8b 4d f4	 mov	 ecx, DWORD PTR __$EHRec$[ebp]
  00190	88 5f 02	 mov	 BYTE PTR [edi+2], bl
  00193	5f		 pop	 edi
  00194	8b c6		 mov	 eax, esi
  00196	5e		 pop	 esi
  00197	5b		 pop	 ebx
  00198	64 89 0d 00 00
	00 00		 mov	 DWORD PTR fs:__except_list, ecx
  0019f	c9		 leave
  001a0	c2 0c 00	 ret	 12			; 0000000cH
$L84762:
  00255	8b 4d 08	 mov	 ecx, DWORD PTR _this$[ebp]
  00258	e9 00 00 00 00	 jmp	 ??1MusicEvent@@QAE@XZ	; MusicEvent::~MusicEvent
__ehhandler$??0mml_Address@@QAE@EQBG@Z:
  0025d	b8 00 00 00 00	 mov	 eax, OFFSET FLAT:$T84816
  00262	e9 00 00 00 00	 jmp	 ___CxxFrameHandler
??0mml_Address@@QAE@EQBG@Z ENDP				; mml_Address::mml_Address
END
