; Listing generated by Microsoft (R) Optimizing Compiler Version 13.10.3077 

	TITLE	.\MusicEvent.cpp
	.386P
include listing.inc
if @Version gt 510
.model FLAT
else
text$yc	SEGMENT PARA USE32 PUBLIC 'CODE'
text$yc	ENDS
;	COMDAT _$E1
text$yc	SEGMENT PARA USE32 PUBLIC 'CODE'
text$yc	ENDS
;	COMDAT ??_7MusicEvent@@6B@
CONST	SEGMENT DWORD USE32 PUBLIC 'CONST'
CONST	ENDS
FLAT	GROUP _DATA, CONST, _BSS
	ASSUME	CS: FLAT, DS: FLAT, SS: FLAT
endif

INCLUDELIB LIBCMT
INCLUDELIB OLDNAMES

PUBLIC	??_7MusicEvent@@6B@				; MusicEvent::`vftable'
;	COMDAT ??_7MusicEvent@@6B@
CONST	SEGMENT
??_7MusicEvent@@6B@ DD FLAT:?getCode@MusicItem@@UAEXPAV?$basic_string@DU?$char_traits@D@std@@V?$allocator@D@2@@std@@@Z ; MusicEvent::`vftable'
	DD	FLAT:?setCode@MusicItem@@UAEXPAV?$basic_string@DU?$char_traits@D@std@@V?$allocator@D@2@@std@@@Z
	DD	FLAT:?getAsm@MusicItem@@UAEXPAVMusicFile@@@Z
PUBLIC	??1MusicEvent@@QAE@XZ				; MusicEvent::~MusicEvent
; Function compile flags: /Ogsy
; File f:\nes\nsdl\src\nsc\musicevent.cpp
_TEXT	SEGMENT
??1MusicEvent@@QAE@XZ PROC NEAR				; MusicEvent::~MusicEvent
; _this$ = ecx

; 35   : {

  00000	c7 01 00 00 00
	00		 mov	 DWORD PTR [ecx], OFFSET FLAT:??_7MusicEvent@@6B@

; 36   : }

  00006	e9 00 00 00 00	 jmp	 ??1MusicItem@@QAE@XZ	; MusicItem::~MusicItem
??1MusicEvent@@QAE@XZ ENDP				; MusicEvent::~MusicEvent
_TEXT	ENDS
PUBLIC	??0MusicEvent@@QAE@QBG@Z			; MusicEvent::MusicEvent
; Function compile flags: /Ogsy
_TEXT	SEGMENT
__strName$ = 8						; size = 4
??0MusicEvent@@QAE@QBG@Z PROC NEAR			; MusicEvent::MusicEvent
; _this$ = esi

; 23   : {

  0000b	ff 74 24 04	 push	 DWORD PTR __strName$[esp-4]
  0000f	56		 push	 esi
  00010	e8 00 00 00 00	 call	 ??0MusicItem@@QAE@QBG@Z	; MusicItem::MusicItem
  00015	c7 06 00 00 00
	00		 mov	 DWORD PTR [esi], OFFSET FLAT:??_7MusicEvent@@6B@

; 24   : }

  0001b	8b c6		 mov	 eax, esi
  0001d	c2 04 00	 ret	 4
??0MusicEvent@@QAE@QBG@Z ENDP				; MusicEvent::MusicEvent
END
