PUBLIC	??0?$vector@HV?$allocator@H@std@@@std@@QAE@XZ	; std::vector<int,std::allocator<int> >::vector<int,std::allocator<int> >
PUBLIC	??1?$vector@HV?$allocator@H@std@@@std@@QAE@XZ	; std::vector<int,std::allocator<int> >::~vector<int,std::allocator<int> >
PUBLIC	?end@?$vector@HV?$allocator@H@std@@@std@@QAE?AViterator@12@XZ ; std::vector<int,std::allocator<int> >::end
PUBLIC	?push_back@?$vector@HV?$allocator@H@std@@@std@@QAEXABH@Z ; std::vector<int,std::allocator<int> >::push_back
PUBLIC	?pop_back@?$vector@HV?$allocator@H@std@@@std@@QAEXXZ ; std::vector<int,std::allocator<int> >::pop_back
PUBLIC	??0iterator@?$vector@HV?$allocator@H@std@@@std@@QAE@XZ ; std::vector<int,std::allocator<int> >::iterator::iterator
PUBLIC	??Diterator@?$vector@HV?$allocator@H@std@@@std@@QBEAAHXZ ; std::vector<int,std::allocator<int> >::iterator::operator*
PUBLIC	??Fiterator@?$vector@HV?$allocator@H@std@@@std@@QAE?AV012@H@Z ; std::vector<int,std::allocator<int> >::iterator::operator--
PUBLIC	??0?$list@IV?$allocator@I@std@@@std@@QAE@XZ	; std::list<unsigned int,std::allocator<unsigned int> >::list<unsigned int,std::allocator<unsigned int> >
PUBLIC	??1?$list@IV?$allocator@I@std@@@std@@QAE@XZ	; std::list<unsigned int,std::allocator<unsigned int> >::~list<unsigned int,std::allocator<unsigned int> >
PUBLIC	?end@?$list@IV?$allocator@I@std@@@std@@QAE?AViterator@12@XZ ; std::list<unsigned int,std::allocator<unsigned int> >::end
PUBLIC	?push_back@?$list@IV?$allocator@I@std@@@std@@QAEXABI@Z ; std::list<unsigned int,std::allocator<unsigned int> >::push_back
PUBLIC	?pop_back@?$list@IV?$allocator@I@std@@@std@@QAEXXZ ; std::list<unsigned int,std::allocator<unsigned int> >::pop_back
PUBLIC	??0?$list@Viterator@?$list@PAVMusicItem@@V?$allocator@PAVMusicItem@@@std@@@std@@V?$allocator@Viterator@?$list@PAVMusicItem@@V?$allocator@PAVMusicItem@@@std@@@std@@@3@@std@@QAE@XZ ; std::list<std::list<MusicItem *,std::allocator<MusicItem *> >::iterator,std::allocator<std::list<MusicItem *,std::allocator<MusicItem *> >::iterator> >::list<std::list<MusicItem *,std::allocator<MusicItem *> >::iterator,std::allocator<std::list<MusicItem *,std::allocator<MusicItem *> >::iterator> >
PUBLIC	??1?$list@Viterator@?$list@PAVMusicItem@@V?$allocator@PAVMusicItem@@@std@@@std@@V?$allocator@Viterator@?$list@PAVMusicItem@@V?$allocator@PAVMusicItem@@@std@@@std@@@3@@std@@QAE@XZ ; std::list<std::list<MusicItem *,std::allocator<MusicItem *> >::iterator,std::allocator<std::list<MusicItem *,std::allocator<MusicItem *> >::iterator> >::~list<std::list<MusicItem *,std::allocator<MusicItem *> >::iterator,std::allocator<std::list<MusicItem *,std::allocator<MusicItem *> >::iterator> >
PUBLIC	?end@?$list@Viterator@?$list@PAVMusicItem@@V?$allocator@PAVMusicItem@@@std@@@std@@V?$allocator@Viterator@?$list@PAVMusicItem@@V?$allocator@PAVMusicItem@@@std@@@std@@@3@@std@@QAE?AViterator@12@XZ ; std::list<std::list<MusicItem *,std::allocator<MusicItem *> >::iterator,std::allocator<std::list<MusicItem *,std::allocator<MusicItem *> >::iterator> >::end
PUBLIC	?push_back@?$list@Viterator@?$list@PAVMusicItem@@V?$allocator@PAVMusicItem@@@std@@@std@@V?$allocator@Viterator@?$list@PAVMusicItem@@V?$allocator@PAVMusicItem@@@std@@@std@@@3@@std@@QAEXABViterator@?$list@PAVMusicItem@@V?$allocator@PAVMusicItem@@@std@@@2@@Z ; std::list<std::list<MusicItem *,std::allocator<MusicItem *> >::iterator,std::allocator<std::list<MusicItem *,std::allocator<MusicItem *> >::iterator> >::push_back
PUBLIC	?pop_back@?$list@Viterator@?$list@PAVMusicItem@@V?$allocator@PAVMusicItem@@@std@@@std@@V?$allocator@Viterator@?$list@PAVMusicItem@@V?$allocator@PAVMusicItem@@@std@@@std@@@3@@std@@QAEXXZ ; std::list<std::list<MusicItem *,std::allocator<MusicItem *> >::iterator,std::allocator<std::list<MusicItem *,std::allocator<MusicItem *> >::iterator> >::pop_back
PUBLIC	??0iterator@?$list@IV?$allocator@I@std@@@std@@QAE@XZ ; std::list<unsigned int,std::allocator<unsigned int> >::iterator::iterator
PUBLIC	??Diterator@?$list@IV?$allocator@I@std@@@std@@QBEAAIXZ ; std::list<unsigned int,std::allocator<unsigned int> >::iterator::operator*
PUBLIC	??Fiterator@?$list@IV?$allocator@I@std@@@std@@QAE?AV012@H@Z ; std::list<unsigned int,std::allocator<unsigned int> >::iterator::operator--
PUBLIC	??0iterator@?$list@Viterator@?$list@PAVMusicItem@@V?$allocator@PAVMusicItem@@@std@@@std@@V?$allocator@Viterator@?$list@PAVMusicItem@@V?$allocator@PAVMusicItem@@@std@@@std@@@3@@std@@QAE@XZ ; std::list<std::list<MusicItem *,std::allocator<MusicItem *> >::iterator,std::allocator<std::list<MusicItem *,std::allocator<MusicItem *> >::iterator> >::iterator::iterator
PUBLIC	??Diterator@?$list@Viterator@?$list@PAVMusicItem@@V?$allocator@PAVMusicItem@@@std@@@std@@V?$allocator@Viterator@?$list@PAVMusicItem@@V?$allocator@PAVMusicItem@@@std@@@std@@@3@@std@@QBEAAV0?$list@PAVMusicItem@@V?$allocator@PAVMusicItem@@@std@@@2@XZ ; std::list<std::list<MusicItem *,std::allocator<MusicItem *> >::iterator,std::allocator<std::list<MusicItem *,std::allocator<MusicItem *> >::iterator> >::iterator::operator*
PUBLIC	??Fiterator@?$list@Viterator@?$list@PAVMusicItem@@V?$allocator@PAVMusicItem@@@std@@@std@@V?$allocator@Viterator@?$list@PAVMusicItem@@V?$allocator@PAVMusicItem@@@std@@@std@@@3@@std@@QAE?AV012@H@Z ; std::list<std::list<MusicItem *,std::allocator<MusicItem *> >::iterator,std::allocator<std::list<MusicItem *,std::allocator<MusicItem *> >::iterator> >::iterator::operator--
PUBLIC	??0?$vector@PAVmml_Address@@V?$allocator@PAVmml_Address@@@std@@@std@@QAE@XZ ; std::vector<mml_Address *,std::allocator<mml_Address *> >::vector<mml_Address *,std::allocator<mml_Address *> >
PUBLIC	??1?$vector@PAVmml_Address@@V?$allocator@PAVmml_Address@@@std@@@std@@QAE@XZ ; std::vector<mml_Address *,std::allocator<mml_Address *> >::~vector<mml_Address *,std::allocator<mml_Address *> >
PUBLIC	?begin@?$vector@PAVmml_Address@@V?$allocator@PAVmml_Address@@@std@@@std@@QAE?AViterator@12@XZ ; std::vector<mml_Address *,std::allocator<mml_Address *> >::begin
PUBLIC	?end@?$vector@PAVmml_Address@@V?$allocator@PAVmml_Address@@@std@@@std@@QAE?AViterator@12@XZ ; std::vector<mml_Address *,std::allocator<mml_Address *> >::end
PUBLIC	?empty@?$vector@PAVmml_Address@@V?$allocator@PAVmml_Address@@@std@@@std@@QBE_NXZ ; std::vector<mml_Address *,std::allocator<mml_Address *> >::empty
PUBLIC	?push_back@?$vector@PAVmml_Address@@V?$allocator@PAVmml_Address@@@std@@@std@@QAEXABQAVmml_Address@@@Z ; std::vector<mml_Address *,std::allocator<mml_Address *> >::push_back
PUBLIC	??A?$map@IPAVPatch@@U?$less@I@std@@V?$allocator@U?$pair@$$CBIPAVPatch@@@std@@@3@@std@@QAEAAPAVPatch@@ABI@Z ; std::map<unsigned int,Patch *,std::less<unsigned int>,std::allocator<std::pair<unsigned int const ,Patch *> > >::operator[]
PUBLIC	??Fiterator@?$list@PAVMusicItem@@V?$allocator@PAVMusicItem@@@std@@@std@@QAE?AV012@H@Z ; std::list<MusicItem *,std::allocator<MusicItem *> >::iterator::operator--
PUBLIC	??0iterator@?$vector@PAVmml_Address@@V?$allocator@PAVmml_Address@@@std@@@std@@QAE@XZ ; std::vector<mml_Address *,std::allocator<mml_Address *> >::iterator::iterator
PUBLIC	??Diterator@?$vector@PAVmml_Address@@V?$allocator@PAVmml_Address@@@std@@@std@@QBEAAPAVmml_Address@@XZ ; std::vector<mml_Address *,std::allocator<mml_Address *> >::iterator::operator*
PUBLIC	??Eiterator@?$vector@PAVmml_Address@@V?$allocator@PAVmml_Address@@@std@@@std@@QAE?AV012@H@Z ; std::vector<mml_Address *,std::allocator<mml_Address *> >::iterator::operator++
PUBLIC	??9const_iterator@?$vector@PAVmml_Address@@V?$allocator@PAVmml_Address@@@std@@@std@@QBE_NABV012@@Z ; std::vector<mml_Address *,std::allocator<mml_Address *> >::const_iterator::operator!=
PUBLIC	??0?$allocator@H@std@@QAE@XZ			; std::allocator<int>::allocator<int>
PUBLIC	??0?$allocator@I@std@@QAE@XZ			; std::allocator<unsigned int>::allocator<unsigned int>
PUBLIC	?capacity@?$vector@HV?$allocator@H@std@@@std@@QBEIXZ ; std::vector<int,std::allocator<int> >::capacity
PUBLIC	?size@?$vector@HV?$allocator@H@std@@@std@@QBEIXZ ; std::vector<int,std::allocator<int> >::size
PUBLIC	?empty@?$vector@HV?$allocator@H@std@@@std@@QBE_NXZ ; std::vector<int,std::allocator<int> >::empty
PUBLIC	?insert@?$vector@HV?$allocator@H@std@@@std@@QAE?AViterator@12@V312@ABH@Z ; std::vector<int,std::allocator<int> >::insert
PUBLIC	?_Buy@?$vector@HV?$allocator@H@std@@@std@@IAE_NI@Z ; std::vector<int,std::allocator<int> >::_Buy
PUBLIC	?_Destroy@?$vector@HV?$allocator@H@std@@@std@@IAEXPAH0@Z ; std::vector<int,std::allocator<int> >::_Destroy
PUBLIC	?_Tidy@?$vector@HV?$allocator@H@std@@@std@@IAEXXZ ; std::vector<int,std::allocator<int> >::_Tidy
PUBLIC	?_Ufill@?$vector@HV?$allocator@H@std@@@std@@IAEPAHPAHIABH@Z ; std::vector<int,std::allocator<int> >::_Ufill
PUBLIC	??0?$_Vector_val@HV?$allocator@H@std@@@std@@IAE@V?$allocator@H@1@@Z ; std::_Vector_val<int,std::allocator<int> >::_Vector_val<int,std::allocator<int> >
PUBLIC	??0iterator@?$vector@HV?$allocator@H@std@@@std@@QAE@PAH@Z ; std::vector<int,std::allocator<int> >::iterator::iterator
PUBLIC	??Fiterator@?$vector@HV?$allocator@H@std@@@std@@QAEAAV012@XZ ; std::vector<int,std::allocator<int> >::iterator::operator--
PUBLIC	??0const_iterator@?$vector@HV?$allocator@H@std@@@std@@QAE@XZ ; std::vector<int,std::allocator<int> >::const_iterator::const_iterator
PUBLIC	??Dconst_iterator@?$vector@HV?$allocator@H@std@@@std@@QBEABHXZ ; std::vector<int,std::allocator<int> >::const_iterator::operator*
PUBLIC	?_Insert@?$list@IV?$allocator@I@std@@@std@@QAEXViterator@12@ABI@Z ; std::list<unsigned int,std::allocator<unsigned int> >::_Insert
PUBLIC	?erase@?$list@IV?$allocator@I@std@@@std@@QAE?AViterator@12@V312@@Z ; std::list<unsigned int,std::allocator<unsigned int> >::erase
PUBLIC	?_Buynode@?$list@IV?$allocator@I@std@@@std@@IAEPAU_Node@?$_List_nod@IV?$allocator@I@std@@@2@XZ ; std::list<unsigned int,std::allocator<unsigned int> >::_Buynode
PUBLIC	?_Tidy@?$list@IV?$allocator@I@std@@@std@@IAEXXZ	; std::list<unsigned int,std::allocator<unsigned int> >::_Tidy
PUBLIC	??0?$_List_val@IV?$allocator@I@std@@@std@@IAE@V?$allocator@I@1@@Z ; std::_List_val<unsigned int,std::allocator<unsigned int> >::_List_val<unsigned int,std::allocator<unsigned int> >
PUBLIC	?_Insert@?$list@Viterator@?$list@PAVMusicItem@@V?$allocator@PAVMusicItem@@@std@@@std@@V?$allocator@Viterator@?$list@PAVMusicItem@@V?$allocator@PAVMusicItem@@@std@@@std@@@3@@std@@QAEXViterator@12@ABV3?$list@PAVMusicItem@@V?$allocator@PAVMusicItem@@@std@@@2@@Z ; std::list<std::list<MusicItem *,std::allocator<MusicItem *> >::iterator,std::allocator<std::list<MusicItem *,std::allocator<MusicItem *> >::iterator> >::_Insert
PUBLIC	?erase@?$list@Viterator@?$list@PAVMusicItem@@V?$allocator@PAVMusicItem@@@std@@@std@@V?$allocator@Viterator@?$list@PAVMusicItem@@V?$allocator@PAVMusicItem@@@std@@@std@@@3@@std@@QAE?AViterator@12@V312@@Z ; std::list<std::list<MusicItem *,std::allocator<MusicItem *> >::iterator,std::allocator<std::list<MusicItem *,std::allocator<MusicItem *> >::iterator> >::erase
PUBLIC	?_Buynode@?$list@Viterator@?$list@PAVMusicItem@@V?$allocator@PAVMusicItem@@@std@@@std@@V?$allocator@Viterator@?$list@PAVMusicItem@@V?$allocator@PAVMusicItem@@@std@@@std@@@3@@std@@IAEPAU_Node@?$_List_nod@Viterator@?$list@PAVMusicItem@@V?$allocator@PAVMusicItem@@@std@@@std@@V?$allocator@Viterator@?$list@PAVMusicItem@@V?$allocator@PAVMusicItem@@@std@@@std@@@3@@2@XZ ; std::list<std::list<MusicItem *,std::allocator<MusicItem *> >::iterator,std::allocator<std::list<MusicItem *,std::allocator<MusicItem *> >::iterator> >::_Buynode
PUBLIC	?_Tidy@?$list@Viterator@?$list@PAVMusicItem@@V?$allocator@PAVMusicItem@@@std@@@std@@V?$allocator@Viterator@?$list@PAVMusicItem@@V?$allocator@PAVMusicItem@@@std@@@std@@@3@@std@@IAEXXZ ; std::list<std::list<MusicItem *,std::allocator<MusicItem *> >::iterator,std::allocator<std::list<MusicItem *,std::allocator<MusicItem *> >::iterator> >::_Tidy
PUBLIC	??0?$_List_val@Viterator@?$list@PAVMusicItem@@V?$allocator@PAVMusicItem@@@std@@@std@@V?$allocator@Viterator@?$list@PAVMusicItem@@V?$allocator@PAVMusicItem@@@std@@@std@@@3@@std@@IAE@V?$allocator@Viterator@?$list@PAVMusicItem@@V?$allocator@PAVMusicItem@@@std@@@std@@@1@@Z ; std::_List_val<std::list<MusicItem *,std::allocator<MusicItem *> >::iterator,std::allocator<std::list<MusicItem *,std::allocator<MusicItem *> >::iterator> >::_List_val<std::list<MusicItem *,std::allocator<MusicItem *> >::iterator,std::allocator<std::list<MusicItem *,std::allocator<MusicItem *> >::iterator> >
PUBLIC	??0?$allocator@Viterator@?$list@PAVMusicItem@@V?$allocator@PAVMusicItem@@@std@@@std@@@std@@QAE@XZ ; std::allocator<std::list<MusicItem *,std::allocator<MusicItem *> >::iterator>::allocator<std::list<MusicItem *,std::allocator<MusicItem *> >::iterator>
PUBLIC	??0iterator@?$list@IV?$allocator@I@std@@@std@@QAE@PAU_Node@?$_List_nod@IV?$allocator@I@std@@@2@@Z ; std::list<unsigned int,std::allocator<unsigned int> >::iterator::iterator
PUBLIC	??Fiterator@?$list@IV?$allocator@I@std@@@std@@QAEAAV012@XZ ; std::list<unsigned int,std::allocator<unsigned int> >::iterator::operator--
PUBLIC	??0const_iterator@?$list@IV?$allocator@I@std@@@std@@QAE@XZ ; std::list<unsigned int,std::allocator<unsigned int> >::const_iterator::const_iterator
PUBLIC	??Dconst_iterator@?$list@IV?$allocator@I@std@@@std@@QBEABIXZ ; std::list<unsigned int,std::allocator<unsigned int> >::const_iterator::operator*
PUBLIC	??0iterator@?$list@Viterator@?$list@PAVMusicItem@@V?$allocator@PAVMusicItem@@@std@@@std@@V?$allocator@Viterator@?$list@PAVMusicItem@@V?$allocator@PAVMusicItem@@@std@@@std@@@3@@std@@QAE@PAU_Node@?$_List_nod@Viterator@?$list@PAVMusicItem@@V?$allocator@PAVMusicItem@@@std@@@std@@V?$allocator@Viterator@?$list@PAVMusicItem@@V?$allocator@PAVMusicItem@@@std@@@std@@@3@@2@@Z ; std::list<std::list<MusicItem *,std::allocator<MusicItem *> >::iterator,std::allocator<std::list<MusicItem *,std::allocator<MusicItem *> >::iterator> >::iterator::iterator
PUBLIC	??Fiterator@?$list@Viterator@?$list@PAVMusicItem@@V?$allocator@PAVMusicItem@@@std@@@std@@V?$allocator@Viterator@?$list@PAVMusicItem@@V?$allocator@PAVMusicItem@@@std@@@std@@@3@@std@@QAEAAV012@XZ ; std::list<std::list<MusicItem *,std::allocator<MusicItem *> >::iterator,std::allocator<std::list<MusicItem *,std::allocator<MusicItem *> >::iterator> >::iterator::operator--
PUBLIC	??0const_iterator@?$list@Viterator@?$list@PAVMusicItem@@V?$allocator@PAVMusicItem@@@std@@@std@@V?$allocator@Viterator@?$list@PAVMusicItem@@V?$allocator@PAVMusicItem@@@std@@@std@@@3@@std@@QAE@XZ ; std::list<std::list<MusicItem *,std::allocator<MusicItem *> >::iterator,std::allocator<std::list<MusicItem *,std::allocator<MusicItem *> >::iterator> >::const_iterator::const_iterator
PUBLIC	??Dconst_iterator@?$list@Viterator@?$list@PAVMusicItem@@V?$allocator@PAVMusicItem@@@std@@@std@@V?$allocator@Viterator@?$list@PAVMusicItem@@V?$allocator@PAVMusicItem@@@std@@@std@@@3@@std@@QBEABViterator@?$list@PAVMusicItem@@V?$allocator@PAVMusicItem@@@std@@@2@XZ ; std::list<std::list<MusicItem *,std::allocator<MusicItem *> >::iterator,std::allocator<std::list<MusicItem *,std::allocator<MusicItem *> >::iterator> >::const_iterator::operator*
PUBLIC	?capacity@?$vector@PAVmml_Address@@V?$allocator@PAVmml_Address@@@std@@@std@@QBEIXZ ; std::vector<mml_Address *,std::allocator<mml_Address *> >::capacity
PUBLIC	?size@?$vector@PAVmml_Address@@V?$allocator@PAVmml_Address@@@std@@@std@@QBEIXZ ; std::vector<mml_Address *,std::allocator<mml_Address *> >::size
PUBLIC	?insert@?$vector@PAVmml_Address@@V?$allocator@PAVmml_Address@@@std@@@std@@QAE?AViterator@12@V312@ABQAVmml_Address@@@Z ; std::vector<mml_Address *,std::allocator<mml_Address *> >::insert
PUBLIC	?_Buy@?$vector@PAVmml_Address@@V?$allocator@PAVmml_Address@@@std@@@std@@IAE_NI@Z ; std::vector<mml_Address *,std::allocator<mml_Address *> >::_Buy
PUBLIC	?_Tidy@?$vector@PAVmml_Address@@V?$allocator@PAVmml_Address@@@std@@@std@@IAEXXZ ; std::vector<mml_Address *,std::allocator<mml_Address *> >::_Tidy
PUBLIC	?_Ufill@?$vector@PAVmml_Address@@V?$allocator@PAVmml_Address@@@std@@@std@@IAEPAPAVmml_Address@@PAPAV3@IABQAV3@@Z ; std::vector<mml_Address *,std::allocator<mml_Address *> >::_Ufill
PUBLIC	??0?$_Vector_val@PAVmml_Address@@V?$allocator@PAVmml_Address@@@std@@@std@@IAE@V?$allocator@PAVmml_Address@@@1@@Z ; std::_Vector_val<mml_Address *,std::allocator<mml_Address *> >::_Vector_val<mml_Address *,std::allocator<mml_Address *> >
PUBLIC	??0?$allocator@PAVmml_Address@@@std@@QAE@XZ	; std::allocator<mml_Address *>::allocator<mml_Address *>
PUBLIC	?_Key@?$_Tree@V?$_Tmap_traits@IPAVPatch@@U?$less@I@std@@V?$allocator@U?$pair@$$CBIPAVPatch@@@std@@@3@$0A@@std@@@std@@KAABIPAU_Node@?$_Tree_nod@V?$_Tmap_traits@IPAVPatch@@U?$less@I@std@@V?$allocator@U?$pair@$$CBIPAVPatch@@@std@@@3@$0A@@std@@@2@@Z ; std::_Tree<std::_Tmap_traits<unsigned int,Patch *,std::less<unsigned int>,std::allocator<std::pair<unsigned int const ,Patch *> >,0> >::_Key
PUBLIC	?end@?$_Tree@V?$_Tmap_traits@IPAVPatch@@U?$less@I@std@@V?$allocator@U?$pair@$$CBIPAVPatch@@@std@@@3@$0A@@std@@@std@@QAE?AViterator@12@XZ ; std::_Tree<std::_Tmap_traits<unsigned int,Patch *,std::less<unsigned int>,std::allocator<std::pair<unsigned int const ,Patch *> >,0> >::end
PUBLIC	?insert@?$_Tree@V?$_Tmap_traits@IPAVPatch@@U?$less@I@std@@V?$allocator@U?$pair@$$CBIPAVPatch@@@std@@@3@$0A@@std@@@std@@QAE?AViterator@12@V312@ABU?$pair@$$CBIPAVPatch@@@2@@Z ; std::_Tree<std::_Tmap_traits<unsigned int,Patch *,std::less<unsigned int>,std::allocator<std::pair<unsigned int const ,Patch *> >,0> >::insert
PUBLIC	?lower_bound@?$_Tree@V?$_Tmap_traits@IPAVPatch@@U?$less@I@std@@V?$allocator@U?$pair@$$CBIPAVPatch@@@std@@@3@$0A@@std@@@std@@QAE?AViterator@12@ABI@Z ; std::_Tree<std::_Tmap_traits<unsigned int,Patch *,std::less<unsigned int>,std::allocator<std::pair<unsigned int const ,Patch *> >,0> >::lower_bound
PUBLIC	??Fiterator@?$list@PAVMusicItem@@V?$allocator@PAVMusicItem@@@std@@@std@@QAEAAV012@XZ ; std::list<MusicItem *,std::allocator<MusicItem *> >::iterator::operator--
PUBLIC	??0iterator@?$vector@PAVmml_Address@@V?$allocator@PAVmml_Address@@@std@@@std@@QAE@PAPAVmml_Address@@@Z ; std::vector<mml_Address *,std::allocator<mml_Address *> >::iterator::iterator
PUBLIC	??Eiterator@?$vector@PAVmml_Address@@V?$allocator@PAVmml_Address@@@std@@@std@@QAEAAV012@XZ ; std::vector<mml_Address *,std::allocator<mml_Address *> >::iterator::operator++
PUBLIC	??0const_iterator@?$vector@PAVmml_Address@@V?$allocator@PAVmml_Address@@@std@@@std@@QAE@XZ ; std::vector<mml_Address *,std::allocator<mml_Address *> >::const_iterator::const_iterator
PUBLIC	??Dconst_iterator@?$vector@PAVmml_Address@@V?$allocator@PAVmml_Address@@@std@@@std@@QBEABQAVmml_Address@@XZ ; std::vector<mml_Address *,std::allocator<mml_Address *> >::const_iterator::operator*
PUBLIC	??8const_iterator@?$vector@PAVmml_Address@@V?$allocator@PAVmml_Address@@@std@@@std@@QBE_NABV012@@Z ; std::vector<mml_Address *,std::allocator<mml_Address *> >::const_iterator::operator==
PUBLIC	??Diterator@?$_Tree@V?$_Tmap_traits@IPAVPatch@@U?$less@I@std@@V?$allocator@U?$pair@$$CBIPAVPatch@@@std@@@3@$0A@@std@@@std@@QBEAAU?$pair@$$CBIPAVPatch@@@2@XZ ; std::_Tree<std::_Tmap_traits<unsigned int,Patch *,std::less<unsigned int>,std::allocator<std::pair<unsigned int const ,Patch *> >,0> >::iterator::operator*
PUBLIC	??8const_iterator@?$_Tree@V?$_Tmap_traits@IPAVPatch@@U?$less@I@std@@V?$allocator@U?$pair@$$CBIPAVPatch@@@std@@@3@$0A@@std@@@std@@QBE_NABV012@@Z ; std::_Tree<std::_Tmap_traits<unsigned int,Patch *,std::less<unsigned int>,std::allocator<std::pair<unsigned int const ,Patch *> >,0> >::const_iterator::operator==
PUBLIC	?_Mynode@const_iterator@?$_Tree@V?$_Tmap_traits@IPAVPatch@@U?$less@I@std@@V?$allocator@U?$pair@$$CBIPAVPatch@@@std@@@3@$0A@@std@@@std@@QBEPAU_Node@?$_Tree_nod@V?$_Tmap_traits@IPAVPatch@@U?$less@I@std@@V?$allocator@U?$pair@$$CBIPAVPatch@@@std@@@3@$0A@@std@@@3@XZ ; std::_Tree<std::_Tmap_traits<unsigned int,Patch *,std::less<unsigned int>,std::allocator<std::pair<unsigned int const ,Patch *> >,0> >::const_iterator::_Mynode
PUBLIC	??0?$pair@$$CBIPAVPatch@@@std@@QAE@ABIABQAVPatch@@@Z ; std::pair<unsigned int const ,Patch *>::pair<unsigned int const ,Patch *>
PUBLIC	??0?$allocator@H@std@@QAE@ABV01@@Z		; std::allocator<int>::allocator<int>
PUBLIC	?deallocate@?$allocator@H@std@@QAEXPAHI@Z	; std::allocator<int>::deallocate
PUBLIC	?allocate@?$allocator@H@std@@QAEPAHI@Z		; std::allocator<int>::allocate
PUBLIC	??0?$allocator@I@std@@QAE@ABV01@@Z		; std::allocator<unsigned int>::allocator<unsigned int>
PUBLIC	?begin@?$vector@HV?$allocator@H@std@@@std@@QAE?AViterator@12@XZ ; std::vector<int,std::allocator<int> >::begin
PUBLIC	?max_size@?$vector@HV?$allocator@H@std@@@std@@QBEIXZ ; std::vector<int,std::allocator<int> >::max_size
PUBLIC	?_Insert_n@?$vector@HV?$allocator@H@std@@@std@@IAEXViterator@12@IABH@Z ; std::vector<int,std::allocator<int> >::_Insert_n
PUBLIC	?_Xlen@?$vector@HV?$allocator@H@std@@@std@@IBEXXZ ; std::vector<int,std::allocator<int> >::_Xlen
PUBLIC	??Hiterator@?$vector@HV?$allocator@H@std@@@std@@QBE?AV012@H@Z ; std::vector<int,std::allocator<int> >::iterator::operator+
PUBLIC	??Giterator@?$vector@HV?$allocator@H@std@@@std@@QBEHABVconst_iterator@12@@Z ; std::vector<int,std::allocator<int> >::iterator::operator-
PUBLIC	??0const_iterator@?$vector@HV?$allocator@H@std@@@std@@QAE@PAH@Z ; std::vector<int,std::allocator<int> >::const_iterator::const_iterator
PUBLIC	?_Nextnode@?$list@IV?$allocator@I@std@@@std@@KAAAPAU_Node@?$_List_nod@IV?$allocator@I@std@@@2@PAU342@@Z ; std::list<unsigned int,std::allocator<unsigned int> >::_Nextnode
PUBLIC	?_Prevnode@?$list@IV?$allocator@I@std@@@std@@KAAAPAU_Node@?$_List_nod@IV?$allocator@I@std@@@2@PAU342@@Z ; std::list<unsigned int,std::allocator<unsigned int> >::_Prevnode
PUBLIC	?_Myval@?$list@IV?$allocator@I@std@@@std@@KAAAIPAU_Node@?$_List_nod@IV?$allocator@I@std@@@2@@Z ; std::list<unsigned int,std::allocator<unsigned int> >::_Myval
PUBLIC	?clear@?$list@IV?$allocator@I@std@@@std@@QAEXXZ	; std::list<unsigned int,std::allocator<unsigned int> >::clear
PUBLIC	?_Buynode@?$list@IV?$allocator@I@std@@@std@@IAEPAU_Node@?$_List_nod@IV?$allocator@I@std@@@2@PAU342@0ABI@Z ; std::list<unsigned int,std::allocator<unsigned int> >::_Buynode
PUBLIC	?_Incsize@?$list@IV?$allocator@I@std@@@std@@IAEXI@Z ; std::list<unsigned int,std::allocator<unsigned int> >::_Incsize
PUBLIC	??0?$_List_ptr@IV?$allocator@I@std@@@std@@IAE@V?$allocator@I@1@@Z ; std::_List_ptr<unsigned int,std::allocator<unsigned int> >::_List_ptr<unsigned int,std::allocator<unsigned int> >
PUBLIC	?deallocate@?$allocator@U_Node@?$_List_nod@IV?$allocator@I@std@@@std@@@std@@QAEXPAU_Node@?$_List_nod@IV?$allocator@I@std@@@2@I@Z ; std::allocator<std::_List_nod<unsigned int,std::allocator<unsigned int> >::_Node>::deallocate
PUBLIC	?allocate@?$allocator@U_Node@?$_List_nod@IV?$allocator@I@std@@@std@@@std@@QAEPAU_Node@?$_List_nod@IV?$allocator@I@std@@@2@I@Z ; std::allocator<std::_List_nod<unsigned int,std::allocator<unsigned int> >::_Node>::allocate
PUBLIC	?destroy@?$allocator@U_Node@?$_List_nod@IV?$allocator@I@std@@@std@@@std@@QAEXPAU_Node@?$_List_nod@IV?$allocator@I@std@@@2@@Z ; std::allocator<std::_List_nod<unsigned int,std::allocator<unsigned int> >::_Node>::destroy
PUBLIC	?construct@?$allocator@PAU_Node@?$_List_nod@IV?$allocator@I@std@@@std@@@std@@QAEXPAPAU_Node@?$_List_nod@IV?$allocator@I@std@@@2@ABQAU342@@Z ; std::allocator<std::_List_nod<unsigned int,std::allocator<unsigned int> >::_Node *>::construct
PUBLIC	?destroy@?$allocator@PAU_Node@?$_List_nod@IV?$allocator@I@std@@@std@@@std@@QAEXPAPAU_Node@?$_List_nod@IV?$allocator@I@std@@@2@@Z ; std::allocator<std::_List_nod<unsigned int,std::allocator<unsigned int> >::_Node *>::destroy
PUBLIC	?_Nextnode@?$list@Viterator@?$list@PAVMusicItem@@V?$allocator@PAVMusicItem@@@std@@@std@@V?$allocator@Viterator@?$list@PAVMusicItem@@V?$allocator@PAVMusicItem@@@std@@@std@@@3@@std@@KAAAPAU_Node@?$_List_nod@Viterator@?$list@PAVMusicItem@@V?$allocator@PAVMusicItem@@@std@@@std@@V?$allocator@Viterator@?$list@PAVMusicItem@@V?$allocator@PAVMusicItem@@@std@@@std@@@3@@2@PAU342@@Z ; std::list<std::list<MusicItem *,std::allocator<MusicItem *> >::iterator,std::allocator<std::list<MusicItem *,std::allocator<MusicItem *> >::iterator> >::_Nextnode
PUBLIC	?_Prevnode@?$list@Viterator@?$list@PAVMusicItem@@V?$allocator@PAVMusicItem@@@std@@@std@@V?$allocator@Viterator@?$list@PAVMusicItem@@V?$allocator@PAVMusicItem@@@std@@@std@@@3@@std@@KAAAPAU_Node@?$_List_nod@Viterator@?$list@PAVMusicItem@@V?$allocator@PAVMusicItem@@@std@@@std@@V?$allocator@Viterator@?$list@PAVMusicItem@@V?$allocator@PAVMusicItem@@@std@@@std@@@3@@2@PAU342@@Z ; std::list<std::list<MusicItem *,std::allocator<MusicItem *> >::iterator,std::allocator<std::list<MusicItem *,std::allocator<MusicItem *> >::iterator> >::_Prevnode
PUBLIC	?_Myval@?$list@Viterator@?$list@PAVMusicItem@@V?$allocator@PAVMusicItem@@@std@@@std@@V?$allocator@Viterator@?$list@PAVMusicItem@@V?$allocator@PAVMusicItem@@@std@@@std@@@3@@std@@KAAAViterator@?$list@PAVMusicItem@@V?$allocator@PAVMusicItem@@@std@@@2@PAU_Node@?$_List_nod@Viterator@?$list@PAVMusicItem@@V?$allocator@PAVMusicItem@@@std@@@std@@V?$allocator@Viterator@?$list@PAVMusicItem@@V?$allocator@PAVMusicItem@@@std@@@std@@@3@@2@@Z ; std::list<std::list<MusicItem *,std::allocator<MusicItem *> >::iterator,std::allocator<std::list<MusicItem *,std::allocator<MusicItem *> >::iterator> >::_Myval
PUBLIC	?clear@?$list@Viterator@?$list@PAVMusicItem@@V?$allocator@PAVMusicItem@@@std@@@std@@V?$allocator@Viterator@?$list@PAVMusicItem@@V?$allocator@PAVMusicItem@@@std@@@std@@@3@@std@@QAEXXZ ; std::list<std::list<MusicItem *,std::allocator<MusicItem *> >::iterator,std::allocator<std::list<MusicItem *,std::allocator<MusicItem *> >::iterator> >::clear
PUBLIC	?_Buynode@?$list@Viterator@?$list@PAVMusicItem@@V?$allocator@PAVMusicItem@@@std@@@std@@V?$allocator@Viterator@?$list@PAVMusicItem@@V?$allocator@PAVMusicItem@@@std@@@std@@@3@@std@@IAEPAU_Node@?$_List_nod@Viterator@?$list@PAVMusicItem@@V?$allocator@PAVMusicItem@@@std@@@std@@V?$allocator@Viterator@?$list@PAVMusicItem@@V?$allocator@PAVMusicItem@@@std@@@std@@@3@@2@PAU342@0ABViterator@?$list@PAVMusicItem@@V?$allocator@PAVMusicItem@@@std@@@2@@Z ; std::list<std::list<MusicItem *,std::allocator<MusicItem *> >::iterator,std::allocator<std::list<MusicItem *,std::allocator<MusicItem *> >::iterator> >::_Buynode
PUBLIC	?_Incsize@?$list@Viterator@?$list@PAVMusicItem@@V?$allocator@PAVMusicItem@@@std@@@std@@V?$allocator@Viterator@?$list@PAVMusicItem@@V?$allocator@PAVMusicItem@@@std@@@std@@@3@@std@@IAEXI@Z ; std::list<std::list<MusicItem *,std::allocator<MusicItem *> >::iterator,std::allocator<std::list<MusicItem *,std::allocator<MusicItem *> >::iterator> >::_Incsize
PUBLIC	??0?$_List_ptr@Viterator@?$list@PAVMusicItem@@V?$allocator@PAVMusicItem@@@std@@@std@@V?$allocator@Viterator@?$list@PAVMusicItem@@V?$allocator@PAVMusicItem@@@std@@@std@@@3@@std@@IAE@V?$allocator@Viterator@?$list@PAVMusicItem@@V?$allocator@PAVMusicItem@@@std@@@std@@@1@@Z ; std::_List_ptr<std::list<MusicItem *,std::allocator<MusicItem *> >::iterator,std::allocator<std::list<MusicItem *,std::allocator<MusicItem *> >::iterator> >::_List_ptr<std::list<MusicItem *,std::allocator<MusicItem *> >::iterator,std::allocator<std::list<MusicItem *,std::allocator<MusicItem *> >::iterator> >
PUBLIC	??0?$allocator@Viterator@?$list@PAVMusicItem@@V?$allocator@PAVMusicItem@@@std@@@std@@@std@@QAE@ABV01@@Z ; std::allocator<std::list<MusicItem *,std::allocator<MusicItem *> >::iterator>::allocator<std::list<MusicItem *,std::allocator<MusicItem *> >::iterator>
PUBLIC	?deallocate@?$allocator@U_Node@?$_List_nod@Viterator@?$list@PAVMusicItem@@V?$allocator@PAVMusicItem@@@std@@@std@@V?$allocator@Viterator@?$list@PAVMusicItem@@V?$allocator@PAVMusicItem@@@std@@@std@@@3@@std@@@std@@QAEXPAU_Node@?$_List_nod@Viterator@?$list@PAVMusicItem@@V?$allocator@PAVMusicItem@@@std@@@std@@V?$allocator@Viterator@?$list@PAVMusicItem@@V?$allocator@PAVMusicItem@@@std@@@std@@@3@@2@I@Z ; std::allocator<std::_List_nod<std::list<MusicItem *,std::allocator<MusicItem *> >::iterator,std::allocator<std::list<MusicItem *,std::allocator<MusicItem *> >::iterator> >::_Node>::deallocate
PUBLIC	?allocate@?$allocator@U_Node@?$_List_nod@Viterator@?$list@PAVMusicItem@@V?$allocator@PAVMusicItem@@@std@@@std@@V?$allocator@Viterator@?$list@PAVMusicItem@@V?$allocator@PAVMusicItem@@@std@@@std@@@3@@std@@@std@@QAEPAU_Node@?$_List_nod@Viterator@?$list@PAVMusicItem@@V?$allocator@PAVMusicItem@@@std@@@std@@V?$allocator@Viterator@?$list@PAVMusicItem@@V?$allocator@PAVMusicItem@@@std@@@std@@@3@@2@I@Z ; std::allocator<std::_List_nod<std::list<MusicItem *,std::allocator<MusicItem *> >::iterator,std::allocator<std::list<MusicItem *,std::allocator<MusicItem *> >::iterator> >::_Node>::allocate
PUBLIC	?destroy@?$allocator@U_Node@?$_List_nod@Viterator@?$list@PAVMusicItem@@V?$allocator@PAVMusicItem@@@std@@@std@@V?$allocator@Viterator@?$list@PAVMusicItem@@V?$allocator@PAVMusicItem@@@std@@@std@@@3@@std@@@std@@QAEXPAU_Node@?$_List_nod@Viterator@?$list@PAVMusicItem@@V?$allocator@PAVMusicItem@@@std@@@std@@V?$allocator@Viterator@?$list@PAVMusicItem@@V?$allocator@PAVMusicItem@@@std@@@std@@@3@@2@@Z ; std::allocator<std::_List_nod<std::list<MusicItem *,std::allocator<MusicItem *> >::iterator,std::allocator<std::list<MusicItem *,std::allocator<MusicItem *> >::iterator> >::_Node>::destroy
PUBLIC	?construct@?$allocator@PAU_Node@?$_List_nod@Viterator@?$list@PAVMusicItem@@V?$allocator@PAVMusicItem@@@std@@@std@@V?$allocator@Viterator@?$list@PAVMusicItem@@V?$allocator@PAVMusicItem@@@std@@@std@@@3@@std@@@std@@QAEXPAPAU_Node@?$_List_nod@Viterator@?$list@PAVMusicItem@@V?$allocator@PAVMusicItem@@@std@@@std@@V?$allocator@Viterator@?$list@PAVMusicItem@@V?$allocator@PAVMusicItem@@@std@@@std@@@3@@2@ABQAU342@@Z ; std::allocator<std::_List_nod<std::list<MusicItem *,std::allocator<MusicItem *> >::iterator,std::allocator<std::list<MusicItem *,std::allocator<MusicItem *> >::iterator> >::_Node *>::construct
PUBLIC	?destroy@?$allocator@PAU_Node@?$_List_nod@Viterator@?$list@PAVMusicItem@@V?$allocator@PAVMusicItem@@@std@@@std@@V?$allocator@Viterator@?$list@PAVMusicItem@@V?$allocator@PAVMusicItem@@@std@@@std@@@3@@std@@@std@@QAEXPAPAU_Node@?$_List_nod@Viterator@?$list@PAVMusicItem@@V?$allocator@PAVMusicItem@@@std@@@std@@V?$allocator@Viterator@?$list@PAVMusicItem@@V?$allocator@PAVMusicItem@@@std@@@std@@@3@@2@@Z ; std::allocator<std::_List_nod<std::list<MusicItem *,std::allocator<MusicItem *> >::iterator,std::allocator<std::list<MusicItem *,std::allocator<MusicItem *> >::iterator> >::_Node *>::destroy
PUBLIC	??Eiterator@?$list@IV?$allocator@I@std@@@std@@QAE?AV012@H@Z ; std::list<unsigned int,std::allocator<unsigned int> >::iterator::operator++
PUBLIC	??0const_iterator@?$list@IV?$allocator@I@std@@@std@@QAE@PAU_Node@?$_List_nod@IV?$allocator@I@std@@@2@@Z ; std::list<unsigned int,std::allocator<unsigned int> >::const_iterator::const_iterator
PUBLIC	??Fconst_iterator@?$list@IV?$allocator@I@std@@@std@@QAEAAV012@XZ ; std::list<unsigned int,std::allocator<unsigned int> >::const_iterator::operator--
PUBLIC	?_Mynode@const_iterator@?$list@IV?$allocator@I@std@@@std@@QBEPAU_Node@?$_List_nod@IV?$allocator@I@std@@@3@XZ ; std::list<unsigned int,std::allocator<unsigned int> >::const_iterator::_Mynode
PUBLIC	??Eiterator@?$list@Viterator@?$list@PAVMusicItem@@V?$allocator@PAVMusicItem@@@std@@@std@@V?$allocator@Viterator@?$list@PAVMusicItem@@V?$allocator@PAVMusicItem@@@std@@@std@@@3@@std@@QAE?AV012@H@Z ; std::list<std::list<MusicItem *,std::allocator<MusicItem *> >::iterator,std::allocator<std::list<MusicItem *,std::allocator<MusicItem *> >::iterator> >::iterator::operator++
PUBLIC	??0const_iterator@?$list@Viterator@?$list@PAVMusicItem@@V?$allocator@PAVMusicItem@@@std@@@std@@V?$allocator@Viterator@?$list@PAVMusicItem@@V?$allocator@PAVMusicItem@@@std@@@std@@@3@@std@@QAE@PAU_Node@?$_List_nod@Viterator@?$list@PAVMusicItem@@V?$allocator@PAVMusicItem@@@std@@@std@@V?$allocator@Viterator@?$list@PAVMusicItem@@V?$allocator@PAVMusicItem@@@std@@@std@@@3@@2@@Z ; std::list<std::list<MusicItem *,std::allocator<MusicItem *> >::iterator,std::allocator<std::list<MusicItem *,std::allocator<MusicItem *> >::iterator> >::const_iterator::const_iterator
PUBLIC	??Fconst_iterator@?$list@Viterator@?$list@PAVMusicItem@@V?$allocator@PAVMusicItem@@@std@@@std@@V?$allocator@Viterator@?$list@PAVMusicItem@@V?$allocator@PAVMusicItem@@@std@@@std@@@3@@std@@QAEAAV012@XZ ; std::list<std::list<MusicItem *,std::allocator<MusicItem *> >::iterator,std::allocator<std::list<MusicItem *,std::allocator<MusicItem *> >::iterator> >::const_iterator::operator--
PUBLIC	?_Mynode@const_iterator@?$list@Viterator@?$list@PAVMusicItem@@V?$allocator@PAVMusicItem@@@std@@@std@@V?$allocator@Viterator@?$list@PAVMusicItem@@V?$allocator@PAVMusicItem@@@std@@@std@@@3@@std@@QBEPAU_Node@?$_List_nod@Viterator@?$list@PAVMusicItem@@V?$allocator@PAVMusicItem@@@std@@@std@@V?$allocator@Viterator@?$list@PAVMusicItem@@V?$allocator@PAVMusicItem@@@std@@@std@@@3@@3@XZ ; std::list<std::list<MusicItem *,std::allocator<MusicItem *> >::iterator,std::allocator<std::list<MusicItem *,std::allocator<MusicItem *> >::iterator> >::const_iterator::_Mynode
PUBLIC	?max_size@?$vector@PAVmml_Address@@V?$allocator@PAVmml_Address@@@std@@@std@@QBEIXZ ; std::vector<mml_Address *,std::allocator<mml_Address *> >::max_size
PUBLIC	?_Destroy@?$vector@PAVmml_Address@@V?$allocator@PAVmml_Address@@@std@@@std@@IAEXPAPAVmml_Address@@0@Z ; std::vector<mml_Address *,std::allocator<mml_Address *> >::_Destroy
PUBLIC	?_Insert_n@?$vector@PAVmml_Address@@V?$allocator@PAVmml_Address@@@std@@@std@@IAEXViterator@12@IABQAVmml_Address@@@Z ; std::vector<mml_Address *,std::allocator<mml_Address *> >::_Insert_n
PUBLIC	?_Xlen@?$vector@PAVmml_Address@@V?$allocator@PAVmml_Address@@@std@@@std@@IBEXXZ ; std::vector<mml_Address *,std::allocator<mml_Address *> >::_Xlen
PUBLIC	??0?$allocator@PAVmml_Address@@@std@@QAE@ABV01@@Z ; std::allocator<mml_Address *>::allocator<mml_Address *>
PUBLIC	?deallocate@?$allocator@PAVmml_Address@@@std@@QAEXPAPAVmml_Address@@I@Z ; std::allocator<mml_Address *>::deallocate
PUBLIC	?allocate@?$allocator@PAVmml_Address@@@std@@QAEPAPAVmml_Address@@I@Z ; std::allocator<mml_Address *>::allocate
PUBLIC	?_Isnil@?$_Tree@V?$_Tmap_traits@IPAVPatch@@U?$less@I@std@@V?$allocator@U?$pair@$$CBIPAVPatch@@@std@@@3@$0A@@std@@@std@@KAAADPAU_Node@?$_Tree_nod@V?$_Tmap_traits@IPAVPatch@@U?$less@I@std@@V?$allocator@U?$pair@$$CBIPAVPatch@@@std@@@3@$0A@@std@@@2@@Z ; std::_Tree<std::_Tmap_traits<unsigned int,Patch *,std::less<unsigned int>,std::allocator<std::pair<unsigned int const ,Patch *> >,0> >::_Isnil
PUBLIC	?_Right@?$_Tree@V?$_Tmap_traits@IPAVPatch@@U?$less@I@std@@V?$allocator@U?$pair@$$CBIPAVPatch@@@std@@@3@$0A@@std@@@std@@KAAAPAU_Node@?$_Tree_nod@V?$_Tmap_traits@IPAVPatch@@U?$less@I@std@@V?$allocator@U?$pair@$$CBIPAVPatch@@@std@@@3@$0A@@std@@@2@PAU342@@Z ; std::_Tree<std::_Tmap_traits<unsigned int,Patch *,std::less<unsigned int>,std::allocator<std::pair<unsigned int const ,Patch *> >,0> >::_Right
PUBLIC	?_Myval@?$_Tree@V?$_Tmap_traits@IPAVPatch@@U?$less@I@std@@V?$allocator@U?$pair@$$CBIPAVPatch@@@std@@@3@$0A@@std@@@std@@KAAAU?$pair@$$CBIPAVPatch@@@2@PAU_Node@?$_Tree_nod@V?$_Tmap_traits@IPAVPatch@@U?$less@I@std@@V?$allocator@U?$pair@$$CBIPAVPatch@@@std@@@3@$0A@@std@@@2@@Z ; std::_Tree<std::_Tmap_traits<unsigned int,Patch *,std::less<unsigned int>,std::allocator<std::pair<unsigned int const ,Patch *> >,0> >::_Myval
PUBLIC	?begin@?$_Tree@V?$_Tmap_traits@IPAVPatch@@U?$less@I@std@@V?$allocator@U?$pair@$$CBIPAVPatch@@@std@@@3@$0A@@std@@@std@@QAE?AViterator@12@XZ ; std::_Tree<std::_Tmap_traits<unsigned int,Patch *,std::less<unsigned int>,std::allocator<std::pair<unsigned int const ,Patch *> >,0> >::begin
PUBLIC	?size@?$_Tree@V?$_Tmap_traits@IPAVPatch@@U?$less@I@std@@V?$allocator@U?$pair@$$CBIPAVPatch@@@std@@@3@$0A@@std@@@std@@QBEIXZ ; std::_Tree<std::_Tmap_traits<unsigned int,Patch *,std::less<unsigned int>,std::allocator<std::pair<unsigned int const ,Patch *> >,0> >::size
PUBLIC	?insert@?$_Tree@V?$_Tmap_traits@IPAVPatch@@U?$less@I@std@@V?$allocator@U?$pair@$$CBIPAVPatch@@@std@@@3@$0A@@std@@@std@@QAE?AU?$pair@Viterator@?$_Tree@V?$_Tmap_traits@IPAVPatch@@U?$less@I@std@@V?$allocator@U?$pair@$$CBIPAVPatch@@@std@@@3@$0A@@std@@@std@@_N@2@ABU?$pair@$$CBIPAVPatch@@@2@@Z ; std::_Tree<std::_Tmap_traits<unsigned int,Patch *,std::less<unsigned int>,std::allocator<std::pair<unsigned int const ,Patch *> >,0> >::insert
PUBLIC	?_Insert@?$_Tree@V?$_Tmap_traits@IPAVPatch@@U?$less@I@std@@V?$allocator@U?$pair@$$CBIPAVPatch@@@std@@@3@$0A@@std@@@std@@IAE?AViterator@12@_NPAU_Node@?$_Tree_nod@V?$_Tmap_traits@IPAVPatch@@U?$less@I@std@@V?$allocator@U?$pair@$$CBIPAVPatch@@@std@@@3@$0A@@std@@@2@ABU?$pair@$$CBIPAVPatch@@@2@@Z ; std::_Tree<std::_Tmap_traits<unsigned int,Patch *,std::less<unsigned int>,std::allocator<std::pair<unsigned int const ,Patch *> >,0> >::_Insert
PUBLIC	?_Lbound@?$_Tree@V?$_Tmap_traits@IPAVPatch@@U?$less@I@std@@V?$allocator@U?$pair@$$CBIPAVPatch@@@std@@@3@$0A@@std@@@std@@IBEPAU_Node@?$_Tree_nod@V?$_Tmap_traits@IPAVPatch@@U?$less@I@std@@V?$allocator@U?$pair@$$CBIPAVPatch@@@std@@@3@$0A@@std@@@2@ABI@Z ; std::_Tree<std::_Tmap_traits<unsigned int,Patch *,std::less<unsigned int>,std::allocator<std::pair<unsigned int const ,Patch *> >,0> >::_Lbound
PUBLIC	?_Rmost@?$_Tree@V?$_Tmap_traits@IPAVPatch@@U?$less@I@std@@V?$allocator@U?$pair@$$CBIPAVPatch@@@std@@@3@$0A@@std@@@std@@IAEAAPAU_Node@?$_Tree_nod@V?$_Tmap_traits@IPAVPatch@@U?$less@I@std@@V?$allocator@U?$pair@$$CBIPAVPatch@@@std@@@3@$0A@@std@@@2@XZ ; std::_Tree<std::_Tmap_traits<unsigned int,Patch *,std::less<unsigned int>,std::allocator<std::pair<unsigned int const ,Patch *> >,0> >::_Rmost
PUBLIC	?_Kfn@?$_Tmap_traits@IPAVPatch@@U?$less@I@std@@V?$allocator@U?$pair@$$CBIPAVPatch@@@std@@@3@$0A@@std@@SAABIABU?$pair@$$CBIPAVPatch@@@2@@Z ; std::_Tmap_traits<unsigned int,Patch *,std::less<unsigned int>,std::allocator<std::pair<unsigned int const ,Patch *> >,0>::_Kfn
PUBLIC	??Fconst_iterator@?$list@PAVMusicItem@@V?$allocator@PAVMusicItem@@@std@@@std@@QAEAAV012@XZ ; std::list<MusicItem *,std::allocator<MusicItem *> >::const_iterator::operator--
PUBLIC	??Hiterator@?$vector@PAVmml_Address@@V?$allocator@PAVmml_Address@@@std@@@std@@QBE?AV012@H@Z ; std::vector<mml_Address *,std::allocator<mml_Address *> >::iterator::operator+
PUBLIC	??Giterator@?$vector@PAVmml_Address@@V?$allocator@PAVmml_Address@@@std@@@std@@QBEHABVconst_iterator@12@@Z ; std::vector<mml_Address *,std::allocator<mml_Address *> >::iterator::operator-
PUBLIC	??0const_iterator@?$vector@PAVmml_Address@@V?$allocator@PAVmml_Address@@@std@@@std@@QAE@PAPAVmml_Address@@@Z ; std::vector<mml_Address *,std::allocator<mml_Address *> >::const_iterator::const_iterator
PUBLIC	??0iterator@?$_Tree@V?$_Tmap_traits@IPAVPatch@@U?$less@I@std@@V?$allocator@U?$pair@$$CBIPAVPatch@@@std@@@3@$0A@@std@@@std@@QAE@XZ ; std::_Tree<std::_Tmap_traits<unsigned int,Patch *,std::less<unsigned int>,std::allocator<std::pair<unsigned int const ,Patch *> >,0> >::iterator::iterator
PUBLIC	??0iterator@?$_Tree@V?$_Tmap_traits@IPAVPatch@@U?$less@I@std@@V?$allocator@U?$pair@$$CBIPAVPatch@@@std@@@3@$0A@@std@@@std@@QAE@PAU_Node@?$_Tree_nod@V?$_Tmap_traits@IPAVPatch@@U?$less@I@std@@V?$allocator@U?$pair@$$CBIPAVPatch@@@std@@@3@$0A@@std@@@2@@Z ; std::_Tree<std::_Tmap_traits<unsigned int,Patch *,std::less<unsigned int>,std::allocator<std::pair<unsigned int const ,Patch *> >,0> >::iterator::iterator
PUBLIC	??Eiterator@?$_Tree@V?$_Tmap_traits@IPAVPatch@@U?$less@I@std@@V?$allocator@U?$pair@$$CBIPAVPatch@@@std@@@3@$0A@@std@@@std@@QAEAAV012@XZ ; std::_Tree<std::_Tmap_traits<unsigned int,Patch *,std::less<unsigned int>,std::allocator<std::pair<unsigned int const ,Patch *> >,0> >::iterator::operator++
PUBLIC	??Fiterator@?$_Tree@V?$_Tmap_traits@IPAVPatch@@U?$less@I@std@@V?$allocator@U?$pair@$$CBIPAVPatch@@@std@@@3@$0A@@std@@@std@@QAEAAV012@XZ ; std::_Tree<std::_Tmap_traits<unsigned int,Patch *,std::less<unsigned int>,std::allocator<std::pair<unsigned int const ,Patch *> >,0> >::iterator::operator--
PUBLIC	??Dconst_iterator@?$_Tree@V?$_Tmap_traits@IPAVPatch@@U?$less@I@std@@V?$allocator@U?$pair@$$CBIPAVPatch@@@std@@@3@$0A@@std@@@std@@QBEABU?$pair@$$CBIPAVPatch@@@2@XZ ; std::_Tree<std::_Tmap_traits<unsigned int,Patch *,std::less<unsigned int>,std::allocator<std::pair<unsigned int const ,Patch *> >,0> >::const_iterator::operator*
PUBLIC	?max_size@?$allocator@H@std@@QBEIXZ		; std::allocator<int>::max_size
PUBLIC	??Yiterator@?$vector@HV?$allocator@H@std@@@std@@QAEAAV012@H@Z ; std::vector<int,std::allocator<int> >::iterator::operator+=
PUBLIC	??Gconst_iterator@?$vector@HV?$allocator@H@std@@@std@@QBEHABV012@@Z ; std::vector<int,std::allocator<int> >::const_iterator::operator-
PUBLIC	?max_size@?$list@IV?$allocator@I@std@@@std@@QBEIXZ ; std::list<unsigned int,std::allocator<unsigned int> >::max_size
PUBLIC	??0?$_List_nod@IV?$allocator@I@std@@@std@@IAE@V?$allocator@I@1@@Z ; std::_List_nod<unsigned int,std::allocator<unsigned int> >::_List_nod<unsigned int,std::allocator<unsigned int> >
PUBLIC	?max_size@?$list@Viterator@?$list@PAVMusicItem@@V?$allocator@PAVMusicItem@@@std@@@std@@V?$allocator@Viterator@?$list@PAVMusicItem@@V?$allocator@PAVMusicItem@@@std@@@std@@@3@@std@@QBEIXZ ; std::list<std::list<MusicItem *,std::allocator<MusicItem *> >::iterator,std::allocator<std::list<MusicItem *,std::allocator<MusicItem *> >::iterator> >::max_size
PUBLIC	??0?$_List_nod@Viterator@?$list@PAVMusicItem@@V?$allocator@PAVMusicItem@@@std@@@std@@V?$allocator@Viterator@?$list@PAVMusicItem@@V?$allocator@PAVMusicItem@@@std@@@std@@@3@@std@@IAE@V?$allocator@Viterator@?$list@PAVMusicItem@@V?$allocator@PAVMusicItem@@@std@@@std@@@1@@Z ; std::_List_nod<std::list<MusicItem *,std::allocator<MusicItem *> >::iterator,std::allocator<std::list<MusicItem *,std::allocator<MusicItem *> >::iterator> >::_List_nod<std::list<MusicItem *,std::allocator<MusicItem *> >::iterator,std::allocator<std::list<MusicItem *,std::allocator<MusicItem *> >::iterator> >
PUBLIC	??Eiterator@?$list@IV?$allocator@I@std@@@std@@QAEAAV012@XZ ; std::list<unsigned int,std::allocator<unsigned int> >::iterator::operator++
PUBLIC	??Eiterator@?$list@Viterator@?$list@PAVMusicItem@@V?$allocator@PAVMusicItem@@@std@@@std@@V?$allocator@Viterator@?$list@PAVMusicItem@@V?$allocator@PAVMusicItem@@@std@@@std@@@3@@std@@QAEAAV012@XZ ; std::list<std::list<MusicItem *,std::allocator<MusicItem *> >::iterator,std::allocator<std::list<MusicItem *,std::allocator<MusicItem *> >::iterator> >::iterator::operator++
PUBLIC	?max_size@?$allocator@PAVmml_Address@@@std@@QBEIXZ ; std::allocator<mml_Address *>::max_size
PUBLIC	?_Color@?$_Tree@V?$_Tmap_traits@IPAVPatch@@U?$less@I@std@@V?$allocator@U?$pair@$$CBIPAVPatch@@@std@@@3@$0A@@std@@@std@@KAAADPAU_Node@?$_Tree_nod@V?$_Tmap_traits@IPAVPatch@@U?$less@I@std@@V?$allocator@U?$pair@$$CBIPAVPatch@@@std@@@3@$0A@@std@@@2@@Z ; std::_Tree<std::_Tmap_traits<unsigned int,Patch *,std::less<unsigned int>,std::allocator<std::pair<unsigned int const ,Patch *> >,0> >::_Color
PUBLIC	?_Left@?$_Tree@V?$_Tmap_traits@IPAVPatch@@U?$less@I@std@@V?$allocator@U?$pair@$$CBIPAVPatch@@@std@@@3@$0A@@std@@@std@@KAAAPAU_Node@?$_Tree_nod@V?$_Tmap_traits@IPAVPatch@@U?$less@I@std@@V?$allocator@U?$pair@$$CBIPAVPatch@@@std@@@3@$0A@@std@@@2@PAU342@@Z ; std::_Tree<std::_Tmap_traits<unsigned int,Patch *,std::less<unsigned int>,std::allocator<std::pair<unsigned int const ,Patch *> >,0> >::_Left
PUBLIC	?_Parent@?$_Tree@V?$_Tmap_traits@IPAVPatch@@U?$less@I@std@@V?$allocator@U?$pair@$$CBIPAVPatch@@@std@@@3@$0A@@std@@@std@@KAAAPAU_Node@?$_Tree_nod@V?$_Tmap_traits@IPAVPatch@@U?$less@I@std@@V?$allocator@U?$pair@$$CBIPAVPatch@@@std@@@3@$0A@@std@@@2@PAU342@@Z ; std::_Tree<std::_Tmap_traits<unsigned int,Patch *,std::less<unsigned int>,std::allocator<std::pair<unsigned int const ,Patch *> >,0> >::_Parent
PUBLIC	?max_size@?$_Tree@V?$_Tmap_traits@IPAVPatch@@U?$less@I@std@@V?$allocator@U?$pair@$$CBIPAVPatch@@@std@@@3@$0A@@std@@@std@@QBEIXZ ; std::_Tree<std::_Tmap_traits<unsigned int,Patch *,std::less<unsigned int>,std::allocator<std::pair<unsigned int const ,Patch *> >,0> >::max_size
PUBLIC	?_Lmost@?$_Tree@V?$_Tmap_traits@IPAVPatch@@U?$less@I@std@@V?$allocator@U?$pair@$$CBIPAVPatch@@@std@@@3@$0A@@std@@@std@@IAEAAPAU_Node@?$_Tree_nod@V?$_Tmap_traits@IPAVPatch@@U?$less@I@std@@V?$allocator@U?$pair@$$CBIPAVPatch@@@std@@@3@$0A@@std@@@2@XZ ; std::_Tree<std::_Tmap_traits<unsigned int,Patch *,std::less<unsigned int>,std::allocator<std::pair<unsigned int const ,Patch *> >,0> >::_Lmost
PUBLIC	?_Lrotate@?$_Tree@V?$_Tmap_traits@IPAVPatch@@U?$less@I@std@@V?$allocator@U?$pair@$$CBIPAVPatch@@@std@@@3@$0A@@std@@@std@@IAEXPAU_Node@?$_Tree_nod@V?$_Tmap_traits@IPAVPatch@@U?$less@I@std@@V?$allocator@U?$pair@$$CBIPAVPatch@@@std@@@3@$0A@@std@@@2@@Z ; std::_Tree<std::_Tmap_traits<unsigned int,Patch *,std::less<unsigned int>,std::allocator<std::pair<unsigned int const ,Patch *> >,0> >::_Lrotate
PUBLIC	?_Root@?$_Tree@V?$_Tmap_traits@IPAVPatch@@U?$less@I@std@@V?$allocator@U?$pair@$$CBIPAVPatch@@@std@@@3@$0A@@std@@@std@@IAEAAPAU_Node@?$_Tree_nod@V?$_Tmap_traits@IPAVPatch@@U?$less@I@std@@V?$allocator@U?$pair@$$CBIPAVPatch@@@std@@@3@$0A@@std@@@2@XZ ; std::_Tree<std::_Tmap_traits<unsigned int,Patch *,std::less<unsigned int>,std::allocator<std::pair<unsigned int const ,Patch *> >,0> >::_Root
PUBLIC	?_Root@?$_Tree@V?$_Tmap_traits@IPAVPatch@@U?$less@I@std@@V?$allocator@U?$pair@$$CBIPAVPatch@@@std@@@3@$0A@@std@@@std@@IBEAAPAU_Node@?$_Tree_nod@V?$_Tmap_traits@IPAVPatch@@U?$less@I@std@@V?$allocator@U?$pair@$$CBIPAVPatch@@@std@@@3@$0A@@std@@@2@XZ ; std::_Tree<std::_Tmap_traits<unsigned int,Patch *,std::less<unsigned int>,std::allocator<std::pair<unsigned int const ,Patch *> >,0> >::_Root
PUBLIC	?_Rrotate@?$_Tree@V?$_Tmap_traits@IPAVPatch@@U?$less@I@std@@V?$allocator@U?$pair@$$CBIPAVPatch@@@std@@@3@$0A@@std@@@std@@IAEXPAU_Node@?$_Tree_nod@V?$_Tmap_traits@IPAVPatch@@U?$less@I@std@@V?$allocator@U?$pair@$$CBIPAVPatch@@@std@@@3@$0A@@std@@@2@@Z ; std::_Tree<std::_Tmap_traits<unsigned int,Patch *,std::less<unsigned int>,std::allocator<std::pair<unsigned int const ,Patch *> >,0> >::_Rrotate
PUBLIC	?_Buynode@?$_Tree@V?$_Tmap_traits@IPAVPatch@@U?$less@I@std@@V?$allocator@U?$pair@$$CBIPAVPatch@@@std@@@3@$0A@@std@@@std@@IAEPAU_Node@?$_Tree_nod@V?$_Tmap_traits@IPAVPatch@@U?$less@I@std@@V?$allocator@U?$pair@$$CBIPAVPatch@@@std@@@3@$0A@@std@@@2@PAU342@00ABU?$pair@$$CBIPAVPatch@@@2@D@Z ; std::_Tree<std::_Tmap_traits<unsigned int,Patch *,std::less<unsigned int>,std::allocator<std::pair<unsigned int const ,Patch *> >,0> >::_Buynode
PUBLIC	??Yiterator@?$vector@PAVmml_Address@@V?$allocator@PAVmml_Address@@@std@@@std@@QAEAAV012@H@Z ; std::vector<mml_Address *,std::allocator<mml_Address *> >::iterator::operator+=
PUBLIC	??Gconst_iterator@?$vector@PAVmml_Address@@V?$allocator@PAVmml_Address@@@std@@@std@@QBEHABV012@@Z ; std::vector<mml_Address *,std::allocator<mml_Address *> >::const_iterator::operator-
PUBLIC	??0const_iterator@?$_Tree@V?$_Tmap_traits@IPAVPatch@@U?$less@I@std@@V?$allocator@U?$pair@$$CBIPAVPatch@@@std@@@3@$0A@@std@@@std@@QAE@XZ ; std::_Tree<std::_Tmap_traits<unsigned int,Patch *,std::less<unsigned int>,std::allocator<std::pair<unsigned int const ,Patch *> >,0> >::const_iterator::const_iterator
PUBLIC	??0const_iterator@?$_Tree@V?$_Tmap_traits@IPAVPatch@@U?$less@I@std@@V?$allocator@U?$pair@$$CBIPAVPatch@@@std@@@3@$0A@@std@@@std@@QAE@PAU_Node@?$_Tree_nod@V?$_Tmap_traits@IPAVPatch@@U?$less@I@std@@V?$allocator@U?$pair@$$CBIPAVPatch@@@std@@@3@$0A@@std@@@2@@Z ; std::_Tree<std::_Tmap_traits<unsigned int,Patch *,std::less<unsigned int>,std::allocator<std::pair<unsigned int const ,Patch *> >,0> >::const_iterator::const_iterator
PUBLIC	??Econst_iterator@?$_Tree@V?$_Tmap_traits@IPAVPatch@@U?$less@I@std@@V?$allocator@U?$pair@$$CBIPAVPatch@@@std@@@3@$0A@@std@@@std@@QAEAAV012@XZ ; std::_Tree<std::_Tmap_traits<unsigned int,Patch *,std::less<unsigned int>,std::allocator<std::pair<unsigned int const ,Patch *> >,0> >::const_iterator::operator++
PUBLIC	??Fconst_iterator@?$_Tree@V?$_Tmap_traits@IPAVPatch@@U?$less@I@std@@V?$allocator@U?$pair@$$CBIPAVPatch@@@std@@@3@$0A@@std@@@std@@QAEAAV012@XZ ; std::_Tree<std::_Tmap_traits<unsigned int,Patch *,std::less<unsigned int>,std::allocator<std::pair<unsigned int const ,Patch *> >,0> >::const_iterator::operator--
PUBLIC	??0?$pair@Viterator@?$_Tree@V?$_Tmap_traits@IPAVPatch@@U?$less@I@std@@V?$allocator@U?$pair@$$CBIPAVPatch@@@std@@@3@$0A@@std@@@std@@_N@std@@QAE@ABViterator@?$_Tree@V?$_Tmap_traits@IPAVPatch@@U?$less@I@std@@V?$allocator@U?$pair@$$CBIPAVPatch@@@std@@@3@$0A@@std@@@1@AB_N@Z ; std::pair<std::_Tree<std::_Tmap_traits<unsigned int,Patch *,std::less<unsigned int>,std::allocator<std::pair<unsigned int const ,Patch *> >,0> >::iterator,bool>::pair<std::_Tree<std::_Tmap_traits<unsigned int,Patch *,std::less<unsigned int>,std::allocator<std::pair<unsigned int const ,Patch *> >,0> >::iterator,bool>
PUBLIC	??0_Node@?$_List_nod@IV?$allocator@I@std@@@std@@QAE@PAU012@0ABI@Z ; std::_List_nod<unsigned int,std::allocator<unsigned int> >::_Node::_Node
PUBLIC	??0_Node@?$_List_nod@Viterator@?$list@PAVMusicItem@@V?$allocator@PAVMusicItem@@@std@@@std@@V?$allocator@Viterator@?$list@PAVMusicItem@@V?$allocator@PAVMusicItem@@@std@@@std@@@3@@std@@QAE@PAU012@0ABViterator@?$list@PAVMusicItem@@V?$allocator@PAVMusicItem@@@std@@@2@@Z ; std::_List_nod<std::list<MusicItem *,std::allocator<MusicItem *> >::iterator,std::allocator<std::list<MusicItem *,std::allocator<MusicItem *> >::iterator> >::_Node::_Node
PUBLIC	?max_size@?$allocator@I@std@@QBEIXZ		; std::allocator<unsigned int>::max_size
PUBLIC	?max_size@?$allocator@Viterator@?$list@PAVMusicItem@@V?$allocator@PAVMusicItem@@@std@@@std@@@std@@QBEIXZ ; std::allocator<std::list<MusicItem *,std::allocator<MusicItem *> >::iterator>::max_size
PUBLIC	??Econst_iterator@?$list@IV?$allocator@I@std@@@std@@QAEAAV012@XZ ; std::list<unsigned int,std::allocator<unsigned int> >::const_iterator::operator++
PUBLIC	??Econst_iterator@?$list@Viterator@?$list@PAVMusicItem@@V?$allocator@PAVMusicItem@@@std@@@std@@V?$allocator@Viterator@?$list@PAVMusicItem@@V?$allocator@PAVMusicItem@@@std@@@std@@@3@@std@@QAEAAV012@XZ ; std::list<std::list<MusicItem *,std::allocator<MusicItem *> >::iterator,std::allocator<std::list<MusicItem *,std::allocator<MusicItem *> >::iterator> >::const_iterator::operator++
PUBLIC	?max_size@?$allocator@U?$pair@$$CBIPAVPatch@@@std@@@std@@QBEIXZ ; std::allocator<std::pair<unsigned int const ,Patch *> >::max_size
PUBLIC	?deallocate@?$allocator@U_Node@?$_Tree_nod@V?$_Tmap_traits@IPAVPatch@@U?$less@I@std@@V?$allocator@U?$pair@$$CBIPAVPatch@@@std@@@3@$0A@@std@@@std@@@std@@QAEXPAU_Node@?$_Tree_nod@V?$_Tmap_traits@IPAVPatch@@U?$less@I@std@@V?$allocator@U?$pair@$$CBIPAVPatch@@@std@@@3@$0A@@std@@@2@I@Z ; std::allocator<std::_Tree_nod<std::_Tmap_traits<unsigned int,Patch *,std::less<unsigned int>,std::allocator<std::pair<unsigned int const ,Patch *> >,0> >::_Node>::deallocate
PUBLIC	?allocate@?$allocator@U_Node@?$_Tree_nod@V?$_Tmap_traits@IPAVPatch@@U?$less@I@std@@V?$allocator@U?$pair@$$CBIPAVPatch@@@std@@@3@$0A@@std@@@std@@@std@@QAEPAU_Node@?$_Tree_nod@V?$_Tmap_traits@IPAVPatch@@U?$less@I@std@@V?$allocator@U?$pair@$$CBIPAVPatch@@@std@@@3@$0A@@std@@@2@I@Z ; std::allocator<std::_Tree_nod<std::_Tmap_traits<unsigned int,Patch *,std::less<unsigned int>,std::allocator<std::pair<unsigned int const ,Patch *> >,0> >::_Node>::allocate
PUBLIC	?_Dec@const_iterator@?$_Tree@V?$_Tmap_traits@IPAVPatch@@U?$less@I@std@@V?$allocator@U?$pair@$$CBIPAVPatch@@@std@@@3@$0A@@std@@@std@@QAEXXZ ; std::_Tree<std::_Tmap_traits<unsigned int,Patch *,std::less<unsigned int>,std::allocator<std::pair<unsigned int const ,Patch *> >,0> >::const_iterator::_Dec
PUBLIC	?_Inc@const_iterator@?$_Tree@V?$_Tmap_traits@IPAVPatch@@U?$less@I@std@@V?$allocator@U?$pair@$$CBIPAVPatch@@@std@@@3@$0A@@std@@@std@@QAEXXZ ; std::_Tree<std::_Tmap_traits<unsigned int,Patch *,std::less<unsigned int>,std::allocator<std::pair<unsigned int const ,Patch *> >,0> >::const_iterator::_Inc
PUBLIC	??0_Node@?$_Tree_nod@V?$_Tmap_traits@IPAVPatch@@U?$less@I@std@@V?$allocator@U?$pair@$$CBIPAVPatch@@@std@@@3@$0A@@std@@@std@@QAE@PAU012@00ABU?$pair@$$CBIPAVPatch@@@2@D@Z ; std::_Tree_nod<std::_Tmap_traits<unsigned int,Patch *,std::less<unsigned int>,std::allocator<std::pair<unsigned int const ,Patch *> >,0> >::_Node::_Node
PUBLIC	?_Max@?$_Tree@V?$_Tmap_traits@IPAVPatch@@U?$less@I@std@@V?$allocator@U?$pair@$$CBIPAVPatch@@@std@@@3@$0A@@std@@@std@@KAPAU_Node@?$_Tree_nod@V?$_Tmap_traits@IPAVPatch@@U?$less@I@std@@V?$allocator@U?$pair@$$CBIPAVPatch@@@std@@@3@$0A@@std@@@2@PAU342@@Z ; std::_Tree<std::_Tmap_traits<unsigned int,Patch *,std::less<unsigned int>,std::allocator<std::pair<unsigned int const ,Patch *> >,0> >::_Max
PUBLIC	?_Min@?$_Tree@V?$_Tmap_traits@IPAVPatch@@U?$less@I@std@@V?$allocator@U?$pair@$$CBIPAVPatch@@@std@@@3@$0A@@std@@@std@@KAPAU_Node@?$_Tree_nod@V?$_Tmap_traits@IPAVPatch@@U?$less@I@std@@V?$allocator@U?$pair@$$CBIPAVPatch@@@std@@@3@$0A@@std@@@2@PAU342@@Z ; std::_Tree<std::_Tmap_traits<unsigned int,Patch *,std::less<unsigned int>,std::allocator<std::pair<unsigned int const ,Patch *> >,0> >::_Min
PUBLIC	??$_Destroy_range@HV?$allocator@H@std@@@std@@YAXPAH0AAV?$allocator@H@0@@Z ; std::_Destroy_range<int,std::allocator<int> >
PUBLIC	??$_Uninitialized_fill_n@PAHIHV?$allocator@H@std@@@std@@YAXPAHIABHAAV?$allocator@H@0@@Z ; std::_Uninitialized_fill_n<int *,unsigned int,int,std::allocator<int> >
PUBLIC	??$_Uninitialized_fill_n@PAPAVmml_Address@@IPAV1@V?$allocator@PAVmml_Address@@@std@@@std@@YAXPAPAVmml_Address@@IABQAV1@AAV?$allocator@PAVmml_Address@@@0@@Z ; std::_Uninitialized_fill_n<mml_Address * *,unsigned int,mml_Address *,std::allocator<mml_Address *> >
PUBLIC	??$_Allocate@H@std@@YAPAHIPAH@Z			; std::_Allocate<int>
PUBLIC	??$_Ucopy@PAH@?$vector@HV?$allocator@H@std@@@std@@IAEPAHPAH00@Z ; std::vector<int,std::allocator<int> >::_Ucopy<int *>
PUBLIC	??$fill@PAHH@std@@YAXPAH0ABH@Z			; std::fill<int *,int>
PUBLIC	??$copy_backward@PAHPAH@std@@YAPAHPAH00@Z	; std::copy_backward<int *,int *>
PUBLIC	??$?0I@?$allocator@PAU_Node@?$_List_nod@IV?$allocator@I@std@@@std@@@std@@QAE@ABV?$allocator@I@1@@Z ; std::allocator<std::_List_nod<unsigned int,std::allocator<unsigned int> >::_Node *>::allocator<std::_List_nod<unsigned int,std::allocator<unsigned int> >::_Node *><unsigned int>
PUBLIC	??$_Allocate@U_Node@?$_List_nod@IV?$allocator@I@std@@@std@@@std@@YAPAU_Node@?$_List_nod@IV?$allocator@I@std@@@0@IPAU120@@Z ; std::_Allocate<std::_List_nod<unsigned int,std::allocator<unsigned int> >::_Node>
PUBLIC	??$_Destroy@U_Node@?$_List_nod@IV?$allocator@I@std@@@std@@@std@@YAXPAU_Node@?$_List_nod@IV?$allocator@I@std@@@0@@Z ; std::_Destroy<std::_List_nod<unsigned int,std::allocator<unsigned int> >::_Node>
PUBLIC	??$_Construct@PAU_Node@?$_List_nod@IV?$allocator@I@std@@@std@@PAU123@@std@@YAXPAPAU_Node@?$_List_nod@IV?$allocator@I@std@@@0@ABQAU120@@Z ; std::_Construct<std::_List_nod<unsigned int,std::allocator<unsigned int> >::_Node *,std::_List_nod<unsigned int,std::allocator<unsigned int> >::_Node *>
PUBLIC	??$_Destroy@PAU_Node@?$_List_nod@IV?$allocator@I@std@@@std@@@std@@YAXPAPAU_Node@?$_List_nod@IV?$allocator@I@std@@@0@@Z ; std::_Destroy<std::_List_nod<unsigned int,std::allocator<unsigned int> >::_Node *>
PUBLIC	??$?0Viterator@?$list@PAVMusicItem@@V?$allocator@PAVMusicItem@@@std@@@std@@@?$allocator@PAU_Node@?$_List_nod@Viterator@?$list@PAVMusicItem@@V?$allocator@PAVMusicItem@@@std@@@std@@V?$allocator@Viterator@?$list@PAVMusicItem@@V?$allocator@PAVMusicItem@@@std@@@std@@@3@@std@@@std@@QAE@ABV?$allocator@Viterator@?$list@PAVMusicItem@@V?$allocator@PAVMusicItem@@@std@@@std@@@1@@Z ; std::allocator<std::_List_nod<std::list<MusicItem *,std::allocator<MusicItem *> >::iterator,std::allocator<std::list<MusicItem *,std::allocator<MusicItem *> >::iterator> >::_Node *>::allocator<std::_List_nod<std::list<MusicItem *,std::allocator<MusicItem *> >::iterator,std::allocator<std::list<MusicItem *,std::allocator<MusicItem *> >::iterator> >::_Node *><std::list<MusicItem *,std::allocator<MusicItem *> >::iterator>
PUBLIC	??$_Allocate@U_Node@?$_List_nod@Viterator@?$list@PAVMusicItem@@V?$allocator@PAVMusicItem@@@std@@@std@@V?$allocator@Viterator@?$list@PAVMusicItem@@V?$allocator@PAVMusicItem@@@std@@@std@@@3@@std@@@std@@YAPAU_Node@?$_List_nod@Viterator@?$list@PAVMusicItem@@V?$allocator@PAVMusicItem@@@std@@@std@@V?$allocator@Viterator@?$list@PAVMusicItem@@V?$allocator@PAVMusicItem@@@std@@@std@@@3@@0@IPAU120@@Z ; std::_Allocate<std::_List_nod<std::list<MusicItem *,std::allocator<MusicItem *> >::iterator,std::allocator<std::list<MusicItem *,std::allocator<MusicItem *> >::iterator> >::_Node>
PUBLIC	??$_Destroy@U_Node@?$_List_nod@Viterator@?$list@PAVMusicItem@@V?$allocator@PAVMusicItem@@@std@@@std@@V?$allocator@Viterator@?$list@PAVMusicItem@@V?$allocator@PAVMusicItem@@@std@@@std@@@3@@std@@@std@@YAXPAU_Node@?$_List_nod@Viterator@?$list@PAVMusicItem@@V?$allocator@PAVMusicItem@@@std@@@std@@V?$allocator@Viterator@?$list@PAVMusicItem@@V?$allocator@PAVMusicItem@@@std@@@std@@@3@@0@@Z ; std::_Destroy<std::_List_nod<std::list<MusicItem *,std::allocator<MusicItem *> >::iterator,std::allocator<std::list<MusicItem *,std::allocator<MusicItem *> >::iterator> >::_Node>
PUBLIC	??$_Construct@PAU_Node@?$_List_nod@Viterator@?$list@PAVMusicItem@@V?$allocator@PAVMusicItem@@@std@@@std@@V?$allocator@Viterator@?$list@PAVMusicItem@@V?$allocator@PAVMusicItem@@@std@@@std@@@3@@std@@PAU123@@std@@YAXPAPAU_Node@?$_List_nod@Viterator@?$list@PAVMusicItem@@V?$allocator@PAVMusicItem@@@std@@@std@@V?$allocator@Viterator@?$list@PAVMusicItem@@V?$allocator@PAVMusicItem@@@std@@@std@@@3@@0@ABQAU120@@Z ; std::_Construct<std::_List_nod<std::list<MusicItem *,std::allocator<MusicItem *> >::iterator,std::allocator<std::list<MusicItem *,std::allocator<MusicItem *> >::iterator> >::_Node *,std::_List_nod<std::list<MusicItem *,std::allocator<MusicItem *> >::iterator,std::allocator<std::list<MusicItem *,std::allocator<MusicItem *> >::iterator> >::_Node *>
PUBLIC	??$_Destroy@PAU_Node@?$_List_nod@Viterator@?$list@PAVMusicItem@@V?$allocator@PAVMusicItem@@@std@@@std@@V?$allocator@Viterator@?$list@PAVMusicItem@@V?$allocator@PAVMusicItem@@@std@@@std@@@3@@std@@@std@@YAXPAPAU_Node@?$_List_nod@Viterator@?$list@PAVMusicItem@@V?$allocator@PAVMusicItem@@@std@@@std@@V?$allocator@Viterator@?$list@PAVMusicItem@@V?$allocator@PAVMusicItem@@@std@@@std@@@3@@0@@Z ; std::_Destroy<std::_List_nod<std::list<MusicItem *,std::allocator<MusicItem *> >::iterator,std::allocator<std::list<MusicItem *,std::allocator<MusicItem *> >::iterator> >::_Node *>
PUBLIC	??$_Destroy_range@PAVmml_Address@@V?$allocator@PAVmml_Address@@@std@@@std@@YAXPAPAVmml_Address@@0AAV?$allocator@PAVmml_Address@@@0@@Z ; std::_Destroy_range<mml_Address *,std::allocator<mml_Address *> >
PUBLIC	??$_Ucopy@PAPAVmml_Address@@@?$vector@PAVmml_Address@@V?$allocator@PAVmml_Address@@@std@@@std@@IAEPAPAVmml_Address@@PAPAV2@00@Z ; std::vector<mml_Address *,std::allocator<mml_Address *> >::_Ucopy<mml_Address * *>
PUBLIC	??$fill@PAPAVmml_Address@@PAV1@@std@@YAXPAPAVmml_Address@@0ABQAV1@@Z ; std::fill<mml_Address * *,mml_Address *>
PUBLIC	??$copy_backward@PAPAVmml_Address@@PAPAV1@@std@@YAPAPAVmml_Address@@PAPAV1@00@Z ; std::copy_backward<mml_Address * *,mml_Address * *>
PUBLIC	??$_Allocate@PAVmml_Address@@@std@@YAPAPAVmml_Address@@IPAPAV1@@Z ; std::_Allocate<mml_Address *>
PUBLIC	??$?0I@?$allocator@U_Node@?$_List_nod@IV?$allocator@I@std@@@std@@@std@@QAE@ABV?$allocator@I@1@@Z ; std::allocator<std::_List_nod<unsigned int,std::allocator<unsigned int> >::_Node>::allocator<std::_List_nod<unsigned int,std::allocator<unsigned int> >::_Node><unsigned int>
PUBLIC	??$?0Viterator@?$list@PAVMusicItem@@V?$allocator@PAVMusicItem@@@std@@@std@@@?$allocator@U_Node@?$_List_nod@Viterator@?$list@PAVMusicItem@@V?$allocator@PAVMusicItem@@@std@@@std@@V?$allocator@Viterator@?$list@PAVMusicItem@@V?$allocator@PAVMusicItem@@@std@@@std@@@3@@std@@@std@@QAE@ABV?$allocator@Viterator@?$list@PAVMusicItem@@V?$allocator@PAVMusicItem@@@std@@@std@@@1@@Z ; std::allocator<std::_List_nod<std::list<MusicItem *,std::allocator<MusicItem *> >::iterator,std::allocator<std::list<MusicItem *,std::allocator<MusicItem *> >::iterator> >::_Node>::allocator<std::_List_nod<std::list<MusicItem *,std::allocator<MusicItem *> >::iterator,std::allocator<std::list<MusicItem *,std::allocator<MusicItem *> >::iterator> >::_Node><std::list<MusicItem *,std::allocator<MusicItem *> >::iterator>
PUBLIC	??$_Allocate@U_Node@?$_Tree_nod@V?$_Tmap_traits@IPAVPatch@@U?$less@I@std@@V?$allocator@U?$pair@$$CBIPAVPatch@@@std@@@3@$0A@@std@@@std@@@std@@YAPAU_Node@?$_Tree_nod@V?$_Tmap_traits@IPAVPatch@@U?$less@I@std@@V?$allocator@U?$pair@$$CBIPAVPatch@@@std@@@3@$0A@@std@@@0@IPAU120@@Z ; std::_Allocate<std::_Tree_nod<std::_Tmap_traits<unsigned int,Patch *,std::less<unsigned int>,std::allocator<std::pair<unsigned int const ,Patch *> >,0> >::_Node>
PUBLIC	??$_Destroy_range@HV?$allocator@H@std@@@std@@YAXPAH0AAV?$allocator@H@0@U_Scalar_ptr_iterator_tag@0@@Z ; std::_Destroy_range<int,std::allocator<int> >
PUBLIC	??$_Uninit_fill_n@HIH@std@@YAXPAHIABHAAV?$allocator@H@0@U_Scalar_ptr_iterator_tag@0@@Z ; std::_Uninit_fill_n<int,unsigned int,int>
PUBLIC	??$_Ptr_cat@Vmml_Address@@@std@@YA?AU_Scalar_ptr_iterator_tag@0@PAPAVmml_Address@@0@Z ; std::_Ptr_cat<mml_Address>
PUBLIC	??$_Uninit_fill_n@PAVmml_Address@@IPAV1@@std@@YAXPAPAVmml_Address@@IABQAV1@AAV?$allocator@PAVmml_Address@@@0@U_Scalar_ptr_iterator_tag@0@@Z ; std::_Uninit_fill_n<mml_Address *,unsigned int,mml_Address *>
PUBLIC	??$_Uninitialized_copy@PAHPAHV?$allocator@H@std@@@std@@YAPAHPAH00AAV?$allocator@H@0@@Z ; std::_Uninitialized_copy<int *,int *,std::allocator<int> >
PUBLIC	??$_Copy_backward_opt@PAHPAH@std@@YAPAHPAH00U_Scalar_ptr_iterator_tag@0@@Z ; std::_Copy_backward_opt<int *,int *>
PUBLIC	??$_Destroy_range@PAVmml_Address@@V?$allocator@PAVmml_Address@@@std@@@std@@YAXPAPAVmml_Address@@0AAV?$allocator@PAVmml_Address@@@0@U_Scalar_ptr_iterator_tag@0@@Z ; std::_Destroy_range<mml_Address *,std::allocator<mml_Address *> >
PUBLIC	??$_Uninitialized_copy@PAPAVmml_Address@@PAPAV1@V?$allocator@PAVmml_Address@@@std@@@std@@YAPAPAVmml_Address@@PAPAV1@00AAV?$allocator@PAVmml_Address@@@0@@Z ; std::_Uninitialized_copy<mml_Address * *,mml_Address * *,std::allocator<mml_Address *> >
PUBLIC	??$_Copy_backward_opt@PAPAVmml_Address@@PAPAV1@@std@@YAPAPAVmml_Address@@PAPAV1@00U_Scalar_ptr_iterator_tag@0@@Z ; std::_Copy_backward_opt<mml_Address * *,mml_Address * *>
PUBLIC	??$fill_n@PAHIH@std@@YAXPAHIABH@Z		; std::fill_n<int *,unsigned int,int>
PUBLIC	??$fill_n@PAPAVmml_Address@@IPAV1@@std@@YAXPAPAVmml_Address@@IABQAV1@@Z ; std::fill_n<mml_Address * *,unsigned int,mml_Address *>
PUBLIC	??$_Uninit_copy@HH@std@@YAPAHPAH00AAV?$allocator@H@0@U_Scalar_ptr_iterator_tag@0@@Z ; std::_Uninit_copy<int,int>
PUBLIC	??$_Uninit_copy@PAVmml_Address@@PAV1@@std@@YAPAPAVmml_Address@@PAPAV1@00AAV?$allocator@PAVmml_Address@@@0@U_Scalar_ptr_iterator_tag@0@@Z ; std::_Uninit_copy<mml_Address *,mml_Address *>
PUBLIC	?_Ptr_cat@std@@YA?AU_Scalar_ptr_iterator_tag@1@PAH0@Z ; std::_Ptr_cat
PUBLIC	?get_sw_Evoi@Patch@@QAE_NXZ			; Patch::get_sw_Evoi
PUBLIC	?setUse@MusicItem@@QAEXXZ			; MusicItem::setUse
PUBLIC	?get@NSD_WORK@@QAEXPAV1@@Z			; NSD_WORK::get
PUBLIC	?set@NSD_WORK@@QAEXPAV1@@Z			; NSD_WORK::set
PUBLIC	?Reset_opt@MusicTrack@@QAEXXZ			; MusicTrack::Reset_opt
PUBLIC	?init@NSD_WORK@@QAEXXZ				; NSD_WORK::init
PUBLIC	??1NSD_WORK@@QAE@XZ				; NSD_WORK::~NSD_WORK
PUBLIC	??0NSD_WORK@@QAE@XZ				; NSD_WORK::NSD_WORK
; Listing generated by Microsoft (R) Optimizing Compiler Version 13.10.3077 

	TITLE	.\MusicTrack.cpp
	.386P
include listing.inc
if @Version gt 510
.model FLAT
else
;	COMDAT ??_C@_19HGHALIPE@?$AAN?$AAu?$AAl?$AAl?$AA?$AA@
CONST	SEGMENT DWORD USE32 PUBLIC 'CONST'
CONST	ENDS
;	COMDAT ??_C@_1BG@DLEDEKK@?$AA?$CJuj0L?$FLXW?$CI0W0?$HO0?$FL0?$JD0?$AC?$AA?$AA@
CONST	SEGMENT DWORD USE32 PUBLIC 'CONST'
CONST	ENDS
;	COMDAT ??_C@_19IKFMBMLG@?$AAS?$AAu?$AAb?$AA?$CI?$AA?$AA@
CONST	SEGMENT DWORD USE32 PUBLIC 'CONST'
CONST	ENDS
;	COMDAT ??_C@_1BE@IGMADMH@?$AAE?$AAn?$AAv?$AAe?$AAl?$AAo?$AAp?$AAe?$AA?$CI?$AA?$AA@
CONST	SEGMENT DWORD USE32 PUBLIC 'CONST'
CONST	ENDS
;	COMDAT ??_C@_1M@PLMGIHGM@?$AAF?$AAD?$AAS?$AAC?$AA?$CI?$AA?$AA@
CONST	SEGMENT DWORD USE32 PUBLIC 'CONST'
CONST	ENDS
;	COMDAT ??_C@_1M@MBMMOGBM@?$AAF?$AAD?$AAS?$AAM?$AA?$CI?$AA?$AA@
CONST	SEGMENT DWORD USE32 PUBLIC 'CONST'
CONST	ENDS
;	COMDAT ??_C@_1M@DBGGOFMD@?$AAV?$AAR?$AAC?$AA7?$AA?$CI?$AA?$AA@
CONST	SEGMENT DWORD USE32 PUBLIC 'CONST'
CONST	ENDS
;	COMDAT ??_C@_1M@HOIDBMFA@?$AAN?$AA1?$AA6?$AA3?$AA?$CI?$AA?$AA@
CONST	SEGMENT DWORD USE32 PUBLIC 'CONST'
CONST	ENDS
;	COMDAT ??_C@_17HLGHMILN@?$AAS?$AAE?$AA?$CI?$AA?$AA@
CONST	SEGMENT DWORD USE32 PUBLIC 'CONST'
CONST	ENDS
;	COMDAT ??_C@_1CE@JMOHEOPF@0?j0?T0?$PM0?H?$AA?$CI?$AAA?$AA?$CJ0L?$HNB0?$IP0c0f0D0?$HO0?$FL0?$JD0?$AC?$AA?$AA@
CONST	SEGMENT DWORD USE32 PUBLIC 'CONST'
CONST	ENDS
;	COMDAT ??_C@_1CE@IJKNAFJK@0?j0?T0?$PM0?H?$AA?$CI?$AAC?$AA?$CJ0L?$HNB0?$IP0c0f0D0?$HO0?$FL0?$JD0?$AC?$AA?$AA@
CONST	SEGMENT DWORD USE32 PUBLIC 'CONST'
CONST	ENDS
;	COMDAT ??_C@_1BK@OCDBGHAP@?$AAE?$AAn?$AAd?$AA?5?$AAo?$AAf?$AA?5?$AAT?$AAr?$AAa?$AAc?$AAk?$AA?$AA@
CONST	SEGMENT DWORD USE32 PUBLIC 'CONST'
CONST	ENDS
;	COMDAT ??_C@_1CO@IIMELFGG@?$AAE?$AAn?$AAd?$AA?5?$AAo?$AAf?$AA?5?$AAT?$AAr?$AAa?$AAc?$AAk?$AA?5?$AAw?$AAi?$AAt?$AAh?$AA?5?$AAL?$AAO@
CONST	SEGMENT DWORD USE32 PUBLIC 'CONST'
CONST	ENDS
;	COMDAT ??_C@_1CA@JPKIEODC@?$AAR?$AAe?$AAp?$AAe?$AAa?$AAt?$AA?$CI?$AAB?$AA?$CJ?$AA?5?$AAS?$AAt?$AAa?$AAr?$AAt?$AA?$AA@
CONST	SEGMENT DWORD USE32 PUBLIC 'CONST'
CONST	ENDS
;	COMDAT ??_C@_1CC@KDMBBGBP@?$AAR?$AAe?$AAp?$AAe?$AAa?$AAt?$AA?$CI?$AAB?$AA?$CJ?$AA?5?$AAB?$AAr?$AAa?$AAn?$AAc?$AAh?$AA?$AA@
CONST	SEGMENT DWORD USE32 PUBLIC 'CONST'
CONST	ENDS
;	COMDAT ??_C@_1DE@EIMDGIFC@0?j0?T0?$PM0?H?$AA?$CI?$AAB?$AA?$CJQ?$IF0g?$AA?5?$AA?2?$AA?50?$LD0?$NO0?s0?I0L?$JB?M?$IJ?$AH0W@
CONST	SEGMENT DWORD USE32 PUBLIC 'CONST'
CONST	ENDS
;	COMDAT ??_C@_1DE@NPLPFED@0?j0?T0?$PM0?H?$AA?$CI?$AAB?$AA?$CJ0n?$JF?$ILY?K?$AA?5?$AA?$HM?$AA?3?$AA?50?$LD0?$NO0?s0?I0L0B@
CONST	SEGMENT DWORD USE32 PUBLIC 'CONST'
CONST	ENDS
;	COMDAT ??_C@_1CC@DHDLBODE@0?j0?T0?$PM0?H?$AA?$CI?$AAA?$AA?$CJ0nS?3?$JF?$JD0n?$JA?$BEN?90g0Y0?$AC?$AA?$AA@
CONST	SEGMENT DWORD USE32 PUBLIC 'CONST'
CONST	ENDS
;	COMDAT ??_C@_1BM@EDCBEBGE@?$AAR?$AAe?$AAp?$AAe?$AAa?$AAt?$AA?$CI?$AAB?$AA?$CJ?$AA?5?$AAE?$AAn?$AAd?$AA?$AA@
CONST	SEGMENT DWORD USE32 PUBLIC 'CONST'
CONST	ENDS
;	COMDAT ??_C@_1FK@BKKHDBPB@0?j0?T0?$PM0?H?$AA?$CI?$AAB?$AA?$CJQ?$IF0g?$AA?5?$AA?2?$AA?50?$LD0?$NO0?s0?I0L0B0?$IK0?$HO@
CONST	SEGMENT DWORD USE32 PUBLIC 'CONST'
CONST	ENDS
;	COMDAT ??_C@_1DC@JAEEIEKF@0?j0?T0?$PM0?HV?$NOep0o?$AA2?$PP?$FO?$AA2?$AA5?$AA50n?$HL?DV?r0gc?$AH?$FL?$JK0W0f@
CONST	SEGMENT DWORD USE32 PUBLIC 'CONST'
CONST	ENDS
;	COMDAT ??_C@_1CG@DHEAMNDG@0?j0?T0?$PM0?H?$AA?$CI?$AAA?$AA?$CJ0n0?M0?$LJ0?H0o0g0M0?$HO0?$FL0?$JD0?$AC?$AA?$AA@
CONST	SEGMENT DWORD USE32 PUBLIC 'CONST'
CONST	ENDS
;	COMDAT ??_C@_1CA@HFCOJDFA@?$AAR?$AAe?$AAp?$AAe?$AAa?$AAt?$AA?$CI?$AAA?$AA?$CJ?$AA?5?$AAS?$AAt?$AAa?$AAr?$AAt?$AA?$AA@
CONST	SEGMENT DWORD USE32 PUBLIC 'CONST'
CONST	ENDS
;	COMDAT ??_C@_1CC@MGIFLNF@?$AAR?$AAe?$AAp?$AAe?$AAa?$AAt?$AA?$CI?$AAA?$AA?$CJ?$AA?5?$AAB?$AAr?$AAa?$AAn?$AAc?$AAh?$AA?$AA@
CONST	SEGMENT DWORD USE32 PUBLIC 'CONST'
CONST	ENDS
;	COMDAT ??_C@_1DE@HGGAJCGI@0?j0?T0?$PM0?H?$AA?$CI?$AAA?$AA?$CJQ?$IF0g?$AA?5?$AA?3?$AA?50?$LD0?$NO0?s0?I0L?$JB?M?$IJ?$AH0W@
CONST	SEGMENT DWORD USE32 PUBLIC 'CONST'
CONST	ENDS
;	COMDAT ??_C@_1DC@IPGNKEJP@0?j0?T0?$PM0?H?$AA?$CI?$AAA?$AA?$CJ0n?$JF?$ILY?K?$AA?5?$AA?$FL?$AA?50?$LD0?$NO0?s0?I0L0B0?$IK@
CONST	SEGMENT DWORD USE32 PUBLIC 'CONST'
CONST	ENDS
;	COMDAT ??_C@_1DE@OPGCJNPF@0?j0?T0?$PM0?H?$AA?$CI?$AAC?$AA?$CJQ?$IF0g?$AA?5?$AA?3?$AA?50?$LD0?$NO0?s0?I0L?$JB?M?$IJ?$AH0W@
CONST	SEGMENT DWORD USE32 PUBLIC 'CONST'
CONST	ENDS
;	COMDAT ??_C@_1DE@PIDIKAJB@0?j0?T0?$PM0?H?$AA?$CI?$AAC?$AA?$CJ0n?$JF?$ILY?K?$AA?5?$AA?$FL?$AA?3?$AA?50?$LD0?$NO0?s0?I0L0B@
CONST	SEGMENT DWORD USE32 PUBLIC 'CONST'
CONST	ENDS
;	COMDAT ??_C@_1CE@PJCEBMDC@0?j0?T0?$PM0?H?$JF?$ILY?K0?$LD0?$NO0?s0?I0L0B0?$IK0?$HO0?$FL0?$JD0?$AC?$AA?$AA@
CONST	SEGMENT DWORD USE32 PUBLIC 'CONST'
CONST	ENDS
;	COMDAT ??_C@_1CC@FCKGONLL@0?j0?T0?$PM0?HV?$NOep0n?$IK?$BI?$IP?p0L0B0?$IK0?$HO0?$FL0?$JD0?$AC?$AA?$AA@
CONST	SEGMENT DWORD USE32 PUBLIC 'CONST'
CONST	ENDS
;	COMDAT ??_C@_1CI@IJNCMADK@0?j0?T0?$PM0?HV?$NOep0LN?$CBe?$LJ0k?$IK?$BI?$IP?p0U0?$IM0f0D0?$HO0Y0?$AC?$AA?$AA@
CONST	SEGMENT DWORD USE32 PUBLIC 'CONST'
CONST	ENDS
;	COMDAT ??_C@_1BM@DPEAGELP@?$AAR?$AAe?$AAp?$AAe?$AAa?$AAt?$AA?$CI?$AAA?$AA?$CJ?$AA?5?$AAE?$AAn?$AAd?$AA?$AA@
CONST	SEGMENT DWORD USE32 PUBLIC 'CONST'
CONST	ENDS
;	COMDAT ??_C@_1BA@GCDNCJOK@?$AAG?$AAe?$AAn?$AAe?$AAr?$AAa?$AAl?$AA?$AA@
CONST	SEGMENT DWORD USE32 PUBLIC 'CONST'
CONST	ENDS
;	COMDAT ??_C@_1BA@LDPMAPOD@?$AAA?$AAd?$AAd?$AAr?$AAe?$AAs?$AAs?$AA?$AA@
CONST	SEGMENT DWORD USE32 PUBLIC 'CONST'
CONST	ENDS
;	COMDAT ??_C@_1BA@DMAFONIK@?$AAC?$AAa?$AAl?$AAl?$AA?5?$AAS?$AAE?$AA?$AA@
CONST	SEGMENT DWORD USE32 PUBLIC 'CONST'
CONST	ENDS
;	COMDAT ??_C@_1BG@DLCGAOAF@?$AAS?$AAu?$AAb?$AAr?$AAo?$AAu?$AAt?$AAi?$AAn?$AAe?$AA?$AA@
CONST	SEGMENT DWORD USE32 PUBLIC 'CONST'
CONST	ENDS
;	COMDAT ??_C@_1CK@JNKNAIAA@?$AAS?$AAu?$AAb?$AAr?$AAo?$AAu?$AAt?$AAi?$AAn?$AAe?$AA?5?$AAf?$AAo?$AAr?$AA?5?$AAP?$AAa?$AAt?$AAc?$AAh@
CONST	SEGMENT DWORD USE32 PUBLIC 'CONST'
CONST	ENDS
;	COMDAT ??_C@_1BI@EHCLFFIH@?$FLXW?$CI0W0j0D0?Q0?C0?A0g0Y0?$AC?$AA?$AA@
CONST	SEGMENT DWORD USE32 PUBLIC 'CONST'
CONST	ENDS
;	COMDAT ??_C@_1BO@GFLIMKC@?$AAV?$AAo?$AAi?$AAc?$AAe?$AA?5?$AAE?$AAn?$AAv?$AAe?$AAl?$AAo?$AAp?$AAe?$AA?$AA@
CONST	SEGMENT DWORD USE32 PUBLIC 'CONST'
CONST	ENDS
;	COMDAT ??_C@_1CA@BOAFBFBE@?$AAV?$AAo?$AAl?$AAu?$AAm?$AAe?$AA?5?$AAE?$AAn?$AAv?$AAe?$AAl?$AAo?$AAp?$AAe?$AA?$AA@
CONST	SEGMENT DWORD USE32 PUBLIC 'CONST'
CONST	ENDS
;	COMDAT ??_C@_1CG@HDOLOCJJ@?$AAF?$AAr?$AAe?$AAq?$AAu?$AAe?$AAn?$AAc?$AAy?$AA?5?$AAE?$AAn?$AAv?$AAe?$AAl?$AAo?$AAp?$AAe?$AA?$AA@
CONST	SEGMENT DWORD USE32 PUBLIC 'CONST'
CONST	ENDS
;	COMDAT ??_C@_1BM@CBOHIOMD@?$AAN?$AAo?$AAt?$AAe?$AA?5?$AAE?$AAn?$AAv?$AAe?$AAl?$AAo?$AAp?$AAe?$AA?$AA@
CONST	SEGMENT DWORD USE32 PUBLIC 'CONST'
CONST	ENDS
;	COMDAT ??_C@_1M@DKLMFINE@?$AAV?$AAo?$AAi?$AAc?$AAe?$AA?$AA@
CONST	SEGMENT DWORD USE32 PUBLIC 'CONST'
CONST	ENDS
;	COMDAT ??_C@_1CI@DNAKKDOB@?$AAV?$AAo?$AAl?$AAu?$AAm?$AAe?$AA?5?$AAE?$AAn?$AAv?$AAe?$AAl?$AAo?$AAp?$AAe?$AA?5?$AAO?$AAf?$AAf?$AA?$AA@
CONST	SEGMENT DWORD USE32 PUBLIC 'CONST'
CONST	ENDS
;	COMDAT ??_C@_1CO@BJABPOLD@?$AAF?$AAr?$AAe?$AAq?$AAu?$AAe?$AAn?$AAc?$AAy?$AA?5?$AAE?$AAn?$AAv?$AAe?$AAl?$AAo?$AAp?$AAe?$AA?5?$AAO@
CONST	SEGMENT DWORD USE32 PUBLIC 'CONST'
CONST	ENDS
;	COMDAT ??_C@_1CE@KEOAGLPM@?$AAN?$AAo?$AAt?$AAe?$AA?5?$AAE?$AAn?$AAv?$AAe?$AAl?$AAo?$AAp?$AAe?$AA?5?$AAO?$AAf?$AAf?$AA?$AA@
CONST	SEGMENT DWORD USE32 PUBLIC 'CONST'
CONST	ENDS
;	COMDAT ??_C@_1M@HAFHLPCH@?$AAS?$AAw?$AAe?$AAe?$AAp?$AA?$AA@
CONST	SEGMENT DWORD USE32 PUBLIC 'CONST'
CONST	ENDS
;	COMDAT ??_C@_1CM@GOJLGHKM@?$AAF?$AAD?$AAS?$AA?5?$AAc?$AAa?$AAr?$AAe?$AAe?$AAr?$AA?5?$AAw?$AAa?$AAv?$AAe?$AA?5?$AAt?$AAa?$AAb?$AAl@
CONST	SEGMENT DWORD USE32 PUBLIC 'CONST'
CONST	ENDS
;	COMDAT ??_C@_1DC@IBICFHPL@?$AAF?$AAD?$AAS?$AA?5?$AAm?$AAo?$AAd?$AAu?$AAl?$AAa?$AAt?$AAo?$AAr?$AA?5?$AAw?$AAa?$AAv?$AAe?$AA?5?$AAt@
CONST	SEGMENT DWORD USE32 PUBLIC 'CONST'
CONST	ENDS
;	COMDAT ??_C@_1CM@FAPBPOGD@?$AAV?$AAR?$AAC?$AA7?$AA?5?$AAu?$AAs?$AAe?$AAr?$AA?5?$AAi?$AAn?$AAs?$AAt?$AAr?$AAu?$AAm?$AAe?$AAn?$AAt@
CONST	SEGMENT DWORD USE32 PUBLIC 'CONST'
CONST	ENDS
;	COMDAT ??_C@_1CA@NKOKHIPN@?$AAn?$AA1?$AA6?$AA3?$AA?5?$AAw?$AAa?$AAv?$AAe?$AA?5?$AAt?$AAa?$AAb?$AAl?$AAe?$AA?$AA@
CONST	SEGMENT DWORD USE32 PUBLIC 'CONST'
CONST	ENDS
;	COMDAT ??_C@_1EA@CPIKLJAL@?$AA?$EA?$AAN?$AA?50?$LD0?$NO0?s0?I0n0?Q0?i0?a0?$PM0?$LP0L?$IN?$LD0?$IK0?$HO0?$FL0?$JD0?$AC@
CONST	SEGMENT DWORD USE32 PUBLIC 'CONST'
CONST	ENDS
;	COMDAT ??_C@_1CO@PCFIGAHG@?$AAJ0?$LD0?$NO0?s0?I0o?$AA0?$PP?$FO?$AA10n?$HL?DV?r0gc?$AH?$FL?$JK0W0f0O0?$GA0U@
CONST	SEGMENT DWORD USE32 PUBLIC 'CONST'
CONST	ENDS
;	COMDAT ??_C@_1CC@EMHPIIFB@?$AAG?$AAa?$AAt?$AAe?$AAt?$AAi?$AAm?$AAe?$AA?$CI?$AAq?$AA?$CJ?$AA?5?$AAB?$AAy?$AAt?$AAe?$AA?$AA@
CONST	SEGMENT DWORD USE32 PUBLIC 'CONST'
CONST	ENDS
;	COMDAT ??_C@_1BI@DCFFOBJ@?$AAG?$AAa?$AAt?$AAe?$AAt?$AAi?$AAm?$AAe?$AA?$CI?$AAq?$AA?$CJ?$AA?$AA@
CONST	SEGMENT DWORD USE32 PUBLIC 'CONST'
CONST	ENDS
;	COMDAT ??_C@_1BI@IPILGHHC@?$AAG?$AAa?$AAt?$AAe?$AAT?$AAi?$AAm?$AAe?$AA?$CI?$AAu?$AA?$CJ?$AA?$AA@
CONST	SEGMENT DWORD USE32 PUBLIC 'CONST'
CONST	ENDS
;	COMDAT ??_C@_1DI@HCGIJCFJ@0?$LC0?$PM0?H0?$LP0?$KE0?$OA?$AAQ0o?$AA1?$PP?$FO?$AA?$CD?$AAQ?$AAM?$AAa?$AAx0n?$HL?DV?r0gc?$AH@
CONST	SEGMENT DWORD USE32 PUBLIC 'CONST'
CONST	ENDS
;	COMDAT ??_C@_1DE@DMILNHDF@0?$LC0?$PM0?H0?$LP0?$KE0?$OA?$AAq0o?$AA0?$PP?$FO?$AA2?$AA5?$AA50n?$HL?DV?r0gc?$AH?$FL?$JK0W@
CONST	SEGMENT DWORD USE32 PUBLIC 'CONST'
CONST	ENDS
;	COMDAT ??_C@_1BG@CIPPAIIN@?$AAG?$AAa?$AAt?$AAe?$AAM?$AAo?$AAd?$AAe?$AA?5?$AA0?$AA?$AA@
CONST	SEGMENT DWORD USE32 PUBLIC 'CONST'
CONST	ENDS
;	COMDAT ??_C@_1BG@JAEDGPOI@?$AAG?$AAa?$AAt?$AAe?$AAM?$AAo?$AAd?$AAe?$AA?5?$AA1?$AA?$AA@
CONST	SEGMENT DWORD USE32 PUBLIC 'CONST'
CONST	ENDS
;	COMDAT ??_C@_1BG@ICPGMAAG@?$AAG?$AAa?$AAt?$AAe?$AAM?$AAo?$AAd?$AAe?$AA?5?$AA2?$AA?$AA@
CONST	SEGMENT DWORD USE32 PUBLIC 'CONST'
CONST	ENDS
;	COMDAT ??_C@_1DC@NMCJFJGP@0?j0?j0?$PM0?$LJ0?b0?$PM0?I0o?$AA0?$PP?$FO?$AA20n?$HL?DV?r0gc?$AH?$FL?$JK0W0f0O@
CONST	SEGMENT DWORD USE32 PUBLIC 'CONST'
CONST	ENDS
;	COMDAT ??_C@_1BM@LPHMCIPB@?$AAR?$AAe?$AAl?$AAe?$AAa?$AAs?$AAe?$AA?5?$AAV?$AAo?$AAi?$AAc?$AAe?$AA?$AA@
CONST	SEGMENT DWORD USE32 PUBLIC 'CONST'
CONST	ENDS
;	COMDAT ??_C@_1DA@NPNLAEDI@0?j0?j0?$PM0?$LJ?$JH?s?$ICr0o?$AA0?$PP?$FO?$AA70n?$HL?DV?r0gc?$AH?$FL?$JK0W0f0O0?$GA@
CONST	SEGMENT DWORD USE32 PUBLIC 'CONST'
CONST	ENDS
;	COMDAT ??_C@_1BO@IEEELBMO@?$AAR?$AAe?$AAl?$AAe?$AAa?$AAs?$AAe?$AA?5?$AAV?$AAo?$AAl?$AAu?$AAm?$AAe?$AA?$AA@
CONST	SEGMENT DWORD USE32 PUBLIC 'CONST'
CONST	ENDS
;	COMDAT ??_C@_1CK@OMCJIBOF@?$JH?s?$JB?O0o?$AA0?$PP?$FO?$AA1?$AA50n?$HL?DV?r0gc?$AH?$FL?$JK0W0f0O0?$GA0U0D0?$AC@
CONST	SEGMENT DWORD USE32 PUBLIC 'CONST'
CONST	ENDS
;	COMDAT ??_C@_05KFOFLDIO@C?9Dur?$AA@
CONST	SEGMENT DWORD USE32 PUBLIC 'CONST'
CONST	ENDS
;	COMDAT ??_C@_06DNHFJLJE@Ds?9Dur?$AA@
CONST	SEGMENT DWORD USE32 PUBLIC 'CONST'
CONST	ENDS
;	COMDAT ??_C@_07BCGGFLM@Des?9Dur?$AA@
CONST	SEGMENT DWORD USE32 PUBLIC 'CONST'
CONST	ENDS
;	COMDAT ??_C@_05LIOAIDDG@D?9Dur?$AA@
CONST	SEGMENT DWORD USE32 PUBLIC 'CONST'
CONST	ENDS
;	COMDAT ??_C@_06JLACJACA@Es?9Dur?$AA@
CONST	SEGMENT DWORD USE32 PUBLIC 'CONST'
CONST	ENDS
;	COMDAT ??_C@_05HDLMFAJD@E?9Dur?$AA@
CONST	SEGMENT DWORD USE32 PUBLIC 'CONST'
CONST	ENDS
;	COMDAT ??_C@_05PFCICCDN@F?9Dur?$AA@
CONST	SEGMENT DWORD USE32 PUBLIC 'CONST'
CONST	ENDS
;	COMDAT ??_C@_07IEKDAILF@Fis?9Dur?$AA@
CONST	SEGMENT DWORD USE32 PUBLIC 'CONST'
CONST	ENDS
;	COMDAT ??_C@_06MJNIBAJ@Gs?9Dur?$AA@
CONST	SEGMENT DWORD USE32 PUBLIC 'CONST'
CONST	ENDS
;	COMDAT ??_C@_07IPKJGCFP@Ges?9Dur?$AA@
CONST	SEGMENT DWORD USE32 PUBLIC 'CONST'
CONST	ENDS
;	COMDAT ??_C@_05DOHEPBJI@G?9Dur?$AA@
CONST	SEGMENT DWORD USE32 PUBLIC 'CONST'
CONST	ENDS
;	COMDAT ??_C@_06GPENLEDD@As?9Dur?$AA@
CONST	SEGMENT DWORD USE32 PUBLIC 'CONST'
CONST	ENDS
;	COMDAT ??_C@_05OICNBCIF@A?9Dur?$AA@
CONST	SEGMENT DWORD USE32 PUBLIC 'CONST'
CONST	ENDS
;	COMDAT ??_C@_05GOLJGACL@B?9Dur?$AA@
CONST	SEGMENT DWORD USE32 PUBLIC 'CONST'
CONST	ENDS
;	COMDAT ??_C@_06FOKFKOKO@Bs?9Dur?$AA@
CONST	SEGMENT DWORD USE32 PUBLIC 'CONST'
CONST	ENDS
;	COMDAT ??_C@_05MPCCEDEN@H?9Dur?$AA@
CONST	SEGMENT DWORD USE32 PUBLIC 'CONST'
CONST	ENDS
;	COMDAT ??_C@_06OJJNCCFH@c?9moll?$AA@
CONST	SEGMENT DWORD USE32 PUBLIC 'CONST'
CONST	ENDS
;	COMDAT ??_C@_08FPGMHDLI@cis?9moll?$AA@
CONST	SEGMENT DWORD USE32 PUBLIC 'CONST'
CONST	ENDS
;	COMDAT ??_C@_06CMDKBMNJ@d?9moll?$AA@
CONST	SEGMENT DWORD USE32 PUBLIC 'CONST'
CONST	ENDS
;	COMDAT ??_C@_08DLANBOHB@dis?9moll?$AA@
CONST	SEGMENT DWORD USE32 PUBLIC 'CONST'
CONST	ENDS
;	COMDAT ??_C@_07OOAGBAFB@es?9moll?$AA@
CONST	SEGMENT DWORD USE32 PUBLIC 'CONST'
CONST	ENDS
;	COMDAT ??_C@_06IKENBHGN@e?9moll?$AA@
CONST	SEGMENT DWORD USE32 PUBLIC 'CONST'
CONST	ENDS
;	COMDAT ??_C@_06LLKFANPA@f?9moll?$AA@
CONST	SEGMENT DWORD USE32 PUBLIC 'CONST'
CONST	ENDS
;	COMDAT ??_C@_08BFPLDGPH@fis?9moll?$AA@
CONST	SEGMENT DWORD USE32 PUBLIC 'CONST'
CONST	ENDS
;	COMDAT ??_C@_06BNNCAGEE@g?9moll?$AA@
CONST	SEGMENT DWORD USE32 PUBLIC 'CONST'
CONST	ENDS
;	COMDAT ??_C@_08CIACCLE@gis?9moll?$AA@
CONST	SEGMENT DWORD USE32 PUBLIC 'CONST'
CONST	ENDS
;	COMDAT ??_C@_06HOACDDHO@a?9moll?$AA@
CONST	SEGMENT DWORD USE32 PUBLIC 'CONST'
CONST	ENDS
;	COMDAT ??_C@_06EPOKCJOD@b?9moll?$AA@
CONST	SEGMENT DWORD USE32 PUBLIC 'CONST'
CONST	ENDS
;	COMDAT ??_C@_07OEMDBJEI@bs?9moll?$AA@
CONST	SEGMENT DWORD USE32 PUBLIC 'CONST'
CONST	ENDS
;	COMDAT ??_C@_06OLJKHGKN@h?9moll?$AA@
CONST	SEGMENT DWORD USE32 PUBLIC 'CONST'
CONST	ENDS
;	COMDAT ??_C@_07CCKMBAMP@ds?9moll?$AA@
CONST	SEGMENT DWORD USE32 PUBLIC 'CONST'
CONST	ENDS
;	COMDAT ??_C@_08GMKCALDO@des?9moll?$AA@
CONST	SEGMENT DWORD USE32 PUBLIC 'CONST'
CONST	ENDS
;	COMDAT ??_C@_07KMCDBHCM@gs?9moll?$AA@
CONST	SEGMENT DWORD USE32 PUBLIC 'CONST'
CONST	ENDS
;	COMDAT ??_C@_08FFCPDHPL@ges?9moll?$AA@
CONST	SEGMENT DWORD USE32 PUBLIC 'CONST'
CONST	ENDS
;	COMDAT ??_C@_07GKEMBOKL@as?9moll?$AA@
CONST	SEGMENT DWORD USE32 PUBLIC 'CONST'
CONST	ENDS
;	COMDAT ??_C@_01MIFGBAGJ@?$CL?$AA@
CONST	SEGMENT DWORD USE32 PUBLIC 'CONST'
CONST	ENDS
;	COMDAT ??_C@_02CMICPHGH@?$IB?$HL?$AA@
CONST	SEGMENT DWORD USE32 PUBLIC 'CONST'
CONST	ENDS
;	COMDAT ??_C@_01IPJKGB@?$CD?$AA@
CONST	SEGMENT DWORD USE32 PUBLIC 'CONST'
CONST	ENDS
;	COMDAT ??_C@_02PFGEBIEE@?$IB?$JE?$AA@
CONST	SEGMENT DWORD USE32 PUBLIC 'CONST'
CONST	ENDS
;	COMDAT ??_C@_02GDMDGBKA@?$IB?$HM?$AA@
CONST	SEGMENT DWORD USE32 PUBLIC 'CONST'
CONST	ENDS
;	COMDAT ??_C@_02NPNIOFCE@?$IB?s?$AA@
CONST	SEGMENT DWORD USE32 PUBLIC 'CONST'
CONST	ENDS
;	COMDAT ??_C@_01NEMOKFLO@?$DN?$AA@
CONST	SEGMENT DWORD USE32 PUBLIC 'CONST'
CONST	ENDS
;	COMDAT ??_C@_02MCNBPOFA@?$IB?$IB?$AA@
CONST	SEGMENT DWORD USE32 PUBLIC 'CONST'
CONST	ENDS
;	COMDAT ??_C@_01NBENCBCI@?$CK?$AA@
CONST	SEGMENT DWORD USE32 PUBLIC 'CONST'
CONST	ENDS
;	COMDAT ??_C@_02MHFCHKMG@?$IB?$JG?$AA@
CONST	SEGMENT DWORD USE32 PUBLIC 'CONST'
CONST	ENDS
;	COMDAT ??_C@_02LJKBFKON@?$ID?$JD?$AA@
CONST	SEGMENT DWORD USE32 PUBLIC 'CONST'
CONST	ENDS
;	COMDAT ??_C@_02LEAGIKBB@?$IDb?$AA@
CONST	SEGMENT DWORD USE32 PUBLIC 'CONST'
CONST	ENDS
;	COMDAT ??_C@_02OPKIDJPP@?$IC?q?$AA@
CONST	SEGMENT DWORD USE32 PUBLIC 'CONST'
CONST	ENDS
;	COMDAT ??_C@_02DAOOAPAM@?$IC?A?$AA@
CONST	SEGMENT DWORD USE32 PUBLIC 'CONST'
CONST	ENDS
;	COMDAT ??_C@_02BILDMFBN@?$IDn?$AA@
CONST	SEGMENT DWORD USE32 PUBLIC 'CONST'
CONST	ENDS
;	COMDAT ??_C@_02HMNPAABJ@?$IDj?$AA@
CONST	SEGMENT DWORD USE32 PUBLIC 'CONST'
CONST	ENDS
;	COMDAT ??_C@_02DGBNBCEI@?$IDz?$AA@
CONST	SEGMENT DWORD USE32 PUBLIC 'CONST'
CONST	ENDS
;	COMDAT ??_C@_02IDLDGMAF@?$IDw?$AA@
CONST	SEGMENT DWORD USE32 PUBLIC 'CONST'
CONST	ENDS
;	COMDAT ??_C@_02MJHBHOFE@?$IDg?$AA@
CONST	SEGMENT DWORD USE32 PUBLIC 'CONST'
CONST	ENDS
;	COMDAT ??_C@_02DIJJJPPC@?$IDC?$AA@
CONST	SEGMENT DWORD USE32 PUBLIC 'CONST'
CONST	ENDS
;	COMDAT ??_C@_02GNOAGFDC@?$ID?$IN?$AA@
CONST	SEGMENT DWORD USE32 PUBLIC 'CONST'
CONST	ENDS
;	COMDAT ??_C@_1DI@JCDDEPJK@?$IK?$LPS?w0?$LD0?$NO0?s0?I0?$PL0?V0?m0?C0?$KP0n?$JF?$ILY?K0?$JCy?30Y?$AA?$HL0L?$IJ?$IL@
CONST	SEGMENT DWORD USE32 PUBLIC 'CONST'
CONST	ENDS
;	COMDAT ??_C@_1DI@GALIBNKP@?$IK?$LPS?w0?$LD0?$NO0?s0?I0?$PL0?V0?m0?C0?$KP0n?$HNBz?o0?$JCy?30Y?$AA?$GA?$AA?$HN?$AA?8@
CONST	SEGMENT DWORD USE32 PUBLIC 'CONST'
CONST	ENDS
;	COMDAT ??_C@_1DM@KNFDIHJH@?$IK?$LPS?w?$AA?5?$AAK?$AA?$HL?$AA?$HN?$AA?50?$LD0?$NO0?s0?I0n_?$BFep0gg?$CKw?e0ne?$IH?$FLW@
CONST	SEGMENT DWORD USE32 PUBLIC 'CONST'
CONST	ENDS
;	COMDAT ??_C@_1BE@PDJGDLM@?$AAL?$AAe?$AAn?$AAg?$AAt?$AAh?$AA?5?$AA9?$AA6?$AA?$AA@
CONST	SEGMENT DWORD USE32 PUBLIC 'CONST'
CONST	ENDS
;	COMDAT ??_C@_1BE@LKFBJFJL@?$AAL?$AAe?$AAn?$AAg?$AAt?$AAh?$AA?5?$AA7?$AA2?$AA?$AA@
CONST	SEGMENT DWORD USE32 PUBLIC 'CONST'
CONST	ENDS
;	COMDAT ??_C@_1BE@FDHIAHFB@?$AAL?$AAe?$AAn?$AAg?$AAt?$AAh?$AA?5?$AA4?$AA8?$AA?$AA@
CONST	SEGMENT DWORD USE32 PUBLIC 'CONST'
CONST	ENDS
;	COMDAT ??_C@_1BE@KOKCEANK@?$AAL?$AAe?$AAn?$AAg?$AAt?$AAh?$AA?5?$AA3?$AA6?$AA?$AA@
CONST	SEGMENT DWORD USE32 PUBLIC 'CONST'
CONST	ENDS
;	COMDAT ??_C@_1BE@CBMANHIN@?$AAL?$AAe?$AAn?$AAg?$AAt?$AAh?$AA?5?$AA3?$AA2?$AA?$AA@
CONST	SEGMENT DWORD USE32 PUBLIC 'CONST'
CONST	ENDS
;	COMDAT ??_C@_1BE@MPPHFLPE@?$AAL?$AAe?$AAn?$AAg?$AAt?$AAh?$AA?5?$AA2?$AA4?$AA?$AA@
CONST	SEGMENT DWORD USE32 PUBLIC 'CONST'
CONST	ENDS
;	COMDAT ??_C@_1BE@DLFJGOC@?$AAL?$AAe?$AAn?$AAg?$AAt?$AAh?$AA?5?$AA1?$AA8?$AA?$AA@
CONST	SEGMENT DWORD USE32 PUBLIC 'CONST'
CONST	ENDS
;	COMDAT ??_C@_1BE@ODGKOBNB@?$AAL?$AAe?$AAn?$AAg?$AAt?$AAh?$AA?5?$AA1?$AA6?$AA?$AA@
CONST	SEGMENT DWORD USE32 PUBLIC 'CONST'
CONST	ENDS
;	COMDAT ??_C@_1BE@GMAIHGIG@?$AAL?$AAe?$AAn?$AAg?$AAt?$AAh?$AA?5?$AA1?$AA2?$AA?$AA@
CONST	SEGMENT DWORD USE32 PUBLIC 'CONST'
CONST	ENDS
;	COMDAT ??_C@_1BC@BACHBKJG@?$AAL?$AAe?$AAn?$AAg?$AAt?$AAh?$AA?5?$AA9?$AA?$AA@
CONST	SEGMENT DWORD USE32 PUBLIC 'CONST'
CONST	ENDS
;	COMDAT ??_C@_1BC@KIJLHNPD@?$AAL?$AAe?$AAn?$AAg?$AAt?$AAh?$AA?5?$AA8?$AA?$AA@
CONST	SEGMENT DWORD USE32 PUBLIC 'CONST'
CONST	ENDS
;	COMDAT ??_C@_1BC@EIEEAKMA@?$AAL?$AAe?$AAn?$AAg?$AAt?$AAh?$AA?5?$AA6?$AA?$AA@
CONST	SEGMENT DWORD USE32 PUBLIC 'CONST'
CONST	ENDS
;	COMDAT ??_C@_1BC@OCENMCEL@?$AAL?$AAe?$AAn?$AAg?$AAt?$AAh?$AA?5?$AA4?$AA?$AA@
CONST	SEGMENT DWORD USE32 PUBLIC 'CONST'
CONST	ENDS
;	COMDAT ??_C@_1BC@HPJKPKPC@?$AAL?$AAe?$AAn?$AAg?$AAt?$AAh?$AA?5?$AA3?$AA?$AA@
CONST	SEGMENT DWORD USE32 PUBLIC 'CONST'
CONST	ENDS
;	COMDAT ??_C@_1BC@MHCGJNJH@?$AAL?$AAe?$AAn?$AAg?$AAt?$AAh?$AA?5?$AA2?$AA?$AA@
CONST	SEGMENT DWORD USE32 PUBLIC 'CONST'
CONST	ENDS
;	COMDAT ??_C@_1BC@NFJDDCHJ@?$AAL?$AAe?$AAn?$AAg?$AAt?$AAh?$AA?5?$AA1?$AA?$AA@
CONST	SEGMENT DWORD USE32 PUBLIC 'CONST'
CONST	ENDS
;	COMDAT ??_C@_1O@IONIPGKG@?$AAL?$AAe?$AAn?$AAg?$AAt?$AAh?$AA?$AA@
CONST	SEGMENT DWORD USE32 PUBLIC 'CONST'
CONST	ENDS
;	COMDAT ??_C@_1EE@FMLCMNNO@?$AAE?$AAC0?$LD0?$NO0?s0?I0n?$HL?0?$PP?$BB0?Q0?i0?a0?$PM0?$LP0o?$AA0?$PP?$FO?$AA2?$AA5?$AA5@
CONST	SEGMENT DWORD USE32 PUBLIC 'CONST'
CONST	ENDS
;	COMDAT ??_C@_1EA@ECJHFDDN@?$AAE?$AAC?$AA?50?$LD0?$NO0?s0?I0n0?Q0?i0?a0?$PM0?$LP0L?$IN?$LD0?$IK0?$HO0?$FL0?$JD0?$AC@
CONST	SEGMENT DWORD USE32 PUBLIC 'CONST'
CONST	ENDS
;	COMDAT ??_C@_1EE@OOLANPID@?$AAE?$AAC0?$LD0?$NO0?s0?I0n?$HL?0?$PP?$BC0?Q0?i0?a0?$PM0?$LP0o?$AA?9?$AA1?$PP?$FO?$AA1?$AA5@
CONST	SEGMENT DWORD USE32 PUBLIC 'CONST'
CONST	ENDS
;	COMDAT ??_C@_1DK@PHOKHOEC@?$JH?sz?$AL0n?$HL?DV?r0L0?N0?$PM0?H0?J0?s0?P0?$PM?$AA0?$PP?$FO?$AA2?$AA5?$AA50n?$HL?D@
CONST	SEGMENT DWORD USE32 PUBLIC 'CONST'
CONST	ENDS
;	COMDAT ??_C@_1BI@EPMKAKFB@?$AAE?$AAc?$AAh?$AAo?$AA?5?$AAV?$AAo?$AAl?$AAu?$AAm?$AAe?$AA?$AA@
CONST	SEGMENT DWORD USE32 PUBLIC 'CONST'
CONST	ENDS
;	COMDAT ??_C@_1CK@JCJILIHF@?$AAO?$AAn?$AAe?$AA?5?$AAt?$AAi?$AAm?$AAe?$AA?5?$AAo?$AAc?$AAt?$AAa?$AAv?$AAe?$AA?5?$AAd?$AAo?$AAw?$AAn@
CONST	SEGMENT DWORD USE32 PUBLIC 'CONST'
CONST	ENDS
;	COMDAT ??_C@_1CG@IKGHOBJA@?$AAO?$AAn?$AAe?$AA?5?$AAt?$AAi?$AAm?$AAe?$AA?5?$AAo?$AAc?$AAt?$AAa?$AAv?$AAe?$AA?5?$AAu?$AAp?$AA?$AA@
CONST	SEGMENT DWORD USE32 PUBLIC 'CONST'
CONST	ENDS
;	COMDAT ??_C@_1BE@HOMMDOEE@?$AAE?$AAc?$AAh?$AAo?$AA?5?$AAN?$AAo?$AAt?$AAe?$AA?$AA@
CONST	SEGMENT DWORD USE32 PUBLIC 'CONST'
CONST	ENDS
;	COMDAT ??_C@_1O@DMLCJFNF@?$AAV?$AAo?$AAl?$AAu?$AAm?$AAe?$AA?$AA@
CONST	SEGMENT DWORD USE32 PUBLIC 'CONST'
CONST	ENDS
;	COMDAT ??_C@_19JIGFKGL@?$AAN?$AAo?$AAt?$AAe?$AA?$AA@
CONST	SEGMENT DWORD USE32 PUBLIC 'CONST'
CONST	ENDS
;	COMDAT ??_C@_1GG@HBOGPEMM@?$AAM?$AAu?$AAs?$AAi?$AAc?$AAT?$AAr?$AAa?$AAc?$AAk?$AA?3?$AA?3?$AAS?$AAe?$AAt?$AAR?$AAe?$AAs?$AAt?$AA?$CI@
CONST	SEGMENT DWORD USE32 PUBLIC 'CONST'
CONST	ENDS
;	COMDAT ??_C@_1GG@IPLHPKBL@?$AAM?$AAu?$AAs?$AAi?$AAc?$AAT?$AAr?$AAa?$AAc?$AAk?$AA?3?$AA?3?$AAS?$AAe?$AAt?$AAR?$AAe?$AAs?$AAt?$AA?$CI@
CONST	SEGMENT DWORD USE32 PUBLIC 'CONST'
CONST	ENDS
;	COMDAT ??_C@_19FAHECHIH@?$AAR?$AAe?$AAs?$AAt?$AA?$AA@
CONST	SEGMENT DWORD USE32 PUBLIC 'CONST'
CONST	ENDS
;	COMDAT ??_C@_1CK@DKBDHLKE@?$AAa?$AA?0?$AAb?$AA?0?$AAc?$PP?$FO?$AAg0n?$JH?sT?$AN0?$JC?$IK?$BI?$IP?p0W0f0O0?$GA0U0D0?$AC@
CONST	SEGMENT DWORD USE32 PUBLIC 'CONST'
CONST	ENDS
;	COMDAT ??_C@_1CM@GGEMPKPF@0?$NN0?k0?$LP0?a0?s0?H0?$LD0?$NO0?s0?I0o0?$AB?$AA?$HN0g?$JF?$IJ0X0fN?$AL0U0D@
CONST	SEGMENT DWORD USE32 PUBLIC 'CONST'
CONST	ENDS
;	COMDAT ??_C@_1DK@BBKDBEBK@0?$NN0?k0?$LP0?a0?s0?H0?$LD0?$NO0?s0?I0g0?$AB?$JH?s?$JFw0L?$AA2?$HL?$IHb?$EA0k?$IK?$BI@
CONST	SEGMENT DWORD USE32 PUBLIC 'CONST'
CONST	ENDS
;	COMDAT ??_C@_1EC@HFJPNNCI@0?$NN0?k0?$LP0?a0?s0?H0?$LD0?$NO0?s0?I0g0?$AB0?$LC0?$PM0?H0?$LP0?$KE0?$OA0L?$AA2@
CONST	SEGMENT DWORD USE32 PUBLIC 'CONST'
CONST	ENDS
;	COMDAT ??_C@_1BG@GGJHBHG@?$AAP?$AAo?$AAr?$AAt?$AAa?$AAm?$AAe?$AAn?$AAt?$AAo?$AA?$AA@
CONST	SEGMENT DWORD USE32 PUBLIC 'CONST'
CONST	ENDS
;	COMDAT ??_C@_1EE@PLBKOKJL@0?$NN0?k0?$LP0?a0?s0?H0n?$HL?0?$AA10?Q0?i0?a0?$PM0?$LP0o?$AA0?$PP?$FO?$AA2?$AA5?$AA5@
CONST	SEGMENT DWORD USE32 PUBLIC 'CONST'
CONST	ENDS
;	COMDAT ??_C@_1DO@OLCBIOJB@?$AAP?$AA?50?$LD0?$NO0?s0?I0n0?Q0?i0?a0?$PM0?$LP0L?$IN?$LD0?$IK0?$HO0?$FL0?$JD0?$AC?$PP?$BE@
CONST	SEGMENT DWORD USE32 PUBLIC 'CONST'
CONST	ENDS
;	COMDAT ??_C@_1EE@IIGGDGHG@0?$NN0?k0?$LP0?a0?s0?H0n?$HL?0?$AA20?Q0?i0?a0?$PM0?$LP0o?$AA1?$PP?$FO?$AA2?$AA5?$AA6@
CONST	SEGMENT DWORD USE32 PUBLIC 'CONST'
CONST	ENDS
;	COMDAT ??_C@_1EK@HIFALIIE@0?$NN0?k0?$LP0?a0?s0?H0n?$HL?0?$AA30?Q0?i0?a0?$PM0?$LP0o?$AA?9?$AA1?$AA2?$AA8?$PP?$FO@
CONST	SEGMENT DWORD USE32 PUBLIC 'CONST'
CONST	ENDS
;	COMDAT ??_C@_1EK@FHHEJADM@0?$NN0?k0?$LP0?a0?s0?H0n?$HL?0?$AA40?Q0?i0?a0?$PM0?$LP0o?$AA?9?$AA1?$AA2?$AA8?$PP?$FO@
CONST	SEGMENT DWORD USE32 PUBLIC 'CONST'
CONST	ENDS
;	COMDAT ??_C@_1DI@EBCJNIGK@0?$KN0?$PM0?$LH0?U0?H0o?$AA?9?$AA1?$AA2?$AA7?$PP?$FO?$AA1?$AA2?$AA80n?$HL?DV?r0gc?$AH?$FL?$JK@
CONST	SEGMENT DWORD USE32 PUBLIC 'CONST'
CONST	ENDS
;	COMDAT ??_C@_1DC@IEPABAMO@0?$KN0?$PM0?$LH0?U0?H0n?$HL?DV?r0L?$AA?9?$AA1?$AA2?$AA7?$PP?$FO?$AA1?$AA2?$AA80?$JC?$IN?$IF0H@
CONST	SEGMENT DWORD USE32 PUBLIC 'CONST'
CONST	ENDS
;	COMDAT ??_C@_1BE@FKDCKBLJ@?$AAT?$AAr?$AAa?$AAn?$AAs?$AAp?$AAo?$AAs?$AAe?$AA?$AA@
CONST	SEGMENT DWORD USE32 PUBLIC 'CONST'
CONST	ENDS
;	COMDAT ??_C@_1CG@MDOKKNHL@?$AAR?$AAe?$AAl?$AAa?$AAt?$AAi?$AAv?$AAe?$AA?5?$AAT?$AAr?$AAa?$AAn?$AAs?$AAp?$AAo?$AAs?$AAe?$AA?$AA@
CONST	SEGMENT DWORD USE32 PUBLIC 'CONST'
CONST	ENDS
;	COMDAT ??_C@_1O@FEMFBHON@?$AAO?$AAc?$AAt?$AAa?$AAv?$AAe?$AA?$AA@
CONST	SEGMENT DWORD USE32 PUBLIC 'CONST'
CONST	ENDS
;	COMDAT ??_C@_1CO@KKLECMEI@0?$KK0?$KP0?$LP0?$PM0?V0o?$AA1?$PP?$FO?$AA80n?$HL?DV?r0gc?$AH?$FL?$JK0W0f0O0?$GA0U@
CONST	SEGMENT DWORD USE32 PUBLIC 'CONST'
CONST	ENDS
;	COMDAT ??_C@_1BE@JMDGIABI@?$AAO?$AAc?$AAt?$AAa?$AAv?$AAe?$AA?5?$AAU?$AAp?$AA?$AA@
CONST	SEGMENT DWORD USE32 PUBLIC 'CONST'
CONST	ENDS
;	COMDAT ??_C@_1BI@KEBEFOPC@?$AAO?$AAc?$AAt?$AAa?$AAv?$AAe?$AA?5?$AAD?$AAo?$AAw?$AAn?$AA?$AA@
CONST	SEGMENT DWORD USE32 PUBLIC 'CONST'
CONST	ENDS
;	COMDAT ??_C@_1BE@ILJOBKB@?$AAV?$AAo?$AAl?$AAu?$AAm?$AAe?$AA?5?$AAu?$AAp?$AA?$AA@
CONST	SEGMENT DWORD USE32 PUBLIC 'CONST'
CONST	ENDS
;	COMDAT ??_C@_1BI@MGACCNCM@?$AAV?$AAo?$AAl?$AAu?$AAm?$AAe?$AA?5?$AAd?$AAo?$AAw?$AAn?$AA?$AA@
CONST	SEGMENT DWORD USE32 PUBLIC 'CONST'
CONST	ENDS
;	COMDAT ??_C@_0BD@OLBABOEK@vector?$DMT?$DO?5too?5long?$AA@
CONST	SEGMENT DWORD USE32 PUBLIC 'CONST'
CONST	ENDS
text$yc	SEGMENT PARA USE32 PUBLIC 'CODE'
text$yc	ENDS
;	COMDAT ??0?$vector@HV?$allocator@H@std@@@std@@QAE@XZ
_TEXT	SEGMENT PARA USE32 PUBLIC 'CODE'
_TEXT	ENDS
;	COMDAT ??1?$vector@HV?$allocator@H@std@@@std@@QAE@XZ
_TEXT	SEGMENT PARA USE32 PUBLIC 'CODE'
_TEXT	ENDS
;	COMDAT ?end@?$vector@HV?$allocator@H@std@@@std@@QAE?AViterator@12@XZ
_TEXT	SEGMENT PARA USE32 PUBLIC 'CODE'
_TEXT	ENDS
;	COMDAT ?push_back@?$vector@HV?$allocator@H@std@@@std@@QAEXABH@Z
_TEXT	SEGMENT PARA USE32 PUBLIC 'CODE'
_TEXT	ENDS
;	COMDAT ?pop_back@?$vector@HV?$allocator@H@std@@@std@@QAEXXZ
_TEXT	SEGMENT PARA USE32 PUBLIC 'CODE'
_TEXT	ENDS
;	COMDAT ??0iterator@?$vector@HV?$allocator@H@std@@@std@@QAE@XZ
_TEXT	SEGMENT PARA USE32 PUBLIC 'CODE'
_TEXT	ENDS
;	COMDAT ??Diterator@?$vector@HV?$allocator@H@std@@@std@@QBEAAHXZ
_TEXT	SEGMENT PARA USE32 PUBLIC 'CODE'
_TEXT	ENDS
;	COMDAT ??Fiterator@?$vector@HV?$allocator@H@std@@@std@@QAE?AV012@H@Z
_TEXT	SEGMENT PARA USE32 PUBLIC 'CODE'
_TEXT	ENDS
;	COMDAT ??0?$list@IV?$allocator@I@std@@@std@@QAE@XZ
_TEXT	SEGMENT PARA USE32 PUBLIC 'CODE'
_TEXT	ENDS
;	COMDAT ??1?$list@IV?$allocator@I@std@@@std@@QAE@XZ
_TEXT	SEGMENT PARA USE32 PUBLIC 'CODE'
_TEXT	ENDS
;	COMDAT ?end@?$list@IV?$allocator@I@std@@@std@@QAE?AViterator@12@XZ
_TEXT	SEGMENT PARA USE32 PUBLIC 'CODE'
_TEXT	ENDS
;	COMDAT ?push_back@?$list@IV?$allocator@I@std@@@std@@QAEXABI@Z
_TEXT	SEGMENT PARA USE32 PUBLIC 'CODE'
_TEXT	ENDS
;	COMDAT ?pop_back@?$list@IV?$allocator@I@std@@@std@@QAEXXZ
_TEXT	SEGMENT PARA USE32 PUBLIC 'CODE'
_TEXT	ENDS
;	COMDAT ??0?$list@Viterator@?$list@PAVMusicItem@@V?$allocator@PAVMusicItem@@@std@@@std@@V?$allocator@Viterator@?$list@PAVMusicItem@@V?$allocator@PAVMusicItem@@@std@@@std@@@3@@std@@QAE@XZ
_TEXT	SEGMENT PARA USE32 PUBLIC 'CODE'
_TEXT	ENDS
;	COMDAT ??1?$list@Viterator@?$list@PAVMusicItem@@V?$allocator@PAVMusicItem@@@std@@@std@@V?$allocator@Viterator@?$list@PAVMusicItem@@V?$allocator@PAVMusicItem@@@std@@@std@@@3@@std@@QAE@XZ
_TEXT	SEGMENT PARA USE32 PUBLIC 'CODE'
_TEXT	ENDS
;	COMDAT ?end@?$list@Viterator@?$list@PAVMusicItem@@V?$allocator@PAVMusicItem@@@std@@@std@@V?$allocator@Viterator@?$list@PAVMusicItem@@V?$allocator@PAVMusicItem@@@std@@@std@@@3@@std@@QAE?AViterator@12@XZ
_TEXT	SEGMENT PARA USE32 PUBLIC 'CODE'
_TEXT	ENDS
;	COMDAT ?push_back@?$list@Viterator@?$list@PAVMusicItem@@V?$allocator@PAVMusicItem@@@std@@@std@@V?$allocator@Viterator@?$list@PAVMusicItem@@V?$allocator@PAVMusicItem@@@std@@@std@@@3@@std@@QAEXABViterator@?$list@PAVMusicItem@@V?$allocator@PAVMusicItem@@@std@@@2@@Z
_TEXT	SEGMENT PARA USE32 PUBLIC 'CODE'
_TEXT	ENDS
;	COMDAT ?pop_back@?$list@Viterator@?$list@PAVMusicItem@@V?$allocator@PAVMusicItem@@@std@@@std@@V?$allocator@Viterator@?$list@PAVMusicItem@@V?$allocator@PAVMusicItem@@@std@@@std@@@3@@std@@QAEXXZ
_TEXT	SEGMENT PARA USE32 PUBLIC 'CODE'
_TEXT	ENDS
;	COMDAT ??0iterator@?$list@IV?$allocator@I@std@@@std@@QAE@XZ
_TEXT	SEGMENT PARA USE32 PUBLIC 'CODE'
_TEXT	ENDS
;	COMDAT ??Diterator@?$list@IV?$allocator@I@std@@@std@@QBEAAIXZ
_TEXT	SEGMENT PARA USE32 PUBLIC 'CODE'
_TEXT	ENDS
;	COMDAT ??Fiterator@?$list@IV?$allocator@I@std@@@std@@QAE?AV012@H@Z
_TEXT	SEGMENT PARA USE32 PUBLIC 'CODE'
_TEXT	ENDS
;	COMDAT ??0iterator@?$list@Viterator@?$list@PAVMusicItem@@V?$allocator@PAVMusicItem@@@std@@@std@@V?$allocator@Viterator@?$list@PAVMusicItem@@V?$allocator@PAVMusicItem@@@std@@@std@@@3@@std@@QAE@XZ
_TEXT	SEGMENT PARA USE32 PUBLIC 'CODE'
_TEXT	ENDS
;	COMDAT ??Diterator@?$list@Viterator@?$list@PAVMusicItem@@V?$allocator@PAVMusicItem@@@std@@@std@@V?$allocator@Viterator@?$list@PAVMusicItem@@V?$allocator@PAVMusicItem@@@std@@@std@@@3@@std@@QBEAAV0?$list@PAVMusicItem@@V?$allocator@PAVMusicItem@@@std@@@2@XZ
_TEXT	SEGMENT PARA USE32 PUBLIC 'CODE'
_TEXT	ENDS
;	COMDAT ??Fiterator@?$list@Viterator@?$list@PAVMusicItem@@V?$allocator@PAVMusicItem@@@std@@@std@@V?$allocator@Viterator@?$list@PAVMusicItem@@V?$allocator@PAVMusicItem@@@std@@@std@@@3@@std@@QAE?AV012@H@Z
_TEXT	SEGMENT PARA USE32 PUBLIC 'CODE'
_TEXT	ENDS
;	COMDAT ??0?$vector@PAVmml_Address@@V?$allocator@PAVmml_Address@@@std@@@std@@QAE@XZ
_TEXT	SEGMENT PARA USE32 PUBLIC 'CODE'
_TEXT	ENDS
;	COMDAT ??1?$vector@PAVmml_Address@@V?$allocator@PAVmml_Address@@@std@@@std@@QAE@XZ
_TEXT	SEGMENT PARA USE32 PUBLIC 'CODE'
_TEXT	ENDS
;	COMDAT ?begin@?$vector@PAVmml_Address@@V?$allocator@PAVmml_Address@@@std@@@std@@QAE?AViterator@12@XZ
_TEXT	SEGMENT PARA USE32 PUBLIC 'CODE'
_TEXT	ENDS
;	COMDAT ?end@?$vector@PAVmml_Address@@V?$allocator@PAVmml_Address@@@std@@@std@@QAE?AViterator@12@XZ
_TEXT	SEGMENT PARA USE32 PUBLIC 'CODE'
_TEXT	ENDS
;	COMDAT ?empty@?$vector@PAVmml_Address@@V?$allocator@PAVmml_Address@@@std@@@std@@QBE_NXZ
_TEXT	SEGMENT PARA USE32 PUBLIC 'CODE'
_TEXT	ENDS
;	COMDAT ?push_back@?$vector@PAVmml_Address@@V?$allocator@PAVmml_Address@@@std@@@std@@QAEXABQAVmml_Address@@@Z
_TEXT	SEGMENT PARA USE32 PUBLIC 'CODE'
_TEXT	ENDS
;	COMDAT ??A?$map@IPAVPatch@@U?$less@I@std@@V?$allocator@U?$pair@$$CBIPAVPatch@@@std@@@3@@std@@QAEAAPAVPatch@@ABI@Z
_TEXT	SEGMENT PARA USE32 PUBLIC 'CODE'
_TEXT	ENDS
;	COMDAT ??Fiterator@?$list@PAVMusicItem@@V?$allocator@PAVMusicItem@@@std@@@std@@QAE?AV012@H@Z
_TEXT	SEGMENT PARA USE32 PUBLIC 'CODE'
_TEXT	ENDS
;	COMDAT ??0iterator@?$vector@PAVmml_Address@@V?$allocator@PAVmml_Address@@@std@@@std@@QAE@XZ
_TEXT	SEGMENT PARA USE32 PUBLIC 'CODE'
_TEXT	ENDS
;	COMDAT ??Diterator@?$vector@PAVmml_Address@@V?$allocator@PAVmml_Address@@@std@@@std@@QBEAAPAVmml_Address@@XZ
_TEXT	SEGMENT PARA USE32 PUBLIC 'CODE'
_TEXT	ENDS
;	COMDAT ??Eiterator@?$vector@PAVmml_Address@@V?$allocator@PAVmml_Address@@@std@@@std@@QAE?AV012@H@Z
_TEXT	SEGMENT PARA USE32 PUBLIC 'CODE'
_TEXT	ENDS
;	COMDAT ??9const_iterator@?$vector@PAVmml_Address@@V?$allocator@PAVmml_Address@@@std@@@std@@QBE_NABV012@@Z
_TEXT	SEGMENT PARA USE32 PUBLIC 'CODE'
_TEXT	ENDS
;	COMDAT ??0?$allocator@H@std@@QAE@XZ
_TEXT	SEGMENT PARA USE32 PUBLIC 'CODE'
_TEXT	ENDS
;	COMDAT ??0?$allocator@I@std@@QAE@XZ
_TEXT	SEGMENT PARA USE32 PUBLIC 'CODE'
_TEXT	ENDS
;	COMDAT ?capacity@?$vector@HV?$allocator@H@std@@@std@@QBEIXZ
_TEXT	SEGMENT PARA USE32 PUBLIC 'CODE'
_TEXT	ENDS
;	COMDAT ?size@?$vector@HV?$allocator@H@std@@@std@@QBEIXZ
_TEXT	SEGMENT PARA USE32 PUBLIC 'CODE'
_TEXT	ENDS
;	COMDAT ?empty@?$vector@HV?$allocator@H@std@@@std@@QBE_NXZ
_TEXT	SEGMENT PARA USE32 PUBLIC 'CODE'
_TEXT	ENDS
;	COMDAT ?insert@?$vector@HV?$allocator@H@std@@@std@@QAE?AViterator@12@V312@ABH@Z
_TEXT	SEGMENT PARA USE32 PUBLIC 'CODE'
_TEXT	ENDS
;	COMDAT ?_Buy@?$vector@HV?$allocator@H@std@@@std@@IAE_NI@Z
_TEXT	SEGMENT PARA USE32 PUBLIC 'CODE'
_TEXT	ENDS
;	COMDAT ?_Destroy@?$vector@HV?$allocator@H@std@@@std@@IAEXPAH0@Z
_TEXT	SEGMENT PARA USE32 PUBLIC 'CODE'
_TEXT	ENDS
;	COMDAT ?_Tidy@?$vector@HV?$allocator@H@std@@@std@@IAEXXZ
_TEXT	SEGMENT PARA USE32 PUBLIC 'CODE'
_TEXT	ENDS
;	COMDAT ?_Ufill@?$vector@HV?$allocator@H@std@@@std@@IAEPAHPAHIABH@Z
_TEXT	SEGMENT PARA USE32 PUBLIC 'CODE'
_TEXT	ENDS
;	COMDAT ??0?$_Vector_val@HV?$allocator@H@std@@@std@@IAE@V?$allocator@H@1@@Z
_TEXT	SEGMENT PARA USE32 PUBLIC 'CODE'
_TEXT	ENDS
;	COMDAT ??0iterator@?$vector@HV?$allocator@H@std@@@std@@QAE@PAH@Z
_TEXT	SEGMENT PARA USE32 PUBLIC 'CODE'
_TEXT	ENDS
;	COMDAT ??Fiterator@?$vector@HV?$allocator@H@std@@@std@@QAEAAV012@XZ
_TEXT	SEGMENT PARA USE32 PUBLIC 'CODE'
_TEXT	ENDS
;	COMDAT ??0const_iterator@?$vector@HV?$allocator@H@std@@@std@@QAE@XZ
_TEXT	SEGMENT PARA USE32 PUBLIC 'CODE'
_TEXT	ENDS
;	COMDAT ??Dconst_iterator@?$vector@HV?$allocator@H@std@@@std@@QBEABHXZ
_TEXT	SEGMENT PARA USE32 PUBLIC 'CODE'
_TEXT	ENDS
;	COMDAT ?_Insert@?$list@IV?$allocator@I@std@@@std@@QAEXViterator@12@ABI@Z
_TEXT	SEGMENT PARA USE32 PUBLIC 'CODE'
_TEXT	ENDS
;	COMDAT ?erase@?$list@IV?$allocator@I@std@@@std@@QAE?AViterator@12@V312@@Z
_TEXT	SEGMENT PARA USE32 PUBLIC 'CODE'
_TEXT	ENDS
;	COMDAT ?_Buynode@?$list@IV?$allocator@I@std@@@std@@IAEPAU_Node@?$_List_nod@IV?$allocator@I@std@@@2@XZ
_TEXT	SEGMENT PARA USE32 PUBLIC 'CODE'
_TEXT	ENDS
;	COMDAT ?_Tidy@?$list@IV?$allocator@I@std@@@std@@IAEXXZ
_TEXT	SEGMENT PARA USE32 PUBLIC 'CODE'
_TEXT	ENDS
;	COMDAT ??0?$_List_val@IV?$allocator@I@std@@@std@@IAE@V?$allocator@I@1@@Z
_TEXT	SEGMENT PARA USE32 PUBLIC 'CODE'
_TEXT	ENDS
;	COMDAT ?_Insert@?$list@Viterator@?$list@PAVMusicItem@@V?$allocator@PAVMusicItem@@@std@@@std@@V?$allocator@Viterator@?$list@PAVMusicItem@@V?$allocator@PAVMusicItem@@@std@@@std@@@3@@std@@QAEXViterator@12@ABV3?$list@PAVMusicItem@@V?$allocator@PAVMusicItem@@@std@@@2@@Z
_TEXT	SEGMENT PARA USE32 PUBLIC 'CODE'
_TEXT	ENDS
;	COMDAT ?erase@?$list@Viterator@?$list@PAVMusicItem@@V?$allocator@PAVMusicItem@@@std@@@std@@V?$allocator@Viterator@?$list@PAVMusicItem@@V?$allocator@PAVMusicItem@@@std@@@std@@@3@@std@@QAE?AViterator@12@V312@@Z
_TEXT	SEGMENT PARA USE32 PUBLIC 'CODE'
_TEXT	ENDS
;	COMDAT ?_Buynode@?$list@Viterator@?$list@PAVMusicItem@@V?$allocator@PAVMusicItem@@@std@@@std@@V?$allocator@Viterator@?$list@PAVMusicItem@@V?$allocator@PAVMusicItem@@@std@@@std@@@3@@std@@IAEPAU_Node@?$_List_nod@Viterator@?$list@PAVMusicItem@@V?$allocator@PAVMusicItem@@@std@@@std@@V?$allocator@Viterator@?$list@PAVMusicItem@@V?$allocator@PAVMusicItem@@@std@@@std@@@3@@2@XZ
_TEXT	SEGMENT PARA USE32 PUBLIC 'CODE'
_TEXT	ENDS
;	COMDAT ?_Tidy@?$list@Viterator@?$list@PAVMusicItem@@V?$allocator@PAVMusicItem@@@std@@@std@@V?$allocator@Viterator@?$list@PAVMusicItem@@V?$allocator@PAVMusicItem@@@std@@@std@@@3@@std@@IAEXXZ
_TEXT	SEGMENT PARA USE32 PUBLIC 'CODE'
_TEXT	ENDS
;	COMDAT ??0?$_List_val@Viterator@?$list@PAVMusicItem@@V?$allocator@PAVMusicItem@@@std@@@std@@V?$allocator@Viterator@?$list@PAVMusicItem@@V?$allocator@PAVMusicItem@@@std@@@std@@@3@@std@@IAE@V?$allocator@Viterator@?$list@PAVMusicItem@@V?$allocator@PAVMusicItem@@@std@@@std@@@1@@Z
_TEXT	SEGMENT PARA USE32 PUBLIC 'CODE'
_TEXT	ENDS
;	COMDAT ??0?$allocator@Viterator@?$list@PAVMusicItem@@V?$allocator@PAVMusicItem@@@std@@@std@@@std@@QAE@XZ
_TEXT	SEGMENT PARA USE32 PUBLIC 'CODE'
_TEXT	ENDS
;	COMDAT ??0iterator@?$list@IV?$allocator@I@std@@@std@@QAE@PAU_Node@?$_List_nod@IV?$allocator@I@std@@@2@@Z
_TEXT	SEGMENT PARA USE32 PUBLIC 'CODE'
_TEXT	ENDS
;	COMDAT ??Fiterator@?$list@IV?$allocator@I@std@@@std@@QAEAAV012@XZ
_TEXT	SEGMENT PARA USE32 PUBLIC 'CODE'
_TEXT	ENDS
;	COMDAT ??0const_iterator@?$list@IV?$allocator@I@std@@@std@@QAE@XZ
_TEXT	SEGMENT PARA USE32 PUBLIC 'CODE'
_TEXT	ENDS
;	COMDAT ??Dconst_iterator@?$list@IV?$allocator@I@std@@@std@@QBEABIXZ
_TEXT	SEGMENT PARA USE32 PUBLIC 'CODE'
_TEXT	ENDS
;	COMDAT ??0iterator@?$list@Viterator@?$list@PAVMusicItem@@V?$allocator@PAVMusicItem@@@std@@@std@@V?$allocator@Viterator@?$list@PAVMusicItem@@V?$allocator@PAVMusicItem@@@std@@@std@@@3@@std@@QAE@PAU_Node@?$_List_nod@Viterator@?$list@PAVMusicItem@@V?$allocator@PAVMusicItem@@@std@@@std@@V?$allocator@Viterator@?$list@PAVMusicItem@@V?$allocator@PAVMusicItem@@@std@@@std@@@3@@2@@Z
_TEXT	SEGMENT PARA USE32 PUBLIC 'CODE'
_TEXT	ENDS
;	COMDAT ??Fiterator@?$list@Viterator@?$list@PAVMusicItem@@V?$allocator@PAVMusicItem@@@std@@@std@@V?$allocator@Viterator@?$list@PAVMusicItem@@V?$allocator@PAVMusicItem@@@std@@@std@@@3@@std@@QAEAAV012@XZ
_TEXT	SEGMENT PARA USE32 PUBLIC 'CODE'
_TEXT	ENDS
;	COMDAT ??0const_iterator@?$list@Viterator@?$list@PAVMusicItem@@V?$allocator@PAVMusicItem@@@std@@@std@@V?$allocator@Viterator@?$list@PAVMusicItem@@V?$allocator@PAVMusicItem@@@std@@@std@@@3@@std@@QAE@XZ
_TEXT	SEGMENT PARA USE32 PUBLIC 'CODE'
_TEXT	ENDS
;	COMDAT ??Dconst_iterator@?$list@Viterator@?$list@PAVMusicItem@@V?$allocator@PAVMusicItem@@@std@@@std@@V?$allocator@Viterator@?$list@PAVMusicItem@@V?$allocator@PAVMusicItem@@@std@@@std@@@3@@std@@QBEABViterator@?$list@PAVMusicItem@@V?$allocator@PAVMusicItem@@@std@@@2@XZ
_TEXT	SEGMENT PARA USE32 PUBLIC 'CODE'
_TEXT	ENDS
;	COMDAT ?capacity@?$vector@PAVmml_Address@@V?$allocator@PAVmml_Address@@@std@@@std@@QBEIXZ
_TEXT	SEGMENT PARA USE32 PUBLIC 'CODE'
_TEXT	ENDS
;	COMDAT ?size@?$vector@PAVmml_Address@@V?$allocator@PAVmml_Address@@@std@@@std@@QBEIXZ
_TEXT	SEGMENT PARA USE32 PUBLIC 'CODE'
_TEXT	ENDS
;	COMDAT ?insert@?$vector@PAVmml_Address@@V?$allocator@PAVmml_Address@@@std@@@std@@QAE?AViterator@12@V312@ABQAVmml_Address@@@Z
_TEXT	SEGMENT PARA USE32 PUBLIC 'CODE'
_TEXT	ENDS
;	COMDAT ?_Buy@?$vector@PAVmml_Address@@V?$allocator@PAVmml_Address@@@std@@@std@@IAE_NI@Z
_TEXT	SEGMENT PARA USE32 PUBLIC 'CODE'
_TEXT	ENDS
;	COMDAT ?_Tidy@?$vector@PAVmml_Address@@V?$allocator@PAVmml_Address@@@std@@@std@@IAEXXZ
_TEXT	SEGMENT PARA USE32 PUBLIC 'CODE'
_TEXT	ENDS
;	COMDAT ?_Ufill@?$vector@PAVmml_Address@@V?$allocator@PAVmml_Address@@@std@@@std@@IAEPAPAVmml_Address@@PAPAV3@IABQAV3@@Z
_TEXT	SEGMENT PARA USE32 PUBLIC 'CODE'
_TEXT	ENDS
;	COMDAT ??0?$_Vector_val@PAVmml_Address@@V?$allocator@PAVmml_Address@@@std@@@std@@IAE@V?$allocator@PAVmml_Address@@@1@@Z
_TEXT	SEGMENT PARA USE32 PUBLIC 'CODE'
_TEXT	ENDS
;	COMDAT ??0?$allocator@PAVmml_Address@@@std@@QAE@XZ
_TEXT	SEGMENT PARA USE32 PUBLIC 'CODE'
_TEXT	ENDS
;	COMDAT ?_Key@?$_Tree@V?$_Tmap_traits@IPAVPatch@@U?$less@I@std@@V?$allocator@U?$pair@$$CBIPAVPatch@@@std@@@3@$0A@@std@@@std@@KAABIPAU_Node@?$_Tree_nod@V?$_Tmap_traits@IPAVPatch@@U?$less@I@std@@V?$allocator@U?$pair@$$CBIPAVPatch@@@std@@@3@$0A@@std@@@2@@Z
_TEXT	SEGMENT PARA USE32 PUBLIC 'CODE'
_TEXT	ENDS
;	COMDAT ?end@?$_Tree@V?$_Tmap_traits@IPAVPatch@@U?$less@I@std@@V?$allocator@U?$pair@$$CBIPAVPatch@@@std@@@3@$0A@@std@@@std@@QAE?AViterator@12@XZ
_TEXT	SEGMENT PARA USE32 PUBLIC 'CODE'
_TEXT	ENDS
;	COMDAT ?insert@?$_Tree@V?$_Tmap_traits@IPAVPatch@@U?$less@I@std@@V?$allocator@U?$pair@$$CBIPAVPatch@@@std@@@3@$0A@@std@@@std@@QAE?AViterator@12@V312@ABU?$pair@$$CBIPAVPatch@@@2@@Z
_TEXT	SEGMENT PARA USE32 PUBLIC 'CODE'
_TEXT	ENDS
;	COMDAT ?lower_bound@?$_Tree@V?$_Tmap_traits@IPAVPatch@@U?$less@I@std@@V?$allocator@U?$pair@$$CBIPAVPatch@@@std@@@3@$0A@@std@@@std@@QAE?AViterator@12@ABI@Z
_TEXT	SEGMENT PARA USE32 PUBLIC 'CODE'
_TEXT	ENDS
;	COMDAT ??Fiterator@?$list@PAVMusicItem@@V?$allocator@PAVMusicItem@@@std@@@std@@QAEAAV012@XZ
_TEXT	SEGMENT PARA USE32 PUBLIC 'CODE'
_TEXT	ENDS
;	COMDAT ??0iterator@?$vector@PAVmml_Address@@V?$allocator@PAVmml_Address@@@std@@@std@@QAE@PAPAVmml_Address@@@Z
_TEXT	SEGMENT PARA USE32 PUBLIC 'CODE'
_TEXT	ENDS
;	COMDAT ??Eiterator@?$vector@PAVmml_Address@@V?$allocator@PAVmml_Address@@@std@@@std@@QAEAAV012@XZ
_TEXT	SEGMENT PARA USE32 PUBLIC 'CODE'
_TEXT	ENDS
;	COMDAT ??0const_iterator@?$vector@PAVmml_Address@@V?$allocator@PAVmml_Address@@@std@@@std@@QAE@XZ
_TEXT	SEGMENT PARA USE32 PUBLIC 'CODE'
_TEXT	ENDS
;	COMDAT ??Dconst_iterator@?$vector@PAVmml_Address@@V?$allocator@PAVmml_Address@@@std@@@std@@QBEABQAVmml_Address@@XZ
_TEXT	SEGMENT PARA USE32 PUBLIC 'CODE'
_TEXT	ENDS
;	COMDAT ??8const_iterator@?$vector@PAVmml_Address@@V?$allocator@PAVmml_Address@@@std@@@std@@QBE_NABV012@@Z
_TEXT	SEGMENT PARA USE32 PUBLIC 'CODE'
_TEXT	ENDS
;	COMDAT ??Diterator@?$_Tree@V?$_Tmap_traits@IPAVPatch@@U?$less@I@std@@V?$allocator@U?$pair@$$CBIPAVPatch@@@std@@@3@$0A@@std@@@std@@QBEAAU?$pair@$$CBIPAVPatch@@@2@XZ
_TEXT	SEGMENT PARA USE32 PUBLIC 'CODE'
_TEXT	ENDS
;	COMDAT ??8const_iterator@?$_Tree@V?$_Tmap_traits@IPAVPatch@@U?$less@I@std@@V?$allocator@U?$pair@$$CBIPAVPatch@@@std@@@3@$0A@@std@@@std@@QBE_NABV012@@Z
_TEXT	SEGMENT PARA USE32 PUBLIC 'CODE'
_TEXT	ENDS
;	COMDAT ?_Mynode@const_iterator@?$_Tree@V?$_Tmap_traits@IPAVPatch@@U?$less@I@std@@V?$allocator@U?$pair@$$CBIPAVPatch@@@std@@@3@$0A@@std@@@std@@QBEPAU_Node@?$_Tree_nod@V?$_Tmap_traits@IPAVPatch@@U?$less@I@std@@V?$allocator@U?$pair@$$CBIPAVPatch@@@std@@@3@$0A@@std@@@3@XZ
_TEXT	SEGMENT PARA USE32 PUBLIC 'CODE'
_TEXT	ENDS
;	COMDAT ??0?$pair@$$CBIPAVPatch@@@std@@QAE@ABIABQAVPatch@@@Z
_TEXT	SEGMENT PARA USE32 PUBLIC 'CODE'
_TEXT	ENDS
;	COMDAT ??0?$allocator@H@std@@QAE@ABV01@@Z
_TEXT	SEGMENT PARA USE32 PUBLIC 'CODE'
_TEXT	ENDS
;	COMDAT ?deallocate@?$allocator@H@std@@QAEXPAHI@Z
_TEXT	SEGMENT PARA USE32 PUBLIC 'CODE'
_TEXT	ENDS
;	COMDAT ?allocate@?$allocator@H@std@@QAEPAHI@Z
_TEXT	SEGMENT PARA USE32 PUBLIC 'CODE'
_TEXT	ENDS
;	COMDAT ??0?$allocator@I@std@@QAE@ABV01@@Z
_TEXT	SEGMENT PARA USE32 PUBLIC 'CODE'
_TEXT	ENDS
;	COMDAT ?begin@?$vector@HV?$allocator@H@std@@@std@@QAE?AViterator@12@XZ
_TEXT	SEGMENT PARA USE32 PUBLIC 'CODE'
_TEXT	ENDS
;	COMDAT ?max_size@?$vector@HV?$allocator@H@std@@@std@@QBEIXZ
_TEXT	SEGMENT PARA USE32 PUBLIC 'CODE'
_TEXT	ENDS
;	COMDAT ?_Insert_n@?$vector@HV?$allocator@H@std@@@std@@IAEXViterator@12@IABH@Z
_TEXT	SEGMENT PARA USE32 PUBLIC 'CODE'
_TEXT	ENDS
;	COMDAT ?_Xlen@?$vector@HV?$allocator@H@std@@@std@@IBEXXZ
_TEXT	SEGMENT PARA USE32 PUBLIC 'CODE'
_TEXT	ENDS
;	COMDAT ??Hiterator@?$vector@HV?$allocator@H@std@@@std@@QBE?AV012@H@Z
_TEXT	SEGMENT PARA USE32 PUBLIC 'CODE'
_TEXT	ENDS
;	COMDAT ??Giterator@?$vector@HV?$allocator@H@std@@@std@@QBEHABVconst_iterator@12@@Z
_TEXT	SEGMENT PARA USE32 PUBLIC 'CODE'
_TEXT	ENDS
;	COMDAT ??0const_iterator@?$vector@HV?$allocator@H@std@@@std@@QAE@PAH@Z
_TEXT	SEGMENT PARA USE32 PUBLIC 'CODE'
_TEXT	ENDS
;	COMDAT ?_Nextnode@?$list@IV?$allocator@I@std@@@std@@KAAAPAU_Node@?$_List_nod@IV?$allocator@I@std@@@2@PAU342@@Z
_TEXT	SEGMENT PARA USE32 PUBLIC 'CODE'
_TEXT	ENDS
;	COMDAT ?_Prevnode@?$list@IV?$allocator@I@std@@@std@@KAAAPAU_Node@?$_List_nod@IV?$allocator@I@std@@@2@PAU342@@Z
_TEXT	SEGMENT PARA USE32 PUBLIC 'CODE'
_TEXT	ENDS
;	COMDAT ?_Myval@?$list@IV?$allocator@I@std@@@std@@KAAAIPAU_Node@?$_List_nod@IV?$allocator@I@std@@@2@@Z
_TEXT	SEGMENT PARA USE32 PUBLIC 'CODE'
_TEXT	ENDS
;	COMDAT ?clear@?$list@IV?$allocator@I@std@@@std@@QAEXXZ
_TEXT	SEGMENT PARA USE32 PUBLIC 'CODE'
_TEXT	ENDS
;	COMDAT ?_Buynode@?$list@IV?$allocator@I@std@@@std@@IAEPAU_Node@?$_List_nod@IV?$allocator@I@std@@@2@PAU342@0ABI@Z
_TEXT	SEGMENT PARA USE32 PUBLIC 'CODE'
_TEXT	ENDS
;	COMDAT ?_Incsize@?$list@IV?$allocator@I@std@@@std@@IAEXI@Z
_TEXT	SEGMENT PARA USE32 PUBLIC 'CODE'
_TEXT	ENDS
;	COMDAT ??0?$_List_ptr@IV?$allocator@I@std@@@std@@IAE@V?$allocator@I@1@@Z
_TEXT	SEGMENT PARA USE32 PUBLIC 'CODE'
_TEXT	ENDS
;	COMDAT ?deallocate@?$allocator@U_Node@?$_List_nod@IV?$allocator@I@std@@@std@@@std@@QAEXPAU_Node@?$_List_nod@IV?$allocator@I@std@@@2@I@Z
_TEXT	SEGMENT PARA USE32 PUBLIC 'CODE'
_TEXT	ENDS
;	COMDAT ?allocate@?$allocator@U_Node@?$_List_nod@IV?$allocator@I@std@@@std@@@std@@QAEPAU_Node@?$_List_nod@IV?$allocator@I@std@@@2@I@Z
_TEXT	SEGMENT PARA USE32 PUBLIC 'CODE'
_TEXT	ENDS
;	COMDAT ?destroy@?$allocator@U_Node@?$_List_nod@IV?$allocator@I@std@@@std@@@std@@QAEXPAU_Node@?$_List_nod@IV?$allocator@I@std@@@2@@Z
_TEXT	SEGMENT PARA USE32 PUBLIC 'CODE'
_TEXT	ENDS
;	COMDAT ?construct@?$allocator@PAU_Node@?$_List_nod@IV?$allocator@I@std@@@std@@@std@@QAEXPAPAU_Node@?$_List_nod@IV?$allocator@I@std@@@2@ABQAU342@@Z
_TEXT	SEGMENT PARA USE32 PUBLIC 'CODE'
_TEXT	ENDS
;	COMDAT ?destroy@?$allocator@PAU_Node@?$_List_nod@IV?$allocator@I@std@@@std@@@std@@QAEXPAPAU_Node@?$_List_nod@IV?$allocator@I@std@@@2@@Z
_TEXT	SEGMENT PARA USE32 PUBLIC 'CODE'
_TEXT	ENDS
;	COMDAT ?_Nextnode@?$list@Viterator@?$list@PAVMusicItem@@V?$allocator@PAVMusicItem@@@std@@@std@@V?$allocator@Viterator@?$list@PAVMusicItem@@V?$allocator@PAVMusicItem@@@std@@@std@@@3@@std@@KAAAPAU_Node@?$_List_nod@Viterator@?$list@PAVMusicItem@@V?$allocator@PAVMusicItem@@@std@@@std@@V?$allocator@Viterator@?$list@PAVMusicItem@@V?$allocator@PAVMusicItem@@@std@@@std@@@3@@2@PAU342@@Z
_TEXT	SEGMENT PARA USE32 PUBLIC 'CODE'
_TEXT	ENDS
;	COMDAT ?_Prevnode@?$list@Viterator@?$list@PAVMusicItem@@V?$allocator@PAVMusicItem@@@std@@@std@@V?$allocator@Viterator@?$list@PAVMusicItem@@V?$allocator@PAVMusicItem@@@std@@@std@@@3@@std@@KAAAPAU_Node@?$_List_nod@Viterator@?$list@PAVMusicItem@@V?$allocator@PAVMusicItem@@@std@@@std@@V?$allocator@Viterator@?$list@PAVMusicItem@@V?$allocator@PAVMusicItem@@@std@@@std@@@3@@2@PAU342@@Z
_TEXT	SEGMENT PARA USE32 PUBLIC 'CODE'
_TEXT	ENDS
;	COMDAT ?_Myval@?$list@Viterator@?$list@PAVMusicItem@@V?$allocator@PAVMusicItem@@@std@@@std@@V?$allocator@Viterator@?$list@PAVMusicItem@@V?$allocator@PAVMusicItem@@@std@@@std@@@3@@std@@KAAAViterator@?$list@PAVMusicItem@@V?$allocator@PAVMusicItem@@@std@@@2@PAU_Node@?$_List_nod@Viterator@?$list@PAVMusicItem@@V?$allocator@PAVMusicItem@@@std@@@std@@V?$allocator@Viterator@?$list@PAVMusicItem@@V?$allocator@PAVMusicItem@@@std@@@std@@@3@@2@@Z
_TEXT	SEGMENT PARA USE32 PUBLIC 'CODE'
_TEXT	ENDS
;	COMDAT ?clear@?$list@Viterator@?$list@PAVMusicItem@@V?$allocator@PAVMusicItem@@@std@@@std@@V?$allocator@Viterator@?$list@PAVMusicItem@@V?$allocator@PAVMusicItem@@@std@@@std@@@3@@std@@QAEXXZ
_TEXT	SEGMENT PARA USE32 PUBLIC 'CODE'
_TEXT	ENDS
;	COMDAT ?_Buynode@?$list@Viterator@?$list@PAVMusicItem@@V?$allocator@PAVMusicItem@@@std@@@std@@V?$allocator@Viterator@?$list@PAVMusicItem@@V?$allocator@PAVMusicItem@@@std@@@std@@@3@@std@@IAEPAU_Node@?$_List_nod@Viterator@?$list@PAVMusicItem@@V?$allocator@PAVMusicItem@@@std@@@std@@V?$allocator@Viterator@?$list@PAVMusicItem@@V?$allocator@PAVMusicItem@@@std@@@std@@@3@@2@PAU342@0ABViterator@?$list@PAVMusicItem@@V?$allocator@PAVMusicItem@@@std@@@2@@Z
_TEXT	SEGMENT PARA USE32 PUBLIC 'CODE'
_TEXT	ENDS
;	COMDAT ?_Incsize@?$list@Viterator@?$list@PAVMusicItem@@V?$allocator@PAVMusicItem@@@std@@@std@@V?$allocator@Viterator@?$list@PAVMusicItem@@V?$allocator@PAVMusicItem@@@std@@@std@@@3@@std@@IAEXI@Z
_TEXT	SEGMENT PARA USE32 PUBLIC 'CODE'
_TEXT	ENDS
;	COMDAT ??0?$_List_ptr@Viterator@?$list@PAVMusicItem@@V?$allocator@PAVMusicItem@@@std@@@std@@V?$allocator@Viterator@?$list@PAVMusicItem@@V?$allocator@PAVMusicItem@@@std@@@std@@@3@@std@@IAE@V?$allocator@Viterator@?$list@PAVMusicItem@@V?$allocator@PAVMusicItem@@@std@@@std@@@1@@Z
_TEXT	SEGMENT PARA USE32 PUBLIC 'CODE'
_TEXT	ENDS
;	COMDAT ??0?$allocator@Viterator@?$list@PAVMusicItem@@V?$allocator@PAVMusicItem@@@std@@@std@@@std@@QAE@ABV01@@Z
_TEXT	SEGMENT PARA USE32 PUBLIC 'CODE'
_TEXT	ENDS
;	COMDAT ?deallocate@?$allocator@U_Node@?$_List_nod@Viterator@?$list@PAVMusicItem@@V?$allocator@PAVMusicItem@@@std@@@std@@V?$allocator@Viterator@?$list@PAVMusicItem@@V?$allocator@PAVMusicItem@@@std@@@std@@@3@@std@@@std@@QAEXPAU_Node@?$_List_nod@Viterator@?$list@PAVMusicItem@@V?$allocator@PAVMusicItem@@@std@@@std@@V?$allocator@Viterator@?$list@PAVMusicItem@@V?$allocator@PAVMusicItem@@@std@@@std@@@3@@2@I@Z
_TEXT	SEGMENT PARA USE32 PUBLIC 'CODE'
_TEXT	ENDS
;	COMDAT ?allocate@?$allocator@U_Node@?$_List_nod@Viterator@?$list@PAVMusicItem@@V?$allocator@PAVMusicItem@@@std@@@std@@V?$allocator@Viterator@?$list@PAVMusicItem@@V?$allocator@PAVMusicItem@@@std@@@std@@@3@@std@@@std@@QAEPAU_Node@?$_List_nod@Viterator@?$list@PAVMusicItem@@V?$allocator@PAVMusicItem@@@std@@@std@@V?$allocator@Viterator@?$list@PAVMusicItem@@V?$allocator@PAVMusicItem@@@std@@@std@@@3@@2@I@Z
_TEXT	SEGMENT PARA USE32 PUBLIC 'CODE'
_TEXT	ENDS
;	COMDAT ?destroy@?$allocator@U_Node@?$_List_nod@Viterator@?$list@PAVMusicItem@@V?$allocator@PAVMusicItem@@@std@@@std@@V?$allocator@Viterator@?$list@PAVMusicItem@@V?$allocator@PAVMusicItem@@@std@@@std@@@3@@std@@@std@@QAEXPAU_Node@?$_List_nod@Viterator@?$list@PAVMusicItem@@V?$allocator@PAVMusicItem@@@std@@@std@@V?$allocator@Viterator@?$list@PAVMusicItem@@V?$allocator@PAVMusicItem@@@std@@@std@@@3@@2@@Z
_TEXT	SEGMENT PARA USE32 PUBLIC 'CODE'
_TEXT	ENDS
;	COMDAT ?construct@?$allocator@PAU_Node@?$_List_nod@Viterator@?$list@PAVMusicItem@@V?$allocator@PAVMusicItem@@@std@@@std@@V?$allocator@Viterator@?$list@PAVMusicItem@@V?$allocator@PAVMusicItem@@@std@@@std@@@3@@std@@@std@@QAEXPAPAU_Node@?$_List_nod@Viterator@?$list@PAVMusicItem@@V?$allocator@PAVMusicItem@@@std@@@std@@V?$allocator@Viterator@?$list@PAVMusicItem@@V?$allocator@PAVMusicItem@@@std@@@std@@@3@@2@ABQAU342@@Z
_TEXT	SEGMENT PARA USE32 PUBLIC 'CODE'
_TEXT	ENDS
;	COMDAT ?destroy@?$allocator@PAU_Node@?$_List_nod@Viterator@?$list@PAVMusicItem@@V?$allocator@PAVMusicItem@@@std@@@std@@V?$allocator@Viterator@?$list@PAVMusicItem@@V?$allocator@PAVMusicItem@@@std@@@std@@@3@@std@@@std@@QAEXPAPAU_Node@?$_List_nod@Viterator@?$list@PAVMusicItem@@V?$allocator@PAVMusicItem@@@std@@@std@@V?$allocator@Viterator@?$list@PAVMusicItem@@V?$allocator@PAVMusicItem@@@std@@@std@@@3@@2@@Z
_TEXT	SEGMENT PARA USE32 PUBLIC 'CODE'
_TEXT	ENDS
;	COMDAT ??Eiterator@?$list@IV?$allocator@I@std@@@std@@QAE?AV012@H@Z
_TEXT	SEGMENT PARA USE32 PUBLIC 'CODE'
_TEXT	ENDS
;	COMDAT ??0const_iterator@?$list@IV?$allocator@I@std@@@std@@QAE@PAU_Node@?$_List_nod@IV?$allocator@I@std@@@2@@Z
_TEXT	SEGMENT PARA USE32 PUBLIC 'CODE'
_TEXT	ENDS
;	COMDAT ??Fconst_iterator@?$list@IV?$allocator@I@std@@@std@@QAEAAV012@XZ
_TEXT	SEGMENT PARA USE32 PUBLIC 'CODE'
_TEXT	ENDS
;	COMDAT ?_Mynode@const_iterator@?$list@IV?$allocator@I@std@@@std@@QBEPAU_Node@?$_List_nod@IV?$allocator@I@std@@@3@XZ
_TEXT	SEGMENT PARA USE32 PUBLIC 'CODE'
_TEXT	ENDS
;	COMDAT ??Eiterator@?$list@Viterator@?$list@PAVMusicItem@@V?$allocator@PAVMusicItem@@@std@@@std@@V?$allocator@Viterator@?$list@PAVMusicItem@@V?$allocator@PAVMusicItem@@@std@@@std@@@3@@std@@QAE?AV012@H@Z
_TEXT	SEGMENT PARA USE32 PUBLIC 'CODE'
_TEXT	ENDS
;	COMDAT ??0const_iterator@?$list@Viterator@?$list@PAVMusicItem@@V?$allocator@PAVMusicItem@@@std@@@std@@V?$allocator@Viterator@?$list@PAVMusicItem@@V?$allocator@PAVMusicItem@@@std@@@std@@@3@@std@@QAE@PAU_Node@?$_List_nod@Viterator@?$list@PAVMusicItem@@V?$allocator@PAVMusicItem@@@std@@@std@@V?$allocator@Viterator@?$list@PAVMusicItem@@V?$allocator@PAVMusicItem@@@std@@@std@@@3@@2@@Z
_TEXT	SEGMENT PARA USE32 PUBLIC 'CODE'
_TEXT	ENDS
;	COMDAT ??Fconst_iterator@?$list@Viterator@?$list@PAVMusicItem@@V?$allocator@PAVMusicItem@@@std@@@std@@V?$allocator@Viterator@?$list@PAVMusicItem@@V?$allocator@PAVMusicItem@@@std@@@std@@@3@@std@@QAEAAV012@XZ
_TEXT	SEGMENT PARA USE32 PUBLIC 'CODE'
_TEXT	ENDS
;	COMDAT ?_Mynode@const_iterator@?$list@Viterator@?$list@PAVMusicItem@@V?$allocator@PAVMusicItem@@@std@@@std@@V?$allocator@Viterator@?$list@PAVMusicItem@@V?$allocator@PAVMusicItem@@@std@@@std@@@3@@std@@QBEPAU_Node@?$_List_nod@Viterator@?$list@PAVMusicItem@@V?$allocator@PAVMusicItem@@@std@@@std@@V?$allocator@Viterator@?$list@PAVMusicItem@@V?$allocator@PAVMusicItem@@@std@@@std@@@3@@3@XZ
_TEXT	SEGMENT PARA USE32 PUBLIC 'CODE'
_TEXT	ENDS
;	COMDAT ?max_size@?$vector@PAVmml_Address@@V?$allocator@PAVmml_Address@@@std@@@std@@QBEIXZ
_TEXT	SEGMENT PARA USE32 PUBLIC 'CODE'
_TEXT	ENDS
;	COMDAT ?_Destroy@?$vector@PAVmml_Address@@V?$allocator@PAVmml_Address@@@std@@@std@@IAEXPAPAVmml_Address@@0@Z
_TEXT	SEGMENT PARA USE32 PUBLIC 'CODE'
_TEXT	ENDS
;	COMDAT ?_Insert_n@?$vector@PAVmml_Address@@V?$allocator@PAVmml_Address@@@std@@@std@@IAEXViterator@12@IABQAVmml_Address@@@Z
_TEXT	SEGMENT PARA USE32 PUBLIC 'CODE'
_TEXT	ENDS
;	COMDAT ?_Xlen@?$vector@PAVmml_Address@@V?$allocator@PAVmml_Address@@@std@@@std@@IBEXXZ
_TEXT	SEGMENT PARA USE32 PUBLIC 'CODE'
_TEXT	ENDS
;	COMDAT ??0?$allocator@PAVmml_Address@@@std@@QAE@ABV01@@Z
_TEXT	SEGMENT PARA USE32 PUBLIC 'CODE'
_TEXT	ENDS
;	COMDAT ?deallocate@?$allocator@PAVmml_Address@@@std@@QAEXPAPAVmml_Address@@I@Z
_TEXT	SEGMENT PARA USE32 PUBLIC 'CODE'
_TEXT	ENDS
;	COMDAT ?allocate@?$allocator@PAVmml_Address@@@std@@QAEPAPAVmml_Address@@I@Z
_TEXT	SEGMENT PARA USE32 PUBLIC 'CODE'
_TEXT	ENDS
;	COMDAT ?_Isnil@?$_Tree@V?$_Tmap_traits@IPAVPatch@@U?$less@I@std@@V?$allocator@U?$pair@$$CBIPAVPatch@@@std@@@3@$0A@@std@@@std@@KAAADPAU_Node@?$_Tree_nod@V?$_Tmap_traits@IPAVPatch@@U?$less@I@std@@V?$allocator@U?$pair@$$CBIPAVPatch@@@std@@@3@$0A@@std@@@2@@Z
_TEXT	SEGMENT PARA USE32 PUBLIC 'CODE'
_TEXT	ENDS
;	COMDAT ?_Right@?$_Tree@V?$_Tmap_traits@IPAVPatch@@U?$less@I@std@@V?$allocator@U?$pair@$$CBIPAVPatch@@@std@@@3@$0A@@std@@@std@@KAAAPAU_Node@?$_Tree_nod@V?$_Tmap_traits@IPAVPatch@@U?$less@I@std@@V?$allocator@U?$pair@$$CBIPAVPatch@@@std@@@3@$0A@@std@@@2@PAU342@@Z
_TEXT	SEGMENT PARA USE32 PUBLIC 'CODE'
_TEXT	ENDS
;	COMDAT ?_Myval@?$_Tree@V?$_Tmap_traits@IPAVPatch@@U?$less@I@std@@V?$allocator@U?$pair@$$CBIPAVPatch@@@std@@@3@$0A@@std@@@std@@KAAAU?$pair@$$CBIPAVPatch@@@2@PAU_Node@?$_Tree_nod@V?$_Tmap_traits@IPAVPatch@@U?$less@I@std@@V?$allocator@U?$pair@$$CBIPAVPatch@@@std@@@3@$0A@@std@@@2@@Z
_TEXT	SEGMENT PARA USE32 PUBLIC 'CODE'
_TEXT	ENDS
;	COMDAT ?begin@?$_Tree@V?$_Tmap_traits@IPAVPatch@@U?$less@I@std@@V?$allocator@U?$pair@$$CBIPAVPatch@@@std@@@3@$0A@@std@@@std@@QAE?AViterator@12@XZ
_TEXT	SEGMENT PARA USE32 PUBLIC 'CODE'
_TEXT	ENDS
;	COMDAT ?size@?$_Tree@V?$_Tmap_traits@IPAVPatch@@U?$less@I@std@@V?$allocator@U?$pair@$$CBIPAVPatch@@@std@@@3@$0A@@std@@@std@@QBEIXZ
_TEXT	SEGMENT PARA USE32 PUBLIC 'CODE'
_TEXT	ENDS
;	COMDAT ?insert@?$_Tree@V?$_Tmap_traits@IPAVPatch@@U?$less@I@std@@V?$allocator@U?$pair@$$CBIPAVPatch@@@std@@@3@$0A@@std@@@std@@QAE?AU?$pair@Viterator@?$_Tree@V?$_Tmap_traits@IPAVPatch@@U?$less@I@std@@V?$allocator@U?$pair@$$CBIPAVPatch@@@std@@@3@$0A@@std@@@std@@_N@2@ABU?$pair@$$CBIPAVPatch@@@2@@Z
_TEXT	SEGMENT PARA USE32 PUBLIC 'CODE'
_TEXT	ENDS
;	COMDAT ?_Insert@?$_Tree@V?$_Tmap_traits@IPAVPatch@@U?$less@I@std@@V?$allocator@U?$pair@$$CBIPAVPatch@@@std@@@3@$0A@@std@@@std@@IAE?AViterator@12@_NPAU_Node@?$_Tree_nod@V?$_Tmap_traits@IPAVPatch@@U?$less@I@std@@V?$allocator@U?$pair@$$CBIPAVPatch@@@std@@@3@$0A@@std@@@2@ABU?$pair@$$CBIPAVPatch@@@2@@Z
_TEXT	SEGMENT PARA USE32 PUBLIC 'CODE'
_TEXT	ENDS
;	COMDAT ?_Lbound@?$_Tree@V?$_Tmap_traits@IPAVPatch@@U?$less@I@std@@V?$allocator@U?$pair@$$CBIPAVPatch@@@std@@@3@$0A@@std@@@std@@IBEPAU_Node@?$_Tree_nod@V?$_Tmap_traits@IPAVPatch@@U?$less@I@std@@V?$allocator@U?$pair@$$CBIPAVPatch@@@std@@@3@$0A@@std@@@2@ABI@Z
_TEXT	SEGMENT PARA USE32 PUBLIC 'CODE'
_TEXT	ENDS
;	COMDAT ?_Rmost@?$_Tree@V?$_Tmap_traits@IPAVPatch@@U?$less@I@std@@V?$allocator@U?$pair@$$CBIPAVPatch@@@std@@@3@$0A@@std@@@std@@IAEAAPAU_Node@?$_Tree_nod@V?$_Tmap_traits@IPAVPatch@@U?$less@I@std@@V?$allocator@U?$pair@$$CBIPAVPatch@@@std@@@3@$0A@@std@@@2@XZ
_TEXT	SEGMENT PARA USE32 PUBLIC 'CODE'
_TEXT	ENDS
;	COMDAT ?_Kfn@?$_Tmap_traits@IPAVPatch@@U?$less@I@std@@V?$allocator@U?$pair@$$CBIPAVPatch@@@std@@@3@$0A@@std@@SAABIABU?$pair@$$CBIPAVPatch@@@2@@Z
_TEXT	SEGMENT PARA USE32 PUBLIC 'CODE'
_TEXT	ENDS
;	COMDAT ??Fconst_iterator@?$list@PAVMusicItem@@V?$allocator@PAVMusicItem@@@std@@@std@@QAEAAV012@XZ
_TEXT	SEGMENT PARA USE32 PUBLIC 'CODE'
_TEXT	ENDS
;	COMDAT ??Hiterator@?$vector@PAVmml_Address@@V?$allocator@PAVmml_Address@@@std@@@std@@QBE?AV012@H@Z
_TEXT	SEGMENT PARA USE32 PUBLIC 'CODE'
_TEXT	ENDS
;	COMDAT ??Giterator@?$vector@PAVmml_Address@@V?$allocator@PAVmml_Address@@@std@@@std@@QBEHABVconst_iterator@12@@Z
_TEXT	SEGMENT PARA USE32 PUBLIC 'CODE'
_TEXT	ENDS
;	COMDAT ??0const_iterator@?$vector@PAVmml_Address@@V?$allocator@PAVmml_Address@@@std@@@std@@QAE@PAPAVmml_Address@@@Z
_TEXT	SEGMENT PARA USE32 PUBLIC 'CODE'
_TEXT	ENDS
;	COMDAT ??0iterator@?$_Tree@V?$_Tmap_traits@IPAVPatch@@U?$less@I@std@@V?$allocator@U?$pair@$$CBIPAVPatch@@@std@@@3@$0A@@std@@@std@@QAE@XZ
_TEXT	SEGMENT PARA USE32 PUBLIC 'CODE'
_TEXT	ENDS
;	COMDAT ??0iterator@?$_Tree@V?$_Tmap_traits@IPAVPatch@@U?$less@I@std@@V?$allocator@U?$pair@$$CBIPAVPatch@@@std@@@3@$0A@@std@@@std@@QAE@PAU_Node@?$_Tree_nod@V?$_Tmap_traits@IPAVPatch@@U?$less@I@std@@V?$allocator@U?$pair@$$CBIPAVPatch@@@std@@@3@$0A@@std@@@2@@Z
_TEXT	SEGMENT PARA USE32 PUBLIC 'CODE'
_TEXT	ENDS
;	COMDAT ??Eiterator@?$_Tree@V?$_Tmap_traits@IPAVPatch@@U?$less@I@std@@V?$allocator@U?$pair@$$CBIPAVPatch@@@std@@@3@$0A@@std@@@std@@QAEAAV012@XZ
_TEXT	SEGMENT PARA USE32 PUBLIC 'CODE'
_TEXT	ENDS
;	COMDAT ??Fiterator@?$_Tree@V?$_Tmap_traits@IPAVPatch@@U?$less@I@std@@V?$allocator@U?$pair@$$CBIPAVPatch@@@std@@@3@$0A@@std@@@std@@QAEAAV012@XZ
_TEXT	SEGMENT PARA USE32 PUBLIC 'CODE'
_TEXT	ENDS
;	COMDAT ??Dconst_iterator@?$_Tree@V?$_Tmap_traits@IPAVPatch@@U?$less@I@std@@V?$allocator@U?$pair@$$CBIPAVPatch@@@std@@@3@$0A@@std@@@std@@QBEABU?$pair@$$CBIPAVPatch@@@2@XZ
_TEXT	SEGMENT PARA USE32 PUBLIC 'CODE'
_TEXT	ENDS
;	COMDAT ?max_size@?$allocator@H@std@@QBEIXZ
_TEXT	SEGMENT PARA USE32 PUBLIC 'CODE'
_TEXT	ENDS
;	COMDAT ??Yiterator@?$vector@HV?$allocator@H@std@@@std@@QAEAAV012@H@Z
_TEXT	SEGMENT PARA USE32 PUBLIC 'CODE'
_TEXT	ENDS
;	COMDAT ??Gconst_iterator@?$vector@HV?$allocator@H@std@@@std@@QBEHABV012@@Z
_TEXT	SEGMENT PARA USE32 PUBLIC 'CODE'
_TEXT	ENDS
;	COMDAT ?max_size@?$list@IV?$allocator@I@std@@@std@@QBEIXZ
_TEXT	SEGMENT PARA USE32 PUBLIC 'CODE'
_TEXT	ENDS
;	COMDAT ??0?$_List_nod@IV?$allocator@I@std@@@std@@IAE@V?$allocator@I@1@@Z
_TEXT	SEGMENT PARA USE32 PUBLIC 'CODE'
_TEXT	ENDS
;	COMDAT ?max_size@?$list@Viterator@?$list@PAVMusicItem@@V?$allocator@PAVMusicItem@@@std@@@std@@V?$allocator@Viterator@?$list@PAVMusicItem@@V?$allocator@PAVMusicItem@@@std@@@std@@@3@@std@@QBEIXZ
_TEXT	SEGMENT PARA USE32 PUBLIC 'CODE'
_TEXT	ENDS
;	COMDAT ??0?$_List_nod@Viterator@?$list@PAVMusicItem@@V?$allocator@PAVMusicItem@@@std@@@std@@V?$allocator@Viterator@?$list@PAVMusicItem@@V?$allocator@PAVMusicItem@@@std@@@std@@@3@@std@@IAE@V?$allocator@Viterator@?$list@PAVMusicItem@@V?$allocator@PAVMusicItem@@@std@@@std@@@1@@Z
_TEXT	SEGMENT PARA USE32 PUBLIC 'CODE'
_TEXT	ENDS
;	COMDAT ??Eiterator@?$list@IV?$allocator@I@std@@@std@@QAEAAV012@XZ
_TEXT	SEGMENT PARA USE32 PUBLIC 'CODE'
_TEXT	ENDS
;	COMDAT ??Eiterator@?$list@Viterator@?$list@PAVMusicItem@@V?$allocator@PAVMusicItem@@@std@@@std@@V?$allocator@Viterator@?$list@PAVMusicItem@@V?$allocator@PAVMusicItem@@@std@@@std@@@3@@std@@QAEAAV012@XZ
_TEXT	SEGMENT PARA USE32 PUBLIC 'CODE'
_TEXT	ENDS
;	COMDAT ?max_size@?$allocator@PAVmml_Address@@@std@@QBEIXZ
_TEXT	SEGMENT PARA USE32 PUBLIC 'CODE'
_TEXT	ENDS
;	COMDAT ?_Color@?$_Tree@V?$_Tmap_traits@IPAVPatch@@U?$less@I@std@@V?$allocator@U?$pair@$$CBIPAVPatch@@@std@@@3@$0A@@std@@@std@@KAAADPAU_Node@?$_Tree_nod@V?$_Tmap_traits@IPAVPatch@@U?$less@I@std@@V?$allocator@U?$pair@$$CBIPAVPatch@@@std@@@3@$0A@@std@@@2@@Z
_TEXT	SEGMENT PARA USE32 PUBLIC 'CODE'
_TEXT	ENDS
;	COMDAT ?_Left@?$_Tree@V?$_Tmap_traits@IPAVPatch@@U?$less@I@std@@V?$allocator@U?$pair@$$CBIPAVPatch@@@std@@@3@$0A@@std@@@std@@KAAAPAU_Node@?$_Tree_nod@V?$_Tmap_traits@IPAVPatch@@U?$less@I@std@@V?$allocator@U?$pair@$$CBIPAVPatch@@@std@@@3@$0A@@std@@@2@PAU342@@Z
_TEXT	SEGMENT PARA USE32 PUBLIC 'CODE'
_TEXT	ENDS
;	COMDAT ?_Parent@?$_Tree@V?$_Tmap_traits@IPAVPatch@@U?$less@I@std@@V?$allocator@U?$pair@$$CBIPAVPatch@@@std@@@3@$0A@@std@@@std@@KAAAPAU_Node@?$_Tree_nod@V?$_Tmap_traits@IPAVPatch@@U?$less@I@std@@V?$allocator@U?$pair@$$CBIPAVPatch@@@std@@@3@$0A@@std@@@2@PAU342@@Z
_TEXT	SEGMENT PARA USE32 PUBLIC 'CODE'
_TEXT	ENDS
;	COMDAT ?max_size@?$_Tree@V?$_Tmap_traits@IPAVPatch@@U?$less@I@std@@V?$allocator@U?$pair@$$CBIPAVPatch@@@std@@@3@$0A@@std@@@std@@QBEIXZ
_TEXT	SEGMENT PARA USE32 PUBLIC 'CODE'
_TEXT	ENDS
;	COMDAT ?_Lmost@?$_Tree@V?$_Tmap_traits@IPAVPatch@@U?$less@I@std@@V?$allocator@U?$pair@$$CBIPAVPatch@@@std@@@3@$0A@@std@@@std@@IAEAAPAU_Node@?$_Tree_nod@V?$_Tmap_traits@IPAVPatch@@U?$less@I@std@@V?$allocator@U?$pair@$$CBIPAVPatch@@@std@@@3@$0A@@std@@@2@XZ
_TEXT	SEGMENT PARA USE32 PUBLIC 'CODE'
_TEXT	ENDS
;	COMDAT ?_Lrotate@?$_Tree@V?$_Tmap_traits@IPAVPatch@@U?$less@I@std@@V?$allocator@U?$pair@$$CBIPAVPatch@@@std@@@3@$0A@@std@@@std@@IAEXPAU_Node@?$_Tree_nod@V?$_Tmap_traits@IPAVPatch@@U?$less@I@std@@V?$allocator@U?$pair@$$CBIPAVPatch@@@std@@@3@$0A@@std@@@2@@Z
_TEXT	SEGMENT PARA USE32 PUBLIC 'CODE'
_TEXT	ENDS
;	COMDAT ?_Root@?$_Tree@V?$_Tmap_traits@IPAVPatch@@U?$less@I@std@@V?$allocator@U?$pair@$$CBIPAVPatch@@@std@@@3@$0A@@std@@@std@@IAEAAPAU_Node@?$_Tree_nod@V?$_Tmap_traits@IPAVPatch@@U?$less@I@std@@V?$allocator@U?$pair@$$CBIPAVPatch@@@std@@@3@$0A@@std@@@2@XZ
_TEXT	SEGMENT PARA USE32 PUBLIC 'CODE'
_TEXT	ENDS
;	COMDAT ?_Root@?$_Tree@V?$_Tmap_traits@IPAVPatch@@U?$less@I@std@@V?$allocator@U?$pair@$$CBIPAVPatch@@@std@@@3@$0A@@std@@@std@@IBEAAPAU_Node@?$_Tree_nod@V?$_Tmap_traits@IPAVPatch@@U?$less@I@std@@V?$allocator@U?$pair@$$CBIPAVPatch@@@std@@@3@$0A@@std@@@2@XZ
_TEXT	SEGMENT PARA USE32 PUBLIC 'CODE'
_TEXT	ENDS
;	COMDAT ?_Rrotate@?$_Tree@V?$_Tmap_traits@IPAVPatch@@U?$less@I@std@@V?$allocator@U?$pair@$$CBIPAVPatch@@@std@@@3@$0A@@std@@@std@@IAEXPAU_Node@?$_Tree_nod@V?$_Tmap_traits@IPAVPatch@@U?$less@I@std@@V?$allocator@U?$pair@$$CBIPAVPatch@@@std@@@3@$0A@@std@@@2@@Z
_TEXT	SEGMENT PARA USE32 PUBLIC 'CODE'
_TEXT	ENDS
;	COMDAT ?_Buynode@?$_Tree@V?$_Tmap_traits@IPAVPatch@@U?$less@I@std@@V?$allocator@U?$pair@$$CBIPAVPatch@@@std@@@3@$0A@@std@@@std@@IAEPAU_Node@?$_Tree_nod@V?$_Tmap_traits@IPAVPatch@@U?$less@I@std@@V?$allocator@U?$pair@$$CBIPAVPatch@@@std@@@3@$0A@@std@@@2@PAU342@00ABU?$pair@$$CBIPAVPatch@@@2@D@Z
_TEXT	SEGMENT PARA USE32 PUBLIC 'CODE'
_TEXT	ENDS
;	COMDAT ??Yiterator@?$vector@PAVmml_Address@@V?$allocator@PAVmml_Address@@@std@@@std@@QAEAAV012@H@Z
_TEXT	SEGMENT PARA USE32 PUBLIC 'CODE'
_TEXT	ENDS
;	COMDAT ??Gconst_iterator@?$vector@PAVmml_Address@@V?$allocator@PAVmml_Address@@@std@@@std@@QBEHABV012@@Z
_TEXT	SEGMENT PARA USE32 PUBLIC 'CODE'
_TEXT	ENDS
;	COMDAT ??0const_iterator@?$_Tree@V?$_Tmap_traits@IPAVPatch@@U?$less@I@std@@V?$allocator@U?$pair@$$CBIPAVPatch@@@std@@@3@$0A@@std@@@std@@QAE@XZ
_TEXT	SEGMENT PARA USE32 PUBLIC 'CODE'
_TEXT	ENDS
;	COMDAT ??0const_iterator@?$_Tree@V?$_Tmap_traits@IPAVPatch@@U?$less@I@std@@V?$allocator@U?$pair@$$CBIPAVPatch@@@std@@@3@$0A@@std@@@std@@QAE@PAU_Node@?$_Tree_nod@V?$_Tmap_traits@IPAVPatch@@U?$less@I@std@@V?$allocator@U?$pair@$$CBIPAVPatch@@@std@@@3@$0A@@std@@@2@@Z
_TEXT	SEGMENT PARA USE32 PUBLIC 'CODE'
_TEXT	ENDS
;	COMDAT ??Econst_iterator@?$_Tree@V?$_Tmap_traits@IPAVPatch@@U?$less@I@std@@V?$allocator@U?$pair@$$CBIPAVPatch@@@std@@@3@$0A@@std@@@std@@QAEAAV012@XZ
_TEXT	SEGMENT PARA USE32 PUBLIC 'CODE'
_TEXT	ENDS
;	COMDAT ??Fconst_iterator@?$_Tree@V?$_Tmap_traits@IPAVPatch@@U?$less@I@std@@V?$allocator@U?$pair@$$CBIPAVPatch@@@std@@@3@$0A@@std@@@std@@QAEAAV012@XZ
_TEXT	SEGMENT PARA USE32 PUBLIC 'CODE'
_TEXT	ENDS
;	COMDAT ??0?$pair@Viterator@?$_Tree@V?$_Tmap_traits@IPAVPatch@@U?$less@I@std@@V?$allocator@U?$pair@$$CBIPAVPatch@@@std@@@3@$0A@@std@@@std@@_N@std@@QAE@ABViterator@?$_Tree@V?$_Tmap_traits@IPAVPatch@@U?$less@I@std@@V?$allocator@U?$pair@$$CBIPAVPatch@@@std@@@3@$0A@@std@@@1@AB_N@Z
_TEXT	SEGMENT PARA USE32 PUBLIC 'CODE'
_TEXT	ENDS
;	COMDAT ??0_Node@?$_List_nod@IV?$allocator@I@std@@@std@@QAE@PAU012@0ABI@Z
_TEXT	SEGMENT PARA USE32 PUBLIC 'CODE'
_TEXT	ENDS
;	COMDAT ??0_Node@?$_List_nod@Viterator@?$list@PAVMusicItem@@V?$allocator@PAVMusicItem@@@std@@@std@@V?$allocator@Viterator@?$list@PAVMusicItem@@V?$allocator@PAVMusicItem@@@std@@@std@@@3@@std@@QAE@PAU012@0ABViterator@?$list@PAVMusicItem@@V?$allocator@PAVMusicItem@@@std@@@2@@Z
_TEXT	SEGMENT PARA USE32 PUBLIC 'CODE'
_TEXT	ENDS
;	COMDAT ?max_size@?$allocator@I@std@@QBEIXZ
_TEXT	SEGMENT PARA USE32 PUBLIC 'CODE'
_TEXT	ENDS
;	COMDAT ?max_size@?$allocator@Viterator@?$list@PAVMusicItem@@V?$allocator@PAVMusicItem@@@std@@@std@@@std@@QBEIXZ
_TEXT	SEGMENT PARA USE32 PUBLIC 'CODE'
_TEXT	ENDS
;	COMDAT ??Econst_iterator@?$list@IV?$allocator@I@std@@@std@@QAEAAV012@XZ
_TEXT	SEGMENT PARA USE32 PUBLIC 'CODE'
_TEXT	ENDS
;	COMDAT ??Econst_iterator@?$list@Viterator@?$list@PAVMusicItem@@V?$allocator@PAVMusicItem@@@std@@@std@@V?$allocator@Viterator@?$list@PAVMusicItem@@V?$allocator@PAVMusicItem@@@std@@@std@@@3@@std@@QAEAAV012@XZ
_TEXT	SEGMENT PARA USE32 PUBLIC 'CODE'
_TEXT	ENDS
;	COMDAT ?max_size@?$allocator@U?$pair@$$CBIPAVPatch@@@std@@@std@@QBEIXZ
_TEXT	SEGMENT PARA USE32 PUBLIC 'CODE'
_TEXT	ENDS
;	COMDAT ?deallocate@?$allocator@U_Node@?$_Tree_nod@V?$_Tmap_traits@IPAVPatch@@U?$less@I@std@@V?$allocator@U?$pair@$$CBIPAVPatch@@@std@@@3@$0A@@std@@@std@@@std@@QAEXPAU_Node@?$_Tree_nod@V?$_Tmap_traits@IPAVPatch@@U?$less@I@std@@V?$allocator@U?$pair@$$CBIPAVPatch@@@std@@@3@$0A@@std@@@2@I@Z
_TEXT	SEGMENT PARA USE32 PUBLIC 'CODE'
_TEXT	ENDS
;	COMDAT ?allocate@?$allocator@U_Node@?$_Tree_nod@V?$_Tmap_traits@IPAVPatch@@U?$less@I@std@@V?$allocator@U?$pair@$$CBIPAVPatch@@@std@@@3@$0A@@std@@@std@@@std@@QAEPAU_Node@?$_Tree_nod@V?$_Tmap_traits@IPAVPatch@@U?$less@I@std@@V?$allocator@U?$pair@$$CBIPAVPatch@@@std@@@3@$0A@@std@@@2@I@Z
_TEXT	SEGMENT PARA USE32 PUBLIC 'CODE'
_TEXT	ENDS
;	COMDAT ?_Dec@const_iterator@?$_Tree@V?$_Tmap_traits@IPAVPatch@@U?$less@I@std@@V?$allocator@U?$pair@$$CBIPAVPatch@@@std@@@3@$0A@@std@@@std@@QAEXXZ
_TEXT	SEGMENT PARA USE32 PUBLIC 'CODE'
_TEXT	ENDS
;	COMDAT ?_Inc@const_iterator@?$_Tree@V?$_Tmap_traits@IPAVPatch@@U?$less@I@std@@V?$allocator@U?$pair@$$CBIPAVPatch@@@std@@@3@$0A@@std@@@std@@QAEXXZ
_TEXT	SEGMENT PARA USE32 PUBLIC 'CODE'
_TEXT	ENDS
;	COMDAT ??0_Node@?$_Tree_nod@V?$_Tmap_traits@IPAVPatch@@U?$less@I@std@@V?$allocator@U?$pair@$$CBIPAVPatch@@@std@@@3@$0A@@std@@@std@@QAE@PAU012@00ABU?$pair@$$CBIPAVPatch@@@2@D@Z
_TEXT	SEGMENT PARA USE32 PUBLIC 'CODE'
_TEXT	ENDS
;	COMDAT ?_Max@?$_Tree@V?$_Tmap_traits@IPAVPatch@@U?$less@I@std@@V?$allocator@U?$pair@$$CBIPAVPatch@@@std@@@3@$0A@@std@@@std@@KAPAU_Node@?$_Tree_nod@V?$_Tmap_traits@IPAVPatch@@U?$less@I@std@@V?$allocator@U?$pair@$$CBIPAVPatch@@@std@@@3@$0A@@std@@@2@PAU342@@Z
_TEXT	SEGMENT PARA USE32 PUBLIC 'CODE'
_TEXT	ENDS
;	COMDAT ?_Min@?$_Tree@V?$_Tmap_traits@IPAVPatch@@U?$less@I@std@@V?$allocator@U?$pair@$$CBIPAVPatch@@@std@@@3@$0A@@std@@@std@@KAPAU_Node@?$_Tree_nod@V?$_Tmap_traits@IPAVPatch@@U?$less@I@std@@V?$allocator@U?$pair@$$CBIPAVPatch@@@std@@@3@$0A@@std@@@2@PAU342@@Z
_TEXT	SEGMENT PARA USE32 PUBLIC 'CODE'
_TEXT	ENDS
;	COMDAT _$E1
text$yc	SEGMENT PARA USE32 PUBLIC 'CODE'
text$yc	ENDS
;	COMDAT ??$_Destroy_range@HV?$allocator@H@std@@@std@@YAXPAH0AAV?$allocator@H@0@@Z
_TEXT	SEGMENT PARA USE32 PUBLIC 'CODE'
_TEXT	ENDS
;	COMDAT ??$_Uninitialized_fill_n@PAHIHV?$allocator@H@std@@@std@@YAXPAHIABHAAV?$allocator@H@0@@Z
_TEXT	SEGMENT PARA USE32 PUBLIC 'CODE'
_TEXT	ENDS
;	COMDAT ??$_Uninitialized_fill_n@PAPAVmml_Address@@IPAV1@V?$allocator@PAVmml_Address@@@std@@@std@@YAXPAPAVmml_Address@@IABQAV1@AAV?$allocator@PAVmml_Address@@@0@@Z
_TEXT	SEGMENT PARA USE32 PUBLIC 'CODE'
_TEXT	ENDS
;	COMDAT ??$_Allocate@H@std@@YAPAHIPAH@Z
_TEXT	SEGMENT PARA USE32 PUBLIC 'CODE'
_TEXT	ENDS
;	COMDAT ??$_Ucopy@PAH@?$vector@HV?$allocator@H@std@@@std@@IAEPAHPAH00@Z
_TEXT	SEGMENT PARA USE32 PUBLIC 'CODE'
_TEXT	ENDS
;	COMDAT ??$fill@PAHH@std@@YAXPAH0ABH@Z
_TEXT	SEGMENT PARA USE32 PUBLIC 'CODE'
_TEXT	ENDS
;	COMDAT ??$copy_backward@PAHPAH@std@@YAPAHPAH00@Z
_TEXT	SEGMENT PARA USE32 PUBLIC 'CODE'
_TEXT	ENDS
;	COMDAT ??$?0I@?$allocator@PAU_Node@?$_List_nod@IV?$allocator@I@std@@@std@@@std@@QAE@ABV?$allocator@I@1@@Z
_TEXT	SEGMENT PARA USE32 PUBLIC 'CODE'
_TEXT	ENDS
;	COMDAT ??$_Allocate@U_Node@?$_List_nod@IV?$allocator@I@std@@@std@@@std@@YAPAU_Node@?$_List_nod@IV?$allocator@I@std@@@0@IPAU120@@Z
_TEXT	SEGMENT PARA USE32 PUBLIC 'CODE'
_TEXT	ENDS
;	COMDAT ??$_Destroy@U_Node@?$_List_nod@IV?$allocator@I@std@@@std@@@std@@YAXPAU_Node@?$_List_nod@IV?$allocator@I@std@@@0@@Z
_TEXT	SEGMENT PARA USE32 PUBLIC 'CODE'
_TEXT	ENDS
;	COMDAT ??$_Construct@PAU_Node@?$_List_nod@IV?$allocator@I@std@@@std@@PAU123@@std@@YAXPAPAU_Node@?$_List_nod@IV?$allocator@I@std@@@0@ABQAU120@@Z
_TEXT	SEGMENT PARA USE32 PUBLIC 'CODE'
_TEXT	ENDS
;	COMDAT ??$_Destroy@PAU_Node@?$_List_nod@IV?$allocator@I@std@@@std@@@std@@YAXPAPAU_Node@?$_List_nod@IV?$allocator@I@std@@@0@@Z
_TEXT	SEGMENT PARA USE32 PUBLIC 'CODE'
_TEXT	ENDS
;	COMDAT ??$?0Viterator@?$list@PAVMusicItem@@V?$allocator@PAVMusicItem@@@std@@@std@@@?$allocator@PAU_Node@?$_List_nod@Viterator@?$list@PAVMusicItem@@V?$allocator@PAVMusicItem@@@std@@@std@@V?$allocator@Viterator@?$list@PAVMusicItem@@V?$allocator@PAVMusicItem@@@std@@@std@@@3@@std@@@std@@QAE@ABV?$allocator@Viterator@?$list@PAVMusicItem@@V?$allocator@PAVMusicItem@@@std@@@std@@@1@@Z
_TEXT	SEGMENT PARA USE32 PUBLIC 'CODE'
_TEXT	ENDS
;	COMDAT ??$_Allocate@U_Node@?$_List_nod@Viterator@?$list@PAVMusicItem@@V?$allocator@PAVMusicItem@@@std@@@std@@V?$allocator@Viterator@?$list@PAVMusicItem@@V?$allocator@PAVMusicItem@@@std@@@std@@@3@@std@@@std@@YAPAU_Node@?$_List_nod@Viterator@?$list@PAVMusicItem@@V?$allocator@PAVMusicItem@@@std@@@std@@V?$allocator@Viterator@?$list@PAVMusicItem@@V?$allocator@PAVMusicItem@@@std@@@std@@@3@@0@IPAU120@@Z
_TEXT	SEGMENT PARA USE32 PUBLIC 'CODE'
_TEXT	ENDS
;	COMDAT ??$_Destroy@U_Node@?$_List_nod@Viterator@?$list@PAVMusicItem@@V?$allocator@PAVMusicItem@@@std@@@std@@V?$allocator@Viterator@?$list@PAVMusicItem@@V?$allocator@PAVMusicItem@@@std@@@std@@@3@@std@@@std@@YAXPAU_Node@?$_List_nod@Viterator@?$list@PAVMusicItem@@V?$allocator@PAVMusicItem@@@std@@@std@@V?$allocator@Viterator@?$list@PAVMusicItem@@V?$allocator@PAVMusicItem@@@std@@@std@@@3@@0@@Z
_TEXT	SEGMENT PARA USE32 PUBLIC 'CODE'
_TEXT	ENDS
;	COMDAT ??$_Construct@PAU_Node@?$_List_nod@Viterator@?$list@PAVMusicItem@@V?$allocator@PAVMusicItem@@@std@@@std@@V?$allocator@Viterator@?$list@PAVMusicItem@@V?$allocator@PAVMusicItem@@@std@@@std@@@3@@std@@PAU123@@std@@YAXPAPAU_Node@?$_List_nod@Viterator@?$list@PAVMusicItem@@V?$allocator@PAVMusicItem@@@std@@@std@@V?$allocator@Viterator@?$list@PAVMusicItem@@V?$allocator@PAVMusicItem@@@std@@@std@@@3@@0@ABQAU120@@Z
_TEXT	SEGMENT PARA USE32 PUBLIC 'CODE'
_TEXT	ENDS
;	COMDAT ??$_Destroy@PAU_Node@?$_List_nod@Viterator@?$list@PAVMusicItem@@V?$allocator@PAVMusicItem@@@std@@@std@@V?$allocator@Viterator@?$list@PAVMusicItem@@V?$allocator@PAVMusicItem@@@std@@@std@@@3@@std@@@std@@YAXPAPAU_Node@?$_List_nod@Viterator@?$list@PAVMusicItem@@V?$allocator@PAVMusicItem@@@std@@@std@@V?$allocator@Viterator@?$list@PAVMusicItem@@V?$allocator@PAVMusicItem@@@std@@@std@@@3@@0@@Z
_TEXT	SEGMENT PARA USE32 PUBLIC 'CODE'
_TEXT	ENDS
;	COMDAT ??$_Destroy_range@PAVmml_Address@@V?$allocator@PAVmml_Address@@@std@@@std@@YAXPAPAVmml_Address@@0AAV?$allocator@PAVmml_Address@@@0@@Z
_TEXT	SEGMENT PARA USE32 PUBLIC 'CODE'
_TEXT	ENDS
;	COMDAT ??$_Ucopy@PAPAVmml_Address@@@?$vector@PAVmml_Address@@V?$allocator@PAVmml_Address@@@std@@@std@@IAEPAPAVmml_Address@@PAPAV2@00@Z
_TEXT	SEGMENT PARA USE32 PUBLIC 'CODE'
_TEXT	ENDS
;	COMDAT ??$fill@PAPAVmml_Address@@PAV1@@std@@YAXPAPAVmml_Address@@0ABQAV1@@Z
_TEXT	SEGMENT PARA USE32 PUBLIC 'CODE'
_TEXT	ENDS
;	COMDAT ??$copy_backward@PAPAVmml_Address@@PAPAV1@@std@@YAPAPAVmml_Address@@PAPAV1@00@Z
_TEXT	SEGMENT PARA USE32 PUBLIC 'CODE'
_TEXT	ENDS
;	COMDAT ??$_Allocate@PAVmml_Address@@@std@@YAPAPAVmml_Address@@IPAPAV1@@Z
_TEXT	SEGMENT PARA USE32 PUBLIC 'CODE'
_TEXT	ENDS
;	COMDAT ??$?0I@?$allocator@U_Node@?$_List_nod@IV?$allocator@I@std@@@std@@@std@@QAE@ABV?$allocator@I@1@@Z
_TEXT	SEGMENT PARA USE32 PUBLIC 'CODE'
_TEXT	ENDS
;	COMDAT ??$?0Viterator@?$list@PAVMusicItem@@V?$allocator@PAVMusicItem@@@std@@@std@@@?$allocator@U_Node@?$_List_nod@Viterator@?$list@PAVMusicItem@@V?$allocator@PAVMusicItem@@@std@@@std@@V?$allocator@Viterator@?$list@PAVMusicItem@@V?$allocator@PAVMusicItem@@@std@@@std@@@3@@std@@@std@@QAE@ABV?$allocator@Viterator@?$list@PAVMusicItem@@V?$allocator@PAVMusicItem@@@std@@@std@@@1@@Z
_TEXT	SEGMENT PARA USE32 PUBLIC 'CODE'
_TEXT	ENDS
;	COMDAT ??$_Allocate@U_Node@?$_Tree_nod@V?$_Tmap_traits@IPAVPatch@@U?$less@I@std@@V?$allocator@U?$pair@$$CBIPAVPatch@@@std@@@3@$0A@@std@@@std@@@std@@YAPAU_Node@?$_Tree_nod@V?$_Tmap_traits@IPAVPatch@@U?$less@I@std@@V?$allocator@U?$pair@$$CBIPAVPatch@@@std@@@3@$0A@@std@@@0@IPAU120@@Z
_TEXT	SEGMENT PARA USE32 PUBLIC 'CODE'
_TEXT	ENDS
;	COMDAT _$E3
text$yc	SEGMENT PARA USE32 PUBLIC 'CODE'
text$yc	ENDS
;	COMDAT ??$_Destroy_range@HV?$allocator@H@std@@@std@@YAXPAH0AAV?$allocator@H@0@U_Scalar_ptr_iterator_tag@0@@Z
_TEXT	SEGMENT PARA USE32 PUBLIC 'CODE'
_TEXT	ENDS
;	COMDAT ??$_Uninit_fill_n@HIH@std@@YAXPAHIABHAAV?$allocator@H@0@U_Scalar_ptr_iterator_tag@0@@Z
_TEXT	SEGMENT PARA USE32 PUBLIC 'CODE'
_TEXT	ENDS
;	COMDAT ??$_Ptr_cat@Vmml_Address@@@std@@YA?AU_Scalar_ptr_iterator_tag@0@PAPAVmml_Address@@0@Z
_TEXT	SEGMENT PARA USE32 PUBLIC 'CODE'
_TEXT	ENDS
;	COMDAT ??$_Uninit_fill_n@PAVmml_Address@@IPAV1@@std@@YAXPAPAVmml_Address@@IABQAV1@AAV?$allocator@PAVmml_Address@@@0@U_Scalar_ptr_iterator_tag@0@@Z
_TEXT	SEGMENT PARA USE32 PUBLIC 'CODE'
_TEXT	ENDS
;	COMDAT _$E5
text$yc	SEGMENT PARA USE32 PUBLIC 'CODE'
text$yc	ENDS
;	COMDAT ??$_Uninitialized_copy@PAHPAHV?$allocator@H@std@@@std@@YAPAHPAH00AAV?$allocator@H@0@@Z
_TEXT	SEGMENT PARA USE32 PUBLIC 'CODE'
_TEXT	ENDS
;	COMDAT ??$_Copy_backward_opt@PAHPAH@std@@YAPAHPAH00U_Scalar_ptr_iterator_tag@0@@Z
_TEXT	SEGMENT PARA USE32 PUBLIC 'CODE'
_TEXT	ENDS
;	COMDAT ??$_Destroy_range@PAVmml_Address@@V?$allocator@PAVmml_Address@@@std@@@std@@YAXPAPAVmml_Address@@0AAV?$allocator@PAVmml_Address@@@0@U_Scalar_ptr_iterator_tag@0@@Z
_TEXT	SEGMENT PARA USE32 PUBLIC 'CODE'
_TEXT	ENDS
;	COMDAT ??$_Uninitialized_copy@PAPAVmml_Address@@PAPAV1@V?$allocator@PAVmml_Address@@@std@@@std@@YAPAPAVmml_Address@@PAPAV1@00AAV?$allocator@PAVmml_Address@@@0@@Z
_TEXT	SEGMENT PARA USE32 PUBLIC 'CODE'
_TEXT	ENDS
;	COMDAT ??$_Copy_backward_opt@PAPAVmml_Address@@PAPAV1@@std@@YAPAPAVmml_Address@@PAPAV1@00U_Scalar_ptr_iterator_tag@0@@Z
_TEXT	SEGMENT PARA USE32 PUBLIC 'CODE'
_TEXT	ENDS
;	COMDAT ??$fill_n@PAHIH@std@@YAXPAHIABH@Z
_TEXT	SEGMENT PARA USE32 PUBLIC 'CODE'
_TEXT	ENDS
;	COMDAT ??$fill_n@PAPAVmml_Address@@IPAV1@@std@@YAXPAPAVmml_Address@@IABQAV1@@Z
_TEXT	SEGMENT PARA USE32 PUBLIC 'CODE'
_TEXT	ENDS
;	COMDAT ??$_Uninit_copy@HH@std@@YAPAHPAH00AAV?$allocator@H@0@U_Scalar_ptr_iterator_tag@0@@Z
_TEXT	SEGMENT PARA USE32 PUBLIC 'CODE'
_TEXT	ENDS
;	COMDAT ??$_Uninit_copy@PAVmml_Address@@PAV1@@std@@YAPAPAVmml_Address@@PAPAV1@00AAV?$allocator@PAVmml_Address@@@0@U_Scalar_ptr_iterator_tag@0@@Z
_TEXT	SEGMENT PARA USE32 PUBLIC 'CODE'
_TEXT	ENDS
;	COMDAT ?_Ptr_cat@std@@YA?AU_Scalar_ptr_iterator_tag@1@PAH0@Z
_TEXT	SEGMENT PARA USE32 PUBLIC 'CODE'
_TEXT	ENDS
;	COMDAT ?note_code@?1??calc_note@MusicTrack@@QAEDPAVMMLfile@@H@Z@4QBDB
CONST	SEGMENT DWORD USE32 PUBLIC 'CONST'
CONST	ENDS
;	COMDAT ?KS_Command@?1??SetKeySignature@MusicTrack@@QAEXPAVMMLfile@@@Z@4QBUCommand_Info@@B
CONST	SEGMENT DWORD USE32 PUBLIC 'CONST'
CONST	ENDS
;	COMDAT ?Key@?1??SetKey@MusicTrack@@QAEXHH@Z@4QAY06$$CBDA
CONST	SEGMENT DWORD USE32 PUBLIC 'CONST'
CONST	ENDS
;	COMDAT ?Scale@?1??SetKey@MusicTrack@@QAEXHH@Z@4QAY06$$CBDA
CONST	SEGMENT DWORD USE32 PUBLIC 'CONST'
CONST	ENDS
;	COMDAT ?Shift@?1??SetKey@MusicTrack@@QAEXHH@Z@4QBDB
CONST	SEGMENT DWORD USE32 PUBLIC 'CONST'
CONST	ENDS
;	COMDAT ?get_sw_Evoi@Patch@@QAE_NXZ
_TEXT	SEGMENT PARA USE32 PUBLIC 'CODE'
_TEXT	ENDS
;	COMDAT ?setUse@MusicItem@@QAEXXZ
_TEXT	SEGMENT PARA USE32 PUBLIC 'CODE'
_TEXT	ENDS
;	COMDAT ?get@NSD_WORK@@QAEXPAV1@@Z
_TEXT	SEGMENT PARA USE32 PUBLIC 'CODE'
_TEXT	ENDS
;	COMDAT ?set@NSD_WORK@@QAEXPAV1@@Z
_TEXT	SEGMENT PARA USE32 PUBLIC 'CODE'
_TEXT	ENDS
;	COMDAT ?Reset_opt@MusicTrack@@QAEXXZ
_TEXT	SEGMENT PARA USE32 PUBLIC 'CODE'
_TEXT	ENDS
;	COMDAT ?init@NSD_WORK@@QAEXXZ
_TEXT	SEGMENT PARA USE32 PUBLIC 'CODE'
_TEXT	ENDS
;	COMDAT ??1NSD_WORK@@QAE@XZ
_TEXT	SEGMENT PARA USE32 PUBLIC 'CODE'
_TEXT	ENDS
;	COMDAT ??0NSD_WORK@@QAE@XZ
_TEXT	SEGMENT PARA USE32 PUBLIC 'CODE'
_TEXT	ENDS
;	COMDAT ??_7MusicTrack@@6B@
CONST	SEGMENT DWORD USE32 PUBLIC 'CONST'
CONST	ENDS
FLAT	GROUP _DATA, CONST, _BSS
	ASSUME	CS: FLAT, DS: FLAT, SS: FLAT
endif

INCLUDELIB LIBCMT
INCLUDELIB OLDNAMES

PUBLIC	??_C@_19HGHALIPE@?$AAN?$AAu?$AAl?$AAl?$AA?$AA@	; `string'
PUBLIC	??_C@_1BG@DLEDEKK@?$AA?$CJuj0L?$FLXW?$CI0W0?$HO0?$FL0?$JD0?$AC?$AA?$AA@ ; `string'
PUBLIC	??_C@_19IKFMBMLG@?$AAS?$AAu?$AAb?$AA?$CI?$AA?$AA@ ; `string'
PUBLIC	??_C@_1BE@IGMADMH@?$AAE?$AAn?$AAv?$AAe?$AAl?$AAo?$AAp?$AAe?$AA?$CI?$AA?$AA@ ; `string'
PUBLIC	??_C@_1M@PLMGIHGM@?$AAF?$AAD?$AAS?$AAC?$AA?$CI?$AA?$AA@ ; `string'
PUBLIC	??_C@_1M@MBMMOGBM@?$AAF?$AAD?$AAS?$AAM?$AA?$CI?$AA?$AA@ ; `string'
PUBLIC	??_C@_1M@DBGGOFMD@?$AAV?$AAR?$AAC?$AA7?$AA?$CI?$AA?$AA@ ; `string'
PUBLIC	??_C@_1M@HOIDBMFA@?$AAN?$AA1?$AA6?$AA3?$AA?$CI?$AA?$AA@ ; `string'
PUBLIC	??_C@_17HLGHMILN@?$AAS?$AAE?$AA?$CI?$AA?$AA@	; `string'
PUBLIC	??_C@_1CE@JMOHEOPF@0?j0?T0?$PM0?H?$AA?$CI?$AAA?$AA?$CJ0L?$HNB0?$IP0c0f0D0?$HO0?$FL0?$JD0?$AC?$AA?$AA@ ; `string'
PUBLIC	??_C@_1CE@IJKNAFJK@0?j0?T0?$PM0?H?$AA?$CI?$AAC?$AA?$CJ0L?$HNB0?$IP0c0f0D0?$HO0?$FL0?$JD0?$AC?$AA?$AA@ ; `string'
PUBLIC	??_C@_1BK@OCDBGHAP@?$AAE?$AAn?$AAd?$AA?5?$AAo?$AAf?$AA?5?$AAT?$AAr?$AAa?$AAc?$AAk?$AA?$AA@ ; `string'
PUBLIC	??_C@_1CO@IIMELFGG@?$AAE?$AAn?$AAd?$AA?5?$AAo?$AAf?$AA?5?$AAT?$AAr?$AAa?$AAc?$AAk?$AA?5?$AAw?$AAi?$AAt?$AAh?$AA?5?$AAL?$AAO@ ; `string'
PUBLIC	??_C@_1CA@JPKIEODC@?$AAR?$AAe?$AAp?$AAe?$AAa?$AAt?$AA?$CI?$AAB?$AA?$CJ?$AA?5?$AAS?$AAt?$AAa?$AAr?$AAt?$AA?$AA@ ; `string'
PUBLIC	??_C@_1CC@KDMBBGBP@?$AAR?$AAe?$AAp?$AAe?$AAa?$AAt?$AA?$CI?$AAB?$AA?$CJ?$AA?5?$AAB?$AAr?$AAa?$AAn?$AAc?$AAh?$AA?$AA@ ; `string'
PUBLIC	??_C@_1DE@EIMDGIFC@0?j0?T0?$PM0?H?$AA?$CI?$AAB?$AA?$CJQ?$IF0g?$AA?5?$AA?2?$AA?50?$LD0?$NO0?s0?I0L?$JB?M?$IJ?$AH0W@ ; `string'
PUBLIC	??_C@_1DE@NPLPFED@0?j0?T0?$PM0?H?$AA?$CI?$AAB?$AA?$CJ0n?$JF?$ILY?K?$AA?5?$AA?$HM?$AA?3?$AA?50?$LD0?$NO0?s0?I0L0B@ ; `string'
PUBLIC	??_C@_1CC@DHDLBODE@0?j0?T0?$PM0?H?$AA?$CI?$AAA?$AA?$CJ0nS?3?$JF?$JD0n?$JA?$BEN?90g0Y0?$AC?$AA?$AA@ ; `string'
PUBLIC	??_C@_1BM@EDCBEBGE@?$AAR?$AAe?$AAp?$AAe?$AAa?$AAt?$AA?$CI?$AAB?$AA?$CJ?$AA?5?$AAE?$AAn?$AAd?$AA?$AA@ ; `string'
PUBLIC	??_C@_1FK@BKKHDBPB@0?j0?T0?$PM0?H?$AA?$CI?$AAB?$AA?$CJQ?$IF0g?$AA?5?$AA?2?$AA?50?$LD0?$NO0?s0?I0L0B0?$IK0?$HO@ ; `string'
PUBLIC	??_C@_1DC@JAEEIEKF@0?j0?T0?$PM0?HV?$NOep0o?$AA2?$PP?$FO?$AA2?$AA5?$AA50n?$HL?DV?r0gc?$AH?$FL?$JK0W0f@ ; `string'
PUBLIC	??_C@_1CG@DHEAMNDG@0?j0?T0?$PM0?H?$AA?$CI?$AAA?$AA?$CJ0n0?M0?$LJ0?H0o0g0M0?$HO0?$FL0?$JD0?$AC?$AA?$AA@ ; `string'
PUBLIC	??_C@_1CA@HFCOJDFA@?$AAR?$AAe?$AAp?$AAe?$AAa?$AAt?$AA?$CI?$AAA?$AA?$CJ?$AA?5?$AAS?$AAt?$AAa?$AAr?$AAt?$AA?$AA@ ; `string'
PUBLIC	??_C@_1CC@MGIFLNF@?$AAR?$AAe?$AAp?$AAe?$AAa?$AAt?$AA?$CI?$AAA?$AA?$CJ?$AA?5?$AAB?$AAr?$AAa?$AAn?$AAc?$AAh?$AA?$AA@ ; `string'
PUBLIC	??_C@_1DE@HGGAJCGI@0?j0?T0?$PM0?H?$AA?$CI?$AAA?$AA?$CJQ?$IF0g?$AA?5?$AA?3?$AA?50?$LD0?$NO0?s0?I0L?$JB?M?$IJ?$AH0W@ ; `string'
PUBLIC	??_C@_1DC@IPGNKEJP@0?j0?T0?$PM0?H?$AA?$CI?$AAA?$AA?$CJ0n?$JF?$ILY?K?$AA?5?$AA?$FL?$AA?50?$LD0?$NO0?s0?I0L0B0?$IK@ ; `string'
PUBLIC	??_C@_1DE@OPGCJNPF@0?j0?T0?$PM0?H?$AA?$CI?$AAC?$AA?$CJQ?$IF0g?$AA?5?$AA?3?$AA?50?$LD0?$NO0?s0?I0L?$JB?M?$IJ?$AH0W@ ; `string'
PUBLIC	??_C@_1DE@PIDIKAJB@0?j0?T0?$PM0?H?$AA?$CI?$AAC?$AA?$CJ0n?$JF?$ILY?K?$AA?5?$AA?$FL?$AA?3?$AA?50?$LD0?$NO0?s0?I0L0B@ ; `string'
PUBLIC	??_C@_1CE@PJCEBMDC@0?j0?T0?$PM0?H?$JF?$ILY?K0?$LD0?$NO0?s0?I0L0B0?$IK0?$HO0?$FL0?$JD0?$AC?$AA?$AA@ ; `string'
PUBLIC	??_C@_1CC@FCKGONLL@0?j0?T0?$PM0?HV?$NOep0n?$IK?$BI?$IP?p0L0B0?$IK0?$HO0?$FL0?$JD0?$AC?$AA?$AA@ ; `string'
PUBLIC	??_C@_1CI@IJNCMADK@0?j0?T0?$PM0?HV?$NOep0LN?$CBe?$LJ0k?$IK?$BI?$IP?p0U0?$IM0f0D0?$HO0Y0?$AC?$AA?$AA@ ; `string'
PUBLIC	??_C@_1BM@DPEAGELP@?$AAR?$AAe?$AAp?$AAe?$AAa?$AAt?$AA?$CI?$AAA?$AA?$CJ?$AA?5?$AAE?$AAn?$AAd?$AA?$AA@ ; `string'
PUBLIC	??_C@_1BA@GCDNCJOK@?$AAG?$AAe?$AAn?$AAe?$AAr?$AAa?$AAl?$AA?$AA@ ; `string'
PUBLIC	??_C@_1BA@LDPMAPOD@?$AAA?$AAd?$AAd?$AAr?$AAe?$AAs?$AAs?$AA?$AA@ ; `string'
PUBLIC	??_C@_1BA@DMAFONIK@?$AAC?$AAa?$AAl?$AAl?$AA?5?$AAS?$AAE?$AA?$AA@ ; `string'
PUBLIC	??_C@_1BG@DLCGAOAF@?$AAS?$AAu?$AAb?$AAr?$AAo?$AAu?$AAt?$AAi?$AAn?$AAe?$AA?$AA@ ; `string'
PUBLIC	??_C@_1CK@JNKNAIAA@?$AAS?$AAu?$AAb?$AAr?$AAo?$AAu?$AAt?$AAi?$AAn?$AAe?$AA?5?$AAf?$AAo?$AAr?$AA?5?$AAP?$AAa?$AAt?$AAc?$AAh@ ; `string'
PUBLIC	??_C@_1BI@EHCLFFIH@?$FLXW?$CI0W0j0D0?Q0?C0?A0g0Y0?$AC?$AA?$AA@ ; `string'
PUBLIC	??_C@_1BO@GFLIMKC@?$AAV?$AAo?$AAi?$AAc?$AAe?$AA?5?$AAE?$AAn?$AAv?$AAe?$AAl?$AAo?$AAp?$AAe?$AA?$AA@ ; `string'
PUBLIC	??_C@_1CA@BOAFBFBE@?$AAV?$AAo?$AAl?$AAu?$AAm?$AAe?$AA?5?$AAE?$AAn?$AAv?$AAe?$AAl?$AAo?$AAp?$AAe?$AA?$AA@ ; `string'
PUBLIC	??_C@_1CG@HDOLOCJJ@?$AAF?$AAr?$AAe?$AAq?$AAu?$AAe?$AAn?$AAc?$AAy?$AA?5?$AAE?$AAn?$AAv?$AAe?$AAl?$AAo?$AAp?$AAe?$AA?$AA@ ; `string'
PUBLIC	??_C@_1BM@CBOHIOMD@?$AAN?$AAo?$AAt?$AAe?$AA?5?$AAE?$AAn?$AAv?$AAe?$AAl?$AAo?$AAp?$AAe?$AA?$AA@ ; `string'
PUBLIC	??_C@_1M@DKLMFINE@?$AAV?$AAo?$AAi?$AAc?$AAe?$AA?$AA@ ; `string'
PUBLIC	??_C@_1CI@DNAKKDOB@?$AAV?$AAo?$AAl?$AAu?$AAm?$AAe?$AA?5?$AAE?$AAn?$AAv?$AAe?$AAl?$AAo?$AAp?$AAe?$AA?5?$AAO?$AAf?$AAf?$AA?$AA@ ; `string'
PUBLIC	??_C@_1CO@BJABPOLD@?$AAF?$AAr?$AAe?$AAq?$AAu?$AAe?$AAn?$AAc?$AAy?$AA?5?$AAE?$AAn?$AAv?$AAe?$AAl?$AAo?$AAp?$AAe?$AA?5?$AAO@ ; `string'
PUBLIC	??_C@_1CE@KEOAGLPM@?$AAN?$AAo?$AAt?$AAe?$AA?5?$AAE?$AAn?$AAv?$AAe?$AAl?$AAo?$AAp?$AAe?$AA?5?$AAO?$AAf?$AAf?$AA?$AA@ ; `string'
PUBLIC	??_C@_1M@HAFHLPCH@?$AAS?$AAw?$AAe?$AAe?$AAp?$AA?$AA@ ; `string'
PUBLIC	??_C@_1CM@GOJLGHKM@?$AAF?$AAD?$AAS?$AA?5?$AAc?$AAa?$AAr?$AAe?$AAe?$AAr?$AA?5?$AAw?$AAa?$AAv?$AAe?$AA?5?$AAt?$AAa?$AAb?$AAl@ ; `string'
PUBLIC	??_C@_1DC@IBICFHPL@?$AAF?$AAD?$AAS?$AA?5?$AAm?$AAo?$AAd?$AAu?$AAl?$AAa?$AAt?$AAo?$AAr?$AA?5?$AAw?$AAa?$AAv?$AAe?$AA?5?$AAt@ ; `string'
PUBLIC	??_C@_1CM@FAPBPOGD@?$AAV?$AAR?$AAC?$AA7?$AA?5?$AAu?$AAs?$AAe?$AAr?$AA?5?$AAi?$AAn?$AAs?$AAt?$AAr?$AAu?$AAm?$AAe?$AAn?$AAt@ ; `string'
PUBLIC	??_C@_1CA@NKOKHIPN@?$AAn?$AA1?$AA6?$AA3?$AA?5?$AAw?$AAa?$AAv?$AAe?$AA?5?$AAt?$AAa?$AAb?$AAl?$AAe?$AA?$AA@ ; `string'
PUBLIC	??_C@_1EA@CPIKLJAL@?$AA?$EA?$AAN?$AA?50?$LD0?$NO0?s0?I0n0?Q0?i0?a0?$PM0?$LP0L?$IN?$LD0?$IK0?$HO0?$FL0?$JD0?$AC@ ; `string'
PUBLIC	??_C@_1CO@PCFIGAHG@?$AAJ0?$LD0?$NO0?s0?I0o?$AA0?$PP?$FO?$AA10n?$HL?DV?r0gc?$AH?$FL?$JK0W0f0O0?$GA0U@ ; `string'
PUBLIC	??_C@_1CC@EMHPIIFB@?$AAG?$AAa?$AAt?$AAe?$AAt?$AAi?$AAm?$AAe?$AA?$CI?$AAq?$AA?$CJ?$AA?5?$AAB?$AAy?$AAt?$AAe?$AA?$AA@ ; `string'
PUBLIC	??_C@_1BI@DCFFOBJ@?$AAG?$AAa?$AAt?$AAe?$AAt?$AAi?$AAm?$AAe?$AA?$CI?$AAq?$AA?$CJ?$AA?$AA@ ; `string'
PUBLIC	??_C@_1BI@IPILGHHC@?$AAG?$AAa?$AAt?$AAe?$AAT?$AAi?$AAm?$AAe?$AA?$CI?$AAu?$AA?$CJ?$AA?$AA@ ; `string'
PUBLIC	??_C@_1DI@HCGIJCFJ@0?$LC0?$PM0?H0?$LP0?$KE0?$OA?$AAQ0o?$AA1?$PP?$FO?$AA?$CD?$AAQ?$AAM?$AAa?$AAx0n?$HL?DV?r0gc?$AH@ ; `string'
PUBLIC	??_C@_1DE@DMILNHDF@0?$LC0?$PM0?H0?$LP0?$KE0?$OA?$AAq0o?$AA0?$PP?$FO?$AA2?$AA5?$AA50n?$HL?DV?r0gc?$AH?$FL?$JK0W@ ; `string'
PUBLIC	??_C@_1BG@CIPPAIIN@?$AAG?$AAa?$AAt?$AAe?$AAM?$AAo?$AAd?$AAe?$AA?5?$AA0?$AA?$AA@ ; `string'
PUBLIC	??_C@_1BG@JAEDGPOI@?$AAG?$AAa?$AAt?$AAe?$AAM?$AAo?$AAd?$AAe?$AA?5?$AA1?$AA?$AA@ ; `string'
PUBLIC	??_C@_1BG@ICPGMAAG@?$AAG?$AAa?$AAt?$AAe?$AAM?$AAo?$AAd?$AAe?$AA?5?$AA2?$AA?$AA@ ; `string'
PUBLIC	??_C@_1DC@NMCJFJGP@0?j0?j0?$PM0?$LJ0?b0?$PM0?I0o?$AA0?$PP?$FO?$AA20n?$HL?DV?r0gc?$AH?$FL?$JK0W0f0O@ ; `string'
PUBLIC	??_C@_1BM@LPHMCIPB@?$AAR?$AAe?$AAl?$AAe?$AAa?$AAs?$AAe?$AA?5?$AAV?$AAo?$AAi?$AAc?$AAe?$AA?$AA@ ; `string'
PUBLIC	??_C@_1DA@NPNLAEDI@0?j0?j0?$PM0?$LJ?$JH?s?$ICr0o?$AA0?$PP?$FO?$AA70n?$HL?DV?r0gc?$AH?$FL?$JK0W0f0O0?$GA@ ; `string'
PUBLIC	??_C@_1BO@IEEELBMO@?$AAR?$AAe?$AAl?$AAe?$AAa?$AAs?$AAe?$AA?5?$AAV?$AAo?$AAl?$AAu?$AAm?$AAe?$AA?$AA@ ; `string'
PUBLIC	??_C@_1CK@OMCJIBOF@?$JH?s?$JB?O0o?$AA0?$PP?$FO?$AA1?$AA50n?$HL?DV?r0gc?$AH?$FL?$JK0W0f0O0?$GA0U0D0?$AC@ ; `string'
PUBLIC	??_C@_05KFOFLDIO@C?9Dur?$AA@			; `string'
PUBLIC	??_C@_06DNHFJLJE@Ds?9Dur?$AA@			; `string'
PUBLIC	??_C@_07BCGGFLM@Des?9Dur?$AA@			; `string'
PUBLIC	??_C@_05LIOAIDDG@D?9Dur?$AA@			; `string'
PUBLIC	??_C@_06JLACJACA@Es?9Dur?$AA@			; `string'
PUBLIC	??_C@_05HDLMFAJD@E?9Dur?$AA@			; `string'
PUBLIC	??_C@_05PFCICCDN@F?9Dur?$AA@			; `string'
PUBLIC	??_C@_07IEKDAILF@Fis?9Dur?$AA@			; `string'
PUBLIC	??_C@_06MJNIBAJ@Gs?9Dur?$AA@			; `string'
PUBLIC	??_C@_07IPKJGCFP@Ges?9Dur?$AA@			; `string'
PUBLIC	??_C@_05DOHEPBJI@G?9Dur?$AA@			; `string'
PUBLIC	??_C@_06GPENLEDD@As?9Dur?$AA@			; `string'
PUBLIC	??_C@_05OICNBCIF@A?9Dur?$AA@			; `string'
PUBLIC	??_C@_05GOLJGACL@B?9Dur?$AA@			; `string'
PUBLIC	??_C@_06FOKFKOKO@Bs?9Dur?$AA@			; `string'
PUBLIC	??_C@_05MPCCEDEN@H?9Dur?$AA@			; `string'
PUBLIC	??_C@_06OJJNCCFH@c?9moll?$AA@			; `string'
PUBLIC	??_C@_08FPGMHDLI@cis?9moll?$AA@			; `string'
PUBLIC	??_C@_06CMDKBMNJ@d?9moll?$AA@			; `string'
PUBLIC	??_C@_08DLANBOHB@dis?9moll?$AA@			; `string'
PUBLIC	??_C@_07OOAGBAFB@es?9moll?$AA@			; `string'
PUBLIC	??_C@_06IKENBHGN@e?9moll?$AA@			; `string'
PUBLIC	??_C@_06LLKFANPA@f?9moll?$AA@			; `string'
PUBLIC	??_C@_08BFPLDGPH@fis?9moll?$AA@			; `string'
PUBLIC	??_C@_06BNNCAGEE@g?9moll?$AA@			; `string'
PUBLIC	??_C@_08CIACCLE@gis?9moll?$AA@			; `string'
PUBLIC	??_C@_06HOACDDHO@a?9moll?$AA@			; `string'
PUBLIC	??_C@_06EPOKCJOD@b?9moll?$AA@			; `string'
PUBLIC	??_C@_07OEMDBJEI@bs?9moll?$AA@			; `string'
PUBLIC	??_C@_06OLJKHGKN@h?9moll?$AA@			; `string'
PUBLIC	??_C@_07CCKMBAMP@ds?9moll?$AA@			; `string'
PUBLIC	??_C@_08GMKCALDO@des?9moll?$AA@			; `string'
PUBLIC	??_C@_07KMCDBHCM@gs?9moll?$AA@			; `string'
PUBLIC	??_C@_08FFCPDHPL@ges?9moll?$AA@			; `string'
PUBLIC	??_C@_07GKEMBOKL@as?9moll?$AA@			; `string'
PUBLIC	??_C@_01MIFGBAGJ@?$CL?$AA@			; `string'
PUBLIC	??_C@_02CMICPHGH@?$IB?$HL?$AA@			; `string'
PUBLIC	??_C@_01IPJKGB@?$CD?$AA@			; `string'
PUBLIC	??_C@_02PFGEBIEE@?$IB?$JE?$AA@			; `string'
PUBLIC	??_C@_02GDMDGBKA@?$IB?$HM?$AA@			; `string'
PUBLIC	??_C@_02NPNIOFCE@?$IB?s?$AA@			; `string'
PUBLIC	??_C@_01NEMOKFLO@?$DN?$AA@			; `string'
PUBLIC	??_C@_02MCNBPOFA@?$IB?$IB?$AA@			; `string'
PUBLIC	??_C@_01NBENCBCI@?$CK?$AA@			; `string'
PUBLIC	??_C@_02MHFCHKMG@?$IB?$JG?$AA@			; `string'
PUBLIC	??_C@_02LJKBFKON@?$ID?$JD?$AA@			; `string'
PUBLIC	??_C@_02LEAGIKBB@?$IDb?$AA@			; `string'
PUBLIC	??_C@_02OPKIDJPP@?$IC?q?$AA@			; `string'
PUBLIC	??_C@_02DAOOAPAM@?$IC?A?$AA@			; `string'
PUBLIC	??_C@_02BILDMFBN@?$IDn?$AA@			; `string'
PUBLIC	??_C@_02HMNPAABJ@?$IDj?$AA@			; `string'
PUBLIC	??_C@_02DGBNBCEI@?$IDz?$AA@			; `string'
PUBLIC	??_C@_02IDLDGMAF@?$IDw?$AA@			; `string'
PUBLIC	??_C@_02MJHBHOFE@?$IDg?$AA@			; `string'
PUBLIC	??_C@_02DIJJJPPC@?$IDC?$AA@			; `string'
PUBLIC	??_C@_02GNOAGFDC@?$ID?$IN?$AA@			; `string'
PUBLIC	??_C@_1DI@JCDDEPJK@?$IK?$LPS?w0?$LD0?$NO0?s0?I0?$PL0?V0?m0?C0?$KP0n?$JF?$ILY?K0?$JCy?30Y?$AA?$HL0L?$IJ?$IL@ ; `string'
PUBLIC	??_C@_1DI@GALIBNKP@?$IK?$LPS?w0?$LD0?$NO0?s0?I0?$PL0?V0?m0?C0?$KP0n?$HNBz?o0?$JCy?30Y?$AA?$GA?$AA?$HN?$AA?8@ ; `string'
PUBLIC	??_C@_1DM@KNFDIHJH@?$IK?$LPS?w?$AA?5?$AAK?$AA?$HL?$AA?$HN?$AA?50?$LD0?$NO0?s0?I0n_?$BFep0gg?$CKw?e0ne?$IH?$FLW@ ; `string'
PUBLIC	??_C@_1BE@PDJGDLM@?$AAL?$AAe?$AAn?$AAg?$AAt?$AAh?$AA?5?$AA9?$AA6?$AA?$AA@ ; `string'
PUBLIC	??_C@_1BE@LKFBJFJL@?$AAL?$AAe?$AAn?$AAg?$AAt?$AAh?$AA?5?$AA7?$AA2?$AA?$AA@ ; `string'
PUBLIC	??_C@_1BE@FDHIAHFB@?$AAL?$AAe?$AAn?$AAg?$AAt?$AAh?$AA?5?$AA4?$AA8?$AA?$AA@ ; `string'
PUBLIC	??_C@_1BE@KOKCEANK@?$AAL?$AAe?$AAn?$AAg?$AAt?$AAh?$AA?5?$AA3?$AA6?$AA?$AA@ ; `string'
PUBLIC	??_C@_1BE@CBMANHIN@?$AAL?$AAe?$AAn?$AAg?$AAt?$AAh?$AA?5?$AA3?$AA2?$AA?$AA@ ; `string'
PUBLIC	??_C@_1BE@MPPHFLPE@?$AAL?$AAe?$AAn?$AAg?$AAt?$AAh?$AA?5?$AA2?$AA4?$AA?$AA@ ; `string'
PUBLIC	??_C@_1BE@DLFJGOC@?$AAL?$AAe?$AAn?$AAg?$AAt?$AAh?$AA?5?$AA1?$AA8?$AA?$AA@ ; `string'
PUBLIC	??_C@_1BE@ODGKOBNB@?$AAL?$AAe?$AAn?$AAg?$AAt?$AAh?$AA?5?$AA1?$AA6?$AA?$AA@ ; `string'
PUBLIC	??_C@_1BE@GMAIHGIG@?$AAL?$AAe?$AAn?$AAg?$AAt?$AAh?$AA?5?$AA1?$AA2?$AA?$AA@ ; `string'
PUBLIC	??_C@_1BC@BACHBKJG@?$AAL?$AAe?$AAn?$AAg?$AAt?$AAh?$AA?5?$AA9?$AA?$AA@ ; `string'
PUBLIC	??_C@_1BC@KIJLHNPD@?$AAL?$AAe?$AAn?$AAg?$AAt?$AAh?$AA?5?$AA8?$AA?$AA@ ; `string'
PUBLIC	??_C@_1BC@EIEEAKMA@?$AAL?$AAe?$AAn?$AAg?$AAt?$AAh?$AA?5?$AA6?$AA?$AA@ ; `string'
PUBLIC	??_C@_1BC@OCENMCEL@?$AAL?$AAe?$AAn?$AAg?$AAt?$AAh?$AA?5?$AA4?$AA?$AA@ ; `string'
PUBLIC	??_C@_1BC@HPJKPKPC@?$AAL?$AAe?$AAn?$AAg?$AAt?$AAh?$AA?5?$AA3?$AA?$AA@ ; `string'
PUBLIC	??_C@_1BC@MHCGJNJH@?$AAL?$AAe?$AAn?$AAg?$AAt?$AAh?$AA?5?$AA2?$AA?$AA@ ; `string'
PUBLIC	??_C@_1BC@NFJDDCHJ@?$AAL?$AAe?$AAn?$AAg?$AAt?$AAh?$AA?5?$AA1?$AA?$AA@ ; `string'
PUBLIC	??_C@_1O@IONIPGKG@?$AAL?$AAe?$AAn?$AAg?$AAt?$AAh?$AA?$AA@ ; `string'
PUBLIC	??_C@_1EE@FMLCMNNO@?$AAE?$AAC0?$LD0?$NO0?s0?I0n?$HL?0?$PP?$BB0?Q0?i0?a0?$PM0?$LP0o?$AA0?$PP?$FO?$AA2?$AA5?$AA5@ ; `string'
PUBLIC	??_C@_1EA@ECJHFDDN@?$AAE?$AAC?$AA?50?$LD0?$NO0?s0?I0n0?Q0?i0?a0?$PM0?$LP0L?$IN?$LD0?$IK0?$HO0?$FL0?$JD0?$AC@ ; `string'
PUBLIC	??_C@_1EE@OOLANPID@?$AAE?$AAC0?$LD0?$NO0?s0?I0n?$HL?0?$PP?$BC0?Q0?i0?a0?$PM0?$LP0o?$AA?9?$AA1?$PP?$FO?$AA1?$AA5@ ; `string'
PUBLIC	??_C@_1DK@PHOKHOEC@?$JH?sz?$AL0n?$HL?DV?r0L0?N0?$PM0?H0?J0?s0?P0?$PM?$AA0?$PP?$FO?$AA2?$AA5?$AA50n?$HL?D@ ; `string'
PUBLIC	??_C@_1BI@EPMKAKFB@?$AAE?$AAc?$AAh?$AAo?$AA?5?$AAV?$AAo?$AAl?$AAu?$AAm?$AAe?$AA?$AA@ ; `string'
PUBLIC	??_C@_1CK@JCJILIHF@?$AAO?$AAn?$AAe?$AA?5?$AAt?$AAi?$AAm?$AAe?$AA?5?$AAo?$AAc?$AAt?$AAa?$AAv?$AAe?$AA?5?$AAd?$AAo?$AAw?$AAn@ ; `string'
PUBLIC	??_C@_1CG@IKGHOBJA@?$AAO?$AAn?$AAe?$AA?5?$AAt?$AAi?$AAm?$AAe?$AA?5?$AAo?$AAc?$AAt?$AAa?$AAv?$AAe?$AA?5?$AAu?$AAp?$AA?$AA@ ; `string'
PUBLIC	??_C@_1BE@HOMMDOEE@?$AAE?$AAc?$AAh?$AAo?$AA?5?$AAN?$AAo?$AAt?$AAe?$AA?$AA@ ; `string'
PUBLIC	??_C@_1O@DMLCJFNF@?$AAV?$AAo?$AAl?$AAu?$AAm?$AAe?$AA?$AA@ ; `string'
PUBLIC	??_C@_19JIGFKGL@?$AAN?$AAo?$AAt?$AAe?$AA?$AA@	; `string'
PUBLIC	??_C@_1GG@HBOGPEMM@?$AAM?$AAu?$AAs?$AAi?$AAc?$AAT?$AAr?$AAa?$AAc?$AAk?$AA?3?$AA?3?$AAS?$AAe?$AAt?$AAR?$AAe?$AAs?$AAt?$AA?$CI@ ; `string'
PUBLIC	??_C@_1GG@IPLHPKBL@?$AAM?$AAu?$AAs?$AAi?$AAc?$AAT?$AAr?$AAa?$AAc?$AAk?$AA?3?$AA?3?$AAS?$AAe?$AAt?$AAR?$AAe?$AAs?$AAt?$AA?$CI@ ; `string'
PUBLIC	??_C@_19FAHECHIH@?$AAR?$AAe?$AAs?$AAt?$AA?$AA@	; `string'
PUBLIC	??_C@_1CK@DKBDHLKE@?$AAa?$AA?0?$AAb?$AA?0?$AAc?$PP?$FO?$AAg0n?$JH?sT?$AN0?$JC?$IK?$BI?$IP?p0W0f0O0?$GA0U0D0?$AC@ ; `string'
PUBLIC	??_C@_1CM@GGEMPKPF@0?$NN0?k0?$LP0?a0?s0?H0?$LD0?$NO0?s0?I0o0?$AB?$AA?$HN0g?$JF?$IJ0X0fN?$AL0U0D@ ; `string'
PUBLIC	??_C@_1DK@BBKDBEBK@0?$NN0?k0?$LP0?a0?s0?H0?$LD0?$NO0?s0?I0g0?$AB?$JH?s?$JFw0L?$AA2?$HL?$IHb?$EA0k?$IK?$BI@ ; `string'
PUBLIC	??_C@_1EC@HFJPNNCI@0?$NN0?k0?$LP0?a0?s0?H0?$LD0?$NO0?s0?I0g0?$AB0?$LC0?$PM0?H0?$LP0?$KE0?$OA0L?$AA2@ ; `string'
PUBLIC	??_C@_1BG@GGJHBHG@?$AAP?$AAo?$AAr?$AAt?$AAa?$AAm?$AAe?$AAn?$AAt?$AAo?$AA?$AA@ ; `string'
PUBLIC	??_C@_1EE@PLBKOKJL@0?$NN0?k0?$LP0?a0?s0?H0n?$HL?0?$AA10?Q0?i0?a0?$PM0?$LP0o?$AA0?$PP?$FO?$AA2?$AA5?$AA5@ ; `string'
PUBLIC	??_C@_1DO@OLCBIOJB@?$AAP?$AA?50?$LD0?$NO0?s0?I0n0?Q0?i0?a0?$PM0?$LP0L?$IN?$LD0?$IK0?$HO0?$FL0?$JD0?$AC?$PP?$BE@ ; `string'
PUBLIC	??_C@_1EE@IIGGDGHG@0?$NN0?k0?$LP0?a0?s0?H0n?$HL?0?$AA20?Q0?i0?a0?$PM0?$LP0o?$AA1?$PP?$FO?$AA2?$AA5?$AA6@ ; `string'
PUBLIC	??_C@_1EK@HIFALIIE@0?$NN0?k0?$LP0?a0?s0?H0n?$HL?0?$AA30?Q0?i0?a0?$PM0?$LP0o?$AA?9?$AA1?$AA2?$AA8?$PP?$FO@ ; `string'
PUBLIC	??_C@_1EK@FHHEJADM@0?$NN0?k0?$LP0?a0?s0?H0n?$HL?0?$AA40?Q0?i0?a0?$PM0?$LP0o?$AA?9?$AA1?$AA2?$AA8?$PP?$FO@ ; `string'
PUBLIC	??_C@_1DI@EBCJNIGK@0?$KN0?$PM0?$LH0?U0?H0o?$AA?9?$AA1?$AA2?$AA7?$PP?$FO?$AA1?$AA2?$AA80n?$HL?DV?r0gc?$AH?$FL?$JK@ ; `string'
PUBLIC	??_C@_1DC@IEPABAMO@0?$KN0?$PM0?$LH0?U0?H0n?$HL?DV?r0L?$AA?9?$AA1?$AA2?$AA7?$PP?$FO?$AA1?$AA2?$AA80?$JC?$IN?$IF0H@ ; `string'
PUBLIC	??_C@_1BE@FKDCKBLJ@?$AAT?$AAr?$AAa?$AAn?$AAs?$AAp?$AAo?$AAs?$AAe?$AA?$AA@ ; `string'
PUBLIC	??_C@_1CG@MDOKKNHL@?$AAR?$AAe?$AAl?$AAa?$AAt?$AAi?$AAv?$AAe?$AA?5?$AAT?$AAr?$AAa?$AAn?$AAs?$AAp?$AAo?$AAs?$AAe?$AA?$AA@ ; `string'
PUBLIC	??_C@_1O@FEMFBHON@?$AAO?$AAc?$AAt?$AAa?$AAv?$AAe?$AA?$AA@ ; `string'
PUBLIC	??_C@_1CO@KKLECMEI@0?$KK0?$KP0?$LP0?$PM0?V0o?$AA1?$PP?$FO?$AA80n?$HL?DV?r0gc?$AH?$FL?$JK0W0f0O0?$GA0U@ ; `string'
PUBLIC	??_C@_1BE@JMDGIABI@?$AAO?$AAc?$AAt?$AAa?$AAv?$AAe?$AA?5?$AAU?$AAp?$AA?$AA@ ; `string'
PUBLIC	??_C@_1BI@KEBEFOPC@?$AAO?$AAc?$AAt?$AAa?$AAv?$AAe?$AA?5?$AAD?$AAo?$AAw?$AAn?$AA?$AA@ ; `string'
PUBLIC	??_C@_1BE@ILJOBKB@?$AAV?$AAo?$AAl?$AAu?$AAm?$AAe?$AA?5?$AAu?$AAp?$AA?$AA@ ; `string'
PUBLIC	??_C@_1BI@MGACCNCM@?$AAV?$AAo?$AAl?$AAu?$AAm?$AAe?$AA?5?$AAd?$AAo?$AAw?$AAn?$AA?$AA@ ; `string'
PUBLIC	??_C@_0BD@OLBABOEK@vector?$DMT?$DO?5too?5long?$AA@ ; `string'
PUBLIC	??_7MusicTrack@@6B@				; MusicTrack::`vftable'
;	COMDAT ??_C@_19HGHALIPE@?$AAN?$AAu?$AAl?$AAl?$AA?$AA@
CONST	SEGMENT
??_C@_19HGHALIPE@?$AAN?$AAu?$AAl?$AAl?$AA?$AA@ DB 'N', 00H, 'u', 00H, 'l', 00H
	DB	'l', 00H, 00H, 00H				; `string'
CONST	ENDS
;	COMDAT ??_C@_1BG@DLEDEKK@?$AA?$CJuj0L?$FLXW?$CI0W0?$HO0?$FL0?$JD0?$AC?$AA?$AA@
CONST	SEGMENT
??_C@_1BG@DLEDEKK@?$AA?$CJuj0L?$FLXW?$CI0W0?$HO0?$FL0?$JD0?$AC?$AA?$AA@ DB ')'
	DB	00H, 'juL0X[(WW0~0[0', 093H, '0', 02H, '0', 00H, 00H ; `string'
CONST	ENDS
;	COMDAT ??_C@_19IKFMBMLG@?$AAS?$AAu?$AAb?$AA?$CI?$AA?$AA@
CONST	SEGMENT
??_C@_19IKFMBMLG@?$AAS?$AAu?$AAb?$AA?$CI?$AA?$AA@ DB 'S', 00H, 'u', 00H, 'b'
	DB	00H, '(', 00H, 00H, 00H			; `string'
CONST	ENDS
;	COMDAT ??_C@_1BE@IGMADMH@?$AAE?$AAn?$AAv?$AAe?$AAl?$AAo?$AAp?$AAe?$AA?$CI?$AA?$AA@
CONST	SEGMENT
??_C@_1BE@IGMADMH@?$AAE?$AAn?$AAv?$AAe?$AAl?$AAo?$AAp?$AAe?$AA?$CI?$AA?$AA@ DB 'E'
	DB	00H, 'n', 00H, 'v', 00H, 'e', 00H, 'l', 00H, 'o', 00H, 'p', 00H
	DB	'e', 00H, '(', 00H, 00H, 00H			; `string'
CONST	ENDS
;	COMDAT ??_C@_1M@PLMGIHGM@?$AAF?$AAD?$AAS?$AAC?$AA?$CI?$AA?$AA@
CONST	SEGMENT
??_C@_1M@PLMGIHGM@?$AAF?$AAD?$AAS?$AAC?$AA?$CI?$AA?$AA@ DB 'F', 00H, 'D', 00H
	DB	'S', 00H, 'C', 00H, '(', 00H, 00H, 00H	; `string'
CONST	ENDS
;	COMDAT ??_C@_1M@MBMMOGBM@?$AAF?$AAD?$AAS?$AAM?$AA?$CI?$AA?$AA@
CONST	SEGMENT
??_C@_1M@MBMMOGBM@?$AAF?$AAD?$AAS?$AAM?$AA?$CI?$AA?$AA@ DB 'F', 00H, 'D', 00H
	DB	'S', 00H, 'M', 00H, '(', 00H, 00H, 00H	; `string'
CONST	ENDS
;	COMDAT ??_C@_1M@DBGGOFMD@?$AAV?$AAR?$AAC?$AA7?$AA?$CI?$AA?$AA@
CONST	SEGMENT
??_C@_1M@DBGGOFMD@?$AAV?$AAR?$AAC?$AA7?$AA?$CI?$AA?$AA@ DB 'V', 00H, 'R', 00H
	DB	'C', 00H, '7', 00H, '(', 00H, 00H, 00H	; `string'
CONST	ENDS
;	COMDAT ??_C@_1M@HOIDBMFA@?$AAN?$AA1?$AA6?$AA3?$AA?$CI?$AA?$AA@
CONST	SEGMENT
??_C@_1M@HOIDBMFA@?$AAN?$AA1?$AA6?$AA3?$AA?$CI?$AA?$AA@ DB 'N', 00H, '1', 00H
	DB	'6', 00H, '3', 00H, '(', 00H, 00H, 00H	; `string'
CONST	ENDS
;	COMDAT ??_C@_17HLGHMILN@?$AAS?$AAE?$AA?$CI?$AA?$AA@
CONST	SEGMENT
??_C@_17HLGHMILN@?$AAS?$AAE?$AA?$CI?$AA?$AA@ DB 'S', 00H, 'E', 00H, '(', 00H
	DB	00H, 00H					; `string'
CONST	ENDS
;	COMDAT ??_C@_1CE@JMOHEOPF@0?j0?T0?$PM0?H?$AA?$CI?$AAA?$AA?$CJ0L?$HNB0?$IP0c0f0D0?$HO0?$FL0?$JD0?$AC?$AA?$AA@
CONST	SEGMENT
??_C@_1CE@JMOHEOPF@0?j0?T0?$PM0?H?$AA?$CI?$AAA?$AA?$CJ0L?$HNB0?$IP0c0f0D0?$HO0?$FL0?$JD0?$AC?$AA?$AA@ DB 0eaH
	DB	'0', 0d4H, '0', 0fcH, '0', 0c8H, '0(', 00H, 'A', 00H, ')', 00H
	DB	'L0B}', 08fH, '0c0f0D0~0[0', 093H, '0', 02H, '0', 00H, 00H ; `string'
CONST	ENDS
;	COMDAT ??_C@_1CE@IJKNAFJK@0?j0?T0?$PM0?H?$AA?$CI?$AAC?$AA?$CJ0L?$HNB0?$IP0c0f0D0?$HO0?$FL0?$JD0?$AC?$AA?$AA@
CONST	SEGMENT
??_C@_1CE@IJKNAFJK@0?j0?T0?$PM0?H?$AA?$CI?$AAC?$AA?$CJ0L?$HNB0?$IP0c0f0D0?$HO0?$FL0?$JD0?$AC?$AA?$AA@ DB 0eaH
	DB	'0', 0d4H, '0', 0fcH, '0', 0c8H, '0(', 00H, 'C', 00H, ')', 00H
	DB	'L0B}', 08fH, '0c0f0D0~0[0', 093H, '0', 02H, '0', 00H, 00H ; `string'
CONST	ENDS
;	COMDAT ??_C@_1BK@OCDBGHAP@?$AAE?$AAn?$AAd?$AA?5?$AAo?$AAf?$AA?5?$AAT?$AAr?$AAa?$AAc?$AAk?$AA?$AA@
CONST	SEGMENT
??_C@_1BK@OCDBGHAP@?$AAE?$AAn?$AAd?$AA?5?$AAo?$AAf?$AA?5?$AAT?$AAr?$AAa?$AAc?$AAk?$AA?$AA@ DB 'E'
	DB	00H, 'n', 00H, 'd', 00H, ' ', 00H, 'o', 00H, 'f', 00H, ' ', 00H
	DB	'T', 00H, 'r', 00H, 'a', 00H, 'c', 00H, 'k', 00H, 00H, 00H ; `string'
CONST	ENDS
;	COMDAT ??_C@_1CO@IIMELFGG@?$AAE?$AAn?$AAd?$AA?5?$AAo?$AAf?$AA?5?$AAT?$AAr?$AAa?$AAc?$AAk?$AA?5?$AAw?$AAi?$AAt?$AAh?$AA?5?$AAL?$AAO@
CONST	SEGMENT
??_C@_1CO@IIMELFGG@?$AAE?$AAn?$AAd?$AA?5?$AAo?$AAf?$AA?5?$AAT?$AAr?$AAa?$AAc?$AAk?$AA?5?$AAw?$AAi?$AAt?$AAh?$AA?5?$AAL?$AAO@ DB 'E'
	DB	00H, 'n', 00H, 'd', 00H, ' ', 00H, 'o', 00H, 'f', 00H, ' ', 00H
	DB	'T', 00H, 'r', 00H, 'a', 00H, 'c', 00H, 'k', 00H, ' ', 00H, 'w'
	DB	00H, 'i', 00H, 't', 00H, 'h', 00H, ' ', 00H, 'L', 00H, 'O', 00H
	DB	'O', 00H, 'P', 00H, 00H, 00H			; `string'
CONST	ENDS
;	COMDAT ??_C@_1CA@JPKIEODC@?$AAR?$AAe?$AAp?$AAe?$AAa?$AAt?$AA?$CI?$AAB?$AA?$CJ?$AA?5?$AAS?$AAt?$AAa?$AAr?$AAt?$AA?$AA@
CONST	SEGMENT
??_C@_1CA@JPKIEODC@?$AAR?$AAe?$AAp?$AAe?$AAa?$AAt?$AA?$CI?$AAB?$AA?$CJ?$AA?5?$AAS?$AAt?$AAa?$AAr?$AAt?$AA?$AA@ DB 'R'
	DB	00H, 'e', 00H, 'p', 00H, 'e', 00H, 'a', 00H, 't', 00H, '(', 00H
	DB	'B', 00H, ')', 00H, ' ', 00H, 'S', 00H, 't', 00H, 'a', 00H, 'r'
	DB	00H, 't', 00H, 00H, 00H			; `string'
CONST	ENDS
;	COMDAT ??_C@_1CC@KDMBBGBP@?$AAR?$AAe?$AAp?$AAe?$AAa?$AAt?$AA?$CI?$AAB?$AA?$CJ?$AA?5?$AAB?$AAr?$AAa?$AAn?$AAc?$AAh?$AA?$AA@
CONST	SEGMENT
??_C@_1CC@KDMBBGBP@?$AAR?$AAe?$AAp?$AAe?$AAa?$AAt?$AA?$CI?$AAB?$AA?$CJ?$AA?5?$AAB?$AAr?$AAa?$AAn?$AAc?$AAh?$AA?$AA@ DB 'R'
	DB	00H, 'e', 00H, 'p', 00H, 'e', 00H, 'a', 00H, 't', 00H, '(', 00H
	DB	'B', 00H, ')', 00H, ' ', 00H, 'B', 00H, 'r', 00H, 'a', 00H, 'n'
	DB	00H, 'c', 00H, 'h', 00H, 00H, 00H		; `string'
CONST	ENDS
;	COMDAT ??_C@_1DE@EIMDGIFC@0?j0?T0?$PM0?H?$AA?$CI?$AAB?$AA?$CJQ?$IF0g?$AA?5?$AA?2?$AA?50?$LD0?$NO0?s0?I0L?$JB?M?$IJ?$AH0W@
CONST	SEGMENT
??_C@_1DE@EIMDGIFC@0?j0?T0?$PM0?H?$AA?$CI?$AAB?$AA?$CJQ?$IF0g?$AA?5?$AA?2?$AA?50?$LD0?$NO0?s0?I0L?$JB?M?$IJ?$AH0W@ DB 0eaH
	DB	'0', 0d4H, '0', 0fcH, '0', 0c8H, '0(', 00H, 'B', 00H, ')', 00H
	DB	085H, 'Qg0 ', 00H, '\', 00H, ' ', 00H, 0b3H, '0', 0deH, '0', 0f3H
	DB	'0', 0c9H, '0L0', 0cdH, 091H, 07H, 089H, 'W0f0D0~0Y0', 02H, '0'
	DB	00H, 00H					; `string'
CONST	ENDS
;	COMDAT ??_C@_1DE@NPLPFED@0?j0?T0?$PM0?H?$AA?$CI?$AAB?$AA?$CJ0n?$JF?$ILY?K?$AA?5?$AA?$HM?$AA?3?$AA?50?$LD0?$NO0?s0?I0L0B@
CONST	SEGMENT
??_C@_1DE@NPLPFED@0?j0?T0?$PM0?H?$AA?$CI?$AAB?$AA?$CJ0n?$JF?$ILY?K?$AA?5?$AA?$HM?$AA?3?$AA?50?$LD0?$NO0?s0?I0L0B@ DB 0eaH
	DB	'0', 0d4H, '0', 0fcH, '0', 0c8H, '0(', 00H, 'B', 00H, ')', 00H
	DB	'n0', 08bH, 095H, 0cbH, 'Y ', 00H, '|', 00H, ':', 00H, ' ', 00H
	DB	0b3H, '0', 0deH, '0', 0f3H, '0', 0c9H, '0L0B0', 08aH, '0~0[0', 093H
	DB	'0', 02H, '0', 00H, 00H			; `string'
CONST	ENDS
;	COMDAT ??_C@_1CC@DHDLBODE@0?j0?T0?$PM0?H?$AA?$CI?$AAA?$AA?$CJ0nS?3?$JF?$JD0n?$JA?$BEN?90g0Y0?$AC?$AA?$AA@
CONST	SEGMENT
??_C@_1CC@DHDLBODE@0?j0?T0?$PM0?H?$AA?$CI?$AAA?$AA?$CJ0nS?3?$JF?$JD0n?$JA?$BEN?90g0Y0?$AC?$AA?$AA@ DB 0eaH
	DB	'0', 0d4H, '0', 0fcH, '0', 0c8H, '0(', 00H, 'A', 00H, ')', 00H
	DB	'n0:S', 093H, 095H, 'n0', 014H, 090H, '-Ng0Y0', 02H, '0', 00H, 00H ; `string'
CONST	ENDS
;	COMDAT ??_C@_1BM@EDCBEBGE@?$AAR?$AAe?$AAp?$AAe?$AAa?$AAt?$AA?$CI?$AAB?$AA?$CJ?$AA?5?$AAE?$AAn?$AAd?$AA?$AA@
CONST	SEGMENT
??_C@_1BM@EDCBEBGE@?$AAR?$AAe?$AAp?$AAe?$AAa?$AAt?$AA?$CI?$AAB?$AA?$CJ?$AA?5?$AAE?$AAn?$AAd?$AA?$AA@ DB 'R'
	DB	00H, 'e', 00H, 'p', 00H, 'e', 00H, 'a', 00H, 't', 00H, '(', 00H
	DB	'B', 00H, ')', 00H, ' ', 00H, 'E', 00H, 'n', 00H, 'd', 00H, 00H
	DB	00H						; `string'
CONST	ENDS
;	COMDAT ??_C@_1FK@BKKHDBPB@0?j0?T0?$PM0?H?$AA?$CI?$AAB?$AA?$CJQ?$IF0g?$AA?5?$AA?2?$AA?50?$LD0?$NO0?s0?I0L0B0?$IK0?$HO@
CONST	SEGMENT
??_C@_1FK@BKKHDBPB@0?j0?T0?$PM0?H?$AA?$CI?$AAB?$AA?$CJQ?$IF0g?$AA?5?$AA?2?$AA?50?$LD0?$NO0?s0?I0L0B0?$IK0?$HO@ DB 0eaH
	DB	'0', 0d4H, '0', 0fcH, '0', 0c8H, '0(', 00H, 'B', 00H, ')', 00H
	DB	085H, 'Qg0 ', 00H, '\', 00H, ' ', 00H, 0b3H, '0', 0deH, '0', 0f3H
	DB	'0', 0c9H, '0L0B0', 08aH, '0~0[0', 093H, '0g0W0_0', 02H, '0', 0c5H
	DB	'_Z0', 06H, 'R', 090H, '\', 0b9H, 'p ', 00H, '\', 00H, ' ', 00H
	DB	'o0', 07H, 'c', 09aH, '[W0f0O0`0U0D0', 02H, '0', 00H, 00H ; `string'
CONST	ENDS
;	COMDAT ??_C@_1DC@JAEEIEKF@0?j0?T0?$PM0?HV?$NOep0o?$AA2?$PP?$FO?$AA2?$AA5?$AA50n?$HL?DV?r0gc?$AH?$FL?$JK0W0f@
CONST	SEGMENT
??_C@_1DC@JAEEIEKF@0?j0?T0?$PM0?HV?$NOep0o?$AA2?$PP?$FO?$AA2?$AA5?$AA50n?$HL?DV?r0gc?$AH?$FL?$JK0W0f@ DB 0eaH
	DB	'0', 0d4H, '0', 0fcH, '0', 0c8H, '0', 0deH, 'Vpeo02', 00H, '^', 0ffH
	DB	'2', 00H, '5', 00H, '5', 00H, 'n0', 0c4H, '{', 0f2H, 'Vg0', 07H
	DB	'c', 09aH, '[W0f0', 0bH, 'NU0D0', 02H, '0', 00H, 00H ; `string'
CONST	ENDS
;	COMDAT ??_C@_1CG@DHEAMNDG@0?j0?T0?$PM0?H?$AA?$CI?$AAA?$AA?$CJ0n0?M0?$LJ0?H0o0g0M0?$HO0?$FL0?$JD0?$AC?$AA?$AA@
CONST	SEGMENT
??_C@_1CG@DHEAMNDG@0?j0?T0?$PM0?H?$AA?$CI?$AAA?$AA?$CJ0n0?M0?$LJ0?H0o0g0M0?$HO0?$FL0?$JD0?$AC?$AA?$AA@ DB 0eaH
	DB	'0', 0d4H, '0', 0fcH, '0', 0c8H, '0(', 00H, 'A', 00H, ')', 00H
	DB	'n0', 0cdH, '0', 0b9H, '0', 0c8H, '0o0g0M0~0[0', 093H, '0', 02H
	DB	'0', 00H, 00H				; `string'
CONST	ENDS
;	COMDAT ??_C@_1CA@HFCOJDFA@?$AAR?$AAe?$AAp?$AAe?$AAa?$AAt?$AA?$CI?$AAA?$AA?$CJ?$AA?5?$AAS?$AAt?$AAa?$AAr?$AAt?$AA?$AA@
CONST	SEGMENT
??_C@_1CA@HFCOJDFA@?$AAR?$AAe?$AAp?$AAe?$AAa?$AAt?$AA?$CI?$AAA?$AA?$CJ?$AA?5?$AAS?$AAt?$AAa?$AAr?$AAt?$AA?$AA@ DB 'R'
	DB	00H, 'e', 00H, 'p', 00H, 'e', 00H, 'a', 00H, 't', 00H, '(', 00H
	DB	'A', 00H, ')', 00H, ' ', 00H, 'S', 00H, 't', 00H, 'a', 00H, 'r'
	DB	00H, 't', 00H, 00H, 00H			; `string'
CONST	ENDS
;	COMDAT ??_C@_1CC@MGIFLNF@?$AAR?$AAe?$AAp?$AAe?$AAa?$AAt?$AA?$CI?$AAA?$AA?$CJ?$AA?5?$AAB?$AAr?$AAa?$AAn?$AAc?$AAh?$AA?$AA@
CONST	SEGMENT
??_C@_1CC@MGIFLNF@?$AAR?$AAe?$AAp?$AAe?$AAa?$AAt?$AA?$CI?$AAA?$AA?$CJ?$AA?5?$AAB?$AAr?$AAa?$AAn?$AAc?$AAh?$AA?$AA@ DB 'R'
	DB	00H, 'e', 00H, 'p', 00H, 'e', 00H, 'a', 00H, 't', 00H, '(', 00H
	DB	'A', 00H, ')', 00H, ' ', 00H, 'B', 00H, 'r', 00H, 'a', 00H, 'n'
	DB	00H, 'c', 00H, 'h', 00H, 00H, 00H		; `string'
CONST	ENDS
;	COMDAT ??_C@_1DE@HGGAJCGI@0?j0?T0?$PM0?H?$AA?$CI?$AAA?$AA?$CJQ?$IF0g?$AA?5?$AA?3?$AA?50?$LD0?$NO0?s0?I0L?$JB?M?$IJ?$AH0W@
CONST	SEGMENT
??_C@_1DE@HGGAJCGI@0?j0?T0?$PM0?H?$AA?$CI?$AAA?$AA?$CJQ?$IF0g?$AA?5?$AA?3?$AA?50?$LD0?$NO0?s0?I0L?$JB?M?$IJ?$AH0W@ DB 0eaH
	DB	'0', 0d4H, '0', 0fcH, '0', 0c8H, '0(', 00H, 'A', 00H, ')', 00H
	DB	085H, 'Qg0 ', 00H, ':', 00H, ' ', 00H, 0b3H, '0', 0deH, '0', 0f3H
	DB	'0', 0c9H, '0L0', 0cdH, 091H, 07H, 089H, 'W0f0D0~0Y0', 02H, '0'
	DB	00H, 00H					; `string'
CONST	ENDS
;	COMDAT ??_C@_1DC@IPGNKEJP@0?j0?T0?$PM0?H?$AA?$CI?$AAA?$AA?$CJ0n?$JF?$ILY?K?$AA?5?$AA?$FL?$AA?50?$LD0?$NO0?s0?I0L0B0?$IK@
CONST	SEGMENT
??_C@_1DC@IPGNKEJP@0?j0?T0?$PM0?H?$AA?$CI?$AAA?$AA?$CJ0n?$JF?$ILY?K?$AA?5?$AA?$FL?$AA?50?$LD0?$NO0?s0?I0L0B0?$IK@ DB 0eaH
	DB	'0', 0d4H, '0', 0fcH, '0', 0c8H, '0(', 00H, 'A', 00H, ')', 00H
	DB	'n0', 08bH, 095H, 0cbH, 'Y ', 00H, '[', 00H, ' ', 00H, 0b3H, '0'
	DB	0deH, '0', 0f3H, '0', 0c9H, '0L0B0', 08aH, '0~0[0', 093H, '0', 02H
	DB	'0', 00H, 00H				; `string'
CONST	ENDS
;	COMDAT ??_C@_1DE@OPGCJNPF@0?j0?T0?$PM0?H?$AA?$CI?$AAC?$AA?$CJQ?$IF0g?$AA?5?$AA?3?$AA?50?$LD0?$NO0?s0?I0L?$JB?M?$IJ?$AH0W@
CONST	SEGMENT
??_C@_1DE@OPGCJNPF@0?j0?T0?$PM0?H?$AA?$CI?$AAC?$AA?$CJQ?$IF0g?$AA?5?$AA?3?$AA?50?$LD0?$NO0?s0?I0L?$JB?M?$IJ?$AH0W@ DB 0eaH
	DB	'0', 0d4H, '0', 0fcH, '0', 0c8H, '0(', 00H, 'C', 00H, ')', 00H
	DB	085H, 'Qg0 ', 00H, ':', 00H, ' ', 00H, 0b3H, '0', 0deH, '0', 0f3H
	DB	'0', 0c9H, '0L0', 0cdH, 091H, 07H, 089H, 'W0f0D0~0Y0', 02H, '0'
	DB	00H, 00H					; `string'
CONST	ENDS
;	COMDAT ??_C@_1DE@PIDIKAJB@0?j0?T0?$PM0?H?$AA?$CI?$AAC?$AA?$CJ0n?$JF?$ILY?K?$AA?5?$AA?$FL?$AA?3?$AA?50?$LD0?$NO0?s0?I0L0B@
CONST	SEGMENT
??_C@_1DE@PIDIKAJB@0?j0?T0?$PM0?H?$AA?$CI?$AAC?$AA?$CJ0n?$JF?$ILY?K?$AA?5?$AA?$FL?$AA?3?$AA?50?$LD0?$NO0?s0?I0L0B@ DB 0eaH
	DB	'0', 0d4H, '0', 0fcH, '0', 0c8H, '0(', 00H, 'C', 00H, ')', 00H
	DB	'n0', 08bH, 095H, 0cbH, 'Y ', 00H, '[', 00H, ':', 00H, ' ', 00H
	DB	0b3H, '0', 0deH, '0', 0f3H, '0', 0c9H, '0L0B0', 08aH, '0~0[0', 093H
	DB	'0', 02H, '0', 00H, 00H			; `string'
CONST	ENDS
;	COMDAT ??_C@_1CE@PJCEBMDC@0?j0?T0?$PM0?H?$JF?$ILY?K0?$LD0?$NO0?s0?I0L0B0?$IK0?$HO0?$FL0?$JD0?$AC?$AA?$AA@
CONST	SEGMENT
??_C@_1CE@PJCEBMDC@0?j0?T0?$PM0?H?$JF?$ILY?K0?$LD0?$NO0?s0?I0L0B0?$IK0?$HO0?$FL0?$JD0?$AC?$AA?$AA@ DB 0eaH
	DB	'0', 0d4H, '0', 0fcH, '0', 0c8H, '0', 08bH, 095H, 0cbH, 'Y', 0b3H
	DB	'0', 0deH, '0', 0f3H, '0', 0c9H, '0L0B0', 08aH, '0~0[0', 093H, '0'
	DB	02H, '0', 00H, 00H				; `string'
CONST	ENDS
;	COMDAT ??_C@_1CC@FCKGONLL@0?j0?T0?$PM0?HV?$NOep0n?$IK?$BI?$IP?p0L0B0?$IK0?$HO0?$FL0?$JD0?$AC?$AA?$AA@
CONST	SEGMENT
??_C@_1CC@FCKGONLL@0?j0?T0?$PM0?HV?$NOep0n?$IK?$BI?$IP?p0L0B0?$IK0?$HO0?$FL0?$JD0?$AC?$AA?$AA@ DB 0eaH
	DB	'0', 0d4H, '0', 0fcH, '0', 0c8H, '0', 0deH, 'Vpen0', 018H, 08aH
	DB	0f0H, 08fH, 'L0B0', 08aH, '0~0[0', 093H, '0', 02H, '0', 00H, 00H ; `string'
CONST	ENDS
;	COMDAT ??_C@_1CI@IJNCMADK@0?j0?T0?$PM0?HV?$NOep0LN?$CBe?$LJ0k?$IK?$BI?$IP?p0U0?$IM0f0D0?$HO0Y0?$AC?$AA?$AA@
CONST	SEGMENT
??_C@_1CI@IJNCMADK@0?j0?T0?$PM0?HV?$NOep0LN?$CBe?$LJ0k?$IK?$BI?$IP?p0U0?$IM0f0D0?$HO0Y0?$AC?$AA?$AA@ DB 0eaH
	DB	'0', 0d4H, '0', 0fcH, '0', 0c8H, '0', 0deH, 'VpeL0!N', 0b9H, 'e'
	DB	'k0', 018H, 08aH, 0f0H, 08fH, 'U0', 08cH, '0f0D0~0Y0', 02H, '0'
	DB	00H, 00H					; `string'
CONST	ENDS
;	COMDAT ??_C@_1BM@DPEAGELP@?$AAR?$AAe?$AAp?$AAe?$AAa?$AAt?$AA?$CI?$AAA?$AA?$CJ?$AA?5?$AAE?$AAn?$AAd?$AA?$AA@
CONST	SEGMENT
??_C@_1BM@DPEAGELP@?$AAR?$AAe?$AAp?$AAe?$AAa?$AAt?$AA?$CI?$AAA?$AA?$CJ?$AA?5?$AAE?$AAn?$AAd?$AA?$AA@ DB 'R'
	DB	00H, 'e', 00H, 'p', 00H, 'e', 00H, 'a', 00H, 't', 00H, '(', 00H
	DB	'A', 00H, ')', 00H, ' ', 00H, 'E', 00H, 'n', 00H, 'd', 00H, 00H
	DB	00H						; `string'
CONST	ENDS
;	COMDAT ??_C@_1BA@GCDNCJOK@?$AAG?$AAe?$AAn?$AAe?$AAr?$AAa?$AAl?$AA?$AA@
CONST	SEGMENT
??_C@_1BA@GCDNCJOK@?$AAG?$AAe?$AAn?$AAe?$AAr?$AAa?$AAl?$AA?$AA@ DB 'G', 00H
	DB	'e', 00H, 'n', 00H, 'e', 00H, 'r', 00H, 'a', 00H, 'l', 00H, 00H
	DB	00H						; `string'
CONST	ENDS
;	COMDAT ??_C@_1BA@LDPMAPOD@?$AAA?$AAd?$AAd?$AAr?$AAe?$AAs?$AAs?$AA?$AA@
CONST	SEGMENT
??_C@_1BA@LDPMAPOD@?$AAA?$AAd?$AAd?$AAr?$AAe?$AAs?$AAs?$AA?$AA@ DB 'A', 00H
	DB	'd', 00H, 'd', 00H, 'r', 00H, 'e', 00H, 's', 00H, 's', 00H, 00H
	DB	00H						; `string'
CONST	ENDS
;	COMDAT ??_C@_1BA@DMAFONIK@?$AAC?$AAa?$AAl?$AAl?$AA?5?$AAS?$AAE?$AA?$AA@
CONST	SEGMENT
??_C@_1BA@DMAFONIK@?$AAC?$AAa?$AAl?$AAl?$AA?5?$AAS?$AAE?$AA?$AA@ DB 'C', 00H
	DB	'a', 00H, 'l', 00H, 'l', 00H, ' ', 00H, 'S', 00H, 'E', 00H, 00H
	DB	00H						; `string'
CONST	ENDS
;	COMDAT ??_C@_1BG@DLCGAOAF@?$AAS?$AAu?$AAb?$AAr?$AAo?$AAu?$AAt?$AAi?$AAn?$AAe?$AA?$AA@
CONST	SEGMENT
??_C@_1BG@DLCGAOAF@?$AAS?$AAu?$AAb?$AAr?$AAo?$AAu?$AAt?$AAi?$AAn?$AAe?$AA?$AA@ DB 'S'
	DB	00H, 'u', 00H, 'b', 00H, 'r', 00H, 'o', 00H, 'u', 00H, 't', 00H
	DB	'i', 00H, 'n', 00H, 'e', 00H, 00H, 00H	; `string'
CONST	ENDS
;	COMDAT ??_C@_1CK@JNKNAIAA@?$AAS?$AAu?$AAb?$AAr?$AAo?$AAu?$AAt?$AAi?$AAn?$AAe?$AA?5?$AAf?$AAo?$AAr?$AA?5?$AAP?$AAa?$AAt?$AAc?$AAh@
CONST	SEGMENT
??_C@_1CK@JNKNAIAA@?$AAS?$AAu?$AAb?$AAr?$AAo?$AAu?$AAt?$AAi?$AAn?$AAe?$AA?5?$AAf?$AAo?$AAr?$AA?5?$AAP?$AAa?$AAt?$AAc?$AAh@ DB 'S'
	DB	00H, 'u', 00H, 'b', 00H, 'r', 00H, 'o', 00H, 'u', 00H, 't', 00H
	DB	'i', 00H, 'n', 00H, 'e', 00H, ' ', 00H, 'f', 00H, 'o', 00H, 'r'
	DB	00H, ' ', 00H, 'P', 00H, 'a', 00H, 't', 00H, 'c', 00H, 'h', 00H
	DB	00H, 00H					; `string'
CONST	ENDS
;	COMDAT ??_C@_1BI@EHCLFFIH@?$FLXW?$CI0W0j0D0?Q0?C0?A0g0Y0?$AC?$AA?$AA@
CONST	SEGMENT
??_C@_1BI@EHCLFFIH@?$FLXW?$CI0W0j0D0?Q0?C0?A0g0Y0?$AC?$AA?$AA@ DB 'X[(WW0'
	DB	'j0D0', 0d1H, '0', 0c3H, '0', 0c1H, '0g0Y0', 02H, '0', 00H, 00H ; `string'
CONST	ENDS
;	COMDAT ??_C@_1BO@GFLIMKC@?$AAV?$AAo?$AAi?$AAc?$AAe?$AA?5?$AAE?$AAn?$AAv?$AAe?$AAl?$AAo?$AAp?$AAe?$AA?$AA@
CONST	SEGMENT
??_C@_1BO@GFLIMKC@?$AAV?$AAo?$AAi?$AAc?$AAe?$AA?5?$AAE?$AAn?$AAv?$AAe?$AAl?$AAo?$AAp?$AAe?$AA?$AA@ DB 'V'
	DB	00H, 'o', 00H, 'i', 00H, 'c', 00H, 'e', 00H, ' ', 00H, 'E', 00H
	DB	'n', 00H, 'v', 00H, 'e', 00H, 'l', 00H, 'o', 00H, 'p', 00H, 'e'
	DB	00H, 00H, 00H				; `string'
CONST	ENDS
;	COMDAT ??_C@_1CA@BOAFBFBE@?$AAV?$AAo?$AAl?$AAu?$AAm?$AAe?$AA?5?$AAE?$AAn?$AAv?$AAe?$AAl?$AAo?$AAp?$AAe?$AA?$AA@
CONST	SEGMENT
??_C@_1CA@BOAFBFBE@?$AAV?$AAo?$AAl?$AAu?$AAm?$AAe?$AA?5?$AAE?$AAn?$AAv?$AAe?$AAl?$AAo?$AAp?$AAe?$AA?$AA@ DB 'V'
	DB	00H, 'o', 00H, 'l', 00H, 'u', 00H, 'm', 00H, 'e', 00H, ' ', 00H
	DB	'E', 00H, 'n', 00H, 'v', 00H, 'e', 00H, 'l', 00H, 'o', 00H, 'p'
	DB	00H, 'e', 00H, 00H, 00H			; `string'
CONST	ENDS
;	COMDAT ??_C@_1CG@HDOLOCJJ@?$AAF?$AAr?$AAe?$AAq?$AAu?$AAe?$AAn?$AAc?$AAy?$AA?5?$AAE?$AAn?$AAv?$AAe?$AAl?$AAo?$AAp?$AAe?$AA?$AA@
CONST	SEGMENT
??_C@_1CG@HDOLOCJJ@?$AAF?$AAr?$AAe?$AAq?$AAu?$AAe?$AAn?$AAc?$AAy?$AA?5?$AAE?$AAn?$AAv?$AAe?$AAl?$AAo?$AAp?$AAe?$AA?$AA@ DB 'F'
	DB	00H, 'r', 00H, 'e', 00H, 'q', 00H, 'u', 00H, 'e', 00H, 'n', 00H
	DB	'c', 00H, 'y', 00H, ' ', 00H, 'E', 00H, 'n', 00H, 'v', 00H, 'e'
	DB	00H, 'l', 00H, 'o', 00H, 'p', 00H, 'e', 00H, 00H, 00H ; `string'
CONST	ENDS
;	COMDAT ??_C@_1BM@CBOHIOMD@?$AAN?$AAo?$AAt?$AAe?$AA?5?$AAE?$AAn?$AAv?$AAe?$AAl?$AAo?$AAp?$AAe?$AA?$AA@
CONST	SEGMENT
??_C@_1BM@CBOHIOMD@?$AAN?$AAo?$AAt?$AAe?$AA?5?$AAE?$AAn?$AAv?$AAe?$AAl?$AAo?$AAp?$AAe?$AA?$AA@ DB 'N'
	DB	00H, 'o', 00H, 't', 00H, 'e', 00H, ' ', 00H, 'E', 00H, 'n', 00H
	DB	'v', 00H, 'e', 00H, 'l', 00H, 'o', 00H, 'p', 00H, 'e', 00H, 00H
	DB	00H						; `string'
CONST	ENDS
;	COMDAT ??_C@_1M@DKLMFINE@?$AAV?$AAo?$AAi?$AAc?$AAe?$AA?$AA@
CONST	SEGMENT
??_C@_1M@DKLMFINE@?$AAV?$AAo?$AAi?$AAc?$AAe?$AA?$AA@ DB 'V', 00H, 'o', 00H
	DB	'i', 00H, 'c', 00H, 'e', 00H, 00H, 00H	; `string'
CONST	ENDS
;	COMDAT ??_C@_1CI@DNAKKDOB@?$AAV?$AAo?$AAl?$AAu?$AAm?$AAe?$AA?5?$AAE?$AAn?$AAv?$AAe?$AAl?$AAo?$AAp?$AAe?$AA?5?$AAO?$AAf?$AAf?$AA?$AA@
CONST	SEGMENT
??_C@_1CI@DNAKKDOB@?$AAV?$AAo?$AAl?$AAu?$AAm?$AAe?$AA?5?$AAE?$AAn?$AAv?$AAe?$AAl?$AAo?$AAp?$AAe?$AA?5?$AAO?$AAf?$AAf?$AA?$AA@ DB 'V'
	DB	00H, 'o', 00H, 'l', 00H, 'u', 00H, 'm', 00H, 'e', 00H, ' ', 00H
	DB	'E', 00H, 'n', 00H, 'v', 00H, 'e', 00H, 'l', 00H, 'o', 00H, 'p'
	DB	00H, 'e', 00H, ' ', 00H, 'O', 00H, 'f', 00H, 'f', 00H, 00H, 00H ; `string'
CONST	ENDS
;	COMDAT ??_C@_1CO@BJABPOLD@?$AAF?$AAr?$AAe?$AAq?$AAu?$AAe?$AAn?$AAc?$AAy?$AA?5?$AAE?$AAn?$AAv?$AAe?$AAl?$AAo?$AAp?$AAe?$AA?5?$AAO@
CONST	SEGMENT
??_C@_1CO@BJABPOLD@?$AAF?$AAr?$AAe?$AAq?$AAu?$AAe?$AAn?$AAc?$AAy?$AA?5?$AAE?$AAn?$AAv?$AAe?$AAl?$AAo?$AAp?$AAe?$AA?5?$AAO@ DB 'F'
	DB	00H, 'r', 00H, 'e', 00H, 'q', 00H, 'u', 00H, 'e', 00H, 'n', 00H
	DB	'c', 00H, 'y', 00H, ' ', 00H, 'E', 00H, 'n', 00H, 'v', 00H, 'e'
	DB	00H, 'l', 00H, 'o', 00H, 'p', 00H, 'e', 00H, ' ', 00H, 'O', 00H
	DB	'f', 00H, 'f', 00H, 00H, 00H			; `string'
CONST	ENDS
;	COMDAT ??_C@_1CE@KEOAGLPM@?$AAN?$AAo?$AAt?$AAe?$AA?5?$AAE?$AAn?$AAv?$AAe?$AAl?$AAo?$AAp?$AAe?$AA?5?$AAO?$AAf?$AAf?$AA?$AA@
CONST	SEGMENT
??_C@_1CE@KEOAGLPM@?$AAN?$AAo?$AAt?$AAe?$AA?5?$AAE?$AAn?$AAv?$AAe?$AAl?$AAo?$AAp?$AAe?$AA?5?$AAO?$AAf?$AAf?$AA?$AA@ DB 'N'
	DB	00H, 'o', 00H, 't', 00H, 'e', 00H, ' ', 00H, 'E', 00H, 'n', 00H
	DB	'v', 00H, 'e', 00H, 'l', 00H, 'o', 00H, 'p', 00H, 'e', 00H, ' '
	DB	00H, 'O', 00H, 'f', 00H, 'f', 00H, 00H, 00H	; `string'
CONST	ENDS
;	COMDAT ??_C@_1M@HAFHLPCH@?$AAS?$AAw?$AAe?$AAe?$AAp?$AA?$AA@
CONST	SEGMENT
??_C@_1M@HAFHLPCH@?$AAS?$AAw?$AAe?$AAe?$AAp?$AA?$AA@ DB 'S', 00H, 'w', 00H
	DB	'e', 00H, 'e', 00H, 'p', 00H, 00H, 00H	; `string'
CONST	ENDS
;	COMDAT ??_C@_1CM@GOJLGHKM@?$AAF?$AAD?$AAS?$AA?5?$AAc?$AAa?$AAr?$AAe?$AAe?$AAr?$AA?5?$AAw?$AAa?$AAv?$AAe?$AA?5?$AAt?$AAa?$AAb?$AAl@
CONST	SEGMENT
??_C@_1CM@GOJLGHKM@?$AAF?$AAD?$AAS?$AA?5?$AAc?$AAa?$AAr?$AAe?$AAe?$AAr?$AA?5?$AAw?$AAa?$AAv?$AAe?$AA?5?$AAt?$AAa?$AAb?$AAl@ DB 'F'
	DB	00H, 'D', 00H, 'S', 00H, ' ', 00H, 'c', 00H, 'a', 00H, 'r', 00H
	DB	'e', 00H, 'e', 00H, 'r', 00H, ' ', 00H, 'w', 00H, 'a', 00H, 'v'
	DB	00H, 'e', 00H, ' ', 00H, 't', 00H, 'a', 00H, 'b', 00H, 'l', 00H
	DB	'e', 00H, 00H, 00H				; `string'
CONST	ENDS
;	COMDAT ??_C@_1DC@IBICFHPL@?$AAF?$AAD?$AAS?$AA?5?$AAm?$AAo?$AAd?$AAu?$AAl?$AAa?$AAt?$AAo?$AAr?$AA?5?$AAw?$AAa?$AAv?$AAe?$AA?5?$AAt@
CONST	SEGMENT
??_C@_1DC@IBICFHPL@?$AAF?$AAD?$AAS?$AA?5?$AAm?$AAo?$AAd?$AAu?$AAl?$AAa?$AAt?$AAo?$AAr?$AA?5?$AAw?$AAa?$AAv?$AAe?$AA?5?$AAt@ DB 'F'
	DB	00H, 'D', 00H, 'S', 00H, ' ', 00H, 'm', 00H, 'o', 00H, 'd', 00H
	DB	'u', 00H, 'l', 00H, 'a', 00H, 't', 00H, 'o', 00H, 'r', 00H, ' '
	DB	00H, 'w', 00H, 'a', 00H, 'v', 00H, 'e', 00H, ' ', 00H, 't', 00H
	DB	'a', 00H, 'b', 00H, 'l', 00H, 'e', 00H, 00H, 00H ; `string'
CONST	ENDS
;	COMDAT ??_C@_1CM@FAPBPOGD@?$AAV?$AAR?$AAC?$AA7?$AA?5?$AAu?$AAs?$AAe?$AAr?$AA?5?$AAi?$AAn?$AAs?$AAt?$AAr?$AAu?$AAm?$AAe?$AAn?$AAt@
CONST	SEGMENT
??_C@_1CM@FAPBPOGD@?$AAV?$AAR?$AAC?$AA7?$AA?5?$AAu?$AAs?$AAe?$AAr?$AA?5?$AAi?$AAn?$AAs?$AAt?$AAr?$AAu?$AAm?$AAe?$AAn?$AAt@ DB 'V'
	DB	00H, 'R', 00H, 'C', 00H, '7', 00H, ' ', 00H, 'u', 00H, 's', 00H
	DB	'e', 00H, 'r', 00H, ' ', 00H, 'i', 00H, 'n', 00H, 's', 00H, 't'
	DB	00H, 'r', 00H, 'u', 00H, 'm', 00H, 'e', 00H, 'n', 00H, 't', 00H
	DB	's', 00H, 00H, 00H				; `string'
CONST	ENDS
;	COMDAT ??_C@_1CA@NKOKHIPN@?$AAn?$AA1?$AA6?$AA3?$AA?5?$AAw?$AAa?$AAv?$AAe?$AA?5?$AAt?$AAa?$AAb?$AAl?$AAe?$AA?$AA@
CONST	SEGMENT
??_C@_1CA@NKOKHIPN@?$AAn?$AA1?$AA6?$AA3?$AA?5?$AAw?$AAa?$AAv?$AAe?$AA?5?$AAt?$AAa?$AAb?$AAl?$AAe?$AA?$AA@ DB 'n'
	DB	00H, '1', 00H, '6', 00H, '3', 00H, ' ', 00H, 'w', 00H, 'a', 00H
	DB	'v', 00H, 'e', 00H, ' ', 00H, 't', 00H, 'a', 00H, 'b', 00H, 'l'
	DB	00H, 'e', 00H, 00H, 00H			; `string'
CONST	ENDS
;	COMDAT ??_C@_1EA@CPIKLJAL@?$AA?$EA?$AAN?$AA?50?$LD0?$NO0?s0?I0n0?Q0?i0?a0?$PM0?$LP0L?$IN?$LD0?$IK0?$HO0?$FL0?$JD0?$AC@
CONST	SEGMENT
??_C@_1EA@CPIKLJAL@?$AA?$EA?$AAN?$AA?50?$LD0?$NO0?s0?I0n0?Q0?i0?a0?$PM0?$LP0L?$IN?$LD0?$IK0?$HO0?$FL0?$JD0?$AC@ DB '@'
	DB	00H, 'N', 00H, ' ', 00H, 0b3H, '0', 0deH, '0', 0f3H, '0', 0c9H
	DB	'0n0', 0d1H, '0', 0e9H, '0', 0e1H, '0', 0fcH, '0', 0bfH, '0L0', 0b3H
	DB	08dH, 08aH, '0~0[0', 093H, '0', 02H, '0', 012H, 0ffH, 'd0', 07H
	DB	'c', 09aH, '[W0f0O0`0U0D0', 02H, '0', 00H, 00H ; `string'
CONST	ENDS
;	COMDAT ??_C@_1CO@PCFIGAHG@?$AAJ0?$LD0?$NO0?s0?I0o?$AA0?$PP?$FO?$AA10n?$HL?DV?r0gc?$AH?$FL?$JK0W0f0O0?$GA0U@
CONST	SEGMENT
??_C@_1CO@PCFIGAHG@?$AAJ0?$LD0?$NO0?s0?I0o?$AA0?$PP?$FO?$AA10n?$HL?DV?r0gc?$AH?$FL?$JK0W0f0O0?$GA0U@ DB 'J'
	DB	00H, 0b3H, '0', 0deH, '0', 0f3H, '0', 0c9H, '0o00', 00H, '^', 0ffH
	DB	'1', 00H, 'n0', 0c4H, '{', 0f2H, 'Vg0', 07H, 'c', 09aH, '[W0f0'
	DB	'O0`0U0D0', 02H, '0', 00H, 00H		; `string'
CONST	ENDS
;	COMDAT ??_C@_1CC@EMHPIIFB@?$AAG?$AAa?$AAt?$AAe?$AAt?$AAi?$AAm?$AAe?$AA?$CI?$AAq?$AA?$CJ?$AA?5?$AAB?$AAy?$AAt?$AAe?$AA?$AA@
CONST	SEGMENT
??_C@_1CC@EMHPIIFB@?$AAG?$AAa?$AAt?$AAe?$AAt?$AAi?$AAm?$AAe?$AA?$CI?$AAq?$AA?$CJ?$AA?5?$AAB?$AAy?$AAt?$AAe?$AA?$AA@ DB 'G'
	DB	00H, 'a', 00H, 't', 00H, 'e', 00H, 't', 00H, 'i', 00H, 'm', 00H
	DB	'e', 00H, '(', 00H, 'q', 00H, ')', 00H, ' ', 00H, 'B', 00H, 'y'
	DB	00H, 't', 00H, 'e', 00H, 00H, 00H		; `string'
CONST	ENDS
;	COMDAT ??_C@_1BI@DCFFOBJ@?$AAG?$AAa?$AAt?$AAe?$AAt?$AAi?$AAm?$AAe?$AA?$CI?$AAq?$AA?$CJ?$AA?$AA@
CONST	SEGMENT
??_C@_1BI@DCFFOBJ@?$AAG?$AAa?$AAt?$AAe?$AAt?$AAi?$AAm?$AAe?$AA?$CI?$AAq?$AA?$CJ?$AA?$AA@ DB 'G'
	DB	00H, 'a', 00H, 't', 00H, 'e', 00H, 't', 00H, 'i', 00H, 'm', 00H
	DB	'e', 00H, '(', 00H, 'q', 00H, ')', 00H, 00H, 00H ; `string'
CONST	ENDS
;	COMDAT ??_C@_1BI@IPILGHHC@?$AAG?$AAa?$AAt?$AAe?$AAT?$AAi?$AAm?$AAe?$AA?$CI?$AAu?$AA?$CJ?$AA?$AA@
CONST	SEGMENT
??_C@_1BI@IPILGHHC@?$AAG?$AAa?$AAt?$AAe?$AAT?$AAi?$AAm?$AAe?$AA?$CI?$AAu?$AA?$CJ?$AA?$AA@ DB 'G'
	DB	00H, 'a', 00H, 't', 00H, 'e', 00H, 'T', 00H, 'i', 00H, 'm', 00H
	DB	'e', 00H, '(', 00H, 'u', 00H, ')', 00H, 00H, 00H ; `string'
CONST	ENDS
;	COMDAT ??_C@_1DI@HCGIJCFJ@0?$LC0?$PM0?H0?$LP0?$KE0?$OA?$AAQ0o?$AA1?$PP?$FO?$AA?$CD?$AAQ?$AAM?$AAa?$AAx0n?$HL?DV?r0gc?$AH@
CONST	SEGMENT
??_C@_1DI@HCGIJCFJ@0?$LC0?$PM0?H0?$LP0?$KE0?$OA?$AAQ0o?$AA1?$PP?$FO?$AA?$CD?$AAQ?$AAM?$AAa?$AAx0n?$HL?DV?r0gc?$AH@ DB 0b2H
	DB	'0', 0fcH, '0', 0c8H, '0', 0bfH, '0', 0a4H, '0', 0e0H, '0Q', 00H
	DB	'o01', 00H, '^', 0ffH, '#', 00H, 'Q', 00H, 'M', 00H, 'a', 00H, 'x'
	DB	00H, 'n0', 0c4H, '{', 0f2H, 'Vg0', 07H, 'c', 09aH, '[W0f0', 0bH
	DB	'NU0D0', 02H, '0', 00H, 00H			; `string'
CONST	ENDS
;	COMDAT ??_C@_1DE@DMILNHDF@0?$LC0?$PM0?H0?$LP0?$KE0?$OA?$AAq0o?$AA0?$PP?$FO?$AA2?$AA5?$AA50n?$HL?DV?r0gc?$AH?$FL?$JK0W@
CONST	SEGMENT
??_C@_1DE@DMILNHDF@0?$LC0?$PM0?H0?$LP0?$KE0?$OA?$AAq0o?$AA0?$PP?$FO?$AA2?$AA5?$AA50n?$HL?DV?r0gc?$AH?$FL?$JK0W@ DB 0b2H
	DB	'0', 0fcH, '0', 0c8H, '0', 0bfH, '0', 0a4H, '0', 0e0H, '0q', 00H
	DB	'o00', 00H, '^', 0ffH, '2', 00H, '5', 00H, '5', 00H, 'n0', 0c4H
	DB	'{', 0f2H, 'Vg0', 07H, 'c', 09aH, '[W0f0', 0bH, 'NU0D0', 02H, '0'
	DB	00H, 00H					; `string'
CONST	ENDS
;	COMDAT ??_C@_1BG@CIPPAIIN@?$AAG?$AAa?$AAt?$AAe?$AAM?$AAo?$AAd?$AAe?$AA?5?$AA0?$AA?$AA@
CONST	SEGMENT
??_C@_1BG@CIPPAIIN@?$AAG?$AAa?$AAt?$AAe?$AAM?$AAo?$AAd?$AAe?$AA?5?$AA0?$AA?$AA@ DB 'G'
	DB	00H, 'a', 00H, 't', 00H, 'e', 00H, 'M', 00H, 'o', 00H, 'd', 00H
	DB	'e', 00H, ' ', 00H, '0', 00H, 00H, 00H	; `string'
CONST	ENDS
;	COMDAT ??_C@_1BG@JAEDGPOI@?$AAG?$AAa?$AAt?$AAe?$AAM?$AAo?$AAd?$AAe?$AA?5?$AA1?$AA?$AA@
CONST	SEGMENT
??_C@_1BG@JAEDGPOI@?$AAG?$AAa?$AAt?$AAe?$AAM?$AAo?$AAd?$AAe?$AA?5?$AA1?$AA?$AA@ DB 'G'
	DB	00H, 'a', 00H, 't', 00H, 'e', 00H, 'M', 00H, 'o', 00H, 'd', 00H
	DB	'e', 00H, ' ', 00H, '1', 00H, 00H, 00H	; `string'
CONST	ENDS
;	COMDAT ??_C@_1BG@ICPGMAAG@?$AAG?$AAa?$AAt?$AAe?$AAM?$AAo?$AAd?$AAe?$AA?5?$AA2?$AA?$AA@
CONST	SEGMENT
??_C@_1BG@ICPGMAAG@?$AAG?$AAa?$AAt?$AAe?$AAM?$AAo?$AAd?$AAe?$AA?5?$AA2?$AA?$AA@ DB 'G'
	DB	00H, 'a', 00H, 't', 00H, 'e', 00H, 'M', 00H, 'o', 00H, 'd', 00H
	DB	'e', 00H, ' ', 00H, '2', 00H, 00H, 00H	; `string'
CONST	ENDS
;	COMDAT ??_C@_1DC@NMCJFJGP@0?j0?j0?$PM0?$LJ0?b0?$PM0?I0o?$AA0?$PP?$FO?$AA20n?$HL?DV?r0gc?$AH?$FL?$JK0W0f0O@
CONST	SEGMENT
??_C@_1DC@NMCJFJGP@0?j0?j0?$PM0?$LJ0?b0?$PM0?I0o?$AA0?$PP?$FO?$AA20n?$HL?DV?r0gc?$AH?$FL?$JK0W0f0O@ DB 0eaH
	DB	'0', 0eaH, '0', 0fcH, '0', 0b9H, '0', 0e2H, '0', 0fcH, '0', 0c9H
	DB	'0o00', 00H, '^', 0ffH, '2', 00H, 'n0', 0c4H, '{', 0f2H, 'Vg0', 07H
	DB	'c', 09aH, '[W0f0O0`0U0D0', 02H, '0', 00H, 00H ; `string'
CONST	ENDS
;	COMDAT ??_C@_1BM@LPHMCIPB@?$AAR?$AAe?$AAl?$AAe?$AAa?$AAs?$AAe?$AA?5?$AAV?$AAo?$AAi?$AAc?$AAe?$AA?$AA@
CONST	SEGMENT
??_C@_1BM@LPHMCIPB@?$AAR?$AAe?$AAl?$AAe?$AAa?$AAs?$AAe?$AA?5?$AAV?$AAo?$AAi?$AAc?$AAe?$AA?$AA@ DB 'R'
	DB	00H, 'e', 00H, 'l', 00H, 'e', 00H, 'a', 00H, 's', 00H, 'e', 00H
	DB	' ', 00H, 'V', 00H, 'o', 00H, 'i', 00H, 'c', 00H, 'e', 00H, 00H
	DB	00H						; `string'
CONST	ENDS
;	COMDAT ??_C@_1DA@NPNLAEDI@0?j0?j0?$PM0?$LJ?$JH?s?$ICr0o?$AA0?$PP?$FO?$AA70n?$HL?DV?r0gc?$AH?$FL?$JK0W0f0O0?$GA@
CONST	SEGMENT
??_C@_1DA@NPNLAEDI@0?j0?j0?$PM0?$LJ?$JH?s?$ICr0o?$AA0?$PP?$FO?$AA70n?$HL?DV?r0gc?$AH?$FL?$JK0W0f0O0?$GA@ DB 0eaH
	DB	'0', 0eaH, '0', 0fcH, '0', 0b9H, '0', 0f3H, 097H, 'r', 082H, 'o'
	DB	'00', 00H, '^', 0ffH, '7', 00H, 'n0', 0c4H, '{', 0f2H, 'Vg0', 07H
	DB	'c', 09aH, '[W0f0O0`0U0D0', 02H, '0', 00H, 00H ; `string'
CONST	ENDS
;	COMDAT ??_C@_1BO@IEEELBMO@?$AAR?$AAe?$AAl?$AAe?$AAa?$AAs?$AAe?$AA?5?$AAV?$AAo?$AAl?$AAu?$AAm?$AAe?$AA?$AA@
CONST	SEGMENT
??_C@_1BO@IEEELBMO@?$AAR?$AAe?$AAl?$AAe?$AAa?$AAs?$AAe?$AA?5?$AAV?$AAo?$AAl?$AAu?$AAm?$AAe?$AA?$AA@ DB 'R'
	DB	00H, 'e', 00H, 'l', 00H, 'e', 00H, 'a', 00H, 's', 00H, 'e', 00H
	DB	' ', 00H, 'V', 00H, 'o', 00H, 'l', 00H, 'u', 00H, 'm', 00H, 'e'
	DB	00H, 00H, 00H				; `string'
CONST	ENDS
;	COMDAT ??_C@_1CK@OMCJIBOF@?$JH?s?$JB?O0o?$AA0?$PP?$FO?$AA1?$AA50n?$HL?DV?r0gc?$AH?$FL?$JK0W0f0O0?$GA0U0D0?$AC@
CONST	SEGMENT
??_C@_1CK@OMCJIBOF@?$JH?s?$JB?O0o?$AA0?$PP?$FO?$AA1?$AA50n?$HL?DV?r0gc?$AH?$FL?$JK0W0f0O0?$GA0U0D0?$AC@ DB 0f3H
	DB	097H, 0cfH, 091H, 'o00', 00H, '^', 0ffH, '1', 00H, '5', 00H, 'n'
	DB	'0', 0c4H, '{', 0f2H, 'Vg0', 07H, 'c', 09aH, '[W0f0O0`0U0D0', 02H
	DB	'0', 00H, 00H				; `string'
CONST	ENDS
;	COMDAT ?Shift@?1??SetKey@MusicTrack@@QAEXHH@Z@4QBDB
CONST	SEGMENT
?Shift@?1??SetKey@MusicTrack@@QAEXHH@Z@4QBDB DB 03H	; `MusicTrack::SetKey'::`2'::Shift
	DB	06H
	DB	02H
	DB	05H
	DB	01H
	DB	04H
	DB	00H
	DB	03H
	DB	06H
	DB	02H
	DB	05H
	DB	01H
	DB	04H
	DB	00H
	DB	03H
	DB	06H
CONST	ENDS
;	COMDAT ?Key@?1??SetKey@MusicTrack@@QAEXHH@Z@4QAY06$$CBDA
CONST	SEGMENT
?Key@?1??SetKey@MusicTrack@@QAEXHH@Z@4QAY06$$CBDA DB 0ffH ; `MusicTrack::SetKey'::`2'::Key
	DB	0ffH
	DB	0ffH
	DB	00H
	DB	0ffH
	DB	0ffH
	DB	0ffH
	DB	00H
	DB	0ffH
	DB	0ffH
	DB	00H
	DB	0ffH
	DB	0ffH
	DB	0ffH
	DB	00H
	DB	0ffH
	DB	0ffH
	DB	00H
	DB	00H
	DB	0ffH
	DB	0ffH
	DB	00H
	DB	00H
	DB	0ffH
	DB	00H
	DB	00H
	DB	0ffH
	DB	0ffH
	DB	00H
	DB	00H
	DB	0ffH
	DB	00H
	DB	00H
	DB	00H
	DB	0ffH
	DB	00H
	DB	00H
	DB	00H
	DB	00H
	DB	00H
	DB	00H
	DB	0ffH
	DB	00H
	DB	00H
	DB	00H
	DB	00H
	DB	00H
	DB	00H
	DB	00H
	DB	00H
	DB	00H
	DB	00H
	DB	01H
	DB	00H
	DB	00H
	DB	00H
	DB	01H
	DB	00H
	DB	00H
	DB	01H
	DB	00H
	DB	00H
	DB	00H
	DB	01H
	DB	00H
	DB	00H
	DB	01H
	DB	01H
	DB	00H
	DB	00H
	DB	01H
	DB	01H
	DB	00H
	DB	01H
	DB	01H
	DB	00H
	DB	00H
	DB	01H
	DB	01H
	DB	00H
	DB	01H
	DB	01H
	DB	01H
	DB	00H
	DB	01H
	DB	01H
	DB	01H
	DB	01H
	DB	01H
	DB	01H
	DB	00H
	DB	01H
	DB	01H
	DB	01H
	DB	01H
	DB	01H
	DB	01H
	DB	01H
	DB	01H
	DB	01H
	DB	01H
	DB	02H
	DB	01H
	DB	01H
	DB	01H
	DB	02H
	DB	01H
	DB	01H
	DB	02H
	DB	01H
	DB	01H
	DB	01H
CONST	ENDS
;	COMDAT ?Scale@?1??SetKey@MusicTrack@@QAEXHH@Z@4QAY06$$CBDA
CONST	SEGMENT
?Scale@?1??SetKey@MusicTrack@@QAEXHH@Z@4QAY06$$CBDA DB 00H ; `MusicTrack::SetKey'::`2'::Scale
	DB	00H
	DB	00H
	DB	00H
	DB	00H
	DB	00H
	DB	00H
	DB	00H
	DB	00H
	DB	0ffH
	DB	00H
	DB	00H
	DB	00H
	DB	0ffH
	DB	00H
	DB	0ffH
	DB	0ffH
	DB	00H
	DB	00H
	DB	0ffH
	DB	0ffH
	DB	00H
	DB	00H
	DB	00H
	DB	01H
	DB	00H
	DB	00H
	DB	00H
	DB	00H
	DB	00H
	DB	00H
	DB	00H
	DB	00H
	DB	00H
	DB	0ffH
	DB	00H
	DB	00H
	DB	0ffH
	DB	00H
	DB	00H
	DB	0ffH
	DB	0ffH
	DB	00H
	DB	0ffH
	DB	0ffH
	DB	00H
	DB	0ffH
	DB	0ffH
	DB	0ffH
	DB	00H
	DB	01H
	DB	01H
	DB	01H
	DB	00H
	DB	01H
	DB	00H
	DB	00H
	DB	00H
	DB	0ffH
	DB	0ffH
	DB	00H
	DB	00H
	DB	00H
	DB	00H
	DB	00H
	DB	00H
	DB	00H
	DB	00H
	DB	00H
	DB	00H
	DB	00H
	DB	00H
	DB	0ffH
	DB	00H
	DB	00H
	DB	0ffH
	DB	00H
	DB	00H
	DB	0ffH
	DB	0ffH
	DB	00H
	DB	0ffH
	DB	00H
	DB	0ffH
	DB	00H
	DB	00H
	DB	00H
	DB	00H
	DB	01H
	DB	00H
	DB	00H
	DB	00H
	DB	00H
	DB	0ffH
	DB	01H
	DB	00H
	DB	00H
	DB	0ffH
	DB	00H
	DB	0ffH
	DB	00H
	DB	00H
	DB	00H
	DB	0ffH
	DB	0ffH
	DB	00H
	DB	01H
	DB	00H
	DB	01H
	DB	00H
	DB	00H
	DB	00H
	DB	00H
	DB	0ffH
	DB	0ffH
	DB	0ffH
	DB	0ffH
	DB	0ffH
	DB	0feH
	DB	00H
	DB	00H
	DB	00H
	DB	00H
	DB	00H
	DB	00H
	DB	00H
	DB	00H
	DB	00H
	DB	00H
	DB	00H
	DB	00H
	DB	00H
	DB	00H
	DB	00H
	DB	00H
	DB	00H
	DB	00H
	DB	00H
	DB	00H
	DB	00H
	DB	00H
	DB	00H
	DB	0ffH
	DB	00H
	DB	00H
	DB	00H
	DB	00H
	DB	00H
	DB	0ffH
	DB	0ffH
	DB	00H
	DB	00H
	DB	00H
	DB	0ffH
	DB	00H
	DB	00H
	DB	00H
	DB	01H
	DB	01H
	DB	00H
	DB	00H
	DB	00H
	DB	00H
	DB	00H
	DB	01H
	DB	00H
	DB	00H
	DB	0ffH
	DB	00H
	DB	00H
	DB	00H
	DB	00H
	DB	00H
	DB	0ffH
	DB	0ffH
	DB	00H
	DB	00H
	DB	0ffH
	DB	00H
	DB	0ffH
	DB	0ffH
	DB	0ffH
	DB	00H
	DB	0ffH
	DB	0ffH
	DB	0ffH
	DB	0ffH
	DB	0ffH
	DB	0ffH
	DB	0ffH
	DB	0ffH
	DB	0ffH
	DB	00H
	DB	00H
	DB	0ffH
	DB	0ffH
	DB	00H
	DB	00H
	DB	00H
	DB	00H
	DB	00H
	DB	00H
	DB	00H
	DB	00H
	DB	00H
	DB	00H
	DB	00H
	DB	00H
	DB	00H
	DB	00H
	DB	00H
	DB	00H
	DB	00H
	DB	00H
	DB	00H
	DB	0ffH
	DB	00H
	DB	00H
	DB	00H
	DB	0ffH
	DB	00H
	DB	0ffH
	DB	00H
	DB	0ffH
	DB	00H
	DB	0ffH
	DB	0ffH
	DB	0ffH
	DB	00H
	DB	0ffH
	DB	0ffH
	DB	00H
	DB	00H
	DB	0ffH
	DB	01H
	DB	00H
	DB	00H
	DB	00H
	DB	00H
	DB	0ffH
	DB	00H
	DB	00H
	DB	00H
	DB	00H
	DB	0ffH
	DB	00H
	DB	01H
	DB	00H
	DB	01H
	DB	01H
	DB	00H
	DB	00H
	DB	00H
	DB	0ffH
	DB	0ffH
	DB	00H
	DB	0ffH
	DB	0ffH
	DB	0feH
	DB	00H
	DB	00H
	DB	00H
	DB	00H
	DB	00H
	DB	00H
	DB	00H
	DB	00H
	DB	00H
	DB	00H
	DB	00H
	DB	00H
	DB	00H
	DB	00H
	DB	00H
	DB	00H
	DB	00H
	DB	00H
	DB	00H
	DB	00H
	DB	00H
	DB	00H
	DB	0ffH
	DB	0ffH
	DB	00H
	DB	00H
	DB	00H
	DB	00H
	DB	00H
	DB	00H
	DB	00H
	DB	01H
	DB	01H
	DB	01H
	DB	00H
	DB	00H
	DB	00H
	DB	00H
	DB	01H
	DB	01H
	DB	00H
	DB	0ffH
	DB	00H
	DB	00H
	DB	00H
	DB	01H
	DB	00H
	DB	0ffH
	DB	0ffH
	DB	00H
	DB	00H
	DB	00H
	DB	00H
	DB	0ffH
	DB	0ffH
	DB	0ffH
	DB	00H
	DB	00H
	DB	0ffH
	DB	0ffH
	DB	0ffH
	DB	0ffH
	DB	0ffH
	DB	00H
	DB	0ffH
	DB	0feH
	DB	0ffH
	DB	0ffH
	DB	0ffH
	DB	0ffH
	DB	00H
	DB	00H
	DB	00H
	DB	00H
	DB	00H
	DB	00H
	DB	00H
	DB	00H
	DB	00H
	DB	00H
	DB	00H
	DB	00H
	DB	00H
	DB	00H
	DB	00H
	DB	00H
	DB	00H
	DB	00H
	DB	00H
	DB	00H
	DB	00H
	DB	00H
	DB	0ffH
	DB	0ffH
	DB	00H
	DB	00H
	DB	0ffH
	DB	00H
	DB	00H
	DB	00H
	DB	00H
	DB	01H
	DB	00H
	DB	01H
	DB	00H
	DB	00H
	DB	00H
	DB	00H
	DB	00H
	DB	01H
	DB	00H
	DB	0ffH
	DB	00H
	DB	00H
	DB	0ffH
	DB	01H
	DB	00H
	DB	0ffH
	DB	0ffH
	DB	00H
	DB	0ffH
	DB	00H
	DB	00H
	DB	0ffH
	DB	0ffH
	DB	0ffH
	DB	00H
	DB	01H
	DB	00H
	DB	00H
	DB	00H
	DB	00H
	DB	00H
	DB	00H
	DB	0ffH
	DB	0feH
	DB	0ffH
	DB	0ffH
	DB	0ffH
	DB	0feH
	DB	00H
	DB	00H
	DB	00H
	DB	00H
	DB	00H
	DB	00H
	DB	00H
	DB	00H
	DB	00H
	DB	00H
	DB	00H
	DB	00H
	DB	00H
	DB	00H
	DB	00H
	DB	00H
	DB	00H
	DB	00H
	DB	00H
	DB	00H
	DB	00H
	DB	00H
	DB	0ffH
	DB	00H
	DB	00H
	DB	00H
	DB	0ffH
	DB	00H
	DB	00H
	DB	01H
	DB	00H
	DB	01H
	DB	00H
	DB	01H
	DB	00H
	DB	00H
	DB	0ffH
	DB	0ffH
	DB	0ffH
	DB	00H
	DB	0ffH
	DB	0feH
	DB	00H
	DB	00H
	DB	0ffH
	DB	01H
	DB	00H
	DB	0ffH
	DB	00H
	DB	00H
	DB	0ffH
	DB	00H
	DB	00H
	DB	0ffH
	DB	00H
	DB	0ffH
	DB	00H
	DB	01H
	DB	00H
	DB	00H
	DB	01H
	DB	00H
	DB	00H
	DB	00H
	DB	0ffH
	DB	0feH
	DB	00H
	DB	0ffH
	DB	0ffH
	DB	0feH
	DB	00H
	DB	00H
	DB	00H
	DB	00H
	DB	00H
	DB	00H
	DB	00H
	DB	00H
	DB	00H
	DB	00H
	DB	00H
	DB	00H
	DB	00H
	DB	00H
	DB	00H
	DB	00H
	DB	00H
	DB	00H
	DB	00H
	DB	00H
	DB	00H
	DB	00H
	DB	01H
	DB	00H
	DB	01H
	DB	00H
	DB	00H
	DB	0ffH
	DB	00H
	DB	0ffH
	DB	0ffH
	DB	0ffH
	DB	0ffH
	DB	0feH
	DB	0feH
	DB	00H
	DB	00H
	DB	0ffH
	DB	00H
	DB	0ffH
	DB	0ffH
	DB	00H
	DB	00H
	DB	0ffH
	DB	0ffH
	DB	0ffH
	DB	0ffH
	DB	00H
	DB	0ffH
	DB	00H
	DB	00H
	DB	0ffH
	DB	00H
	DB	01H
	DB	00H
	DB	00H
	DB	00H
	DB	0ffH
	DB	0ffH
	DB	01H
	DB	00H
	DB	00H
	DB	0ffH
	DB	00H
	DB	00H
	DB	01H
	DB	01H
	DB	01H
	DB	00H
	DB	00H
	DB	00H
	DB	00H
	DB	00H
	DB	00H
	DB	00H
	DB	00H
	DB	00H
	DB	00H
	DB	00H
	DB	00H
	DB	00H
	DB	00H
	DB	00H
	DB	00H
	DB	00H
	DB	00H
	DB	00H
	DB	00H
	DB	00H
	DB	00H
	DB	00H
CONST	ENDS
;	COMDAT ??_C@_05KFOFLDIO@C?9Dur?$AA@
CONST	SEGMENT
??_C@_05KFOFLDIO@C?9Dur?$AA@ DB 'C-Dur', 00H		; `string'
CONST	ENDS
;	COMDAT ??_C@_06DNHFJLJE@Ds?9Dur?$AA@
CONST	SEGMENT
??_C@_06DNHFJLJE@Ds?9Dur?$AA@ DB 'Ds-Dur', 00H		; `string'
CONST	ENDS
;	COMDAT ??_C@_07BCGGFLM@Des?9Dur?$AA@
CONST	SEGMENT
??_C@_07BCGGFLM@Des?9Dur?$AA@ DB 'Des-Dur', 00H		; `string'
CONST	ENDS
;	COMDAT ??_C@_05LIOAIDDG@D?9Dur?$AA@
CONST	SEGMENT
??_C@_05LIOAIDDG@D?9Dur?$AA@ DB 'D-Dur', 00H		; `string'
CONST	ENDS
;	COMDAT ??_C@_06JLACJACA@Es?9Dur?$AA@
CONST	SEGMENT
??_C@_06JLACJACA@Es?9Dur?$AA@ DB 'Es-Dur', 00H		; `string'
CONST	ENDS
;	COMDAT ??_C@_05HDLMFAJD@E?9Dur?$AA@
CONST	SEGMENT
??_C@_05HDLMFAJD@E?9Dur?$AA@ DB 'E-Dur', 00H		; `string'
CONST	ENDS
;	COMDAT ??_C@_05PFCICCDN@F?9Dur?$AA@
CONST	SEGMENT
??_C@_05PFCICCDN@F?9Dur?$AA@ DB 'F-Dur', 00H		; `string'
CONST	ENDS
;	COMDAT ??_C@_07IEKDAILF@Fis?9Dur?$AA@
CONST	SEGMENT
??_C@_07IEKDAILF@Fis?9Dur?$AA@ DB 'Fis-Dur', 00H	; `string'
CONST	ENDS
;	COMDAT ??_C@_06MJNIBAJ@Gs?9Dur?$AA@
CONST	SEGMENT
??_C@_06MJNIBAJ@Gs?9Dur?$AA@ DB 'Gs-Dur', 00H		; `string'
CONST	ENDS
;	COMDAT ??_C@_07IPKJGCFP@Ges?9Dur?$AA@
CONST	SEGMENT
??_C@_07IPKJGCFP@Ges?9Dur?$AA@ DB 'Ges-Dur', 00H	; `string'
CONST	ENDS
;	COMDAT ??_C@_05DOHEPBJI@G?9Dur?$AA@
CONST	SEGMENT
??_C@_05DOHEPBJI@G?9Dur?$AA@ DB 'G-Dur', 00H		; `string'
CONST	ENDS
;	COMDAT ??_C@_06GPENLEDD@As?9Dur?$AA@
CONST	SEGMENT
??_C@_06GPENLEDD@As?9Dur?$AA@ DB 'As-Dur', 00H		; `string'
CONST	ENDS
;	COMDAT ??_C@_05OICNBCIF@A?9Dur?$AA@
CONST	SEGMENT
??_C@_05OICNBCIF@A?9Dur?$AA@ DB 'A-Dur', 00H		; `string'
CONST	ENDS
;	COMDAT ??_C@_05GOLJGACL@B?9Dur?$AA@
CONST	SEGMENT
??_C@_05GOLJGACL@B?9Dur?$AA@ DB 'B-Dur', 00H		; `string'
CONST	ENDS
;	COMDAT ??_C@_06FOKFKOKO@Bs?9Dur?$AA@
CONST	SEGMENT
??_C@_06FOKFKOKO@Bs?9Dur?$AA@ DB 'Bs-Dur', 00H		; `string'
CONST	ENDS
;	COMDAT ??_C@_05MPCCEDEN@H?9Dur?$AA@
CONST	SEGMENT
??_C@_05MPCCEDEN@H?9Dur?$AA@ DB 'H-Dur', 00H		; `string'
CONST	ENDS
;	COMDAT ??_C@_06OJJNCCFH@c?9moll?$AA@
CONST	SEGMENT
??_C@_06OJJNCCFH@c?9moll?$AA@ DB 'c-moll', 00H		; `string'
CONST	ENDS
;	COMDAT ??_C@_08FPGMHDLI@cis?9moll?$AA@
CONST	SEGMENT
??_C@_08FPGMHDLI@cis?9moll?$AA@ DB 'cis-moll', 00H	; `string'
CONST	ENDS
;	COMDAT ??_C@_06CMDKBMNJ@d?9moll?$AA@
CONST	SEGMENT
??_C@_06CMDKBMNJ@d?9moll?$AA@ DB 'd-moll', 00H		; `string'
CONST	ENDS
;	COMDAT ??_C@_08DLANBOHB@dis?9moll?$AA@
CONST	SEGMENT
??_C@_08DLANBOHB@dis?9moll?$AA@ DB 'dis-moll', 00H	; `string'
CONST	ENDS
;	COMDAT ??_C@_07OOAGBAFB@es?9moll?$AA@
CONST	SEGMENT
??_C@_07OOAGBAFB@es?9moll?$AA@ DB 'es-moll', 00H	; `string'
CONST	ENDS
;	COMDAT ??_C@_06IKENBHGN@e?9moll?$AA@
CONST	SEGMENT
??_C@_06IKENBHGN@e?9moll?$AA@ DB 'e-moll', 00H		; `string'
CONST	ENDS
;	COMDAT ??_C@_06LLKFANPA@f?9moll?$AA@
CONST	SEGMENT
??_C@_06LLKFANPA@f?9moll?$AA@ DB 'f-moll', 00H		; `string'
CONST	ENDS
;	COMDAT ??_C@_08BFPLDGPH@fis?9moll?$AA@
CONST	SEGMENT
??_C@_08BFPLDGPH@fis?9moll?$AA@ DB 'fis-moll', 00H	; `string'
CONST	ENDS
;	COMDAT ??_C@_06BNNCAGEE@g?9moll?$AA@
CONST	SEGMENT
??_C@_06BNNCAGEE@g?9moll?$AA@ DB 'g-moll', 00H		; `string'
CONST	ENDS
;	COMDAT ??_C@_08CIACCLE@gis?9moll?$AA@
CONST	SEGMENT
??_C@_08CIACCLE@gis?9moll?$AA@ DB 'gis-moll', 00H	; `string'
CONST	ENDS
;	COMDAT ??_C@_06HOACDDHO@a?9moll?$AA@
CONST	SEGMENT
??_C@_06HOACDDHO@a?9moll?$AA@ DB 'a-moll', 00H		; `string'
CONST	ENDS
;	COMDAT ??_C@_06EPOKCJOD@b?9moll?$AA@
CONST	SEGMENT
??_C@_06EPOKCJOD@b?9moll?$AA@ DB 'b-moll', 00H		; `string'
CONST	ENDS
;	COMDAT ??_C@_07OEMDBJEI@bs?9moll?$AA@
CONST	SEGMENT
??_C@_07OEMDBJEI@bs?9moll?$AA@ DB 'bs-moll', 00H	; `string'
CONST	ENDS
;	COMDAT ??_C@_06OLJKHGKN@h?9moll?$AA@
CONST	SEGMENT
??_C@_06OLJKHGKN@h?9moll?$AA@ DB 'h-moll', 00H		; `string'
CONST	ENDS
;	COMDAT ??_C@_07CCKMBAMP@ds?9moll?$AA@
CONST	SEGMENT
??_C@_07CCKMBAMP@ds?9moll?$AA@ DB 'ds-moll', 00H	; `string'
CONST	ENDS
;	COMDAT ??_C@_08GMKCALDO@des?9moll?$AA@
CONST	SEGMENT
??_C@_08GMKCALDO@des?9moll?$AA@ DB 'des-moll', 00H	; `string'
CONST	ENDS
;	COMDAT ??_C@_07KMCDBHCM@gs?9moll?$AA@
CONST	SEGMENT
??_C@_07KMCDBHCM@gs?9moll?$AA@ DB 'gs-moll', 00H	; `string'
CONST	ENDS
;	COMDAT ??_C@_08FFCPDHPL@ges?9moll?$AA@
CONST	SEGMENT
??_C@_08FFCPDHPL@ges?9moll?$AA@ DB 'ges-moll', 00H	; `string'
CONST	ENDS
;	COMDAT ??_C@_07GKEMBOKL@as?9moll?$AA@
CONST	SEGMENT
??_C@_07GKEMBOKL@as?9moll?$AA@ DB 'as-moll', 00H	; `string'
CONST	ENDS
;	COMDAT ??_C@_01MIFGBAGJ@?$CL?$AA@
CONST	SEGMENT
??_C@_01MIFGBAGJ@?$CL?$AA@ DB '+', 00H			; `string'
CONST	ENDS
;	COMDAT ??_C@_02CMICPHGH@?$IB?$HL?$AA@
CONST	SEGMENT
??_C@_02CMICPHGH@?$IB?$HL?$AA@ DB 081H, '{', 00H	; `string'
CONST	ENDS
;	COMDAT ??_C@_01IPJKGB@?$CD?$AA@
CONST	SEGMENT
??_C@_01IPJKGB@?$CD?$AA@ DB '#', 00H			; `string'
CONST	ENDS
;	COMDAT ??_C@_02PFGEBIEE@?$IB?$JE?$AA@
CONST	SEGMENT
??_C@_02PFGEBIEE@?$IB?$JE?$AA@ DB 081H, 094H, 00H	; `string'
CONST	ENDS
;	COMDAT ??_C@_02GDMDGBKA@?$IB?$HM?$AA@
CONST	SEGMENT
??_C@_02GDMDGBKA@?$IB?$HM?$AA@ DB 081H, '|', 00H	; `string'
CONST	ENDS
;	COMDAT ??_C@_02NPNIOFCE@?$IB?s?$AA@
CONST	SEGMENT
??_C@_02NPNIOFCE@?$IB?s?$AA@ DB 081H, 0f3H, 00H		; `string'
CONST	ENDS
;	COMDAT ??_C@_01NEMOKFLO@?$DN?$AA@
CONST	SEGMENT
??_C@_01NEMOKFLO@?$DN?$AA@ DB '=', 00H			; `string'
CONST	ENDS
;	COMDAT ??_C@_02MCNBPOFA@?$IB?$IB?$AA@
CONST	SEGMENT
??_C@_02MCNBPOFA@?$IB?$IB?$AA@ DB 081H, 081H, 00H	; `string'
CONST	ENDS
;	COMDAT ??_C@_01NBENCBCI@?$CK?$AA@
CONST	SEGMENT
??_C@_01NBENCBCI@?$CK?$AA@ DB '*', 00H			; `string'
CONST	ENDS
;	COMDAT ??_C@_02MHFCHKMG@?$IB?$JG?$AA@
CONST	SEGMENT
??_C@_02MHFCHKMG@?$IB?$JG?$AA@ DB 081H, 096H, 00H	; `string'
CONST	ENDS
;	COMDAT ??_C@_02LJKBFKON@?$ID?$JD?$AA@
CONST	SEGMENT
??_C@_02LJKBFKON@?$ID?$JD?$AA@ DB 083H, 093H, 00H	; `string'
CONST	ENDS
;	COMDAT ??_C@_02LEAGIKBB@?$IDb?$AA@
CONST	SEGMENT
??_C@_02LEAGIKBB@?$IDb?$AA@ DB 083H, 'b', 00H		; `string'
CONST	ENDS
;	COMDAT ??_C@_02OPKIDJPP@?$IC?q?$AA@
CONST	SEGMENT
??_C@_02OPKIDJPP@?$IC?q?$AA@ DB 082H, 0f1H, 00H		; `string'
CONST	ENDS
;	COMDAT ??_C@_02DAOOAPAM@?$IC?A?$AA@
CONST	SEGMENT
??_C@_02DAOOAPAM@?$IC?A?$AA@ DB 082H, 0c1H, 00H		; `string'
CONST	ENDS
;	COMDAT ??_C@_02BILDMFBN@?$IDn?$AA@
CONST	SEGMENT
??_C@_02BILDMFBN@?$IDn?$AA@ DB 083H, 'n', 00H		; `string'
CONST	ENDS
;	COMDAT ??_C@_02HMNPAABJ@?$IDj?$AA@
CONST	SEGMENT
??_C@_02HMNPAABJ@?$IDj?$AA@ DB 083H, 'j', 00H		; `string'
CONST	ENDS
;	COMDAT ??_C@_02DGBNBCEI@?$IDz?$AA@
CONST	SEGMENT
??_C@_02DGBNBCEI@?$IDz?$AA@ DB 083H, 'z', 00H		; `string'
CONST	ENDS
;	COMDAT ??_C@_02IDLDGMAF@?$IDw?$AA@
CONST	SEGMENT
??_C@_02IDLDGMAF@?$IDw?$AA@ DB 083H, 'w', 00H		; `string'
CONST	ENDS
;	COMDAT ??_C@_02MJHBHOFE@?$IDg?$AA@
CONST	SEGMENT
??_C@_02MJHBHOFE@?$IDg?$AA@ DB 083H, 'g', 00H		; `string'
CONST	ENDS
;	COMDAT ??_C@_02DIJJJPPC@?$IDC?$AA@
CONST	SEGMENT
??_C@_02DIJJJPPC@?$IDC?$AA@ DB 083H, 'C', 00H		; `string'
CONST	ENDS
;	COMDAT ??_C@_02GNOAGFDC@?$ID?$IN?$AA@
CONST	SEGMENT
??_C@_02GNOAGFDC@?$ID?$IN?$AA@ DB 083H, 08dH, 00H	; `string'
CONST	ENDS
;	COMDAT ?KS_Command@?1??SetKeySignature@MusicTrack@@QAEXPAVMMLfile@@@Z@4QBUCommand_Info@@B
CONST	SEGMENT
?KS_Command@?1??SetKeySignature@MusicTrack@@QAEXPAVMMLfile@@@Z@4QBUCommand_Info@@B DD FLAT:??_C@_05KFOFLDIO@C?9Dur?$AA@ ; `MusicTrack::SetKeySignature'::`2'::KS_Command
	DD	0bH
	DD	FLAT:??_C@_06DNHFJLJE@Ds?9Dur?$AA@
	DD	017H
	DD	FLAT:??_C@_07BCGGFLM@Des?9Dur?$AA@
	DD	017H
	DD	FLAT:??_C@_05LIOAIDDG@D?9Dur?$AA@
	DD	0dH
	DD	FLAT:??_C@_06JLACJACA@Es?9Dur?$AA@
	DD	015H
	DD	FLAT:??_C@_05HDLMFAJD@E?9Dur?$AA@
	DD	0fH
	DD	FLAT:??_C@_05PFCICCDN@F?9Dur?$AA@
	DD	013H
	DD	FLAT:??_C@_07IEKDAILF@Fis?9Dur?$AA@
	DD	011H
	DD	FLAT:??_C@_06MJNIBAJ@Gs?9Dur?$AA@
	DD	018H
	DD	FLAT:??_C@_07IPKJGCFP@Ges?9Dur?$AA@
	DD	018H
	DD	FLAT:??_C@_05DOHEPBJI@G?9Dur?$AA@
	DD	0cH
	DD	FLAT:??_C@_06GPENLEDD@As?9Dur?$AA@
	DD	016H
	DD	FLAT:??_C@_05OICNBCIF@A?9Dur?$AA@
	DD	0eH
	DD	FLAT:??_C@_05GOLJGACL@B?9Dur?$AA@
	DD	014H
	DD	FLAT:??_C@_06FOKFKOKO@Bs?9Dur?$AA@
	DD	014H
	DD	FLAT:??_C@_05MPCCEDEN@H?9Dur?$AA@
	DD	010H
	DD	FLAT:??_C@_06OJJNCCFH@c?9moll?$AA@
	DD	01aH
	DD	FLAT:??_C@_08FPGMHDLI@cis?9moll?$AA@
	DD	021H
	DD	FLAT:??_C@_06CMDKBMNJ@d?9moll?$AA@
	DD	01cH
	DD	FLAT:??_C@_08DLANBOHB@dis?9moll?$AA@
	DD	023H
	DD	FLAT:??_C@_07OOAGBAFB@es?9moll?$AA@
	DD	026H
	DD	FLAT:??_C@_06IKENBHGN@e?9moll?$AA@
	DD	01eH
	DD	FLAT:??_C@_06LLKFANPA@f?9moll?$AA@
	DD	024H
	DD	FLAT:??_C@_08BFPLDGPH@fis?9moll?$AA@
	DD	020H
	DD	FLAT:??_C@_06BNNCAGEE@g?9moll?$AA@
	DD	01bH
	DD	FLAT:??_C@_08CIACCLE@gis?9moll?$AA@
	DD	022H
	DD	FLAT:??_C@_06HOACDDHO@a?9moll?$AA@
	DD	01dH
	DD	FLAT:??_C@_06EPOKCJOD@b?9moll?$AA@
	DD	025H
	DD	FLAT:??_C@_07OEMDBJEI@bs?9moll?$AA@
	DD	025H
	DD	FLAT:??_C@_06OLJKHGKN@h?9moll?$AA@
	DD	01fH
	DD	FLAT:??_C@_07CCKMBAMP@ds?9moll?$AA@
	DD	028H
	DD	FLAT:??_C@_08GMKCALDO@des?9moll?$AA@
	DD	028H
	DD	FLAT:??_C@_07KMCDBHCM@gs?9moll?$AA@
	DD	029H
	DD	FLAT:??_C@_08FFCPDHPL@ges?9moll?$AA@
	DD	029H
	DD	FLAT:??_C@_07GKEMBOKL@as?9moll?$AA@
	DD	027H
	DD	FLAT:??_C@_01MIFGBAGJ@?$CL?$AA@
	DD	00H
	DD	FLAT:??_C@_02CMICPHGH@?$IB?$HL?$AA@
	DD	00H
	DD	FLAT:??_C@_01IPJKGB@?$CD?$AA@
	DD	00H
	DD	FLAT:??_C@_02PFGEBIEE@?$IB?$JE?$AA@
	DD	00H
	DD	FLAT:??_C@_01JOAMLHOP@?9?$AA@
	DD	01H
	DD	FLAT:??_C@_02GDMDGBKA@?$IB?$HM?$AA@
	DD	01H
	DD	FLAT:??_C@_02NPNIOFCE@?$IB?s?$AA@
	DD	01H
	DD	FLAT:??_C@_01NEMOKFLO@?$DN?$AA@
	DD	02H
	DD	FLAT:??_C@_02MCNBPOFA@?$IB?$IB?$AA@
	DD	02H
	DD	FLAT:??_C@_01NBENCBCI@?$CK?$AA@
	DD	02H
	DD	FLAT:??_C@_02MHFCHKMG@?$IB?$JG?$AA@
	DD	02H
	DD	FLAT:??_C@_01PAPGNFGE@c?$AA@
	DD	03H
	DD	FLAT:??_C@_01LPLHEDKD@d?$AA@
	DD	04H
	DD	FLAT:??_C@_01KGKMHCOC@e?$AA@
	DD	05H
	DD	FLAT:??_C@_01INIBCBCB@f?$AA@
	DD	06H
	DD	FLAT:??_C@_01JEJKBAGA@g?$AA@
	DD	07H
	DD	FLAT:??_C@_01MCMALHOG@a?$AA@
	DD	08H
	DD	FLAT:??_C@_01OJONOECF@b?$AA@
	DD	09H
	DD	FLAT:??_C@_01KDCPPGHE@r?$AA@
	DD	0aH
	DD	FLAT:??_C@_02EOOJGCJL@?$IDh?$AA@
	DD	03H
	DD	FLAT:??_C@_02HEPLFEHD@?$ID?$IM?$AA@
	DD	04H
	DD	FLAT:??_C@_02FCHBNHEM@?$ID?$HO?$AA@
	DD	05H
	DD	FLAT:??_C@_04DIMMBPLH@?$IDt?$ID?$EA?$AA@
	DD	06H
	DD	FLAT:??_C@_02KIJODPMG@?$IDt?$AA@
	DD	06H
	DD	FLAT:??_C@_02PFMDJBGM@?$ID?2?$AA@
	DD	07H
	DD	FLAT:??_C@_02JIMKADG@?$ID?$IJ?$AA@
	DD	08H
	DD	FLAT:??_C@_02PCMHJOG@?$IDV?$AA@
	DD	09H
	DD	FLAT:??_C@_02LJKBFKON@?$ID?$JD?$AA@
	DD	0aH
	DD	FLAT:??_C@_02LEAGIKBB@?$IDb?$AA@
	DD	0aH
	DD	FLAT:??_C@_02GGLEKIIK@?$IC?G?$AA@
	DD	03H
	DD	FLAT:??_C@_02EGJOPCGF@?$IC?j?$AA@
	DD	04H
	DD	FLAT:??_C@_02NGJJFCFB@?$IC?$NN?$AA@
	DD	05H
	DD	FLAT:??_C@_04NCHCKEFM@?$IC?S?$IC?$JP?$AA@
	DD	06H
	DD	FLAT:??_C@_02EIBKHPNP@?$IC?S?$AA@
	DD	06H
	DD	FLAT:??_C@_02OFDOJOHA@?$IC?$LL?$AA@
	DD	07H
	DD	FLAT:??_C@_02PDDAIMCI@?$IC?g?$AA@
	DD	08H
	DD	FLAT:??_C@_02HLLNLDPO@?$IC?$LF?$AA@
	DD	09H
	DD	FLAT:??_C@_02OPKIDJPP@?$IC?q?$AA@
	DD	0aH
	DD	FLAT:??_C@_02DAOOAPAM@?$IC?A?$AA@
	DD	0aH
	DD	FLAT:??_C@_02BILDMFBN@?$IDn?$AA@
	DD	03H
	DD	FLAT:??_C@_02HMNPAABJ@?$IDj?$AA@
	DD	04H
	DD	FLAT:??_C@_02DGBNBCEI@?$IDz?$AA@
	DD	05H
	DD	FLAT:??_C@_02IDLDGMAF@?$IDw?$AA@
	DD	06H
	DD	FLAT:??_C@_02MJHBHOFE@?$IDg?$AA@
	DD	07H
	DD	FLAT:??_C@_02DIJJJPPC@?$IDC?$AA@
	DD	08H
	DD	FLAT:??_C@_02GNOAGFDC@?$ID?$IN?$AA@
	DD	09H
CONST	ENDS
;	COMDAT ??_C@_1DI@JCDDEPJK@?$IK?$LPS?w0?$LD0?$NO0?s0?I0?$PL0?V0?m0?C0?$KP0n?$JF?$ILY?K0?$JCy?30Y?$AA?$HL0L?$IJ?$IL@
CONST	SEGMENT
??_C@_1DI@JCDDEPJK@?$IK?$LPS?w0?$LD0?$NO0?s0?I0?$PL0?V0?m0?C0?$KP0n?$JF?$ILY?K0?$JCy?30Y?$AA?$HL0L?$IJ?$IL@ DB 0bfH
	DB	08aH, 0f7H, 'S', 0b3H, '0', 0deH, '0', 0f3H, '0', 0c9H, '0', 0fbH
	DB	'0', 0d6H, '0', 0edH, '0', 0c3H, '0', 0afH, '0n0', 08bH, 095H, 0cbH
	DB	'Y', 092H, '0:yY0{', 00H, 'L0', 08bH, 089H, 'd0K0', 08aH, '0~0'
	DB	'[0', 093H, '0', 02H, '0', 00H, 00H		; `string'
CONST	ENDS
;	COMDAT ??_C@_1DI@GALIBNKP@?$IK?$LPS?w0?$LD0?$NO0?s0?I0?$PL0?V0?m0?C0?$KP0n?$HNBz?o0?$JCy?30Y?$AA?$GA?$AA?$HN?$AA?8@
CONST	SEGMENT
??_C@_1DI@GALIBNKP@?$IK?$LPS?w0?$LD0?$NO0?s0?I0?$PL0?V0?m0?C0?$KP0n?$HNBz?o0?$JCy?30Y?$AA?$GA?$AA?$HN?$AA?8@ DB 0bfH
	DB	08aH, 0f7H, 'S', 0b3H, '0', 0deH, '0', 0f3H, '0', 0c9H, '0', 0fbH
	DB	'0', 0d6H, '0', 0edH, '0', 0c3H, '0', 0afH, '0n0B}', 0efH, 'z', 092H
	DB	'0:yY0`', 00H, '}', 00H, '''', 00H, 'L0B0', 08aH, '0~0[0', 093H
	DB	'0', 02H, '0', 00H, 00H			; `string'
CONST	ENDS
;	COMDAT ??_C@_1DM@KNFDIHJH@?$IK?$LPS?w?$AA?5?$AAK?$AA?$HL?$AA?$HN?$AA?50?$LD0?$NO0?s0?I0n_?$BFep0gg?$CKw?e0ne?$IH?$FLW@
CONST	SEGMENT
??_C@_1DM@KNFDIHJH@?$IK?$LPS?w?$AA?5?$AAK?$AA?$HL?$AA?$HN?$AA?50?$LD0?$NO0?s0?I0n_?$BFep0gg?$CKw?e0ne?$IH?$FLW@ DB 0bfH
	DB	08aH, 0f7H, 'S ', 00H, 'K', 00H, '{', 00H, '}', 00H, ' ', 00H, 0b3H
	DB	'0', 0deH, '0', 0f3H, '0', 0c9H, '0n0', 015H, '_peg0*g', 0e5H, 'w'
	DB	'n0', 087H, 'eW[L0', 07H, 'c', 09aH, '[U0', 08cH, '0~0W0_0', 02H
	DB	'0', 00H, 00H				; `string'
CONST	ENDS
;	COMDAT ??_C@_1BE@PDJGDLM@?$AAL?$AAe?$AAn?$AAg?$AAt?$AAh?$AA?5?$AA9?$AA6?$AA?$AA@
CONST	SEGMENT
??_C@_1BE@PDJGDLM@?$AAL?$AAe?$AAn?$AAg?$AAt?$AAh?$AA?5?$AA9?$AA6?$AA?$AA@ DB 'L'
	DB	00H, 'e', 00H, 'n', 00H, 'g', 00H, 't', 00H, 'h', 00H, ' ', 00H
	DB	'9', 00H, '6', 00H, 00H, 00H			; `string'
CONST	ENDS
;	COMDAT ??_C@_1BE@LKFBJFJL@?$AAL?$AAe?$AAn?$AAg?$AAt?$AAh?$AA?5?$AA7?$AA2?$AA?$AA@
CONST	SEGMENT
??_C@_1BE@LKFBJFJL@?$AAL?$AAe?$AAn?$AAg?$AAt?$AAh?$AA?5?$AA7?$AA2?$AA?$AA@ DB 'L'
	DB	00H, 'e', 00H, 'n', 00H, 'g', 00H, 't', 00H, 'h', 00H, ' ', 00H
	DB	'7', 00H, '2', 00H, 00H, 00H			; `string'
CONST	ENDS
;	COMDAT ??_C@_1BE@FDHIAHFB@?$AAL?$AAe?$AAn?$AAg?$AAt?$AAh?$AA?5?$AA4?$AA8?$AA?$AA@
CONST	SEGMENT
??_C@_1BE@FDHIAHFB@?$AAL?$AAe?$AAn?$AAg?$AAt?$AAh?$AA?5?$AA4?$AA8?$AA?$AA@ DB 'L'
	DB	00H, 'e', 00H, 'n', 00H, 'g', 00H, 't', 00H, 'h', 00H, ' ', 00H
	DB	'4', 00H, '8', 00H, 00H, 00H			; `string'
CONST	ENDS
;	COMDAT ??_C@_1BE@KOKCEANK@?$AAL?$AAe?$AAn?$AAg?$AAt?$AAh?$AA?5?$AA3?$AA6?$AA?$AA@
CONST	SEGMENT
??_C@_1BE@KOKCEANK@?$AAL?$AAe?$AAn?$AAg?$AAt?$AAh?$AA?5?$AA3?$AA6?$AA?$AA@ DB 'L'
	DB	00H, 'e', 00H, 'n', 00H, 'g', 00H, 't', 00H, 'h', 00H, ' ', 00H
	DB	'3', 00H, '6', 00H, 00H, 00H			; `string'
CONST	ENDS
;	COMDAT ??_C@_1BE@CBMANHIN@?$AAL?$AAe?$AAn?$AAg?$AAt?$AAh?$AA?5?$AA3?$AA2?$AA?$AA@
CONST	SEGMENT
??_C@_1BE@CBMANHIN@?$AAL?$AAe?$AAn?$AAg?$AAt?$AAh?$AA?5?$AA3?$AA2?$AA?$AA@ DB 'L'
	DB	00H, 'e', 00H, 'n', 00H, 'g', 00H, 't', 00H, 'h', 00H, ' ', 00H
	DB	'3', 00H, '2', 00H, 00H, 00H			; `string'
CONST	ENDS
;	COMDAT ??_C@_1BE@MPPHFLPE@?$AAL?$AAe?$AAn?$AAg?$AAt?$AAh?$AA?5?$AA2?$AA4?$AA?$AA@
CONST	SEGMENT
??_C@_1BE@MPPHFLPE@?$AAL?$AAe?$AAn?$AAg?$AAt?$AAh?$AA?5?$AA2?$AA4?$AA?$AA@ DB 'L'
	DB	00H, 'e', 00H, 'n', 00H, 'g', 00H, 't', 00H, 'h', 00H, ' ', 00H
	DB	'2', 00H, '4', 00H, 00H, 00H			; `string'
CONST	ENDS
;	COMDAT ??_C@_1BE@DLFJGOC@?$AAL?$AAe?$AAn?$AAg?$AAt?$AAh?$AA?5?$AA1?$AA8?$AA?$AA@
CONST	SEGMENT
??_C@_1BE@DLFJGOC@?$AAL?$AAe?$AAn?$AAg?$AAt?$AAh?$AA?5?$AA1?$AA8?$AA?$AA@ DB 'L'
	DB	00H, 'e', 00H, 'n', 00H, 'g', 00H, 't', 00H, 'h', 00H, ' ', 00H
	DB	'1', 00H, '8', 00H, 00H, 00H			; `string'
CONST	ENDS
;	COMDAT ??_C@_1BE@ODGKOBNB@?$AAL?$AAe?$AAn?$AAg?$AAt?$AAh?$AA?5?$AA1?$AA6?$AA?$AA@
CONST	SEGMENT
??_C@_1BE@ODGKOBNB@?$AAL?$AAe?$AAn?$AAg?$AAt?$AAh?$AA?5?$AA1?$AA6?$AA?$AA@ DB 'L'
	DB	00H, 'e', 00H, 'n', 00H, 'g', 00H, 't', 00H, 'h', 00H, ' ', 00H
	DB	'1', 00H, '6', 00H, 00H, 00H			; `string'
CONST	ENDS
;	COMDAT ??_C@_1BE@GMAIHGIG@?$AAL?$AAe?$AAn?$AAg?$AAt?$AAh?$AA?5?$AA1?$AA2?$AA?$AA@
CONST	SEGMENT
??_C@_1BE@GMAIHGIG@?$AAL?$AAe?$AAn?$AAg?$AAt?$AAh?$AA?5?$AA1?$AA2?$AA?$AA@ DB 'L'
	DB	00H, 'e', 00H, 'n', 00H, 'g', 00H, 't', 00H, 'h', 00H, ' ', 00H
	DB	'1', 00H, '2', 00H, 00H, 00H			; `string'
CONST	ENDS
;	COMDAT ??_C@_1BC@BACHBKJG@?$AAL?$AAe?$AAn?$AAg?$AAt?$AAh?$AA?5?$AA9?$AA?$AA@
CONST	SEGMENT
??_C@_1BC@BACHBKJG@?$AAL?$AAe?$AAn?$AAg?$AAt?$AAh?$AA?5?$AA9?$AA?$AA@ DB 'L'
	DB	00H, 'e', 00H, 'n', 00H, 'g', 00H, 't', 00H, 'h', 00H, ' ', 00H
	DB	'9', 00H, 00H, 00H				; `string'
CONST	ENDS
;	COMDAT ??_C@_1BC@KIJLHNPD@?$AAL?$AAe?$AAn?$AAg?$AAt?$AAh?$AA?5?$AA8?$AA?$AA@
CONST	SEGMENT
??_C@_1BC@KIJLHNPD@?$AAL?$AAe?$AAn?$AAg?$AAt?$AAh?$AA?5?$AA8?$AA?$AA@ DB 'L'
	DB	00H, 'e', 00H, 'n', 00H, 'g', 00H, 't', 00H, 'h', 00H, ' ', 00H
	DB	'8', 00H, 00H, 00H				; `string'
CONST	ENDS
;	COMDAT ??_C@_1BC@EIEEAKMA@?$AAL?$AAe?$AAn?$AAg?$AAt?$AAh?$AA?5?$AA6?$AA?$AA@
CONST	SEGMENT
??_C@_1BC@EIEEAKMA@?$AAL?$AAe?$AAn?$AAg?$AAt?$AAh?$AA?5?$AA6?$AA?$AA@ DB 'L'
	DB	00H, 'e', 00H, 'n', 00H, 'g', 00H, 't', 00H, 'h', 00H, ' ', 00H
	DB	'6', 00H, 00H, 00H				; `string'
CONST	ENDS
;	COMDAT ??_C@_1BC@OCENMCEL@?$AAL?$AAe?$AAn?$AAg?$AAt?$AAh?$AA?5?$AA4?$AA?$AA@
CONST	SEGMENT
??_C@_1BC@OCENMCEL@?$AAL?$AAe?$AAn?$AAg?$AAt?$AAh?$AA?5?$AA4?$AA?$AA@ DB 'L'
	DB	00H, 'e', 00H, 'n', 00H, 'g', 00H, 't', 00H, 'h', 00H, ' ', 00H
	DB	'4', 00H, 00H, 00H				; `string'
CONST	ENDS
;	COMDAT ??_C@_1BC@HPJKPKPC@?$AAL?$AAe?$AAn?$AAg?$AAt?$AAh?$AA?5?$AA3?$AA?$AA@
CONST	SEGMENT
??_C@_1BC@HPJKPKPC@?$AAL?$AAe?$AAn?$AAg?$AAt?$AAh?$AA?5?$AA3?$AA?$AA@ DB 'L'
	DB	00H, 'e', 00H, 'n', 00H, 'g', 00H, 't', 00H, 'h', 00H, ' ', 00H
	DB	'3', 00H, 00H, 00H				; `string'
CONST	ENDS
;	COMDAT ??_C@_1BC@MHCGJNJH@?$AAL?$AAe?$AAn?$AAg?$AAt?$AAh?$AA?5?$AA2?$AA?$AA@
CONST	SEGMENT
??_C@_1BC@MHCGJNJH@?$AAL?$AAe?$AAn?$AAg?$AAt?$AAh?$AA?5?$AA2?$AA?$AA@ DB 'L'
	DB	00H, 'e', 00H, 'n', 00H, 'g', 00H, 't', 00H, 'h', 00H, ' ', 00H
	DB	'2', 00H, 00H, 00H				; `string'
CONST	ENDS
;	COMDAT ??_C@_1BC@NFJDDCHJ@?$AAL?$AAe?$AAn?$AAg?$AAt?$AAh?$AA?5?$AA1?$AA?$AA@
CONST	SEGMENT
??_C@_1BC@NFJDDCHJ@?$AAL?$AAe?$AAn?$AAg?$AAt?$AAh?$AA?5?$AA1?$AA?$AA@ DB 'L'
	DB	00H, 'e', 00H, 'n', 00H, 'g', 00H, 't', 00H, 'h', 00H, ' ', 00H
	DB	'1', 00H, 00H, 00H				; `string'
CONST	ENDS
;	COMDAT ??_C@_1O@IONIPGKG@?$AAL?$AAe?$AAn?$AAg?$AAt?$AAh?$AA?$AA@
CONST	SEGMENT
??_C@_1O@IONIPGKG@?$AAL?$AAe?$AAn?$AAg?$AAt?$AAh?$AA?$AA@ DB 'L', 00H, 'e'
	DB	00H, 'n', 00H, 'g', 00H, 't', 00H, 'h', 00H, 00H, 00H ; `string'
CONST	ENDS
;	COMDAT ?note_code@?1??calc_note@MusicTrack@@QAEDPAVMMLfile@@H@Z@4QBDB
CONST	SEGMENT
?note_code@?1??calc_note@MusicTrack@@QAEDPAVMMLfile@@H@Z@4QBDB DB 00H ; `MusicTrack::calc_note'::`2'::note_code
	DB	02H
	DB	04H
	DB	05H
	DB	07H
	DB	09H
	DB	0bH
CONST	ENDS
;	COMDAT ??_C@_1EE@FMLCMNNO@?$AAE?$AAC0?$LD0?$NO0?s0?I0n?$HL?0?$PP?$BB0?Q0?i0?a0?$PM0?$LP0o?$AA0?$PP?$FO?$AA2?$AA5?$AA5@
CONST	SEGMENT
??_C@_1EE@FMLCMNNO@?$AAE?$AAC0?$LD0?$NO0?s0?I0n?$HL?0?$PP?$BB0?Q0?i0?a0?$PM0?$LP0o?$AA0?$PP?$FO?$AA2?$AA5?$AA5@ DB 'E'
	DB	00H, 'C', 00H, 0b3H, '0', 0deH, '0', 0f3H, '0', 0c9H, '0n0,{', 011H
	DB	0ffH, 0d1H, '0', 0e9H, '0', 0e1H, '0', 0fcH, '0', 0bfH, '0o00', 00H
	DB	'^', 0ffH, '2', 00H, '5', 00H, '5', 00H, 'n0', 0c4H, '{', 0f2H
	DB	'Vg0', 07H, 'c', 09aH, '[W0f0O0`0U0D0', 02H, '0', 00H, 00H ; `string'
CONST	ENDS
;	COMDAT ??_C@_1EA@ECJHFDDN@?$AAE?$AAC?$AA?50?$LD0?$NO0?s0?I0n0?Q0?i0?a0?$PM0?$LP0L?$IN?$LD0?$IK0?$HO0?$FL0?$JD0?$AC@
CONST	SEGMENT
??_C@_1EA@ECJHFDDN@?$AAE?$AAC?$AA?50?$LD0?$NO0?s0?I0n0?Q0?i0?a0?$PM0?$LP0L?$IN?$LD0?$IK0?$HO0?$FL0?$JD0?$AC@ DB 'E'
	DB	00H, 'C', 00H, ' ', 00H, 0b3H, '0', 0deH, '0', 0f3H, '0', 0c9H
	DB	'0n0', 0d1H, '0', 0e9H, '0', 0e1H, '0', 0fcH, '0', 0bfH, '0L0', 0b3H
	DB	08dH, 08aH, '0~0[0', 093H, '0', 02H, '0', 012H, 0ffH, 'd0', 07H
	DB	'c', 09aH, '[W0f0O0`0U0D0', 02H, '0', 00H, 00H ; `string'
CONST	ENDS
;	COMDAT ??_C@_1EE@OOLANPID@?$AAE?$AAC0?$LD0?$NO0?s0?I0n?$HL?0?$PP?$BC0?Q0?i0?a0?$PM0?$LP0o?$AA?9?$AA1?$PP?$FO?$AA1?$AA5@
CONST	SEGMENT
??_C@_1EE@OOLANPID@?$AAE?$AAC0?$LD0?$NO0?s0?I0n?$HL?0?$PP?$BC0?Q0?i0?a0?$PM0?$LP0o?$AA?9?$AA1?$PP?$FO?$AA1?$AA5@ DB 'E'
	DB	00H, 'C', 00H, 0b3H, '0', 0deH, '0', 0f3H, '0', 0c9H, '0n0,{', 012H
	DB	0ffH, 0d1H, '0', 0e9H, '0', 0e1H, '0', 0fcH, '0', 0bfH, '0o0-', 00H
	DB	'1', 00H, '^', 0ffH, '1', 00H, '5', 00H, 'n0', 0c4H, '{', 0f2H
	DB	'Vg0', 07H, 'c', 09aH, '[W0f0O0`0U0D0', 02H, '0', 00H, 00H ; `string'
CONST	ENDS
;	COMDAT ??_C@_1DK@PHOKHOEC@?$JH?sz?$AL0n?$HL?DV?r0L0?N0?$PM0?H0?J0?s0?P0?$PM?$AA0?$PP?$FO?$AA2?$AA5?$AA50n?$HL?D@
CONST	SEGMENT
??_C@_1DK@PHOKHOEC@?$JH?sz?$AL0n?$HL?DV?r0L0?N0?$PM0?H0?J0?s0?P0?$PM?$AA0?$PP?$FO?$AA2?$AA5?$AA50n?$HL?D@ DB 0f3H
	DB	097H, 0bH, 'zn0', 0c4H, '{', 0f2H, 'VL0', 0ceH, '0', 0fcH, '0', 0c8H
	DB	'0', 0caH, '0', 0f3H, '0', 0d0H, '0', 0fcH, '00', 00H, '^', 0ffH
	DB	'2', 00H, '5', 00H, '5', 00H, 'n0', 0c4H, '{', 0f2H, 'V', 092H
	DB	'0', 085H, 08dH, 'H0~0W0_0', 02H, '0', 00H, 00H ; `string'
CONST	ENDS
;	COMDAT ??_C@_1BI@EPMKAKFB@?$AAE?$AAc?$AAh?$AAo?$AA?5?$AAV?$AAo?$AAl?$AAu?$AAm?$AAe?$AA?$AA@
CONST	SEGMENT
??_C@_1BI@EPMKAKFB@?$AAE?$AAc?$AAh?$AAo?$AA?5?$AAV?$AAo?$AAl?$AAu?$AAm?$AAe?$AA?$AA@ DB 'E'
	DB	00H, 'c', 00H, 'h', 00H, 'o', 00H, ' ', 00H, 'V', 00H, 'o', 00H
	DB	'l', 00H, 'u', 00H, 'm', 00H, 'e', 00H, 00H, 00H ; `string'
CONST	ENDS
;	COMDAT ??_C@_1CK@JCJILIHF@?$AAO?$AAn?$AAe?$AA?5?$AAt?$AAi?$AAm?$AAe?$AA?5?$AAo?$AAc?$AAt?$AAa?$AAv?$AAe?$AA?5?$AAd?$AAo?$AAw?$AAn@
CONST	SEGMENT
??_C@_1CK@JCJILIHF@?$AAO?$AAn?$AAe?$AA?5?$AAt?$AAi?$AAm?$AAe?$AA?5?$AAo?$AAc?$AAt?$AAa?$AAv?$AAe?$AA?5?$AAd?$AAo?$AAw?$AAn@ DB 'O'
	DB	00H, 'n', 00H, 'e', 00H, ' ', 00H, 't', 00H, 'i', 00H, 'm', 00H
	DB	'e', 00H, ' ', 00H, 'o', 00H, 'c', 00H, 't', 00H, 'a', 00H, 'v'
	DB	00H, 'e', 00H, ' ', 00H, 'd', 00H, 'o', 00H, 'w', 00H, 'n', 00H
	DB	00H, 00H					; `string'
CONST	ENDS
;	COMDAT ??_C@_1CG@IKGHOBJA@?$AAO?$AAn?$AAe?$AA?5?$AAt?$AAi?$AAm?$AAe?$AA?5?$AAo?$AAc?$AAt?$AAa?$AAv?$AAe?$AA?5?$AAu?$AAp?$AA?$AA@
CONST	SEGMENT
??_C@_1CG@IKGHOBJA@?$AAO?$AAn?$AAe?$AA?5?$AAt?$AAi?$AAm?$AAe?$AA?5?$AAo?$AAc?$AAt?$AAa?$AAv?$AAe?$AA?5?$AAu?$AAp?$AA?$AA@ DB 'O'
	DB	00H, 'n', 00H, 'e', 00H, ' ', 00H, 't', 00H, 'i', 00H, 'm', 00H
	DB	'e', 00H, ' ', 00H, 'o', 00H, 'c', 00H, 't', 00H, 'a', 00H, 'v'
	DB	00H, 'e', 00H, ' ', 00H, 'u', 00H, 'p', 00H, 00H, 00H ; `string'
CONST	ENDS
;	COMDAT ??_C@_1BE@HOMMDOEE@?$AAE?$AAc?$AAh?$AAo?$AA?5?$AAN?$AAo?$AAt?$AAe?$AA?$AA@
CONST	SEGMENT
??_C@_1BE@HOMMDOEE@?$AAE?$AAc?$AAh?$AAo?$AA?5?$AAN?$AAo?$AAt?$AAe?$AA?$AA@ DB 'E'
	DB	00H, 'c', 00H, 'h', 00H, 'o', 00H, ' ', 00H, 'N', 00H, 'o', 00H
	DB	't', 00H, 'e', 00H, 00H, 00H			; `string'
CONST	ENDS
;	COMDAT ??_C@_1O@DMLCJFNF@?$AAV?$AAo?$AAl?$AAu?$AAm?$AAe?$AA?$AA@
CONST	SEGMENT
??_C@_1O@DMLCJFNF@?$AAV?$AAo?$AAl?$AAu?$AAm?$AAe?$AA?$AA@ DB 'V', 00H, 'o'
	DB	00H, 'l', 00H, 'u', 00H, 'm', 00H, 'e', 00H, 00H, 00H ; `string'
CONST	ENDS
;	COMDAT ??_C@_19JIGFKGL@?$AAN?$AAo?$AAt?$AAe?$AA?$AA@
CONST	SEGMENT
??_C@_19JIGFKGL@?$AAN?$AAo?$AAt?$AAe?$AA?$AA@ DB 'N', 00H, 'o', 00H, 't', 00H
	DB	'e', 00H, 00H, 00H				; `string'
CONST	ENDS
;	COMDAT ??_C@_1GG@HBOGPEMM@?$AAM?$AAu?$AAs?$AAi?$AAc?$AAT?$AAr?$AAa?$AAc?$AAk?$AA?3?$AA?3?$AAS?$AAe?$AAt?$AAR?$AAe?$AAs?$AAt?$AA?$CI@
CONST	SEGMENT
??_C@_1GG@HBOGPEMM@?$AAM?$AAu?$AAs?$AAi?$AAc?$AAT?$AAr?$AAa?$AAc?$AAk?$AA?3?$AA?3?$AAS?$AAe?$AAt?$AAR?$AAe?$AAs?$AAt?$AA?$CI@ DB 'M'
	DB	00H, 'u', 00H, 's', 00H, 'i', 00H, 'c', 00H, 'T', 00H, 'r', 00H
	DB	'a', 00H, 'c', 00H, 'k', 00H, ':', 00H, ':', 00H, 'S', 00H, 'e'
	DB	00H, 't', 00H, 'R', 00H, 'e', 00H, 's', 00H, 't', 00H, '(', 00H
	DB	')', 00H, 0a2H, 095H, 'pe', 085H, 'Qg0', 01H, '0#', 00H, 'w', 00H
	DB	'a', 00H, 'i', 00H, 't', 00H, 0b3H, '0', 0deH, '0', 0f3H, '0', 0c9H
	DB	'0n0m', 00H, 'o', 00H, 'd', 00H, 'e', 00H, 'n0$PL0*g', 0e5H, 'w'
	DB	'n0$Pg0Y0', 02H, '0', 00H, 00H		; `string'
CONST	ENDS
;	COMDAT ??_C@_1GG@IPLHPKBL@?$AAM?$AAu?$AAs?$AAi?$AAc?$AAT?$AAr?$AAa?$AAc?$AAk?$AA?3?$AA?3?$AAS?$AAe?$AAt?$AAR?$AAe?$AAs?$AAt?$AA?$CI@
CONST	SEGMENT
??_C@_1GG@IPLHPKBL@?$AAM?$AAu?$AAs?$AAi?$AAc?$AAT?$AAr?$AAa?$AAc?$AAk?$AA?3?$AA?3?$AAS?$AAe?$AAt?$AAR?$AAe?$AAs?$AAt?$AA?$CI@ DB 'M'
	DB	00H, 'u', 00H, 's', 00H, 'i', 00H, 'c', 00H, 'T', 00H, 'r', 00H
	DB	'a', 00H, 'c', 00H, 'k', 00H, ':', 00H, ':', 00H, 'S', 00H, 'e'
	DB	00H, 't', 00H, 'R', 00H, 'e', 00H, 's', 00H, 't', 00H, '(', 00H
	DB	')', 00H, 0a2H, 095H, 'pe', 085H, 'Qg0', 01H, '0#', 00H, 'r', 00H
	DB	'e', 00H, 's', 00H, 't', 00H, 0b3H, '0', 0deH, '0', 0f3H, '0', 0c9H
	DB	'0n0m', 00H, 'o', 00H, 'd', 00H, 'e', 00H, 'n0$PL0*g', 0e5H, 'w'
	DB	'n0$Pg0Y0', 02H, '0', 00H, 00H		; `string'
CONST	ENDS
;	COMDAT ??_C@_19FAHECHIH@?$AAR?$AAe?$AAs?$AAt?$AA?$AA@
CONST	SEGMENT
??_C@_19FAHECHIH@?$AAR?$AAe?$AAs?$AAt?$AA?$AA@ DB 'R', 00H, 'e', 00H, 's', 00H
	DB	't', 00H, 00H, 00H				; `string'
CONST	ENDS
;	COMDAT ??_C@_1CK@DKBDHLKE@?$AAa?$AA?0?$AAb?$AA?0?$AAc?$PP?$FO?$AAg0n?$JH?sT?$AN0?$JC?$IK?$BI?$IP?p0W0f0O0?$GA0U0D0?$AC@
CONST	SEGMENT
??_C@_1CK@DKBDHLKE@?$AAa?$AA?0?$AAb?$AA?0?$AAc?$PP?$FO?$AAg0n?$JH?sT?$AN0?$JC?$IK?$BI?$IP?p0W0f0O0?$GA0U0D0?$AC@ DB 'a'
	DB	00H, ',', 00H, 'b', 00H, ',', 00H, 'c', 00H, '^', 0ffH, 'g', 00H
	DB	'n0', 0f3H, 097H, 0dH, 'T', 092H, '0', 018H, 08aH, 0f0H, 08fH, 'W'
	DB	'0f0O0`0U0D0', 02H, '0', 00H, 00H		; `string'
CONST	ENDS
;	COMDAT ??_C@_1CM@GGEMPKPF@0?$NN0?k0?$LP0?a0?s0?H0?$LD0?$NO0?s0?I0o0?$AB?$AA?$HN0g?$JF?$IJ0X0fN?$AL0U0D@
CONST	SEGMENT
??_C@_1CM@GGEMPKPF@0?$NN0?k0?$LP0?a0?s0?H0?$LD0?$NO0?s0?I0o0?$AB?$AA?$HN0g?$JF?$IJ0X0fN?$AL0U0D@ DB 0ddH
	DB	'0', 0ebH, '0', 0bfH, '0', 0e1H, '0', 0f3H, '0', 0c8H, '0', 0b3H
	DB	'0', 0deH, '0', 0f3H, '0', 0c9H, '0o0', 01H, '0}', 00H, 'g0', 089H
	DB	095H, 'X0f0', 0bH, 'NU0D0', 02H, '0', 00H, 00H ; `string'
CONST	ENDS
;	COMDAT ??_C@_1DK@BBKDBEBK@0?$NN0?k0?$LP0?a0?s0?H0?$LD0?$NO0?s0?I0g0?$AB?$JH?s?$JFw0L?$AA2?$HL?$IHb?$EA0k?$IK?$BI@
CONST	SEGMENT
??_C@_1DK@BBKDBEBK@0?$NN0?k0?$LP0?a0?s0?H0?$LD0?$NO0?s0?I0g0?$AB?$JH?s?$JFw0L?$AA2?$HL?$IHb?$EA0k?$IK?$BI@ DB 0ddH
	DB	'0', 0ebH, '0', 0bfH, '0', 0e1H, '0', 0f3H, '0', 0c8H, '0', 0b3H
	DB	'0', 0deH, '0', 0f3H, '0', 0c9H, '0g0', 01H, '0', 0f3H, 097H, 'w'
	DB	095H, 'L02', 00H, 087H, '{@bk0', 018H, 08aH, 0f0H, 08fH, 'U0', 08cH
	DB	'0f0D0~0Y0', 02H, '0', 00H, 00H		; `string'
CONST	ENDS
;	COMDAT ??_C@_1EC@HFJPNNCI@0?$NN0?k0?$LP0?a0?s0?H0?$LD0?$NO0?s0?I0g0?$AB0?$LC0?$PM0?H0?$LP0?$KE0?$OA0L?$AA2@
CONST	SEGMENT
??_C@_1EC@HFJPNNCI@0?$NN0?k0?$LP0?a0?s0?H0?$LD0?$NO0?s0?I0g0?$AB0?$LC0?$PM0?H0?$LP0?$KE0?$OA0L?$AA2@ DB 0ddH
	DB	'0', 0ebH, '0', 0bfH, '0', 0e1H, '0', 0f3H, '0', 0c8H, '0', 0b3H
	DB	'0', 0deH, '0', 0f3H, '0', 0c9H, '0g0', 01H, '0', 0b2H, '0', 0fcH
	DB	'0', 0c8H, '0', 0bfH, '0', 0a4H, '0', 0e0H, '0L02', 00H, 087H, '{'
	DB	'@bk0', 018H, 08aH, 0f0H, 08fH, 'U0', 08cH, '0f0D0~0Y0', 02H, '0'
	DB	00H, 00H					; `string'
CONST	ENDS
;	COMDAT ??_C@_1BG@GGJHBHG@?$AAP?$AAo?$AAr?$AAt?$AAa?$AAm?$AAe?$AAn?$AAt?$AAo?$AA?$AA@
CONST	SEGMENT
??_C@_1BG@GGJHBHG@?$AAP?$AAo?$AAr?$AAt?$AAa?$AAm?$AAe?$AAn?$AAt?$AAo?$AA?$AA@ DB 'P'
	DB	00H, 'o', 00H, 'r', 00H, 't', 00H, 'a', 00H, 'm', 00H, 'e', 00H
	DB	'n', 00H, 't', 00H, 'o', 00H, 00H, 00H	; `string'
CONST	ENDS
;	COMDAT ??_C@_1EE@PLBKOKJL@0?$NN0?k0?$LP0?a0?s0?H0n?$HL?0?$AA10?Q0?i0?a0?$PM0?$LP0o?$AA0?$PP?$FO?$AA2?$AA5?$AA5@
CONST	SEGMENT
??_C@_1EE@PLBKOKJL@0?$NN0?k0?$LP0?a0?s0?H0n?$HL?0?$AA10?Q0?i0?a0?$PM0?$LP0o?$AA0?$PP?$FO?$AA2?$AA5?$AA5@ DB 0ddH
	DB	'0', 0ebH, '0', 0bfH, '0', 0e1H, '0', 0f3H, '0', 0c8H, '0n0,{1'
	DB	00H, 0d1H, '0', 0e9H, '0', 0e1H, '0', 0fcH, '0', 0bfH, '0o00', 00H
	DB	'^', 0ffH, '2', 00H, '5', 00H, '5', 00H, 'n0', 0c4H, '{', 0f2H
	DB	'Vg0', 07H, 'c', 09aH, '[W0f0O0`0U0D0', 02H, '0', 00H, 00H ; `string'
CONST	ENDS
;	COMDAT ??_C@_1DO@OLCBIOJB@?$AAP?$AA?50?$LD0?$NO0?s0?I0n0?Q0?i0?a0?$PM0?$LP0L?$IN?$LD0?$IK0?$HO0?$FL0?$JD0?$AC?$PP?$BE@
CONST	SEGMENT
??_C@_1DO@OLCBIOJB@?$AAP?$AA?50?$LD0?$NO0?s0?I0n0?Q0?i0?a0?$PM0?$LP0L?$IN?$LD0?$IK0?$HO0?$FL0?$JD0?$AC?$PP?$BE@ DB 'P'
	DB	00H, ' ', 00H, 0b3H, '0', 0deH, '0', 0f3H, '0', 0c9H, '0n0', 0d1H
	DB	'0', 0e9H, '0', 0e1H, '0', 0fcH, '0', 0bfH, '0L0', 0b3H, 08dH, 08aH
	DB	'0~0[0', 093H, '0', 02H, '0', 014H, 0ffH, 'd0', 07H, 'c', 09aH
	DB	'[W0f0O0`0U0D0', 02H, '0', 00H, 00H		; `string'
CONST	ENDS
;	COMDAT ??_C@_1EE@IIGGDGHG@0?$NN0?k0?$LP0?a0?s0?H0n?$HL?0?$AA20?Q0?i0?a0?$PM0?$LP0o?$AA1?$PP?$FO?$AA2?$AA5?$AA6@
CONST	SEGMENT
??_C@_1EE@IIGGDGHG@0?$NN0?k0?$LP0?a0?s0?H0n?$HL?0?$AA20?Q0?i0?a0?$PM0?$LP0o?$AA1?$PP?$FO?$AA2?$AA5?$AA6@ DB 0ddH
	DB	'0', 0ebH, '0', 0bfH, '0', 0e1H, '0', 0f3H, '0', 0c8H, '0n0,{2'
	DB	00H, 0d1H, '0', 0e9H, '0', 0e1H, '0', 0fcH, '0', 0bfH, '0o01', 00H
	DB	'^', 0ffH, '2', 00H, '5', 00H, '6', 00H, 'n0', 0c4H, '{', 0f2H
	DB	'Vg0', 07H, 'c', 09aH, '[W0f0O0`0U0D0', 02H, '0', 00H, 00H ; `string'
CONST	ENDS
;	COMDAT ??_C@_1EK@HIFALIIE@0?$NN0?k0?$LP0?a0?s0?H0n?$HL?0?$AA30?Q0?i0?a0?$PM0?$LP0o?$AA?9?$AA1?$AA2?$AA8?$PP?$FO@
CONST	SEGMENT
??_C@_1EK@HIFALIIE@0?$NN0?k0?$LP0?a0?s0?H0n?$HL?0?$AA30?Q0?i0?a0?$PM0?$LP0o?$AA?9?$AA1?$AA2?$AA8?$PP?$FO@ DB 0ddH
	DB	'0', 0ebH, '0', 0bfH, '0', 0e1H, '0', 0f3H, '0', 0c8H, '0n0,{3'
	DB	00H, 0d1H, '0', 0e9H, '0', 0e1H, '0', 0fcH, '0', 0bfH, '0o0-', 00H
	DB	'1', 00H, '2', 00H, '8', 00H, '^', 0ffH, '1', 00H, '2', 00H, '7'
	DB	00H, 'n0', 0c4H, '{', 0f2H, 'Vg0', 07H, 'c', 09aH, '[W0f0O0`0U'
	DB	'0D0', 02H, '0', 00H, 00H			; `string'
CONST	ENDS
;	COMDAT ??_C@_1EK@FHHEJADM@0?$NN0?k0?$LP0?a0?s0?H0n?$HL?0?$AA40?Q0?i0?a0?$PM0?$LP0o?$AA?9?$AA1?$AA2?$AA8?$PP?$FO@
CONST	SEGMENT
??_C@_1EK@FHHEJADM@0?$NN0?k0?$LP0?a0?s0?H0n?$HL?0?$AA40?Q0?i0?a0?$PM0?$LP0o?$AA?9?$AA1?$AA2?$AA8?$PP?$FO@ DB 0ddH
	DB	'0', 0ebH, '0', 0bfH, '0', 0e1H, '0', 0f3H, '0', 0c8H, '0n0,{4'
	DB	00H, 0d1H, '0', 0e9H, '0', 0e1H, '0', 0fcH, '0', 0bfH, '0o0-', 00H
	DB	'1', 00H, '2', 00H, '8', 00H, '^', 0ffH, '1', 00H, '2', 00H, '7'
	DB	00H, 'n0', 0c4H, '{', 0f2H, 'Vg0', 07H, 'c', 09aH, '[W0f0O0`0U'
	DB	'0D0', 02H, '0', 00H, 00H			; `string'
CONST	ENDS
;	COMDAT ??_C@_1DI@EBCJNIGK@0?$KN0?$PM0?$LH0?U0?H0o?$AA?9?$AA1?$AA2?$AA7?$PP?$FO?$AA1?$AA2?$AA80n?$HL?DV?r0gc?$AH?$FL?$JK@
CONST	SEGMENT
??_C@_1DI@EBCJNIGK@0?$KN0?$PM0?$LH0?U0?H0o?$AA?9?$AA1?$AA2?$AA7?$PP?$FO?$AA1?$AA2?$AA80n?$HL?DV?r0gc?$AH?$FL?$JK@ DB 0adH
	DB	'0', 0fcH, '0', 0b7H, '0', 0d5H, '0', 0c8H, '0o0-', 00H, '1', 00H
	DB	'2', 00H, '7', 00H, '^', 0ffH, '1', 00H, '2', 00H, '8', 00H, 'n'
	DB	'0', 0c4H, '{', 0f2H, 'Vg0', 07H, 'c', 09aH, '[W0f0O0`0U0D0', 02H
	DB	'0', 00H, 00H				; `string'
CONST	ENDS
;	COMDAT ??_C@_1DC@IEPABAMO@0?$KN0?$PM0?$LH0?U0?H0n?$HL?DV?r0L?$AA?9?$AA1?$AA2?$AA7?$PP?$FO?$AA1?$AA2?$AA80?$JC?$IN?$IF0H@
CONST	SEGMENT
??_C@_1DC@IEPABAMO@0?$KN0?$PM0?$LH0?U0?H0n?$HL?DV?r0L?$AA?9?$AA1?$AA2?$AA7?$PP?$FO?$AA1?$AA2?$AA80?$JC?$IN?$IF0H@ DB 0adH
	DB	'0', 0fcH, '0', 0b7H, '0', 0d5H, '0', 0c8H, '0n0', 0c4H, '{', 0f2H
	DB	'VL0-', 00H, '1', 00H, '2', 00H, '7', 00H, '^', 0ffH, '1', 00H
	DB	'2', 00H, '8', 00H, 092H, '0', 085H, 08dH, 'H0~0W0_0', 02H, '0'
	DB	00H, 00H					; `string'
CONST	ENDS
;	COMDAT ??_C@_1BE@FKDCKBLJ@?$AAT?$AAr?$AAa?$AAn?$AAs?$AAp?$AAo?$AAs?$AAe?$AA?$AA@
CONST	SEGMENT
??_C@_1BE@FKDCKBLJ@?$AAT?$AAr?$AAa?$AAn?$AAs?$AAp?$AAo?$AAs?$AAe?$AA?$AA@ DB 'T'
	DB	00H, 'r', 00H, 'a', 00H, 'n', 00H, 's', 00H, 'p', 00H, 'o', 00H
	DB	's', 00H, 'e', 00H, 00H, 00H			; `string'
CONST	ENDS
;	COMDAT ??_C@_1CG@MDOKKNHL@?$AAR?$AAe?$AAl?$AAa?$AAt?$AAi?$AAv?$AAe?$AA?5?$AAT?$AAr?$AAa?$AAn?$AAs?$AAp?$AAo?$AAs?$AAe?$AA?$AA@
CONST	SEGMENT
??_C@_1CG@MDOKKNHL@?$AAR?$AAe?$AAl?$AAa?$AAt?$AAi?$AAv?$AAe?$AA?5?$AAT?$AAr?$AAa?$AAn?$AAs?$AAp?$AAo?$AAs?$AAe?$AA?$AA@ DB 'R'
	DB	00H, 'e', 00H, 'l', 00H, 'a', 00H, 't', 00H, 'i', 00H, 'v', 00H
	DB	'e', 00H, ' ', 00H, 'T', 00H, 'r', 00H, 'a', 00H, 'n', 00H, 's'
	DB	00H, 'p', 00H, 'o', 00H, 's', 00H, 'e', 00H, 00H, 00H ; `string'
CONST	ENDS
;	COMDAT ??_C@_1O@FEMFBHON@?$AAO?$AAc?$AAt?$AAa?$AAv?$AAe?$AA?$AA@
CONST	SEGMENT
??_C@_1O@FEMFBHON@?$AAO?$AAc?$AAt?$AAa?$AAv?$AAe?$AA?$AA@ DB 'O', 00H, 'c'
	DB	00H, 't', 00H, 'a', 00H, 'v', 00H, 'e', 00H, 00H, 00H ; `string'
CONST	ENDS
;	COMDAT ??_C@_1CO@KKLECMEI@0?$KK0?$KP0?$LP0?$PM0?V0o?$AA1?$PP?$FO?$AA80n?$HL?DV?r0gc?$AH?$FL?$JK0W0f0O0?$GA0U@
CONST	SEGMENT
??_C@_1CO@KKLECMEI@0?$KK0?$KP0?$LP0?$PM0?V0o?$AA1?$PP?$FO?$AA80n?$HL?DV?r0gc?$AH?$FL?$JK0W0f0O0?$GA0U@ DB 0aaH
	DB	'0', 0afH, '0', 0bfH, '0', 0fcH, '0', 0d6H, '0o01', 00H, '^', 0ffH
	DB	'8', 00H, 'n0', 0c4H, '{', 0f2H, 'Vg0', 07H, 'c', 09aH, '[W0f0'
	DB	'O0`0U0D0', 02H, '0', 00H, 00H		; `string'
CONST	ENDS
;	COMDAT ??_C@_1BE@JMDGIABI@?$AAO?$AAc?$AAt?$AAa?$AAv?$AAe?$AA?5?$AAU?$AAp?$AA?$AA@
CONST	SEGMENT
??_C@_1BE@JMDGIABI@?$AAO?$AAc?$AAt?$AAa?$AAv?$AAe?$AA?5?$AAU?$AAp?$AA?$AA@ DB 'O'
	DB	00H, 'c', 00H, 't', 00H, 'a', 00H, 'v', 00H, 'e', 00H, ' ', 00H
	DB	'U', 00H, 'p', 00H, 00H, 00H			; `string'
CONST	ENDS
;	COMDAT ??_C@_1BI@KEBEFOPC@?$AAO?$AAc?$AAt?$AAa?$AAv?$AAe?$AA?5?$AAD?$AAo?$AAw?$AAn?$AA?$AA@
CONST	SEGMENT
??_C@_1BI@KEBEFOPC@?$AAO?$AAc?$AAt?$AAa?$AAv?$AAe?$AA?5?$AAD?$AAo?$AAw?$AAn?$AA?$AA@ DB 'O'
	DB	00H, 'c', 00H, 't', 00H, 'a', 00H, 'v', 00H, 'e', 00H, ' ', 00H
	DB	'D', 00H, 'o', 00H, 'w', 00H, 'n', 00H, 00H, 00H ; `string'
CONST	ENDS
;	COMDAT ??_C@_1BE@ILJOBKB@?$AAV?$AAo?$AAl?$AAu?$AAm?$AAe?$AA?5?$AAu?$AAp?$AA?$AA@
CONST	SEGMENT
??_C@_1BE@ILJOBKB@?$AAV?$AAo?$AAl?$AAu?$AAm?$AAe?$AA?5?$AAu?$AAp?$AA?$AA@ DB 'V'
	DB	00H, 'o', 00H, 'l', 00H, 'u', 00H, 'm', 00H, 'e', 00H, ' ', 00H
	DB	'u', 00H, 'p', 00H, 00H, 00H			; `string'
CONST	ENDS
;	COMDAT ??_C@_1BI@MGACCNCM@?$AAV?$AAo?$AAl?$AAu?$AAm?$AAe?$AA?5?$AAd?$AAo?$AAw?$AAn?$AA?$AA@
CONST	SEGMENT
??_C@_1BI@MGACCNCM@?$AAV?$AAo?$AAl?$AAu?$AAm?$AAe?$AA?5?$AAd?$AAo?$AAw?$AAn?$AA?$AA@ DB 'V'
	DB	00H, 'o', 00H, 'l', 00H, 'u', 00H, 'm', 00H, 'e', 00H, ' ', 00H
	DB	'd', 00H, 'o', 00H, 'w', 00H, 'n', 00H, 00H, 00H ; `string'
CONST	ENDS
;	COMDAT ??_C@_0BD@OLBABOEK@vector?$DMT?$DO?5too?5long?$AA@
CONST	SEGMENT
??_C@_0BD@OLBABOEK@vector?$DMT?$DO?5too?5long?$AA@ DB 'vector<T> too long'
	DB	00H						; `string'
CONST	ENDS
;	COMDAT ??_7MusicTrack@@6B@
CONST	SEGMENT
??_7MusicTrack@@6B@ DD FLAT:?getCode@MusicItem@@UAEXPAV?$basic_string@DU?$char_traits@D@std@@V?$allocator@D@2@@std@@@Z ; MusicTrack::`vftable'
	DD	FLAT:?setCode@MusicItem@@UAEXPAV?$basic_string@DU?$char_traits@D@std@@V?$allocator@D@2@@std@@@Z
	DD	FLAT:?getAsm@MusicItem@@UAEXPAVMusicFile@@@Z
; Function compile flags: /Ogsy
; File f:\nes\nsdl\src\nsc\musictrack.h
;	COMDAT ??0NSD_WORK@@QAE@XZ
_TEXT	SEGMENT
??0NSD_WORK@@QAE@XZ PROC NEAR				; NSD_WORK::NSD_WORK, COMDAT
; _this$ = eax

; 55   : 			NSD_WORK(void){};

  00000	c3		 ret	 0
??0NSD_WORK@@QAE@XZ ENDP				; NSD_WORK::NSD_WORK
; Function compile flags: /Ogsy
_TEXT	ENDS
;	COMDAT ??1NSD_WORK@@QAE@XZ
_TEXT	SEGMENT
??1NSD_WORK@@QAE@XZ PROC NEAR				; NSD_WORK::~NSD_WORK, COMDAT

; 56   : 			~NSD_WORK(void){};

  00000	c3		 ret	 0
??1NSD_WORK@@QAE@XZ ENDP				; NSD_WORK::~NSD_WORK
; Function compile flags: /Ogsy
_TEXT	ENDS
;	COMDAT ?init@NSD_WORK@@QAEXXZ
_TEXT	SEGMENT
?init@NSD_WORK@@QAEXXZ PROC NEAR			; NSD_WORK::init, COMDAT
; _this$ = eax

; 59   : 		//hCol
; 60   : 		gatemode		= -1;

  00000	83 c9 ff	 or	 ecx, -1

; 61   : 		length			= 24;
; 62   : 		gate_q			= 0;

  00003	33 d2		 xor	 edx, edx
  00005	89 08		 mov	 DWORD PTR [eax], ecx
  00007	c7 40 04 18 00
	00 00		 mov	 DWORD PTR [eax+4], 24	; 00000018H
  0000e	89 50 08	 mov	 DWORD PTR [eax+8], edx

; 63   : 		gate_u			= 0;

  00011	89 50 0c	 mov	 DWORD PTR [eax+12], edx

; 64   : 		octave			= 3;

  00014	c7 40 10 03 00
	00 00		 mov	 DWORD PTR [eax+16], 3

; 65   : 		octave1			= 0;

  0001b	89 50 14	 mov	 DWORD PTR [eax+20], edx

; 66   : 		detune_cent		= 0;

  0001e	89 50 18	 mov	 DWORD PTR [eax+24], edx

; 67   : 		detune_fine		= 0;

  00021	89 50 1c	 mov	 DWORD PTR [eax+28], edx

; 68   : 		trans			= 0;

  00024	89 50 20	 mov	 DWORD PTR [eax+32], edx

; 69   : 		voice			= -1;

  00027	89 48 24	 mov	 DWORD PTR [eax+36], ecx

; 70   : 		volume			= 15;

  0002a	c7 40 28 0f 00
	00 00		 mov	 DWORD PTR [eax+40], 15	; 0000000fH

; 71   : 		env_volume		= -1;

  00031	89 48 2c	 mov	 DWORD PTR [eax+44], ecx

; 72   : 		env_voice		= -1;

  00034	89 48 30	 mov	 DWORD PTR [eax+48], ecx

; 73   : 		env_frequency	= -1;

  00037	89 48 34	 mov	 DWORD PTR [eax+52], ecx

; 74   : 		env_note		= -1;

  0003a	89 48 38	 mov	 DWORD PTR [eax+56], ecx

; 75   : 		sweep			= -1;

  0003d	89 48 3c	 mov	 DWORD PTR [eax+60], ecx

; 76   : 		apu_tri_time	= -1;

  00040	89 48 40	 mov	 DWORD PTR [eax+64], ecx

; 77   : 		fds_frequency	= -1;

  00043	89 48 44	 mov	 DWORD PTR [eax+68], ecx

; 78   : 		fds_sweepbias	= -1;

  00046	89 48 48	 mov	 DWORD PTR [eax+72], ecx

; 79   : 		n163_num		= -1;

  00049	89 48 4c	 mov	 DWORD PTR [eax+76], ecx

; 80   : 		n163_frequency	= -1;

  0004c	89 48 50	 mov	 DWORD PTR [eax+80], ecx

; 81   : 		psg_switch		= -1;

  0004f	89 48 54	 mov	 DWORD PTR [eax+84], ecx

; 82   : 	}

  00052	c3		 ret	 0
?init@NSD_WORK@@QAEXXZ ENDP				; NSD_WORK::init
; Function compile flags: /Ogsy
_TEXT	ENDS
;	COMDAT ?Reset_opt@MusicTrack@@QAEXXZ
_TEXT	SEGMENT
?Reset_opt@MusicTrack@@QAEXXZ PROC NEAR			; MusicTrack::Reset_opt, COMDAT
; _this$ = eax

; 386  : 					opt_octave			= -1;

  00000	83 c9 ff	 or	 ecx, -1
  00003	89 88 c0 00 00
	00		 mov	 DWORD PTR [eax+192], ecx

; 387  : 					opt_volume			= -1;

  00009	89 88 bc 00 00
	00		 mov	 DWORD PTR [eax+188], ecx

; 388  : 					opt_gatetime_q		= -1;

  0000f	89 88 b4 00 00
	00		 mov	 DWORD PTR [eax+180], ecx

; 389  : 					opt_gatetime_u		= -1;

  00015	89 88 b8 00 00
	00		 mov	 DWORD PTR [eax+184], ecx

; 390  : 					opt_DefaultLength	= -1;

  0001b	89 88 a4 00 00
	00		 mov	 DWORD PTR [eax+164], ecx

; 391  : 					f_opt_Voi			= false;	//

  00021	32 c9		 xor	 cl, cl
  00023	88 88 f4 01 00
	00		 mov	 BYTE PTR [eax+500], cl

; 392  : 					f_opt_Evoi			= false;	//

  00029	88 88 f5 01 00
	00		 mov	 BYTE PTR [eax+501], cl

; 393  : 					f_opt_Evol			= false;	//

  0002f	88 88 f6 01 00
	00		 mov	 BYTE PTR [eax+502], cl

; 394  : 					f_opt_Em			= false;	//

  00035	88 88 f7 01 00
	00		 mov	 BYTE PTR [eax+503], cl

; 395  : 					f_opt_En			= false;	//

  0003b	88 88 f8 01 00
	00		 mov	 BYTE PTR [eax+504], cl

; 396  : 					f_opt_Key			= false;	//

  00041	88 88 f9 01 00
	00		 mov	 BYTE PTR [eax+505], cl

; 397  : 					f_opt_Sweep			= false;	//

  00047	88 88 fa 01 00
	00		 mov	 BYTE PTR [eax+506], cl

; 398  : 					f_opt_Sub			= false;	//

  0004d	88 88 fb 01 00
	00		 mov	 BYTE PTR [eax+507], cl

; 399  : 			//		if((echo_flag == true) && (echo_slur == false)){
; 400  : 			//			echo_vol_ret	= true;		//
; 401  : 			//		}
; 402  : 				}

  00053	c3		 ret	 0
?Reset_opt@MusicTrack@@QAEXXZ ENDP			; MusicTrack::Reset_opt
; Function compile flags: /Ogsy
_TEXT	ENDS
;	COMDAT ?set@NSD_WORK@@QAEXPAV1@@Z
_TEXT	SEGMENT
?set@NSD_WORK@@QAEXPAV1@@Z PROC NEAR			; NSD_WORK::set, COMDAT
; _this$ = ecx
; _work$ = eax

; 85   : 		gatemode		=	work->gatemode;

  00000	8b 10		 mov	 edx, DWORD PTR [eax]
  00002	89 11		 mov	 DWORD PTR [ecx], edx

; 86   : 		length			=	work->length;

  00004	8b 50 04	 mov	 edx, DWORD PTR [eax+4]
  00007	89 51 04	 mov	 DWORD PTR [ecx+4], edx

; 87   : 		gate_q			=	work->gate_q;

  0000a	8b 50 08	 mov	 edx, DWORD PTR [eax+8]
  0000d	89 51 08	 mov	 DWORD PTR [ecx+8], edx

; 88   : 		gate_u			=	work->gate_u;

  00010	8b 50 0c	 mov	 edx, DWORD PTR [eax+12]
  00013	89 51 0c	 mov	 DWORD PTR [ecx+12], edx

; 89   : 		octave			=	work->octave;

  00016	8b 50 10	 mov	 edx, DWORD PTR [eax+16]
  00019	89 51 10	 mov	 DWORD PTR [ecx+16], edx

; 90   : 		octave1			=	work->octave1;

  0001c	8b 50 14	 mov	 edx, DWORD PTR [eax+20]
  0001f	89 51 14	 mov	 DWORD PTR [ecx+20], edx

; 91   : 		detune_cent		=	work->detune_cent;

  00022	8b 50 18	 mov	 edx, DWORD PTR [eax+24]
  00025	89 51 18	 mov	 DWORD PTR [ecx+24], edx

; 92   : 		detune_fine		=	work->detune_fine;

  00028	8b 50 1c	 mov	 edx, DWORD PTR [eax+28]
  0002b	89 51 1c	 mov	 DWORD PTR [ecx+28], edx

; 93   : 		trans			=	work->trans;

  0002e	8b 50 20	 mov	 edx, DWORD PTR [eax+32]
  00031	89 51 20	 mov	 DWORD PTR [ecx+32], edx

; 94   : 		voice			=	work->voice;

  00034	8b 50 24	 mov	 edx, DWORD PTR [eax+36]
  00037	89 51 24	 mov	 DWORD PTR [ecx+36], edx

; 95   : 		volume			=	work->volume;

  0003a	8b 50 28	 mov	 edx, DWORD PTR [eax+40]
  0003d	89 51 28	 mov	 DWORD PTR [ecx+40], edx

; 96   : 		env_volume		=	work->env_volume;

  00040	8b 50 2c	 mov	 edx, DWORD PTR [eax+44]
  00043	89 51 2c	 mov	 DWORD PTR [ecx+44], edx

; 97   : 		env_voice		=	work->env_voice;

  00046	8b 50 30	 mov	 edx, DWORD PTR [eax+48]
  00049	89 51 30	 mov	 DWORD PTR [ecx+48], edx

; 98   : 		env_frequency	=	work->env_frequency;

  0004c	8b 50 34	 mov	 edx, DWORD PTR [eax+52]
  0004f	89 51 34	 mov	 DWORD PTR [ecx+52], edx

; 99   : 		env_note		=	work->env_note;

  00052	8b 50 38	 mov	 edx, DWORD PTR [eax+56]
  00055	89 51 38	 mov	 DWORD PTR [ecx+56], edx

; 100  : 		sweep			=	work->sweep;

  00058	8b 50 3c	 mov	 edx, DWORD PTR [eax+60]
  0005b	89 51 3c	 mov	 DWORD PTR [ecx+60], edx

; 101  : 		apu_tri_time	=	work->apu_tri_time;

  0005e	8b 50 40	 mov	 edx, DWORD PTR [eax+64]
  00061	89 51 40	 mov	 DWORD PTR [ecx+64], edx

; 102  : 		fds_frequency	=	work->fds_frequency;

  00064	8b 50 44	 mov	 edx, DWORD PTR [eax+68]
  00067	89 51 44	 mov	 DWORD PTR [ecx+68], edx

; 103  : 		fds_sweepbias	=	work->fds_sweepbias;

  0006a	8b 50 48	 mov	 edx, DWORD PTR [eax+72]
  0006d	89 51 48	 mov	 DWORD PTR [ecx+72], edx

; 104  : 		n163_num		=	work->n163_num;

  00070	8b 50 4c	 mov	 edx, DWORD PTR [eax+76]
  00073	89 51 4c	 mov	 DWORD PTR [ecx+76], edx

; 105  : 		n163_frequency	=	work->n163_frequency;

  00076	8b 50 50	 mov	 edx, DWORD PTR [eax+80]
  00079	89 51 50	 mov	 DWORD PTR [ecx+80], edx

; 106  : 		psg_switch		=	work->psg_switch;

  0007c	8b 40 54	 mov	 eax, DWORD PTR [eax+84]
  0007f	89 41 54	 mov	 DWORD PTR [ecx+84], eax

; 107  : 	}

  00082	c3		 ret	 0
?set@NSD_WORK@@QAEXPAV1@@Z ENDP				; NSD_WORK::set
; Function compile flags: /Ogsy
_TEXT	ENDS
;	COMDAT ?get@NSD_WORK@@QAEXPAV1@@Z
_TEXT	SEGMENT
?get@NSD_WORK@@QAEXPAV1@@Z PROC NEAR			; NSD_WORK::get, COMDAT
; _this$ = eax
; _work$ = ecx

; 109  : 	void	get(NSD_WORK* work){work->set(this);};

  00000	e9 00 00 00 00	 jmp	 ?set@NSD_WORK@@QAEXPAV1@@Z ; NSD_WORK::set
?get@NSD_WORK@@QAEXPAV1@@Z ENDP				; NSD_WORK::get
; Function compile flags: /Ogsy
; File f:\nes\nsdl\src\nsc\musicitem.h
_TEXT	ENDS
;	COMDAT ?setUse@MusicItem@@QAEXXZ
_TEXT	SEGMENT
?setUse@MusicItem@@QAEXXZ PROC NEAR			; MusicItem::setUse, COMDAT
; _this$ = eax

; 52   : 				void	setUse(void){f_Optimize = true;};	//KFs

  00000	c6 40 38 01	 mov	 BYTE PTR [eax+56], 1
  00004	c3		 ret	 0
?setUse@MusicItem@@QAEXXZ ENDP				; MusicItem::setUse
; Function compile flags: /Ogsy
; File f:\nes\nsdl\src\nsc\patch.h
_TEXT	ENDS
;	COMDAT ?get_sw_Evoi@Patch@@QAE_NXZ
_TEXT	SEGMENT
?get_sw_Evoi@Patch@@QAE_NXZ PROC NEAR			; Patch::get_sw_Evoi, COMDAT
; _this$ = eax

; 107  : 				bool	get_sw_Evoi(void){	return(m_now_Patch->sw_Evoi);};

  00000	8b 40 14	 mov	 eax, DWORD PTR [eax+20]
  00003	8a 40 33	 mov	 al, BYTE PTR [eax+51]
  00006	c3		 ret	 0
?get_sw_Evoi@Patch@@QAE_NXZ ENDP			; Patch::get_sw_Evoi
; Function compile flags: /Ogsy
; File c:\program files (x86)\microsoft visual studio .net 2003\vc7\include\xutility
_TEXT	ENDS
;	COMDAT ?_Ptr_cat@std@@YA?AU_Scalar_ptr_iterator_tag@1@PAH0@Z
_TEXT	SEGMENT
__Cat$ = -1						; size = 1
?_Ptr_cat@std@@YA?AU_Scalar_ptr_iterator_tag@1@PAH0@Z PROC NEAR ; std::_Ptr_cat, COMDAT

; 335  : 	{	// return pointer category from pointer to int arguments

  00000	51		 push	 ecx

; 336  : 	_Scalar_ptr_iterator_tag _Cat;
; 337  : 	return (_Cat);

  00001	8a 44 24 03	 mov	 al, BYTE PTR __Cat$[esp+4]

; 338  : 	}

  00005	59		 pop	 ecx
  00006	c3		 ret	 0
?_Ptr_cat@std@@YA?AU_Scalar_ptr_iterator_tag@1@PAH0@Z ENDP ; std::_Ptr_cat
; Function compile flags: /Ogsy
; File c:\program files (x86)\microsoft visual studio .net 2003\vc7\include\memory
_TEXT	ENDS
;	COMDAT ??$_Uninit_copy@PAVmml_Address@@PAV1@@std@@YAPAPAVmml_Address@@PAPAV1@00AAV?$allocator@PAVmml_Address@@@0@U_Scalar_ptr_iterator_tag@0@@Z
_TEXT	SEGMENT
__First$ = 8						; size = 4
__Dest$ = 12						; size = 4
___formal$ = 16						; size = 1
??$_Uninit_copy@PAVmml_Address@@PAV1@@std@@YAPAPAVmml_Address@@PAPAV1@00AAV?$allocator@PAVmml_Address@@@0@U_Scalar_ptr_iterator_tag@0@@Z PROC NEAR ; std::_Uninit_copy<mml_Address *,mml_Address *>, COMDAT
; __Last$ = eax

; 106  : 	size_t _Count = (size_t)(_Last - _First);

  00000	2b 44 24 04	 sub	 eax, DWORD PTR __First$[esp-4]
  00004	56		 push	 esi
  00005	c1 f8 02	 sar	 eax, 2

; 107  : 	return ((_Ty2 *)memmove(&*_Dest, &*_First,
; 108  : 		_Count * sizeof (*_First)) + _Count);	// NB: non-overlapping move

  00008	8b f0		 mov	 esi, eax
  0000a	c1 e6 02	 shl	 esi, 2
  0000d	56		 push	 esi
  0000e	ff 74 24 0c	 push	 DWORD PTR __First$[esp+4]
  00012	ff 74 24 14	 push	 DWORD PTR __Dest$[esp+8]
  00016	e8 00 00 00 00	 call	 _memmove
  0001b	83 c4 0c	 add	 esp, 12			; 0000000cH
  0001e	03 c6		 add	 eax, esi
  00020	5e		 pop	 esi

; 109  : 	}

  00021	c3		 ret	 0
??$_Uninit_copy@PAVmml_Address@@PAV1@@std@@YAPAPAVmml_Address@@PAPAV1@00AAV?$allocator@PAVmml_Address@@@0@U_Scalar_ptr_iterator_tag@0@@Z ENDP ; std::_Uninit_copy<mml_Address *,mml_Address *>
; Function compile flags: /Ogsy
_TEXT	ENDS
;	COMDAT ??$_Uninit_copy@HH@std@@YAPAHPAH00AAV?$allocator@H@0@U_Scalar_ptr_iterator_tag@0@@Z
_TEXT	SEGMENT
__First$ = 8						; size = 4
__Dest$ = 12						; size = 4
___formal$ = 16						; size = 1
??$_Uninit_copy@HH@std@@YAPAHPAH00AAV?$allocator@H@0@U_Scalar_ptr_iterator_tag@0@@Z PROC NEAR ; std::_Uninit_copy<int,int>, COMDAT
; __Last$ = eax

; 106  : 	size_t _Count = (size_t)(_Last - _First);

  00000	2b 44 24 04	 sub	 eax, DWORD PTR __First$[esp-4]
  00004	56		 push	 esi
  00005	c1 f8 02	 sar	 eax, 2

; 107  : 	return ((_Ty2 *)memmove(&*_Dest, &*_First,
; 108  : 		_Count * sizeof (*_First)) + _Count);	// NB: non-overlapping move

  00008	8b f0		 mov	 esi, eax
  0000a	c1 e6 02	 shl	 esi, 2
  0000d	56		 push	 esi
  0000e	ff 74 24 0c	 push	 DWORD PTR __First$[esp+4]
  00012	ff 74 24 14	 push	 DWORD PTR __Dest$[esp+8]
  00016	e8 00 00 00 00	 call	 _memmove
  0001b	83 c4 0c	 add	 esp, 12			; 0000000cH
  0001e	03 c6		 add	 eax, esi
  00020	5e		 pop	 esi

; 109  : 	}

  00021	c3		 ret	 0
??$_Uninit_copy@HH@std@@YAPAHPAH00AAV?$allocator@H@0@U_Scalar_ptr_iterator_tag@0@@Z ENDP ; std::_Uninit_copy<int,int>
; Function compile flags: /Ogsy
; File c:\program files (x86)\microsoft visual studio .net 2003\vc7\include\xutility
_TEXT	ENDS
;	COMDAT ??$fill_n@PAPAVmml_Address@@IPAV1@@std@@YAXPAPAVmml_Address@@IABQAV1@@Z
_TEXT	SEGMENT
__Val$ = 8						; size = 4
??$fill_n@PAPAVmml_Address@@IPAV1@@std@@YAXPAPAVmml_Address@@IABQAV1@@Z PROC NEAR ; std::fill_n<mml_Address * *,unsigned int,mml_Address *>, COMDAT
; __First$ = eax
; __Count$ = ecx

; 1160 : 	for (; 0 < _Count; --_Count, ++_First)

  00000	85 c9		 test	 ecx, ecx
  00002	76 0e		 jbe	 SHORT $L33267
$L33265:

; 1161 : 		*_First = _Val;

  00004	8b 54 24 04	 mov	 edx, DWORD PTR __Val$[esp-4]
  00008	8b 12		 mov	 edx, DWORD PTR [edx]
  0000a	89 10		 mov	 DWORD PTR [eax], edx
  0000c	83 c0 04	 add	 eax, 4
  0000f	49		 dec	 ecx
  00010	75 f2		 jne	 SHORT $L33265
$L33267:

; 1162 : 	}

  00012	c3		 ret	 0
??$fill_n@PAPAVmml_Address@@IPAV1@@std@@YAXPAPAVmml_Address@@IABQAV1@@Z ENDP ; std::fill_n<mml_Address * *,unsigned int,mml_Address *>
; Function compile flags: /Ogsy
_TEXT	ENDS
;	COMDAT ??$fill_n@PAHIH@std@@YAXPAHIABH@Z
_TEXT	SEGMENT
__Val$ = 8						; size = 4
??$fill_n@PAHIH@std@@YAXPAHIABH@Z PROC NEAR		; std::fill_n<int *,unsigned int,int>, COMDAT
; __First$ = eax
; __Count$ = ecx

; 1160 : 	for (; 0 < _Count; --_Count, ++_First)

  00000	85 c9		 test	 ecx, ecx
  00002	76 0e		 jbe	 SHORT $L33263
$L33261:

; 1161 : 		*_First = _Val;

  00004	8b 54 24 04	 mov	 edx, DWORD PTR __Val$[esp-4]
  00008	8b 12		 mov	 edx, DWORD PTR [edx]
  0000a	89 10		 mov	 DWORD PTR [eax], edx
  0000c	83 c0 04	 add	 eax, 4
  0000f	49		 dec	 ecx
  00010	75 f2		 jne	 SHORT $L33261
$L33263:

; 1162 : 	}

  00012	c3		 ret	 0
??$fill_n@PAHIH@std@@YAXPAHIABH@Z ENDP			; std::fill_n<int *,unsigned int,int>
; Function compile flags: /Ogsy
_TEXT	ENDS
;	COMDAT ??$_Copy_backward_opt@PAPAVmml_Address@@PAPAV1@@std@@YAPAPAVmml_Address@@PAPAV1@00U_Scalar_ptr_iterator_tag@0@@Z
_TEXT	SEGMENT
__First$ = 8						; size = 4
___formal$ = 12						; size = 1
??$_Copy_backward_opt@PAPAVmml_Address@@PAPAV1@@std@@YAPAPAVmml_Address@@PAPAV1@00U_Scalar_ptr_iterator_tag@0@@Z PROC NEAR ; std::_Copy_backward_opt<mml_Address * *,mml_Address * *>, COMDAT
; __Last$ = eax
; __Dest$ = ecx

; 1059 : 	ptrdiff_t _Off = _Last - _First;	// NB: non-overlapping move

  00000	2b 44 24 04	 sub	 eax, DWORD PTR __First$[esp-4]
  00004	c1 f8 02	 sar	 eax, 2

; 1060 : 	return ((_OutIt)memmove(&*_Dest - _Off, &*_First,
; 1061 : 		_Off * sizeof (*_First)));

  00007	c1 e0 02	 shl	 eax, 2
  0000a	50		 push	 eax
  0000b	ff 74 24 08	 push	 DWORD PTR __First$[esp]
  0000f	2b c8		 sub	 ecx, eax
  00011	51		 push	 ecx
  00012	e8 00 00 00 00	 call	 _memmove
  00017	83 c4 0c	 add	 esp, 12			; 0000000cH

; 1062 : 	}

  0001a	c3		 ret	 0
??$_Copy_backward_opt@PAPAVmml_Address@@PAPAV1@@std@@YAPAPAVmml_Address@@PAPAV1@00U_Scalar_ptr_iterator_tag@0@@Z ENDP ; std::_Copy_backward_opt<mml_Address * *,mml_Address * *>
; Function compile flags: /Ogsy
; File c:\program files (x86)\microsoft visual studio .net 2003\vc7\include\xmemory
_TEXT	ENDS
;	COMDAT ??$_Destroy_range@PAVmml_Address@@V?$allocator@PAVmml_Address@@@std@@@std@@YAXPAPAVmml_Address@@0AAV?$allocator@PAVmml_Address@@@0@U_Scalar_ptr_iterator_tag@0@@Z
_TEXT	SEGMENT
___formal$ = 8						; size = 1
??$_Destroy_range@PAVmml_Address@@V?$allocator@PAVmml_Address@@@std@@@std@@YAXPAPAVmml_Address@@0AAV?$allocator@PAVmml_Address@@@0@U_Scalar_ptr_iterator_tag@0@@Z PROC NEAR ; std::_Destroy_range<mml_Address *,std::allocator<mml_Address *> >, COMDAT

; 234  : 	}

  00000	c3		 ret	 0
??$_Destroy_range@PAVmml_Address@@V?$allocator@PAVmml_Address@@@std@@@std@@YAXPAPAVmml_Address@@0AAV?$allocator@PAVmml_Address@@@0@U_Scalar_ptr_iterator_tag@0@@Z ENDP ; std::_Destroy_range<mml_Address *,std::allocator<mml_Address *> >
; Function compile flags: /Ogsy
; File c:\program files (x86)\microsoft visual studio .net 2003\vc7\include\xutility
_TEXT	ENDS
;	COMDAT ??$_Copy_backward_opt@PAHPAH@std@@YAPAHPAH00U_Scalar_ptr_iterator_tag@0@@Z
_TEXT	SEGMENT
__First$ = 8						; size = 4
___formal$ = 12						; size = 1
??$_Copy_backward_opt@PAHPAH@std@@YAPAHPAH00U_Scalar_ptr_iterator_tag@0@@Z PROC NEAR ; std::_Copy_backward_opt<int *,int *>, COMDAT
; __Last$ = eax
; __Dest$ = ecx

; 1059 : 	ptrdiff_t _Off = _Last - _First;	// NB: non-overlapping move

  00000	2b 44 24 04	 sub	 eax, DWORD PTR __First$[esp-4]
  00004	c1 f8 02	 sar	 eax, 2

; 1060 : 	return ((_OutIt)memmove(&*_Dest - _Off, &*_First,
; 1061 : 		_Off * sizeof (*_First)));

  00007	c1 e0 02	 shl	 eax, 2
  0000a	50		 push	 eax
  0000b	ff 74 24 08	 push	 DWORD PTR __First$[esp]
  0000f	2b c8		 sub	 ecx, eax
  00011	51		 push	 ecx
  00012	e8 00 00 00 00	 call	 _memmove
  00017	83 c4 0c	 add	 esp, 12			; 0000000cH

; 1062 : 	}

  0001a	c3		 ret	 0
??$_Copy_backward_opt@PAHPAH@std@@YAPAHPAH00U_Scalar_ptr_iterator_tag@0@@Z ENDP ; std::_Copy_backward_opt<int *,int *>
; Function compile flags: /Ogsy
; File c:\program files (x86)\microsoft visual studio .net 2003\vc7\include\memory
_TEXT	ENDS
;	COMDAT ??$_Uninitialized_copy@PAHPAHV?$allocator@H@std@@@std@@YAPAHPAH00AAV?$allocator@H@0@@Z
_TEXT	SEGMENT
__Cat$37005 = -4					; size = 1
__First$ = 8						; size = 4
__Dest$ = 12						; size = 4
__Al$ = 16						; size = 4
??$_Uninitialized_copy@PAHPAHV?$allocator@H@std@@@std@@YAPAHPAH00AAV?$allocator@H@0@@Z PROC NEAR ; std::_Uninitialized_copy<int *,int *,std::allocator<int> >, COMDAT
; __Last$ = eax

; 126  : 	{	// copy [_First, _Last) to raw _Dest, using _Al

  00000	55		 push	 ebp
  00001	8b ec		 mov	 ebp, esp
  00003	51		 push	 ecx

; 127  : 	return (_Uninit_copy(_First, _Last, _Dest, _Al,
; 128  : 		_Ptr_cat(_First, _Dest)));

  00004	ff 75 fc	 push	 DWORD PTR __Cat$37005[ebp]
  00007	ff 75 0c	 push	 DWORD PTR __Dest$[ebp]
  0000a	ff 75 08	 push	 DWORD PTR __First$[ebp]
  0000d	e8 00 00 00 00	 call	 ??$_Uninit_copy@HH@std@@YAPAHPAH00AAV?$allocator@H@0@U_Scalar_ptr_iterator_tag@0@@Z ; std::_Uninit_copy<int,int>
  00012	83 c4 0c	 add	 esp, 12			; 0000000cH

; 129  : 	}

  00015	c9		 leave
  00016	c3		 ret	 0
??$_Uninitialized_copy@PAHPAHV?$allocator@H@std@@@std@@YAPAHPAH00AAV?$allocator@H@0@@Z ENDP ; std::_Uninitialized_copy<int *,int *,std::allocator<int> >
; Function compile flags: /Ogsy
_TEXT	ENDS
;	COMDAT ??$_Uninit_fill_n@PAVmml_Address@@IPAV1@@std@@YAXPAPAVmml_Address@@IABQAV1@AAV?$allocator@PAVmml_Address@@@0@U_Scalar_ptr_iterator_tag@0@@Z
_TEXT	SEGMENT
__Val$ = 8						; size = 4
___formal$ = 12						; size = 1
??$_Uninit_fill_n@PAVmml_Address@@IPAV1@@std@@YAXPAPAVmml_Address@@IABQAV1@AAV?$allocator@PAVmml_Address@@@0@U_Scalar_ptr_iterator_tag@0@@Z PROC NEAR ; std::_Uninit_fill_n<mml_Address *,unsigned int,mml_Address *>, COMDAT
; __First$ = eax
; __Count$ = ecx

; 237  : 	fill_n(_First, _Count, _Val);

  00000	85 c9		 test	 ecx, ecx
  00002	76 0e		 jbe	 SHORT $L37013
$L37011:
  00004	8b 54 24 04	 mov	 edx, DWORD PTR __Val$[esp-4]
  00008	8b 12		 mov	 edx, DWORD PTR [edx]
  0000a	89 10		 mov	 DWORD PTR [eax], edx
  0000c	83 c0 04	 add	 eax, 4
  0000f	49		 dec	 ecx
  00010	75 f2		 jne	 SHORT $L37011
$L37013:

; 238  : 	}

  00012	c3		 ret	 0
??$_Uninit_fill_n@PAVmml_Address@@IPAV1@@std@@YAXPAPAVmml_Address@@IABQAV1@AAV?$allocator@PAVmml_Address@@@0@U_Scalar_ptr_iterator_tag@0@@Z ENDP ; std::_Uninit_fill_n<mml_Address *,unsigned int,mml_Address *>
; Function compile flags: /Ogsy
; File c:\program files (x86)\microsoft visual studio .net 2003\vc7\include\xutility
_TEXT	ENDS
;	COMDAT ??$_Ptr_cat@Vmml_Address@@@std@@YA?AU_Scalar_ptr_iterator_tag@0@PAPAVmml_Address@@0@Z
_TEXT	SEGMENT
__Cat$ = -1						; size = 1
??$_Ptr_cat@Vmml_Address@@@std@@YA?AU_Scalar_ptr_iterator_tag@0@PAPAVmml_Address@@0@Z PROC NEAR ; std::_Ptr_cat<mml_Address>, COMDAT

; 218  : 	{	// return pointer category from pointer to pointer arguments

  00000	51		 push	 ecx

; 219  : 	_Scalar_ptr_iterator_tag _Cat;
; 220  : 	return (_Cat);

  00001	8a 44 24 03	 mov	 al, BYTE PTR __Cat$[esp+4]

; 221  : 	}

  00005	59		 pop	 ecx
  00006	c3		 ret	 0
??$_Ptr_cat@Vmml_Address@@@std@@YA?AU_Scalar_ptr_iterator_tag@0@PAPAVmml_Address@@0@Z ENDP ; std::_Ptr_cat<mml_Address>
; Function compile flags: /Ogsy
; File c:\program files (x86)\microsoft visual studio .net 2003\vc7\include\memory
_TEXT	ENDS
;	COMDAT ??$_Uninit_fill_n@HIH@std@@YAXPAHIABHAAV?$allocator@H@0@U_Scalar_ptr_iterator_tag@0@@Z
_TEXT	SEGMENT
__Val$ = 8						; size = 4
___formal$ = 12						; size = 1
??$_Uninit_fill_n@HIH@std@@YAXPAHIABHAAV?$allocator@H@0@U_Scalar_ptr_iterator_tag@0@@Z PROC NEAR ; std::_Uninit_fill_n<int,unsigned int,int>, COMDAT
; __First$ = eax
; __Count$ = ecx

; 237  : 	fill_n(_First, _Count, _Val);

  00000	85 c9		 test	 ecx, ecx
  00002	76 0e		 jbe	 SHORT $L37029
$L37027:
  00004	8b 54 24 04	 mov	 edx, DWORD PTR __Val$[esp-4]
  00008	8b 12		 mov	 edx, DWORD PTR [edx]
  0000a	89 10		 mov	 DWORD PTR [eax], edx
  0000c	83 c0 04	 add	 eax, 4
  0000f	49		 dec	 ecx
  00010	75 f2		 jne	 SHORT $L37027
$L37029:

; 238  : 	}

  00012	c3		 ret	 0
??$_Uninit_fill_n@HIH@std@@YAXPAHIABHAAV?$allocator@H@0@U_Scalar_ptr_iterator_tag@0@@Z ENDP ; std::_Uninit_fill_n<int,unsigned int,int>
; Function compile flags: /Ogsy
; File c:\program files (x86)\microsoft visual studio .net 2003\vc7\include\xmemory
_TEXT	ENDS
;	COMDAT ??$_Destroy_range@HV?$allocator@H@std@@@std@@YAXPAH0AAV?$allocator@H@0@U_Scalar_ptr_iterator_tag@0@@Z
_TEXT	SEGMENT
___formal$ = 8						; size = 1
??$_Destroy_range@HV?$allocator@H@std@@@std@@YAXPAH0AAV?$allocator@H@0@U_Scalar_ptr_iterator_tag@0@@Z PROC NEAR ; std::_Destroy_range<int,std::allocator<int> >, COMDAT

; 234  : 	}

  00000	c3		 ret	 0
??$_Destroy_range@HV?$allocator@H@std@@@std@@YAXPAH0AAV?$allocator@H@0@U_Scalar_ptr_iterator_tag@0@@Z ENDP ; std::_Destroy_range<int,std::allocator<int> >
; Function compile flags: /Ogsy
_TEXT	ENDS
;	COMDAT ??$_Allocate@U_Node@?$_Tree_nod@V?$_Tmap_traits@IPAVPatch@@U?$less@I@std@@V?$allocator@U?$pair@$$CBIPAVPatch@@@std@@@3@$0A@@std@@@std@@@std@@YAPAU_Node@?$_Tree_nod@V?$_Tmap_traits@IPAVPatch@@U?$less@I@std@@V?$allocator@U?$pair@$$CBIPAVPatch@@@std@@@3@$0A@@std@@@0@IPAU120@@Z
_TEXT	SEGMENT
??$_Allocate@U_Node@?$_Tree_nod@V?$_Tmap_traits@IPAVPatch@@U?$less@I@std@@V?$allocator@U?$pair@$$CBIPAVPatch@@@std@@@3@$0A@@std@@@std@@@std@@YAPAU_Node@?$_Tree_nod@V?$_Tmap_traits@IPAVPatch@@U?$less@I@std@@V?$allocator@U?$pair@$$CBIPAVPatch@@@std@@@3@$0A@@std@@@0@IPAU120@@Z PROC NEAR ; std::_Allocate<std::_Tree_nod<std::_Tmap_traits<unsigned int,Patch *,std::less<unsigned int>,std::allocator<std::pair<unsigned int const ,Patch *> >,0> >::_Node>, COMDAT
; __Count$ = eax

; 34   : 	return ((_Ty _FARQ *)operator new(_Count * sizeof (_Ty)));

  00000	8d 04 40	 lea	 eax, DWORD PTR [eax+eax*2]
  00003	c1 e0 03	 shl	 eax, 3
  00006	50		 push	 eax
  00007	e8 00 00 00 00	 call	 ??2@YAPAXI@Z		; operator new
  0000c	59		 pop	 ecx

; 35   : 	}

  0000d	c3		 ret	 0
??$_Allocate@U_Node@?$_Tree_nod@V?$_Tmap_traits@IPAVPatch@@U?$less@I@std@@V?$allocator@U?$pair@$$CBIPAVPatch@@@std@@@3@$0A@@std@@@std@@@std@@YAPAU_Node@?$_Tree_nod@V?$_Tmap_traits@IPAVPatch@@U?$less@I@std@@V?$allocator@U?$pair@$$CBIPAVPatch@@@std@@@3@$0A@@std@@@0@IPAU120@@Z ENDP ; std::_Allocate<std::_Tree_nod<std::_Tmap_traits<unsigned int,Patch *,std::less<unsigned int>,std::allocator<std::pair<unsigned int const ,Patch *> >,0> >::_Node>
; Function compile flags: /Ogsy
_TEXT	ENDS
;	COMDAT ??$?0Viterator@?$list@PAVMusicItem@@V?$allocator@PAVMusicItem@@@std@@@std@@@?$allocator@U_Node@?$_List_nod@Viterator@?$list@PAVMusicItem@@V?$allocator@PAVMusicItem@@@std@@@std@@V?$allocator@Viterator@?$list@PAVMusicItem@@V?$allocator@PAVMusicItem@@@std@@@std@@@3@@std@@@std@@QAE@ABV?$allocator@Viterator@?$list@PAVMusicItem@@V?$allocator@PAVMusicItem@@@std@@@std@@@1@@Z
_TEXT	SEGMENT
??$?0Viterator@?$list@PAVMusicItem@@V?$allocator@PAVMusicItem@@@std@@@std@@@?$allocator@U_Node@?$_List_nod@Viterator@?$list@PAVMusicItem@@V?$allocator@PAVMusicItem@@@std@@@std@@V?$allocator@Viterator@?$list@PAVMusicItem@@V?$allocator@PAVMusicItem@@@std@@@std@@@3@@std@@@std@@QAE@ABV?$allocator@Viterator@?$list@PAVMusicItem@@V?$allocator@PAVMusicItem@@@std@@@std@@@1@@Z PROC NEAR ; std::allocator<std::_List_nod<std::list<MusicItem *,std::allocator<MusicItem *> >::iterator,std::allocator<std::list<MusicItem *,std::allocator<MusicItem *> >::iterator> >::_Node>::allocator<std::_List_nod<std::list<MusicItem *,std::allocator<MusicItem *> >::iterator,std::allocator<std::list<MusicItem *,std::allocator<MusicItem *> >::iterator> >::_Node><std::list<MusicItem *,std::allocator<MusicItem *> >::iterator>, COMDAT
; _this$ = eax

; 121  : 		{	// construct from a related allocator (do nothing)
; 122  : 		}

  00000	c3		 ret	 0
??$?0Viterator@?$list@PAVMusicItem@@V?$allocator@PAVMusicItem@@@std@@@std@@@?$allocator@U_Node@?$_List_nod@Viterator@?$list@PAVMusicItem@@V?$allocator@PAVMusicItem@@@std@@@std@@V?$allocator@Viterator@?$list@PAVMusicItem@@V?$allocator@PAVMusicItem@@@std@@@std@@@3@@std@@@std@@QAE@ABV?$allocator@Viterator@?$list@PAVMusicItem@@V?$allocator@PAVMusicItem@@@std@@@std@@@1@@Z ENDP ; std::allocator<std::_List_nod<std::list<MusicItem *,std::allocator<MusicItem *> >::iterator,std::allocator<std::list<MusicItem *,std::allocator<MusicItem *> >::iterator> >::_Node>::allocator<std::_List_nod<std::list<MusicItem *,std::allocator<MusicItem *> >::iterator,std::allocator<std::list<MusicItem *,std::allocator<MusicItem *> >::iterator> >::_Node><std::list<MusicItem *,std::allocator<MusicItem *> >::iterator>
; Function compile flags: /Ogsy
_TEXT	ENDS
;	COMDAT ??$?0I@?$allocator@U_Node@?$_List_nod@IV?$allocator@I@std@@@std@@@std@@QAE@ABV?$allocator@I@1@@Z
_TEXT	SEGMENT
??$?0I@?$allocator@U_Node@?$_List_nod@IV?$allocator@I@std@@@std@@@std@@QAE@ABV?$allocator@I@1@@Z PROC NEAR ; std::allocator<std::_List_nod<unsigned int,std::allocator<unsigned int> >::_Node>::allocator<std::_List_nod<unsigned int,std::allocator<unsigned int> >::_Node><unsigned int>, COMDAT
; _this$ = eax

; 121  : 		{	// construct from a related allocator (do nothing)
; 122  : 		}

  00000	c3		 ret	 0
??$?0I@?$allocator@U_Node@?$_List_nod@IV?$allocator@I@std@@@std@@@std@@QAE@ABV?$allocator@I@1@@Z ENDP ; std::allocator<std::_List_nod<unsigned int,std::allocator<unsigned int> >::_Node>::allocator<std::_List_nod<unsigned int,std::allocator<unsigned int> >::_Node><unsigned int>
; Function compile flags: /Ogsy
_TEXT	ENDS
;	COMDAT ??$_Allocate@PAVmml_Address@@@std@@YAPAPAVmml_Address@@IPAPAV1@@Z
_TEXT	SEGMENT
??$_Allocate@PAVmml_Address@@@std@@YAPAPAVmml_Address@@IPAPAV1@@Z PROC NEAR ; std::_Allocate<mml_Address *>, COMDAT
; __Count$ = eax

; 34   : 	return ((_Ty _FARQ *)operator new(_Count * sizeof (_Ty)));

  00000	c1 e0 02	 shl	 eax, 2
  00003	50		 push	 eax
  00004	e8 00 00 00 00	 call	 ??2@YAPAXI@Z		; operator new
  00009	59		 pop	 ecx

; 35   : 	}

  0000a	c3		 ret	 0
??$_Allocate@PAVmml_Address@@@std@@YAPAPAVmml_Address@@IPAPAV1@@Z ENDP ; std::_Allocate<mml_Address *>
; Function compile flags: /Ogsy
; File c:\program files (x86)\microsoft visual studio .net 2003\vc7\include\xutility
_TEXT	ENDS
;	COMDAT ??$copy_backward@PAPAVmml_Address@@PAPAV1@@std@@YAPAPAVmml_Address@@PAPAV1@00@Z
_TEXT	SEGMENT
__Cat$37056 = -4					; size = 1
__First$ = 8						; size = 4
??$copy_backward@PAPAVmml_Address@@PAPAV1@@std@@YAPAPAVmml_Address@@PAPAV1@00@Z PROC NEAR ; std::copy_backward<mml_Address * *,mml_Address * *>, COMDAT
; __Last$ = eax
; __Dest$ = ecx

; 1067 : 	{	// copy [_First, _Last) backwards to [..., _Dest)

  00000	55		 push	 ebp
  00001	8b ec		 mov	 ebp, esp
  00003	51		 push	 ecx

; 1068 : 	return (_Copy_backward_opt(_First, _Last, _Dest,
; 1069 : 		_Ptr_cat(_First, _Dest)));

  00004	ff 75 fc	 push	 DWORD PTR __Cat$37056[ebp]
  00007	ff 75 08	 push	 DWORD PTR __First$[ebp]
  0000a	e8 00 00 00 00	 call	 ??$_Copy_backward_opt@PAPAVmml_Address@@PAPAV1@@std@@YAPAPAVmml_Address@@PAPAV1@00U_Scalar_ptr_iterator_tag@0@@Z ; std::_Copy_backward_opt<mml_Address * *,mml_Address * *>
  0000f	59		 pop	 ecx
  00010	59		 pop	 ecx

; 1070 : 	}

  00011	c9		 leave
  00012	c3		 ret	 0
??$copy_backward@PAPAVmml_Address@@PAPAV1@@std@@YAPAPAVmml_Address@@PAPAV1@00@Z ENDP ; std::copy_backward<mml_Address * *,mml_Address * *>
; Function compile flags: /Ogsy
_TEXT	ENDS
;	COMDAT ??$fill@PAPAVmml_Address@@PAV1@@std@@YAXPAPAVmml_Address@@0ABQAV1@@Z
_TEXT	SEGMENT
__Last$ = 8						; size = 4
__Val$ = 12						; size = 4
??$fill@PAPAVmml_Address@@PAV1@@std@@YAXPAPAVmml_Address@@0ABQAV1@@Z PROC NEAR ; std::fill<mml_Address * *,mml_Address *>, COMDAT
; __First$ = eax

; 1135 : 	for (; _First != _Last; ++_First)

  00000	eb 0b		 jmp	 SHORT $L37061
$L32965:

; 1136 : 		*_First = _Val;

  00002	8b 4c 24 08	 mov	 ecx, DWORD PTR __Val$[esp-4]
  00006	8b 09		 mov	 ecx, DWORD PTR [ecx]
  00008	89 08		 mov	 DWORD PTR [eax], ecx
  0000a	83 c0 04	 add	 eax, 4
$L37061:

; 1135 : 	for (; _First != _Last; ++_First)

  0000d	3b 44 24 04	 cmp	 eax, DWORD PTR __Last$[esp-4]
  00011	75 ef		 jne	 SHORT $L32965

; 1137 : 	}

  00013	c3		 ret	 0
??$fill@PAPAVmml_Address@@PAV1@@std@@YAXPAPAVmml_Address@@0ABQAV1@@Z ENDP ; std::fill<mml_Address * *,mml_Address *>
; Function compile flags: /Ogsy
; File c:\program files (x86)\microsoft visual studio .net 2003\vc7\include\xmemory
_TEXT	ENDS
;	COMDAT ??$_Destroy_range@PAVmml_Address@@V?$allocator@PAVmml_Address@@@std@@@std@@YAXPAPAVmml_Address@@0AAV?$allocator@PAVmml_Address@@@0@@Z
_TEXT	SEGMENT
??$_Destroy_range@PAVmml_Address@@V?$allocator@PAVmml_Address@@@std@@@std@@YAXPAPAVmml_Address@@0AAV?$allocator@PAVmml_Address@@@0@@Z PROC NEAR ; std::_Destroy_range<mml_Address *,std::allocator<mml_Address *> >, COMDAT

; 217  : 	_Destroy_range(_First, _Last, _Al, _Ptr_cat(_First, _Last));
; 218  : 	}

  00000	c3		 ret	 0
??$_Destroy_range@PAVmml_Address@@V?$allocator@PAVmml_Address@@@std@@@std@@YAXPAPAVmml_Address@@0AAV?$allocator@PAVmml_Address@@@0@@Z ENDP ; std::_Destroy_range<mml_Address *,std::allocator<mml_Address *> >
; Function compile flags: /Ogsy
_TEXT	ENDS
;	COMDAT ??$_Destroy@PAU_Node@?$_List_nod@Viterator@?$list@PAVMusicItem@@V?$allocator@PAVMusicItem@@@std@@@std@@V?$allocator@Viterator@?$list@PAVMusicItem@@V?$allocator@PAVMusicItem@@@std@@@std@@@3@@std@@@std@@YAXPAPAU_Node@?$_List_nod@Viterator@?$list@PAVMusicItem@@V?$allocator@PAVMusicItem@@@std@@@std@@V?$allocator@Viterator@?$list@PAVMusicItem@@V?$allocator@PAVMusicItem@@@std@@@std@@@3@@0@@Z
_TEXT	SEGMENT
??$_Destroy@PAU_Node@?$_List_nod@Viterator@?$list@PAVMusicItem@@V?$allocator@PAVMusicItem@@@std@@@std@@V?$allocator@Viterator@?$list@PAVMusicItem@@V?$allocator@PAVMusicItem@@@std@@@std@@@3@@std@@@std@@YAXPAPAU_Node@?$_List_nod@Viterator@?$list@PAVMusicItem@@V?$allocator@PAVMusicItem@@@std@@@std@@V?$allocator@Viterator@?$list@PAVMusicItem@@V?$allocator@PAVMusicItem@@@std@@@std@@@3@@0@@Z PROC NEAR ; std::_Destroy<std::_List_nod<std::list<MusicItem *,std::allocator<MusicItem *> >::iterator,std::allocator<std::list<MusicItem *,std::allocator<MusicItem *> >::iterator> >::_Node *>, COMDAT

; 49   : 	_DESTRUCTOR(_Ty, _Ptr);
; 50   : 	}

  00000	c3		 ret	 0
