PUBLIC	??4?$basic_string@DU?$char_traits@D@std@@V?$allocator@D@2@@std@@QAEAAV01@PBD@Z ; std::basic_string<char,std::char_traits<char>,std::allocator<char> >::operator=
; Listing generated by Microsoft (R) Optimizing Compiler Version 13.10.3077 

	TITLE	.\MusicHeader.cpp
	.386P
include listing.inc
if @Version gt 510
.model FLAT
else
;	COMDAT ??_C@_05JOJAAAEH@_nsd_?$AA@
CONST	SEGMENT DWORD USE32 PUBLIC 'CONST'
CONST	ENDS
;	COMDAT ??_C@_06CENLFJFP@RODATA?$AA@
CONST	SEGMENT DWORD USE32 PUBLIC 'CONST'
CONST	ENDS
;	COMDAT ??_C@_07FNCJMPP@PCMDATA?$AA@
CONST	SEGMENT DWORD USE32 PUBLIC 'CONST'
CONST	ENDS
;	COMDAT ??_C@_07ECPPANIO@nsd?4bin?$AA@
CONST	SEGMENT DWORD USE32 PUBLIC 'CONST'
CONST	ENDS
;	COMDAT ??_C@_1DG@PHKCLHEO@?$AA?$CD?$AAB?$AAa?$AAn?$AAkc?$AH?$FL?$JKfB0o0?$AB?$AA?$CD?$AAo?$AAf?$AAf?$AAs?$AAe?$AAt?$AAP?$AAC?$AAM@
CONST	SEGMENT DWORD USE32 PUBLIC 'CONST'
CONST	ENDS
;	COMDAT ??_C@_1EI@JHPLHFNM@?$AA$?$AAC?$AA0?$AA0?$AA0?$AA?5?$PP?$FO?$AA?5?$AA$?$AA1?$AA0?$AA0?$AA0?$AA0?$PP?$AI?$CC?$LP?$AAP?$AAC?$AAMg?$CK@
CONST	SEGMENT DWORD USE32 PUBLIC 'CONST'
CONST	ENDS
;	COMDAT ??_C@_1EG@NFJAALFH@?$CC?$LP?$AAP?$AAC?$AAM0n?$JBM?$HPn0?$KC0?I0?l0?$LJ0o?$AA6?$AA4?$PP?$AI?$AA$?$AA4?$AA0?$PP?7?$AAB@
CONST	SEGMENT DWORD USE32 PUBLIC 'CONST'
CONST	ENDS
;	COMDAT ??_C@_1FM@MIFPDBPO@0?$KK0?W0?$LH0?g0?s0?$LJ0?$KE0?C0?A0g0?j0?s0?$KP0Y0?$IL0?$LD0?$PM0?I0Lc?$AH@
CONST	SEGMENT DWORD USE32 PUBLIC 'CONST'
CONST	ENDS
;	COMDAT ??_C@_1DA@PLMIGOIF@?$AA?$CD?$AAB?$AAG?$AAM0o?$AA0?$PP?$FO?$AA2?$AA5?$AA50n?$HL?DV?r0gc?$AH?$FL?$JK0W0f0O0?$GA@
CONST	SEGMENT DWORD USE32 PUBLIC 'CONST'
CONST	ENDS
;	COMDAT ??_C@_1CO@FHNJGMGO@?$AA?$CD?$AAS?$AAE0o?$AA0?$PP?$FO?$AA2?$AA5?$AA50n?$HL?DV?r0gc?$AH?$FL?$JK0W0f0O0?$GA0U@
CONST	SEGMENT DWORD USE32 PUBLIC 'CONST'
CONST	ENDS
;	COMDAT ??_C@_1DO@CGKLKGDI@?$AA?$CD?$AAE?$AAx?$AAt?$AAe?$AAr?$AAn?$AAa?$AAl0o?$AA$?$AA0?$AA0?$PP?$FO?$AA?$CD?$AA3?$AAF0n?$HL?DV?r@
CONST	SEGMENT DWORD USE32 PUBLIC 'CONST'
CONST	ENDS
text$yc	SEGMENT PARA USE32 PUBLIC 'CODE'
text$yc	ENDS
;	COMDAT _$E1
text$yc	SEGMENT PARA USE32 PUBLIC 'CODE'
text$yc	ENDS
;	COMDAT ??4?$basic_string@DU?$char_traits@D@std@@V?$allocator@D@2@@std@@QAEAAV01@PBD@Z
_TEXT	SEGMENT PARA USE32 PUBLIC 'CODE'
_TEXT	ENDS
FLAT	GROUP _DATA, CONST, _BSS
	ASSUME	CS: FLAT, DS: FLAT, SS: FLAT
endif

INCLUDELIB LIBCMT
INCLUDELIB OLDNAMES

PUBLIC	??_C@_05JOJAAAEH@_nsd_?$AA@			; `string'
PUBLIC	??_C@_06CENLFJFP@RODATA?$AA@			; `string'
PUBLIC	??_C@_07FNCJMPP@PCMDATA?$AA@			; `string'
PUBLIC	??_C@_07ECPPANIO@nsd?4bin?$AA@			; `string'
PUBLIC	??_C@_1DG@PHKCLHEO@?$AA?$CD?$AAB?$AAa?$AAn?$AAkc?$AH?$FL?$JKfB0o0?$AB?$AA?$CD?$AAo?$AAf?$AAf?$AAs?$AAe?$AAt?$AAP?$AAC?$AAM@ ; `string'
PUBLIC	??_C@_1EI@JHPLHFNM@?$AA$?$AAC?$AA0?$AA0?$AA0?$AA?5?$PP?$FO?$AA?5?$AA$?$AA1?$AA0?$AA0?$AA0?$AA0?$PP?$AI?$CC?$LP?$AAP?$AAC?$AAMg?$CK@ ; `string'
PUBLIC	??_C@_1EG@NFJAALFH@?$CC?$LP?$AAP?$AAC?$AAM0n?$JBM?$HPn0?$KC0?I0?l0?$LJ0o?$AA6?$AA4?$PP?$AI?$AA$?$AA4?$AA0?$PP?7?$AAB@ ; `string'
PUBLIC	??_C@_1FM@MIFPDBPO@0?$KK0?W0?$LH0?g0?s0?$LJ0?$KE0?C0?A0g0?j0?s0?$KP0Y0?$IL0?$LD0?$PM0?I0Lc?$AH@ ; `string'
PUBLIC	??_C@_1DA@PLMIGOIF@?$AA?$CD?$AAB?$AAG?$AAM0o?$AA0?$PP?$FO?$AA2?$AA5?$AA50n?$HL?DV?r0gc?$AH?$FL?$JK0W0f0O0?$GA@ ; `string'
PUBLIC	??_C@_1CO@FHNJGMGO@?$AA?$CD?$AAS?$AAE0o?$AA0?$PP?$FO?$AA2?$AA5?$AA50n?$HL?DV?r0gc?$AH?$FL?$JK0W0f0O0?$GA0U@ ; `string'
PUBLIC	??_C@_1DO@CGKLKGDI@?$AA?$CD?$AAE?$AAx?$AAt?$AAe?$AAr?$AAn?$AAa?$AAl0o?$AA$?$AA0?$AA0?$PP?$FO?$AA?$CD?$AA3?$AAF0n?$HL?DV?r@ ; `string'
;	COMDAT ??_C@_05JOJAAAEH@_nsd_?$AA@
CONST	SEGMENT
??_C@_05JOJAAAEH@_nsd_?$AA@ DB '_nsd_', 00H		; `string'
CONST	ENDS
;	COMDAT ??_C@_06CENLFJFP@RODATA?$AA@
CONST	SEGMENT
??_C@_06CENLFJFP@RODATA?$AA@ DB 'RODATA', 00H		; `string'
CONST	ENDS
;	COMDAT ??_C@_07FNCJMPP@PCMDATA?$AA@
CONST	SEGMENT
??_C@_07FNCJMPP@PCMDATA?$AA@ DB 'PCMDATA', 00H		; `string'
CONST	ENDS
;	COMDAT ??_C@_07ECPPANIO@nsd?4bin?$AA@
CONST	SEGMENT
??_C@_07ECPPANIO@nsd?4bin?$AA@ DB 'nsd.bin', 00H	; `string'
CONST	ENDS
;	COMDAT ??_C@_1DG@PHKCLHEO@?$AA?$CD?$AAB?$AAa?$AAn?$AAkc?$AH?$FL?$JKfB0o0?$AB?$AA?$CD?$AAo?$AAf?$AAf?$AAs?$AAe?$AAt?$AAP?$AAC?$AAM@
CONST	SEGMENT
??_C@_1DG@PHKCLHEO@?$AA?$CD?$AAB?$AAa?$AAn?$AAkc?$AH?$FL?$JKfB0o0?$AB?$AA?$CD?$AAo?$AAf?$AAf?$AAs?$AAe?$AAt?$AAP?$AAC?$AAM@ DB '#'
	DB	00H, 'B', 00H, 'a', 00H, 'n', 00H, 'k', 00H, 07H, 'c', 09aH, '['
	DB	'Bfo0', 01H, '0#', 00H, 'o', 00H, 'f', 00H, 'f', 00H, 's', 00H
	DB	'e', 00H, 't', 00H, 'P', 00H, 'C', 00H, 'M', 00H, 'o0!q', 0b9H
	DB	'Rg0Y0', 02H, '0', 00H, 00H			; `string'
CONST	ENDS
;	COMDAT ??_C@_1EI@JHPLHFNM@?$AA$?$AAC?$AA0?$AA0?$AA0?$AA?5?$PP?$FO?$AA?5?$AA$?$AA1?$AA0?$AA0?$AA0?$AA0?$PP?$AI?$CC?$LP?$AAP?$AAC?$AAMg?$CK@
CONST	SEGMENT
??_C@_1EI@JHPLHFNM@?$AA$?$AAC?$AA0?$AA0?$AA0?$AA?5?$PP?$FO?$AA?5?$AA$?$AA1?$AA0?$AA0?$AA0?$AA0?$PP?$AI?$CC?$LP?$AAP?$AAC?$AAMg?$CK@ DB '$'
	DB	00H, 'C', 00H, '0', 00H, '0', 00H, '0', 00H, ' ', 00H, '^', 0ffH
	DB	' ', 00H, '$', 00H, '1', 00H, '0', 00H, '0', 00H, '0', 00H, '0'
	DB	00H, 08H, 0ffH, 0bfH, '"P', 00H, 'C', 00H, 'M', 00H, '*g', 07fH
	DB	'O(u', 09H, 0ffH, 'n0', 0c4H, '{', 0f2H, 'Vg0', 07H, 'c', 09aH
	DB	'[W0f0', 0bH, 'NU0D0', 02H, '0', 00H, 00H	; `string'
CONST	ENDS
;	COMDAT ??_C@_1EG@NFJAALFH@?$CC?$LP?$AAP?$AAC?$AAM0n?$JBM?$HPn0?$KC0?I0?l0?$LJ0o?$AA6?$AA4?$PP?$AI?$AA$?$AA4?$AA0?$PP?7?$AAB@
CONST	SEGMENT
??_C@_1EG@NFJAALFH@?$CC?$LP?$AAP?$AAC?$AAM0n?$JBM?$HPn0?$KC0?I0?l0?$LJ0o?$AA6?$AA4?$PP?$AI?$AA$?$AA4?$AA0?$PP?7?$AAB@ DB 0bfH
	DB	'"P', 00H, 'C', 00H, 'M', 00H, 'n0M', 091H, 'n', 07fH, 0a2H, '0'
	DB	0c9H, '0', 0ecH, '0', 0b9H, '0o06', 00H, '4', 00H, 08H, 0ffH, '$'
	DB	00H, '4', 00H, '0', 00H, 09H, 0ffH, 'B', 00H, 'y', 00H, 't', 00H
	DB	'e', 00H, 'g0', 0a2H, '0', 0e9H, '0', 0a4H, '0', 0e1H, '0', 0f3H
	DB	'0', 0c8H, '0W0~0Y0', 02H, '0', 00H, 00H	; `string'
CONST	ENDS
;	COMDAT ??_C@_1FM@MIFPDBPO@0?$KK0?W0?$LH0?g0?s0?$LJ0?$KE0?C0?A0g0?j0?s0?$KP0Y0?$IL0?$LD0?$PM0?I0Lc?$AH@
CONST	SEGMENT
??_C@_1FM@MIFPDBPO@0?$KK0?W0?$LH0?g0?s0?$LJ0?$KE0?C0?A0g0?j0?s0?$KP0Y0?$IL0?$LD0?$PM0?I0Lc?$AH@ DB 0aaH
	DB	'0', 0d7H, '0', 0b7H, '0', 0e7H, '0', 0f3H, '0', 0b9H, '0', 0a4H
	DB	'0', 0c3H, '0', 0c1H, '0g0', 0eaH, '0', 0f3H, '0', 0afH, '0Y0', 08bH
	DB	'0', 0b3H, '0', 0fcH, '0', 0c9H, '0L0', 07H, 'c', 09aH, '[U0', 08cH
	DB	'0f0D0', 08bH, '0n0g0', 01H, '0#', 00H, 'c', 00H, 'o', 00H, 'd'
	DB	00H, 'e', 00H, 0b3H, '0', 0deH, '0', 0f3H, '0', 0c9H, '0o0!q', 096H
	DB	089H, 'W0~0Y0', 02H, '0', 00H, 00H		; `string'
CONST	ENDS
;	COMDAT ??_C@_1DA@PLMIGOIF@?$AA?$CD?$AAB?$AAG?$AAM0o?$AA0?$PP?$FO?$AA2?$AA5?$AA50n?$HL?DV?r0gc?$AH?$FL?$JK0W0f0O0?$GA@
CONST	SEGMENT
??_C@_1DA@PLMIGOIF@?$AA?$CD?$AAB?$AAG?$AAM0o?$AA0?$PP?$FO?$AA2?$AA5?$AA50n?$HL?DV?r0gc?$AH?$FL?$JK0W0f0O0?$GA@ DB '#'
	DB	00H, 'B', 00H, 'G', 00H, 'M', 00H, 'o00', 00H, '^', 0ffH, '2', 00H
	DB	'5', 00H, '5', 00H, 'n0', 0c4H, '{', 0f2H, 'Vg0', 07H, 'c', 09aH
	DB	'[W0f0O0`0U0D0', 02H, '0', 00H, 00H		; `string'
CONST	ENDS
;	COMDAT ??_C@_1CO@FHNJGMGO@?$AA?$CD?$AAS?$AAE0o?$AA0?$PP?$FO?$AA2?$AA5?$AA50n?$HL?DV?r0gc?$AH?$FL?$JK0W0f0O0?$GA0U@
CONST	SEGMENT
??_C@_1CO@FHNJGMGO@?$AA?$CD?$AAS?$AAE0o?$AA0?$PP?$FO?$AA2?$AA5?$AA50n?$HL?DV?r0gc?$AH?$FL?$JK0W0f0O0?$GA0U@ DB '#'
	DB	00H, 'S', 00H, 'E', 00H, 'o00', 00H, '^', 0ffH, '2', 00H, '5', 00H
	DB	'5', 00H, 'n0', 0c4H, '{', 0f2H, 'Vg0', 07H, 'c', 09aH, '[W0f0'
	DB	'O0`0U0D0', 02H, '0', 00H, 00H		; `string'
CONST	ENDS
;	COMDAT ??_C@_1DO@CGKLKGDI@?$AA?$CD?$AAE?$AAx?$AAt?$AAe?$AAr?$AAn?$AAa?$AAl0o?$AA$?$AA0?$AA0?$PP?$FO?$AA?$CD?$AA3?$AAF0n?$HL?DV?r@
CONST	SEGMENT
??_C@_1DO@CGKLKGDI@?$AA?$CD?$AAE?$AAx?$AAt?$AAe?$AAr?$AAn?$AAa?$AAl0o?$AA$?$AA0?$AA0?$PP?$FO?$AA?$CD?$AA3?$AAF0n?$HL?DV?r@ DB '#'
	DB	00H, 'E', 00H, 'x', 00H, 't', 00H, 'e', 00H, 'r', 00H, 'n', 00H
	DB	'a', 00H, 'l', 00H, 'o0$', 00H, '0', 00H, '0', 00H, '^', 0ffH, '#'
	DB	00H, '3', 00H, 'F', 00H, 'n0', 0c4H, '{', 0f2H, 'Vg0', 07H, 'c'
	DB	09aH, '[W0f0O0`0U0D0', 02H, '0', 00H, 00H	; `string'
PUBLIC	?Set_Bank@MusicHeader@@QAEXXZ			; MusicHeader::Set_Bank
; Function compile flags: /Ogsy
; File f:\nes\nsdl\src\nsc\musicheader.cpp
_TEXT	SEGMENT
?Set_Bank@MusicHeader@@QAEXXZ PROC NEAR			; MusicHeader::Set_Bank
; _this$ = eax

; 146  : 	bank		= true;

  00000	c6 00 01	 mov	 BYTE PTR [eax], 1

; 147  : 	offsetPCM	= 0xC000;

  00003	c7 40 04 00 c0
	00 00		 mov	 DWORD PTR [eax+4], 49152 ; 0000c000H

; 148  : }

  0000a	c3		 ret	 0
?Set_Bank@MusicHeader@@QAEXXZ ENDP			; MusicHeader::Set_Bank
; Function compile flags: /Ogsy
; File c:\program files (x86)\microsoft visual studio .net 2003\vc7\include\xstring
;	COMDAT ??4?$basic_string@DU?$char_traits@D@std@@V?$allocator@D@2@@std@@QAEAAV01@PBD@Z
_TEXT	SEGMENT
__Ptr$ = 8						; size = 4
??4?$basic_string@DU?$char_traits@D@std@@V?$allocator@D@2@@std@@QAEAAV01@PBD@Z PROC NEAR ; std::basic_string<char,std::char_traits<char>,std::allocator<char> >::operator=, COMDAT
; _this$ = ecx

; 472  : 		return (assign(_Ptr));

  00000	e9 00 00 00 00	 jmp	 ?assign@?$basic_string@DU?$char_traits@D@std@@V?$allocator@D@2@@std@@QAEAAV12@PBD@Z ; std::basic_string<char,std::char_traits<char>,std::allocator<char> >::assign
??4?$basic_string@DU?$char_traits@D@std@@V?$allocator@D@2@@std@@QAEAAV01@PBD@Z ENDP ; std::basic_string<char,std::char_traits<char>,std::allocator<char> >::operator=
_TEXT	ENDS
PUBLIC	??1MusicHeader@@QAE@XZ				; MusicHeader::~MusicHeader
; Function compile flags: /Ogsy
; File f:\nes\nsdl\src\nsc\musicheader.cpp
_TEXT	SEGMENT
??1MusicHeader@@QAE@XZ PROC NEAR			; MusicHeader::~MusicHeader
; _this$ = esi

; 54   : {

  0000b	53		 push	 ebx
  0000c	57		 push	 edi

; 55   : }

  0000d	33 db		 xor	 ebx, ebx
  0000f	33 ff		 xor	 edi, edi
  00011	53		 push	 ebx
  00012	47		 inc	 edi
  00013	57		 push	 edi
  00014	8d 8e b4 00 00
	00		 lea	 ecx, DWORD PTR [esi+180]
  0001a	e8 00 00 00 00	 call	 ?_Tidy@?$basic_string@DU?$char_traits@D@std@@V?$allocator@D@2@@std@@IAEX_NI@Z ; std::basic_string<char,std::char_traits<char>,std::allocator<char> >::_Tidy
  0001f	53		 push	 ebx
  00020	57		 push	 edi
  00021	8d 8e 98 00 00
	00		 lea	 ecx, DWORD PTR [esi+152]
  00027	e8 00 00 00 00	 call	 ?_Tidy@?$basic_string@DU?$char_traits@D@std@@V?$allocator@D@2@@std@@IAEX_NI@Z ; std::basic_string<char,std::char_traits<char>,std::allocator<char> >::_Tidy
  0002c	53		 push	 ebx
  0002d	57		 push	 edi
  0002e	8d 4e 7c	 lea	 ecx, DWORD PTR [esi+124]
  00031	e8 00 00 00 00	 call	 ?_Tidy@?$basic_string@DU?$char_traits@D@std@@V?$allocator@D@2@@std@@IAEX_NI@Z ; std::basic_string<char,std::char_traits<char>,std::allocator<char> >::_Tidy
  00036	53		 push	 ebx
  00037	57		 push	 edi
  00038	8d 4e 60	 lea	 ecx, DWORD PTR [esi+96]
  0003b	e8 00 00 00 00	 call	 ?_Tidy@?$basic_string@DU?$char_traits@D@std@@V?$allocator@D@2@@std@@IAEX_NI@Z ; std::basic_string<char,std::char_traits<char>,std::allocator<char> >::_Tidy
  00040	53		 push	 ebx
  00041	57		 push	 edi
  00042	8d 4e 44	 lea	 ecx, DWORD PTR [esi+68]
  00045	e8 00 00 00 00	 call	 ?_Tidy@?$basic_string@DU?$char_traits@D@std@@V?$allocator@D@2@@std@@IAEX_NI@Z ; std::basic_string<char,std::char_traits<char>,std::allocator<char> >::_Tidy
  0004a	53		 push	 ebx
  0004b	57		 push	 edi
  0004c	8d 4e 28	 lea	 ecx, DWORD PTR [esi+40]
  0004f	e8 00 00 00 00	 call	 ?_Tidy@?$basic_string@DU?$char_traits@D@std@@V?$allocator@D@2@@std@@IAEX_NI@Z ; std::basic_string<char,std::char_traits<char>,std::allocator<char> >::_Tidy
  00054	53		 push	 ebx
  00055	57		 push	 edi
  00056	8d 4e 0c	 lea	 ecx, DWORD PTR [esi+12]
  00059	e8 00 00 00 00	 call	 ?_Tidy@?$basic_string@DU?$char_traits@D@std@@V?$allocator@D@2@@std@@IAEX_NI@Z ; std::basic_string<char,std::char_traits<char>,std::allocator<char> >::_Tidy
  0005e	5f		 pop	 edi
  0005f	5b		 pop	 ebx
  00060	c3		 ret	 0
??1MusicHeader@@QAE@XZ ENDP				; MusicHeader::~MusicHeader
PUBLIC	??0MusicHeader@@QAE@V?$basic_string@DU?$char_traits@D@std@@V?$allocator@D@2@@std@@@Z ; MusicHeader::MusicHeader
$T64840	DD	0ffffffffH
	DD	FLAT:$L64812
	DD	00H
	DD	FLAT:$L64813
	DD	01H
	DD	FLAT:$L64814
	DD	02H
	DD	FLAT:$L64815
	DD	03H
	DD	FLAT:$L64816
	DD	04H
	DD	FLAT:$L64817
	DD	05H
	DD	FLAT:$L64818
	DD	06H
	DD	FLAT:$L64819
$T64838	DD	019930520H
	DD	08H
	DD	FLAT:$T64840
	DD	2 DUP(00H)
	DD	2 DUP(00H)
; Function compile flags: /Ogsy
_TEXT	SEGMENT
__$EHRec$ = -12						; size = 12
_this$ = 8						; size = 4
__code$ = 12						; size = 28
??0MusicHeader@@QAE@V?$basic_string@DU?$char_traits@D@std@@V?$allocator@D@2@@std@@@Z PROC NEAR ; MusicHeader::MusicHeader

; 35   : {

  00061	b8 00 00 00 00	 mov	 eax, __ehhandler$??0MusicHeader@@QAE@V?$basic_string@DU?$char_traits@D@std@@V?$allocator@D@2@@std@@@Z
  00066	e8 00 00 00 00	 call	 __EH_prolog
  0006b	53		 push	 ebx
  0006c	56		 push	 esi
  0006d	8b 75 08	 mov	 esi, DWORD PTR _this$[ebp]
  00070	57		 push	 edi
  00071	33 db		 xor	 ebx, ebx
  00073	89 5d fc	 mov	 DWORD PTR __$EHRec$[ebp+8], ebx
  00076	83 4e 08 ff	 or	 DWORD PTR [esi+8], -1
  0007a	68 00 00 00 00	 push	 OFFSET FLAT:??_C@_05JOJAAAEH@_nsd_?$AA@
  0007f	8d 4e 0c	 lea	 ecx, DWORD PTR [esi+12]
  00082	88 1e		 mov	 BYTE PTR [esi], bl
  00084	88 5e 01	 mov	 BYTE PTR [esi+1], bl
  00087	c6 46 02 01	 mov	 BYTE PTR [esi+2], 1
  0008b	88 5e 03	 mov	 BYTE PTR [esi+3], bl
  0008e	c7 46 04 00 00
	01 00		 mov	 DWORD PTR [esi+4], 65536 ; 00010000H
  00095	e8 00 00 00 00	 call	 ??0?$basic_string@DU?$char_traits@D@std@@V?$allocator@D@2@@std@@QAE@PBD@Z ; std::basic_string<char,std::char_traits<char>,std::allocator<char> >::basic_string<char,std::char_traits<char>,std::allocator<char> >
  0009a	bf 00 00 00 00	 mov	 edi, OFFSET FLAT:??_C@_00CNPNBAHC@?$AA@
  0009f	57		 push	 edi
  000a0	8d 4e 28	 lea	 ecx, DWORD PTR [esi+40]
  000a3	c6 45 fc 01	 mov	 BYTE PTR __$EHRec$[ebp+8], 1
  000a7	e8 00 00 00 00	 call	 ??0?$basic_string@DU?$char_traits@D@std@@V?$allocator@D@2@@std@@QAE@PBD@Z ; std::basic_string<char,std::char_traits<char>,std::allocator<char> >::basic_string<char,std::char_traits<char>,std::allocator<char> >
  000ac	57		 push	 edi
  000ad	8d 4e 44	 lea	 ecx, DWORD PTR [esi+68]
  000b0	c6 45 fc 02	 mov	 BYTE PTR __$EHRec$[ebp+8], 2
  000b4	e8 00 00 00 00	 call	 ??0?$basic_string@DU?$char_traits@D@std@@V?$allocator@D@2@@std@@QAE@PBD@Z ; std::basic_string<char,std::char_traits<char>,std::allocator<char> >::basic_string<char,std::char_traits<char>,std::allocator<char> >
  000b9	57		 push	 edi
  000ba	8d 4e 60	 lea	 ecx, DWORD PTR [esi+96]
  000bd	c6 45 fc 03	 mov	 BYTE PTR __$EHRec$[ebp+8], 3
  000c1	e8 00 00 00 00	 call	 ??0?$basic_string@DU?$char_traits@D@std@@V?$allocator@D@2@@std@@QAE@PBD@Z ; std::basic_string<char,std::char_traits<char>,std::allocator<char> >::basic_string<char,std::char_traits<char>,std::allocator<char> >
  000c6	68 00 00 00 00	 push	 OFFSET FLAT:??_C@_06CENLFJFP@RODATA?$AA@
  000cb	8d 4e 7c	 lea	 ecx, DWORD PTR [esi+124]
  000ce	c6 45 fc 04	 mov	 BYTE PTR __$EHRec$[ebp+8], 4
  000d2	e8 00 00 00 00	 call	 ??0?$basic_string@DU?$char_traits@D@std@@V?$allocator@D@2@@std@@QAE@PBD@Z ; std::basic_string<char,std::char_traits<char>,std::allocator<char> >::basic_string<char,std::char_traits<char>,std::allocator<char> >
  000d7	68 00 00 00 00	 push	 OFFSET FLAT:??_C@_07FNCJMPP@PCMDATA?$AA@
  000dc	8d 8e 98 00 00
	00		 lea	 ecx, DWORD PTR [esi+152]
  000e2	c6 45 fc 05	 mov	 BYTE PTR __$EHRec$[ebp+8], 5
  000e6	e8 00 00 00 00	 call	 ??0?$basic_string@DU?$char_traits@D@std@@V?$allocator@D@2@@std@@QAE@PBD@Z ; std::basic_string<char,std::char_traits<char>,std::allocator<char> >::basic_string<char,std::char_traits<char>,std::allocator<char> >
  000eb	8d be b4 00 00
	00		 lea	 edi, DWORD PTR [esi+180]
  000f1	8b cf		 mov	 ecx, edi
  000f3	e8 00 00 00 00	 call	 ??0?$basic_string@DU?$char_traits@D@std@@V?$allocator@D@2@@std@@QAE@XZ ; std::basic_string<char,std::char_traits<char>,std::allocator<char> >::basic_string<char,std::char_traits<char>,std::allocator<char> >
  000f8	c6 45 fc 07	 mov	 BYTE PTR __$EHRec$[ebp+8], 7

; 36   : 	if(_code.empty()){

  000fc	39 5d 20	 cmp	 DWORD PTR __code$[ebp+20], ebx

; 37   : 		op_code = false;
; 38   : 		romcode = "nsd.bin";

  000ff	8b cf		 mov	 ecx, edi
  00101	75 0f		 jne	 SHORT $L23924
  00103	68 00 00 00 00	 push	 OFFSET FLAT:??_C@_07ECPPANIO@nsd?4bin?$AA@
  00108	88 5e 01	 mov	 BYTE PTR [esi+1], bl
  0010b	e8 00 00 00 00	 call	 ?assign@?$basic_string@DU?$char_traits@D@std@@V?$allocator@D@2@@std@@QAEAAV12@PBD@Z ; std::basic_string<char,std::char_traits<char>,std::allocator<char> >::assign

; 39   : 	} else {

  00110	eb 10		 jmp	 SHORT $L64833
$L23924:

; 40   : 		op_code = true;
; 41   : 		romcode = _code;

  00112	6a ff		 push	 -1
  00114	53		 push	 ebx
  00115	8d 45 0c	 lea	 eax, DWORD PTR __code$[ebp]
  00118	50		 push	 eax
  00119	c6 46 01 01	 mov	 BYTE PTR [esi+1], 1
  0011d	e8 00 00 00 00	 call	 ?assign@?$basic_string@DU?$char_traits@D@std@@V?$allocator@D@2@@std@@QAEAAV12@ABV12@II@Z ; std::basic_string<char,std::char_traits<char>,std::allocator<char> >::assign
$L64833:

; 42   : 	}
; 43   : }

  00122	53		 push	 ebx
  00123	6a 01		 push	 1
  00125	8d 4d 0c	 lea	 ecx, DWORD PTR __code$[ebp]
  00128	e8 00 00 00 00	 call	 ?_Tidy@?$basic_string@DU?$char_traits@D@std@@V?$allocator@D@2@@std@@IAEX_NI@Z ; std::basic_string<char,std::char_traits<char>,std::allocator<char> >::_Tidy
  0012d	8b 4d f4	 mov	 ecx, DWORD PTR __$EHRec$[ebp]
  00130	5f		 pop	 edi
  00131	8b c6		 mov	 eax, esi
  00133	5e		 pop	 esi
  00134	5b		 pop	 ebx
  00135	64 89 0d 00 00
	00 00		 mov	 DWORD PTR fs:__except_list, ecx
  0013c	c9		 leave
  0013d	c2 20 00	 ret	 32			; 00000020H
$L64812:
  00000	8d 4d 0c	 lea	 ecx, DWORD PTR __code$[ebp]
  00003	e9 00 00 00 00	 jmp	 ??1?$basic_string@DU?$char_traits@D@std@@V?$allocator@D@2@@std@@QAE@XZ ; std::basic_string<char,std::char_traits<char>,std::allocator<char> >::~basic_string<char,std::char_traits<char>,std::allocator<char> >
$L64813:
  00008	8b 4d 08	 mov	 ecx, DWORD PTR _this$[ebp]
  0000b	83 c1 0c	 add	 ecx, 12			; 0000000cH
  0000e	e9 00 00 00 00	 jmp	 ??1?$basic_string@DU?$char_traits@D@std@@V?$allocator@D@2@@std@@QAE@XZ ; std::basic_string<char,std::char_traits<char>,std::allocator<char> >::~basic_string<char,std::char_traits<char>,std::allocator<char> >
$L64814:
  00013	8b 4d 08	 mov	 ecx, DWORD PTR _this$[ebp]
  00016	83 c1 28	 add	 ecx, 40			; 00000028H
  00019	e9 00 00 00 00	 jmp	 ??1?$basic_string@DU?$char_traits@D@std@@V?$allocator@D@2@@std@@QAE@XZ ; std::basic_string<char,std::char_traits<char>,std::allocator<char> >::~basic_string<char,std::char_traits<char>,std::allocator<char> >
$L64815:
  0001e	8b 4d 08	 mov	 ecx, DWORD PTR _this$[ebp]
  00021	83 c1 44	 add	 ecx, 68			; 00000044H
  00024	e9 00 00 00 00	 jmp	 ??1?$basic_string@DU?$char_traits@D@std@@V?$allocator@D@2@@std@@QAE@XZ ; std::basic_string<char,std::char_traits<char>,std::allocator<char> >::~basic_string<char,std::char_traits<char>,std::allocator<char> >
$L64816:
  00029	8b 4d 08	 mov	 ecx, DWORD PTR _this$[ebp]
  0002c	83 c1 60	 add	 ecx, 96			; 00000060H
  0002f	e9 00 00 00 00	 jmp	 ??1?$basic_string@DU?$char_traits@D@std@@V?$allocator@D@2@@std@@QAE@XZ ; std::basic_string<char,std::char_traits<char>,std::allocator<char> >::~basic_string<char,std::char_traits<char>,std::allocator<char> >
$L64817:
  00034	8b 4d 08	 mov	 ecx, DWORD PTR _this$[ebp]
  00037	83 c1 7c	 add	 ecx, 124		; 0000007cH
  0003a	e9 00 00 00 00	 jmp	 ??1?$basic_string@DU?$char_traits@D@std@@V?$allocator@D@2@@std@@QAE@XZ ; std::basic_string<char,std::char_traits<char>,std::allocator<char> >::~basic_string<char,std::char_traits<char>,std::allocator<char> >
$L64818:
  0003f	8b 4d 08	 mov	 ecx, DWORD PTR _this$[ebp]
  00042	81 c1 98 00 00
	00		 add	 ecx, 152		; 00000098H
  00048	e9 00 00 00 00	 jmp	 ??1?$basic_string@DU?$char_traits@D@std@@V?$allocator@D@2@@std@@QAE@XZ ; std::basic_string<char,std::char_traits<char>,std::allocator<char> >::~basic_string<char,std::char_traits<char>,std::allocator<char> >
$L64819:
  0004d	8b 4d 08	 mov	 ecx, DWORD PTR _this$[ebp]
  00050	81 c1 b4 00 00
	00		 add	 ecx, 180		; 000000b4H
  00056	e9 00 00 00 00	 jmp	 ??1?$basic_string@DU?$char_traits@D@std@@V?$allocator@D@2@@std@@QAE@XZ ; std::basic_string<char,std::char_traits<char>,std::allocator<char> >::~basic_string<char,std::char_traits<char>,std::allocator<char> >
__ehhandler$??0MusicHeader@@QAE@V?$basic_string@DU?$char_traits@D@std@@V?$allocator@D@2@@std@@@Z:
  0005b	b8 00 00 00 00	 mov	 eax, OFFSET FLAT:$T64838
  00060	e9 00 00 00 00	 jmp	 ___CxxFrameHandler
??0MusicHeader@@QAE@V?$basic_string@DU?$char_traits@D@std@@V?$allocator@D@2@@std@@@Z ENDP ; MusicHeader::MusicHeader
PUBLIC	?Set_External@MusicHeader@@QAEXPAVMMLfile@@@Z	; MusicHeader::Set_External
; Function compile flags: /Ogsy
_TEXT	SEGMENT
_this$ = 8						; size = 4
_MML$ = 12						; size = 4
?Set_External@MusicHeader@@QAEXPAVMMLfile@@@Z PROC NEAR	; MusicHeader::Set_External

; 136  : 	int	_n = MML->GetInt();

  00140	8b 44 24 08	 mov	 eax, DWORD PTR _MML$[esp-4]
  00144	e8 00 00 00 00	 call	 ?GetInt@MMLfile@@QAEHXZ	; MMLfile::GetInt

; 137  : 
; 138  : 	if((_n > 0x3F) || (_n < 0)){

  00149	83 f8 3f	 cmp	 eax, 63			; 0000003fH
  0014c	7f 0e		 jg	 SHORT $L24006
  0014e	85 c0		 test	 eax, eax
  00150	7c 0a		 jl	 SHORT $L24006

; 139  : 		MML->Err(_T("#Externalは$00～#3Fの範囲で指定してください。"));
; 140  : 	}
; 141  : 	iExternal = _n;

  00152	8b 4c 24 04	 mov	 ecx, DWORD PTR _this$[esp-4]
  00156	89 41 08	 mov	 DWORD PTR [ecx+8], eax

; 142  : }

  00159	c2 08 00	 ret	 8
$L24006:
  0015c	8b 44 24 08	 mov	 eax, DWORD PTR _MML$[esp-4]
  00160	68 00 00 00 00	 push	 OFFSET FLAT:??_C@_1DO@CGKLKGDI@?$AA?$CD?$AAE?$AAx?$AAt?$AAe?$AAr?$AAn?$AAa?$AAl0o?$AA$?$AA0?$AA0?$PP?$FO?$AA?$CD?$AA3?$AAF0n?$HL?DV?r@
  00165	e8 00 00 00 00	 call	 ?Err@MMLfile@@QAEXQBG@Z	; MMLfile::Err
$L107607:
$L107606:
  0016a	cc		 int	 3
?Set_External@MusicHeader@@QAEXPAVMMLfile@@@Z ENDP	; MusicHeader::Set_External
_TEXT	ENDS
PUBLIC	?Set_Number_SE@MusicHeader@@QAEXPAVMMLfile@@@Z	; MusicHeader::Set_Number_SE
; Function compile flags: /Ogsy
_TEXT	SEGMENT
_this$ = 8						; size = 4
_MML$ = 12						; size = 4
?Set_Number_SE@MusicHeader@@QAEXPAVMMLfile@@@Z PROC NEAR ; MusicHeader::Set_Number_SE

; 126  : 	int	_n = MML->GetInt();

  0016b	8b 44 24 08	 mov	 eax, DWORD PTR _MML$[esp-4]
  0016f	e8 00 00 00 00	 call	 ?GetInt@MMLfile@@QAEHXZ	; MMLfile::GetInt

; 127  : 
; 128  : 	if((_n > 255) || (_n < 0)){

  00174	3d ff 00 00 00	 cmp	 eax, 255		; 000000ffH
  00179	7f 0e		 jg	 SHORT $L23997
  0017b	85 c0		 test	 eax, eax
  0017d	7c 0a		 jl	 SHORT $L23997

; 129  : 		MML->Err(_T("#SEは0～255の範囲で指定してください。"));
; 130  : 	}
; 131  : 	iSE = (unsigned char)_n;

  0017f	8b 4c 24 04	 mov	 ecx, DWORD PTR _this$[esp-4]
  00183	88 41 03	 mov	 BYTE PTR [ecx+3], al

; 132  : }

  00186	c2 08 00	 ret	 8
$L23997:
  00189	8b 44 24 08	 mov	 eax, DWORD PTR _MML$[esp-4]
  0018d	68 00 00 00 00	 push	 OFFSET FLAT:??_C@_1CO@FHNJGMGO@?$AA?$CD?$AAS?$AAE0o?$AA0?$PP?$FO?$AA2?$AA5?$AA50n?$HL?DV?r0gc?$AH?$FL?$JK0W0f0O0?$GA0U@
  00192	e8 00 00 00 00	 call	 ?Err@MMLfile@@QAEXQBG@Z	; MMLfile::Err
$L107610:
$L107609:
  00197	cc		 int	 3
?Set_Number_SE@MusicHeader@@QAEXPAVMMLfile@@@Z ENDP	; MusicHeader::Set_Number_SE
_TEXT	ENDS
PUBLIC	?Set_Number_BGM@MusicHeader@@QAEXPAVMMLfile@@@Z	; MusicHeader::Set_Number_BGM
; Function compile flags: /Ogsy
_TEXT	SEGMENT
_this$ = 8						; size = 4
_MML$ = 12						; size = 4
?Set_Number_BGM@MusicHeader@@QAEXPAVMMLfile@@@Z PROC NEAR ; MusicHeader::Set_Number_BGM

; 116  : 	int	_n = MML->GetInt();

  00198	8b 44 24 08	 mov	 eax, DWORD PTR _MML$[esp-4]
  0019c	e8 00 00 00 00	 call	 ?GetInt@MMLfile@@QAEHXZ	; MMLfile::GetInt

; 117  : 
; 118  : 	if((_n > 255) || (_n < 0)){

  001a1	3d ff 00 00 00	 cmp	 eax, 255		; 000000ffH
  001a6	7f 0e		 jg	 SHORT $L23988
  001a8	85 c0		 test	 eax, eax
  001aa	7c 0a		 jl	 SHORT $L23988

; 119  : 		MML->Err(_T("#BGMは0～255の範囲で指定してください。"));
; 120  : 	}
; 121  : 	iBGM = (unsigned char)_n;

  001ac	8b 4c 24 04	 mov	 ecx, DWORD PTR _this$[esp-4]
  001b0	88 41 02	 mov	 BYTE PTR [ecx+2], al

; 122  : }

  001b3	c2 08 00	 ret	 8
$L23988:
  001b6	8b 44 24 08	 mov	 eax, DWORD PTR _MML$[esp-4]
  001ba	68 00 00 00 00	 push	 OFFSET FLAT:??_C@_1DA@PLMIGOIF@?$AA?$CD?$AAB?$AAG?$AAM0o?$AA0?$PP?$FO?$AA2?$AA5?$AA50n?$HL?DV?r0gc?$AH?$FL?$JK0W0f0O0?$GA@
  001bf	e8 00 00 00 00	 call	 ?Err@MMLfile@@QAEXQBG@Z	; MMLfile::Err
$L107613:
$L107612:
  001c4	cc		 int	 3
?Set_Number_BGM@MusicHeader@@QAEXPAVMMLfile@@@Z ENDP	; MusicHeader::Set_Number_BGM
_TEXT	ENDS
PUBLIC	?Set_RomCode@MusicHeader@@QAEXPAVMMLfile@@@Z	; MusicHeader::Set_RomCode
$T107638 DD	0ffffffffH
	DD	FLAT:$L107618
$T107635 DD	019930520H
	DD	01H
	DD	FLAT:$T107638
	DD	2 DUP(00H)
	DD	2 DUP(00H)
; Function compile flags: /Ogsy
_TEXT	SEGMENT
$T107616 = -68						; size = 28
$T107615 = -40						; size = 28
__$EHRec$ = -12						; size = 12
_MML$ = 8						; size = 4
?Set_RomCode@MusicHeader@@QAEXPAVMMLfile@@@Z PROC NEAR	; MusicHeader::Set_RomCode
; _this$ = esi

; 105  : {

  001c5	b8 00 00 00 00	 mov	 eax, __ehhandler$?Set_RomCode@MusicHeader@@QAEXPAVMMLfile@@@Z
  001ca	e8 00 00 00 00	 call	 __EH_prolog
  001cf	83 ec 38	 sub	 esp, 56			; 00000038H

; 106  : 	if(op_code == true){

  001d2	80 7e 01 01	 cmp	 BYTE PTR [esi+1], 1
  001d6	75 1e		 jne	 SHORT $L23977

; 107  : 		MML->Warning(_T("オプションスイッチでリンクするコードが指定されているので、#codeコマンドは無視します。"));

  001d8	8b 45 08	 mov	 eax, DWORD PTR _MML$[ebp]
  001db	68 00 00 00 00	 push	 OFFSET FLAT:??_C@_1FM@MIFPDBPO@0?$KK0?W0?$LH0?g0?s0?$LJ0?$KE0?C0?A0g0?j0?s0?$KP0Y0?$IL0?$LD0?$PM0?I0Lc?$AH@
  001e0	e8 00 00 00 00	 call	 ?Warning@MMLfile@@QAEXQBG@Z ; MMLfile::Warning

; 108  : 		MML->GetString();

  001e5	8b 4d 08	 mov	 ecx, DWORD PTR _MML$[ebp]
  001e8	8d 45 d8	 lea	 eax, DWORD PTR $T107615[ebp]
  001eb	50		 push	 eax
  001ec	e8 00 00 00 00	 call	 ?GetString@MMLfile@@QAE?AV?$basic_string@DU?$char_traits@D@std@@V?$allocator@D@2@@std@@XZ ; MMLfile::GetString
  001f1	8d 4d d8	 lea	 ecx, DWORD PTR $T107615[ebp]

; 109  : 	} else {

  001f4	eb 23		 jmp	 SHORT $L107637
$L23977:

; 110  : 		romcode = MML->GetString();

  001f6	8b 4d 08	 mov	 ecx, DWORD PTR _MML$[ebp]
  001f9	8d 45 bc	 lea	 eax, DWORD PTR $T107616[ebp]
  001fc	50		 push	 eax
  001fd	e8 00 00 00 00	 call	 ?GetString@MMLfile@@QAE?AV?$basic_string@DU?$char_traits@D@std@@V?$allocator@D@2@@std@@XZ ; MMLfile::GetString
  00202	83 65 fc 00	 and	 DWORD PTR __$EHRec$[ebp+8], 0
  00206	6a ff		 push	 -1
  00208	6a 00		 push	 0
  0020a	50		 push	 eax
  0020b	8d 8e b4 00 00
	00		 lea	 ecx, DWORD PTR [esi+180]
  00211	e8 00 00 00 00	 call	 ?assign@?$basic_string@DU?$char_traits@D@std@@V?$allocator@D@2@@std@@QAEAAV12@ABV12@II@Z ; std::basic_string<char,std::char_traits<char>,std::allocator<char> >::assign
  00216	8d 4d bc	 lea	 ecx, DWORD PTR $T107616[ebp]
$L107637:
  00219	6a 00		 push	 0
  0021b	6a 01		 push	 1
  0021d	e8 00 00 00 00	 call	 ?_Tidy@?$basic_string@DU?$char_traits@D@std@@V?$allocator@D@2@@std@@IAEX_NI@Z ; std::basic_string<char,std::char_traits<char>,std::allocator<char> >::_Tidy

; 111  : 	}
; 112  : }

  00222	8b 4d f4	 mov	 ecx, DWORD PTR __$EHRec$[ebp]
  00225	64 89 0d 00 00
	00 00		 mov	 DWORD PTR fs:__except_list, ecx
  0022c	c9		 leave
  0022d	c2 04 00	 ret	 4
$L107618:
  00b23	8d 4d bc	 lea	 ecx, DWORD PTR $T107616[ebp]
  00b26	e9 00 00 00 00	 jmp	 ??1?$basic_string@DU?$char_traits@D@std@@V?$allocator@D@2@@std@@QAE@XZ ; std::basic_string<char,std::char_traits<char>,std::allocator<char> >::~basic_string<char,std::char_traits<char>,std::allocator<char> >
__ehhandler$?Set_RomCode@MusicHeader@@QAEXPAVMMLfile@@@Z:
  00b2b	b8 00 00 00 00	 mov	 eax, OFFSET FLAT:$T107635
  00b30	e9 00 00 00 00	 jmp	 ___CxxFrameHandler
?Set_RomCode@MusicHeader@@QAEXPAVMMLfile@@@Z ENDP	; MusicHeader::Set_RomCode
PUBLIC	?Set_OffsetPCM@MusicHeader@@QAEXPAVMMLfile@@@Z	; MusicHeader::Set_OffsetPCM
; Function compile flags: /Ogsy
_TEXT	SEGMENT
?Set_OffsetPCM@MusicHeader@@QAEXPAVMMLfile@@@Z PROC NEAR ; MusicHeader::Set_OffsetPCM
; _this$ = esi
; _MML$ = edi

; 88   : 	offsetPCM = MML->GetInt();

  00230	8b c7		 mov	 eax, edi
  00232	e8 00 00 00 00	 call	 ?GetInt@MMLfile@@QAEHXZ	; MMLfile::GetInt

; 89   : 
; 90   : 	if(bank==true){

  00237	80 3e 01	 cmp	 BYTE PTR [esi], 1
  0023a	89 46 04	 mov	 DWORD PTR [esi+4], eax
  0023d	75 0d		 jne	 SHORT $L23965

; 91   : 		MML->Warning(_T("#Bank指定時は、#offsetPCMは無効です。"));

  0023f	68 00 00 00 00	 push	 OFFSET FLAT:??_C@_1DG@PHKCLHEO@?$AA?$CD?$AAB?$AAa?$AAn?$AAkc?$AH?$FL?$JKfB0o0?$AB?$AA?$CD?$AAo?$AAf?$AAf?$AAs?$AAe?$AAt?$AAP?$AAC?$AAM@
  00244	8b c7		 mov	 eax, edi
  00246	e8 00 00 00 00	 call	 ?Warning@MMLfile@@QAEXQBG@Z ; MMLfile::Warning
$L23964:

; 100  : 		}
; 101  : 	}
; 102  : }

  0024b	c3		 ret	 0
$L23965:

; 92   : 	} else {
; 93   : 		if((offsetPCM < 0xC000) || (offsetPCM > 0x10000)){

  0024c	3d 00 c0 00 00	 cmp	 eax, 49152		; 0000c000H
  00251	72 26		 jb	 SHORT $L23969
  00253	3d 00 00 01 00	 cmp	 eax, 65536		; 00010000H
  00258	77 1f		 ja	 SHORT $L23969

; 94   : 			MML->Err(_T("$C000 ～ $10000（⊿PCM未使用）の範囲で指定して下さい。"));
; 95   : 		}
; 96   : 		if((offsetPCM & 0x003F) != 0){

  0025a	a8 3f		 test	 al, 63			; 0000003fH
  0025c	74 ed		 je	 SHORT $L23964

; 97   : 			MML->Warning(_T("⊿PCMの配置アドレスは64（$40）Byteでアライメントします。"));

  0025e	68 00 00 00 00	 push	 OFFSET FLAT:??_C@_1EG@NFJAALFH@?$CC?$LP?$AAP?$AAC?$AAM0n?$JBM?$HPn0?$KC0?I0?l0?$LJ0o?$AA6?$AA4?$PP?$AI?$AA$?$AA4?$AA0?$PP?7?$AAB@
  00263	8b c7		 mov	 eax, edi
  00265	e8 00 00 00 00	 call	 ?Warning@MMLfile@@QAEXQBG@Z ; MMLfile::Warning

; 98   : 			offsetPCM &= 0xFFC0;

  0026a	8b 46 04	 mov	 eax, DWORD PTR [esi+4]
  0026d	25 c0 ff 00 00	 and	 eax, 65472		; 0000ffc0H

; 99   : 			offsetPCM += 0x0040;

  00272	83 c0 40	 add	 eax, 64			; 00000040H
  00275	89 46 04	 mov	 DWORD PTR [esi+4], eax

; 100  : 		}
; 101  : 	}
; 102  : }

  00278	c3		 ret	 0
$L23969:
  00279	68 00 00 00 00	 push	 OFFSET FLAT:??_C@_1EI@JHPLHFNM@?$AA$?$AAC?$AA0?$AA0?$AA0?$AA?5?$PP?$FO?$AA?5?$AA$?$AA1?$AA0?$AA0?$AA0?$AA0?$PP?$AI?$CC?$LP?$AAP?$AAC?$AAMg?$CK@
  0027e	8b c7		 mov	 eax, edi
  00280	e8 00 00 00 00	 call	 ?Err@MMLfile@@QAEXQBG@Z	; MMLfile::Err
$L107641:
$L107640:
  00285	cc		 int	 3
?Set_OffsetPCM@MusicHeader@@QAEXPAVMMLfile@@@Z ENDP	; MusicHeader::Set_OffsetPCM
_TEXT	ENDS
PUBLIC	?Set_Label@MusicHeader@@QAEXPAVMMLfile@@@Z	; MusicHeader::Set_Label
$T107660 DD	0ffffffffH
	DD	FLAT:$L107644
$T107658 DD	019930520H
	DD	01H
	DD	FLAT:$T107660
	DD	2 DUP(00H)
	DD	2 DUP(00H)
; Function compile flags: /Ogsy
_TEXT	SEGMENT
$T107643 = -40						; size = 28
__$EHRec$ = -12						; size = 12
_this$ = 8						; size = 4
?Set_Label@MusicHeader@@QAEXPAVMMLfile@@@Z PROC NEAR	; MusicHeader::Set_Label
; _MML$ = ecx

; 82   : {

  00286	b8 00 00 00 00	 mov	 eax, __ehhandler$?Set_Label@MusicHeader@@QAEXPAVMMLfile@@@Z
  0028b	e8 00 00 00 00	 call	 __EH_prolog
  00290	83 ec 1c	 sub	 esp, 28			; 0000001cH

; 83   : 	Label = MML->GetString();

  00293	8d 45 d8	 lea	 eax, DWORD PTR $T107643[ebp]
  00296	50		 push	 eax
  00297	e8 00 00 00 00	 call	 ?GetString@MMLfile@@QAE?AV?$basic_string@DU?$char_traits@D@std@@V?$allocator@D@2@@std@@XZ ; MMLfile::GetString
  0029c	8b 4d 08	 mov	 ecx, DWORD PTR _this$[ebp]
  0029f	83 65 fc 00	 and	 DWORD PTR __$EHRec$[ebp+8], 0
  002a3	6a ff		 push	 -1
  002a5	6a 00		 push	 0
  002a7	50		 push	 eax
  002a8	83 c1 0c	 add	 ecx, 12			; 0000000cH
  002ab	e8 00 00 00 00	 call	 ?assign@?$basic_string@DU?$char_traits@D@std@@V?$allocator@D@2@@std@@QAEAAV12@ABV12@II@Z ; std::basic_string<char,std::char_traits<char>,std::allocator<char> >::assign
  002b0	6a 00		 push	 0
  002b2	6a 01		 push	 1
  002b4	8d 4d d8	 lea	 ecx, DWORD PTR $T107643[ebp]
  002b7	e8 00 00 00 00	 call	 ?_Tidy@?$basic_string@DU?$char_traits@D@std@@V?$allocator@D@2@@std@@IAEX_NI@Z ; std::basic_string<char,std::char_traits<char>,std::allocator<char> >::_Tidy

; 84   : }

  002bc	8b 4d f4	 mov	 ecx, DWORD PTR __$EHRec$[ebp]
  002bf	64 89 0d 00 00
	00 00		 mov	 DWORD PTR fs:__except_list, ecx
  002c6	c9		 leave
  002c7	c2 04 00	 ret	 4
$L107644:
  00b35	8d 4d d8	 lea	 ecx, DWORD PTR $T107643[ebp]
  00b38	e9 00 00 00 00	 jmp	 ??1?$basic_string@DU?$char_traits@D@std@@V?$allocator@D@2@@std@@QAE@XZ ; std::basic_string<char,std::char_traits<char>,std::allocator<char> >::~basic_string<char,std::char_traits<char>,std::allocator<char> >
__ehhandler$?Set_Label@MusicHeader@@QAEXPAVMMLfile@@@Z:
  00b3d	b8 00 00 00 00	 mov	 eax, OFFSET FLAT:$T107658
  00b42	e9 00 00 00 00	 jmp	 ___CxxFrameHandler
?Set_Label@MusicHeader@@QAEXPAVMMLfile@@@Z ENDP		; MusicHeader::Set_Label
PUBLIC	?Set_SegmentPCM@MusicHeader@@QAEXPAVMMLfile@@@Z	; MusicHeader::Set_SegmentPCM
$T107679 DD	0ffffffffH
	DD	FLAT:$L107663
$T107677 DD	019930520H
	DD	01H
	DD	FLAT:$T107679
	DD	2 DUP(00H)
	DD	2 DUP(00H)
; Function compile flags: /Ogsy
_TEXT	SEGMENT
$T107662 = -40						; size = 28
__$EHRec$ = -12						; size = 12
_this$ = 8						; size = 4
?Set_SegmentPCM@MusicHeader@@QAEXPAVMMLfile@@@Z PROC NEAR ; MusicHeader::Set_SegmentPCM
; _MML$ = ecx

; 78   : {

  002ca	b8 00 00 00 00	 mov	 eax, __ehhandler$?Set_SegmentPCM@MusicHeader@@QAEXPAVMMLfile@@@Z
  002cf	e8 00 00 00 00	 call	 __EH_prolog
  002d4	83 ec 1c	 sub	 esp, 28			; 0000001cH

; 79   : 	segmentPCM = MML->GetString();

  002d7	8d 45 d8	 lea	 eax, DWORD PTR $T107662[ebp]
  002da	50		 push	 eax
  002db	e8 00 00 00 00	 call	 ?GetString@MMLfile@@QAE?AV?$basic_string@DU?$char_traits@D@std@@V?$allocator@D@2@@std@@XZ ; MMLfile::GetString
  002e0	8b 4d 08	 mov	 ecx, DWORD PTR _this$[ebp]
  002e3	83 65 fc 00	 and	 DWORD PTR __$EHRec$[ebp+8], 0
  002e7	6a ff		 push	 -1
  002e9	6a 00		 push	 0
  002eb	50		 push	 eax
  002ec	81 c1 98 00 00
	00		 add	 ecx, 152		; 00000098H
  002f2	e8 00 00 00 00	 call	 ?assign@?$basic_string@DU?$char_traits@D@std@@V?$allocator@D@2@@std@@QAEAAV12@ABV12@II@Z ; std::basic_string<char,std::char_traits<char>,std::allocator<char> >::assign
  002f7	6a 00		 push	 0
  002f9	6a 01		 push	 1
  002fb	8d 4d d8	 lea	 ecx, DWORD PTR $T107662[ebp]
  002fe	e8 00 00 00 00	 call	 ?_Tidy@?$basic_string@DU?$char_traits@D@std@@V?$allocator@D@2@@std@@IAEX_NI@Z ; std::basic_string<char,std::char_traits<char>,std::allocator<char> >::_Tidy

; 80   : }

  00303	8b 4d f4	 mov	 ecx, DWORD PTR __$EHRec$[ebp]
  00306	64 89 0d 00 00
	00 00		 mov	 DWORD PTR fs:__except_list, ecx
  0030d	c9		 leave
  0030e	c2 04 00	 ret	 4
$L107663:
  00b47	8d 4d d8	 lea	 ecx, DWORD PTR $T107662[ebp]
  00b4a	e9 00 00 00 00	 jmp	 ??1?$basic_string@DU?$char_traits@D@std@@V?$allocator@D@2@@std@@QAE@XZ ; std::basic_string<char,std::char_traits<char>,std::allocator<char> >::~basic_string<char,std::char_traits<char>,std::allocator<char> >
__ehhandler$?Set_SegmentPCM@MusicHeader@@QAEXPAVMMLfile@@@Z:
  00b4f	b8 00 00 00 00	 mov	 eax, OFFSET FLAT:$T107677
  00b54	e9 00 00 00 00	 jmp	 ___CxxFrameHandler
?Set_SegmentPCM@MusicHeader@@QAEXPAVMMLfile@@@Z ENDP	; MusicHeader::Set_SegmentPCM
PUBLIC	?Set_SegmentSEQ@MusicHeader@@QAEXPAVMMLfile@@@Z	; MusicHeader::Set_SegmentSEQ
$T107698 DD	0ffffffffH
	DD	FLAT:$L107682
$T107696 DD	019930520H
	DD	01H
	DD	FLAT:$T107698
	DD	2 DUP(00H)
	DD	2 DUP(00H)
; Function compile flags: /Ogsy
_TEXT	SEGMENT
$T107681 = -40						; size = 28
__$EHRec$ = -12						; size = 12
_this$ = 8						; size = 4
?Set_SegmentSEQ@MusicHeader@@QAEXPAVMMLfile@@@Z PROC NEAR ; MusicHeader::Set_SegmentSEQ
; _MML$ = ecx

; 73   : {

  00311	b8 00 00 00 00	 mov	 eax, __ehhandler$?Set_SegmentSEQ@MusicHeader@@QAEXPAVMMLfile@@@Z
  00316	e8 00 00 00 00	 call	 __EH_prolog
  0031b	83 ec 1c	 sub	 esp, 28			; 0000001cH

; 74   : 	segmentSEQ = MML->GetString();

  0031e	8d 45 d8	 lea	 eax, DWORD PTR $T107681[ebp]
  00321	50		 push	 eax
  00322	e8 00 00 00 00	 call	 ?GetString@MMLfile@@QAE?AV?$basic_string@DU?$char_traits@D@std@@V?$allocator@D@2@@std@@XZ ; MMLfile::GetString
  00327	8b 4d 08	 mov	 ecx, DWORD PTR _this$[ebp]
  0032a	83 65 fc 00	 and	 DWORD PTR __$EHRec$[ebp+8], 0
  0032e	6a ff		 push	 -1
  00330	6a 00		 push	 0
  00332	50		 push	 eax
  00333	83 c1 7c	 add	 ecx, 124		; 0000007cH
  00336	e8 00 00 00 00	 call	 ?assign@?$basic_string@DU?$char_traits@D@std@@V?$allocator@D@2@@std@@QAEAAV12@ABV12@II@Z ; std::basic_string<char,std::char_traits<char>,std::allocator<char> >::assign
  0033b	6a 00		 push	 0
  0033d	6a 01		 push	 1
  0033f	8d 4d d8	 lea	 ecx, DWORD PTR $T107681[ebp]
  00342	e8 00 00 00 00	 call	 ?_Tidy@?$basic_string@DU?$char_traits@D@std@@V?$allocator@D@2@@std@@IAEX_NI@Z ; std::basic_string<char,std::char_traits<char>,std::allocator<char> >::_Tidy

; 75   : }

  00347	8b 4d f4	 mov	 ecx, DWORD PTR __$EHRec$[ebp]
  0034a	64 89 0d 00 00
	00 00		 mov	 DWORD PTR fs:__except_list, ecx
  00351	c9		 leave
  00352	c2 04 00	 ret	 4
$L107682:
  00b59	8d 4d d8	 lea	 ecx, DWORD PTR $T107681[ebp]
  00b5c	e9 00 00 00 00	 jmp	 ??1?$basic_string@DU?$char_traits@D@std@@V?$allocator@D@2@@std@@QAE@XZ ; std::basic_string<char,std::char_traits<char>,std::allocator<char> >::~basic_string<char,std::char_traits<char>,std::allocator<char> >
__ehhandler$?Set_SegmentSEQ@MusicHeader@@QAEXPAVMMLfile@@@Z:
  00b61	b8 00 00 00 00	 mov	 eax, OFFSET FLAT:$T107696
  00b66	e9 00 00 00 00	 jmp	 ___CxxFrameHandler
?Set_SegmentSEQ@MusicHeader@@QAEXPAVMMLfile@@@Z ENDP	; MusicHeader::Set_SegmentSEQ
PUBLIC	?Set_Composer@MusicHeader@@QAEXPAVMMLfile@@@Z	; MusicHeader::Set_Composer
$T107717 DD	0ffffffffH
	DD	FLAT:$L107701
$T107715 DD	019930520H
	DD	01H
	DD	FLAT:$T107717
	DD	2 DUP(00H)
	DD	2 DUP(00H)
; Function compile flags: /Ogsy
_TEXT	SEGMENT
$T107700 = -40						; size = 28
__$EHRec$ = -12						; size = 12
_this$ = 8						; size = 4
?Set_Composer@MusicHeader@@QAEXPAVMMLfile@@@Z PROC NEAR	; MusicHeader::Set_Composer
; _MML$ = ecx

; 68   : {

  00355	b8 00 00 00 00	 mov	 eax, __ehhandler$?Set_Composer@MusicHeader@@QAEXPAVMMLfile@@@Z
  0035a	e8 00 00 00 00	 call	 __EH_prolog
  0035f	83 ec 1c	 sub	 esp, 28			; 0000001cH

; 69   : 	composer = MML->GetString();

  00362	8d 45 d8	 lea	 eax, DWORD PTR $T107700[ebp]
  00365	50		 push	 eax
  00366	e8 00 00 00 00	 call	 ?GetString@MMLfile@@QAE?AV?$basic_string@DU?$char_traits@D@std@@V?$allocator@D@2@@std@@XZ ; MMLfile::GetString
  0036b	8b 4d 08	 mov	 ecx, DWORD PTR _this$[ebp]
  0036e	83 65 fc 00	 and	 DWORD PTR __$EHRec$[ebp+8], 0
  00372	6a ff		 push	 -1
  00374	6a 00		 push	 0
  00376	50		 push	 eax
  00377	83 c1 60	 add	 ecx, 96			; 00000060H
  0037a	e8 00 00 00 00	 call	 ?assign@?$basic_string@DU?$char_traits@D@std@@V?$allocator@D@2@@std@@QAEAAV12@ABV12@II@Z ; std::basic_string<char,std::char_traits<char>,std::allocator<char> >::assign
  0037f	6a 00		 push	 0
  00381	6a 01		 push	 1
  00383	8d 4d d8	 lea	 ecx, DWORD PTR $T107700[ebp]
  00386	e8 00 00 00 00	 call	 ?_Tidy@?$basic_string@DU?$char_traits@D@std@@V?$allocator@D@2@@std@@IAEX_NI@Z ; std::basic_string<char,std::char_traits<char>,std::allocator<char> >::_Tidy

; 70   : }

  0038b	8b 4d f4	 mov	 ecx, DWORD PTR __$EHRec$[ebp]
  0038e	64 89 0d 00 00
	00 00		 mov	 DWORD PTR fs:__except_list, ecx
  00395	c9		 leave
  00396	c2 04 00	 ret	 4
$L107701:
  00b6b	8d 4d d8	 lea	 ecx, DWORD PTR $T107700[ebp]
  00b6e	e9 00 00 00 00	 jmp	 ??1?$basic_string@DU?$char_traits@D@std@@V?$allocator@D@2@@std@@QAE@XZ ; std::basic_string<char,std::char_traits<char>,std::allocator<char> >::~basic_string<char,std::char_traits<char>,std::allocator<char> >
__ehhandler$?Set_Composer@MusicHeader@@QAEXPAVMMLfile@@@Z:
  00b73	b8 00 00 00 00	 mov	 eax, OFFSET FLAT:$T107715
  00b78	e9 00 00 00 00	 jmp	 ___CxxFrameHandler
?Set_Composer@MusicHeader@@QAEXPAVMMLfile@@@Z ENDP	; MusicHeader::Set_Composer
PUBLIC	?Set_Copyright@MusicHeader@@QAEXPAVMMLfile@@@Z	; MusicHeader::Set_Copyright
$T107736 DD	0ffffffffH
	DD	FLAT:$L107720
$T107734 DD	019930520H
	DD	01H
	DD	FLAT:$T107736
	DD	2 DUP(00H)
	DD	2 DUP(00H)
; Function compile flags: /Ogsy
_TEXT	SEGMENT
$T107719 = -40						; size = 28
__$EHRec$ = -12						; size = 12
_this$ = 8						; size = 4
?Set_Copyright@MusicHeader@@QAEXPAVMMLfile@@@Z PROC NEAR ; MusicHeader::Set_Copyright
; _MML$ = ecx

; 63   : {

  00399	b8 00 00 00 00	 mov	 eax, __ehhandler$?Set_Copyright@MusicHeader@@QAEXPAVMMLfile@@@Z
  0039e	e8 00 00 00 00	 call	 __EH_prolog
  003a3	83 ec 1c	 sub	 esp, 28			; 0000001cH

; 64   : 	copyright = MML->GetString();

  003a6	8d 45 d8	 lea	 eax, DWORD PTR $T107719[ebp]
  003a9	50		 push	 eax
  003aa	e8 00 00 00 00	 call	 ?GetString@MMLfile@@QAE?AV?$basic_string@DU?$char_traits@D@std@@V?$allocator@D@2@@std@@XZ ; MMLfile::GetString
  003af	8b 4d 08	 mov	 ecx, DWORD PTR _this$[ebp]
  003b2	83 65 fc 00	 and	 DWORD PTR __$EHRec$[ebp+8], 0
  003b6	6a ff		 push	 -1
  003b8	6a 00		 push	 0
  003ba	50		 push	 eax
  003bb	83 c1 44	 add	 ecx, 68			; 00000044H
  003be	e8 00 00 00 00	 call	 ?assign@?$basic_string@DU?$char_traits@D@std@@V?$allocator@D@2@@std@@QAEAAV12@ABV12@II@Z ; std::basic_string<char,std::char_traits<char>,std::allocator<char> >::assign
  003c3	6a 00		 push	 0
  003c5	6a 01		 push	 1
  003c7	8d 4d d8	 lea	 ecx, DWORD PTR $T107719[ebp]
  003ca	e8 00 00 00 00	 call	 ?_Tidy@?$basic_string@DU?$char_traits@D@std@@V?$allocator@D@2@@std@@IAEX_NI@Z ; std::basic_string<char,std::char_traits<char>,std::allocator<char> >::_Tidy

; 65   : }

  003cf	8b 4d f4	 mov	 ecx, DWORD PTR __$EHRec$[ebp]
  003d2	64 89 0d 00 00
	00 00		 mov	 DWORD PTR fs:__except_list, ecx
  003d9	c9		 leave
  003da	c2 04 00	 ret	 4
$L107720:
  00b7d	8d 4d d8	 lea	 ecx, DWORD PTR $T107719[ebp]
  00b80	e9 00 00 00 00	 jmp	 ??1?$basic_string@DU?$char_traits@D@std@@V?$allocator@D@2@@std@@QAE@XZ ; std::basic_string<char,std::char_traits<char>,std::allocator<char> >::~basic_string<char,std::char_traits<char>,std::allocator<char> >
__ehhandler$?Set_Copyright@MusicHeader@@QAEXPAVMMLfile@@@Z:
  00b85	b8 00 00 00 00	 mov	 eax, OFFSET FLAT:$T107734
  00b8a	e9 00 00 00 00	 jmp	 ___CxxFrameHandler
?Set_Copyright@MusicHeader@@QAEXPAVMMLfile@@@Z ENDP	; MusicHeader::Set_Copyright
PUBLIC	?Set_Title@MusicHeader@@QAEXPAVMMLfile@@@Z	; MusicHeader::Set_Title
$T107755 DD	0ffffffffH
	DD	FLAT:$L107739
$T107753 DD	019930520H
	DD	01H
	DD	FLAT:$T107755
	DD	2 DUP(00H)
	DD	2 DUP(00H)
; Function compile flags: /Ogsy
_TEXT	SEGMENT
$T107738 = -40						; size = 28
__$EHRec$ = -12						; size = 12
_this$ = 8						; size = 4
?Set_Title@MusicHeader@@QAEXPAVMMLfile@@@Z PROC NEAR	; MusicHeader::Set_Title
; _MML$ = ecx

; 58   : {

  003dd	b8 00 00 00 00	 mov	 eax, __ehhandler$?Set_Title@MusicHeader@@QAEXPAVMMLfile@@@Z
  003e2	e8 00 00 00 00	 call	 __EH_prolog
  003e7	83 ec 1c	 sub	 esp, 28			; 0000001cH

; 59   : 	title = MML->GetString();

  003ea	8d 45 d8	 lea	 eax, DWORD PTR $T107738[ebp]
  003ed	50		 push	 eax
  003ee	e8 00 00 00 00	 call	 ?GetString@MMLfile@@QAE?AV?$basic_string@DU?$char_traits@D@std@@V?$allocator@D@2@@std@@XZ ; MMLfile::GetString
  003f3	8b 4d 08	 mov	 ecx, DWORD PTR _this$[ebp]
  003f6	83 65 fc 00	 and	 DWORD PTR __$EHRec$[ebp+8], 0
  003fa	6a ff		 push	 -1
  003fc	6a 00		 push	 0
  003fe	50		 push	 eax
  003ff	83 c1 28	 add	 ecx, 40			; 00000028H
  00402	e8 00 00 00 00	 call	 ?assign@?$basic_string@DU?$char_traits@D@std@@V?$allocator@D@2@@std@@QAEAAV12@ABV12@II@Z ; std::basic_string<char,std::char_traits<char>,std::allocator<char> >::assign
  00407	6a 00		 push	 0
  00409	6a 01		 push	 1
  0040b	8d 4d d8	 lea	 ecx, DWORD PTR $T107738[ebp]
  0040e	e8 00 00 00 00	 call	 ?_Tidy@?$basic_string@DU?$char_traits@D@std@@V?$allocator@D@2@@std@@IAEX_NI@Z ; std::basic_string<char,std::char_traits<char>,std::allocator<char> >::_Tidy

; 60   : }

  00413	8b 4d f4	 mov	 ecx, DWORD PTR __$EHRec$[ebp]
  00416	64 89 0d 00 00
	00 00		 mov	 DWORD PTR fs:__except_list, ecx
  0041d	c9		 leave
  0041e	c2 04 00	 ret	 4
$L107739:
  00b8f	8d 4d d8	 lea	 ecx, DWORD PTR $T107738[ebp]
  00b92	e9 00 00 00 00	 jmp	 ??1?$basic_string@DU?$char_traits@D@std@@V?$allocator@D@2@@std@@QAE@XZ ; std::basic_string<char,std::char_traits<char>,std::allocator<char> >::~basic_string<char,std::char_traits<char>,std::allocator<char> >
__ehhandler$?Set_Title@MusicHeader@@QAEXPAVMMLfile@@@Z:
  00b97	b8 00 00 00 00	 mov	 eax, OFFSET FLAT:$T107753
  00b9c	e9 00 00 00 00	 jmp	 ___CxxFrameHandler
?Set_Title@MusicHeader@@QAEXPAVMMLfile@@@Z ENDP		; MusicHeader::Set_Title
END
