PUBLIC	??_GMusicItem@@QAEPAXI@Z			; MusicItem::`scalar deleting destructor'
PUBLIC	?append@?$basic_string@DU?$char_traits@D@std@@V?$allocator@D@2@@std@@QAEAAV12@ABV12@@Z ; std::basic_string<char,std::char_traits<char>,std::allocator<char> >::append
PUBLIC	??6?$basic_ostream@GU?$char_traits@G@std@@@std@@QAEAAV01@P6AAAVios_base@1@AAV21@@Z@Z ; std::basic_ostream<unsigned short,std::char_traits<unsigned short> >::operator<<
PUBLIC	??6?$basic_ostream@DU?$char_traits@D@std@@@std@@QAEAAV01@P6AAAVios_base@1@AAV21@@Z@Z ; std::basic_ostream<char,std::char_traits<char> >::operator<<
PUBLIC	??6?$basic_ostream@DU?$char_traits@D@std@@@std@@QAEAAV01@H@Z ; std::basic_ostream<char,std::char_traits<char> >::operator<<
PUBLIC	??0?$list@PAVMusicItem@@V?$allocator@PAVMusicItem@@@std@@@std@@QAE@XZ ; std::list<MusicItem *,std::allocator<MusicItem *> >::list<MusicItem *,std::allocator<MusicItem *> >
PUBLIC	??1?$list@PAVMusicItem@@V?$allocator@PAVMusicItem@@@std@@@std@@QAE@XZ ; std::list<MusicItem *,std::allocator<MusicItem *> >::~list<MusicItem *,std::allocator<MusicItem *> >
PUBLIC	?begin@?$list@PAVMusicItem@@V?$allocator@PAVMusicItem@@@std@@@std@@QAE?AViterator@12@XZ ; std::list<MusicItem *,std::allocator<MusicItem *> >::begin
PUBLIC	?empty@?$list@PAVMusicItem@@V?$allocator@PAVMusicItem@@@std@@@std@@QBE_NXZ ; std::list<MusicItem *,std::allocator<MusicItem *> >::empty
PUBLIC	?clear@?$list@PAVMusicItem@@V?$allocator@PAVMusicItem@@@std@@@std@@QAEXXZ ; std::list<MusicItem *,std::allocator<MusicItem *> >::clear
PUBLIC	??0iterator@?$list@PAVMusicItem@@V?$allocator@PAVMusicItem@@@std@@@std@@QAE@XZ ; std::list<MusicItem *,std::allocator<MusicItem *> >::iterator::iterator
PUBLIC	??Diterator@?$list@PAVMusicItem@@V?$allocator@PAVMusicItem@@@std@@@std@@QBEAAPAVMusicItem@@XZ ; std::list<MusicItem *,std::allocator<MusicItem *> >::iterator::operator*
PUBLIC	??Eiterator@?$list@PAVMusicItem@@V?$allocator@PAVMusicItem@@@std@@@std@@QAE?AV012@H@Z ; std::list<MusicItem *,std::allocator<MusicItem *> >::iterator::operator++
PUBLIC	??9const_iterator@?$list@PAVMusicItem@@V?$allocator@PAVMusicItem@@@std@@@std@@QBE_NABV012@@Z ; std::list<MusicItem *,std::allocator<MusicItem *> >::const_iterator::operator!=
PUBLIC	?_Buynode@?$list@PAVMusicItem@@V?$allocator@PAVMusicItem@@@std@@@std@@IAEPAU_Node@?$_List_nod@PAVMusicItem@@V?$allocator@PAVMusicItem@@@std@@@2@XZ ; std::list<MusicItem *,std::allocator<MusicItem *> >::_Buynode
PUBLIC	?_Tidy@?$list@PAVMusicItem@@V?$allocator@PAVMusicItem@@@std@@@std@@IAEXXZ ; std::list<MusicItem *,std::allocator<MusicItem *> >::_Tidy
PUBLIC	??0?$_List_val@PAVMusicItem@@V?$allocator@PAVMusicItem@@@std@@@std@@IAE@V?$allocator@PAVMusicItem@@@1@@Z ; std::_List_val<MusicItem *,std::allocator<MusicItem *> >::_List_val<MusicItem *,std::allocator<MusicItem *> >
PUBLIC	??0?$allocator@PAVMusicItem@@@std@@QAE@XZ	; std::allocator<MusicItem *>::allocator<MusicItem *>
PUBLIC	?destroy@?$allocator@U_Node@?$_List_nod@PAVMusicItem@@V?$allocator@PAVMusicItem@@@std@@@std@@@std@@QAEXPAU_Node@?$_List_nod@PAVMusicItem@@V?$allocator@PAVMusicItem@@@std@@@2@@Z ; std::allocator<std::_List_nod<MusicItem *,std::allocator<MusicItem *> >::_Node>::destroy
PUBLIC	??Eiterator@?$list@PAVMusicItem@@V?$allocator@PAVMusicItem@@@std@@@std@@QAEAAV012@XZ ; std::list<MusicItem *,std::allocator<MusicItem *> >::iterator::operator++
PUBLIC	??0const_iterator@?$list@PAVMusicItem@@V?$allocator@PAVMusicItem@@@std@@@std@@QAE@XZ ; std::list<MusicItem *,std::allocator<MusicItem *> >::const_iterator::const_iterator
PUBLIC	??Dconst_iterator@?$list@PAVMusicItem@@V?$allocator@PAVMusicItem@@@std@@@std@@QBEABQAVMusicItem@@XZ ; std::list<MusicItem *,std::allocator<MusicItem *> >::const_iterator::operator*
PUBLIC	??8const_iterator@?$list@PAVMusicItem@@V?$allocator@PAVMusicItem@@@std@@@std@@QBE_NABV012@@Z ; std::list<MusicItem *,std::allocator<MusicItem *> >::const_iterator::operator==
PUBLIC	?put@?$num_put@DV?$ostreambuf_iterator@DU?$char_traits@D@std@@@std@@@std@@QBE?AV?$ostreambuf_iterator@DU?$char_traits@D@std@@@2@V32@AAVios_base@2@DJ@Z ; std::num_put<char,std::ostreambuf_iterator<char,std::char_traits<char> > >::put
PUBLIC	?_Myval@?$list@PAVMusicItem@@V?$allocator@PAVMusicItem@@@std@@@std@@KAAAPAVMusicItem@@PAU_Node@?$_List_nod@PAVMusicItem@@V?$allocator@PAVMusicItem@@@std@@@2@@Z ; std::list<MusicItem *,std::allocator<MusicItem *> >::_Myval
PUBLIC	??0?$_List_ptr@PAVMusicItem@@V?$allocator@PAVMusicItem@@@std@@@std@@IAE@V?$allocator@PAVMusicItem@@@1@@Z ; std::_List_ptr<MusicItem *,std::allocator<MusicItem *> >::_List_ptr<MusicItem *,std::allocator<MusicItem *> >
PUBLIC	??0?$allocator@PAVMusicItem@@@std@@QAE@ABV01@@Z	; std::allocator<MusicItem *>::allocator<MusicItem *>
PUBLIC	?construct@?$allocator@PAU_Node@?$_List_nod@PAVMusicItem@@V?$allocator@PAVMusicItem@@@std@@@std@@@std@@QAEXPAPAU_Node@?$_List_nod@PAVMusicItem@@V?$allocator@PAVMusicItem@@@std@@@2@ABQAU342@@Z ; std::allocator<std::_List_nod<MusicItem *,std::allocator<MusicItem *> >::_Node *>::construct
PUBLIC	?destroy@?$allocator@PAU_Node@?$_List_nod@PAVMusicItem@@V?$allocator@PAVMusicItem@@@std@@@std@@@std@@QAEXPAPAU_Node@?$_List_nod@PAVMusicItem@@V?$allocator@PAVMusicItem@@@std@@@2@@Z ; std::allocator<std::_List_nod<MusicItem *,std::allocator<MusicItem *> >::_Node *>::destroy
PUBLIC	??Econst_iterator@?$list@PAVMusicItem@@V?$allocator@PAVMusicItem@@@std@@@std@@QAEAAV012@XZ ; std::list<MusicItem *,std::allocator<MusicItem *> >::const_iterator::operator++
PUBLIC	??0?$_List_nod@PAVMusicItem@@V?$allocator@PAVMusicItem@@@std@@@std@@IAE@V?$allocator@PAVMusicItem@@@1@@Z ; std::_List_nod<MusicItem *,std::allocator<MusicItem *> >::_List_nod<MusicItem *,std::allocator<MusicItem *> >
PUBLIC	??$?6GU?$char_traits@G@std@@H@std@@YAAAV?$basic_ostream@GU?$char_traits@G@std@@@0@AAV10@ABU?$_Smanip@H@0@@Z ; std::operator<<<unsigned short,std::char_traits<unsigned short>,int>
PUBLIC	??$setfill@G@std@@YA?AU?$_Fillobj@G@0@G@Z	; std::setfill<unsigned short>
PUBLIC	??$?6GU?$char_traits@G@std@@@std@@YAAAV?$basic_ostream@GU?$char_traits@G@std@@@0@AAV10@ABU?$_Fillobj@G@0@@Z ; std::operator<<<unsigned short,std::char_traits<unsigned short> >
PUBLIC	??$_Destroy@U_Node@?$_List_nod@PAVMusicItem@@V?$allocator@PAVMusicItem@@@std@@@std@@@std@@YAXPAU_Node@?$_List_nod@PAVMusicItem@@V?$allocator@PAVMusicItem@@@std@@@0@@Z ; std::_Destroy<std::_List_nod<MusicItem *,std::allocator<MusicItem *> >::_Node>
PUBLIC	??$?0PAVMusicItem@@@?$allocator@PAU_Node@?$_List_nod@PAVMusicItem@@V?$allocator@PAVMusicItem@@@std@@@std@@@std@@QAE@ABV?$allocator@PAVMusicItem@@@1@@Z ; std::allocator<std::_List_nod<MusicItem *,std::allocator<MusicItem *> >::_Node *>::allocator<std::_List_nod<MusicItem *,std::allocator<MusicItem *> >::_Node *><MusicItem *>
PUBLIC	??$_Construct@PAU_Node@?$_List_nod@PAVMusicItem@@V?$allocator@PAVMusicItem@@@std@@@std@@PAU123@@std@@YAXPAPAU_Node@?$_List_nod@PAVMusicItem@@V?$allocator@PAVMusicItem@@@std@@@0@ABQAU120@@Z ; std::_Construct<std::_List_nod<MusicItem *,std::allocator<MusicItem *> >::_Node *,std::_List_nod<MusicItem *,std::allocator<MusicItem *> >::_Node *>
PUBLIC	??$_Destroy@PAU_Node@?$_List_nod@PAVMusicItem@@V?$allocator@PAVMusicItem@@@std@@@std@@@std@@YAXPAPAU_Node@?$_List_nod@PAVMusicItem@@V?$allocator@PAVMusicItem@@@std@@@0@@Z ; std::_Destroy<std::_List_nod<MusicItem *,std::allocator<MusicItem *> >::_Node *>
PUBLIC	??$?0PAVMusicItem@@@?$allocator@U_Node@?$_List_nod@PAVMusicItem@@V?$allocator@PAVMusicItem@@@std@@@std@@@std@@QAE@ABV?$allocator@PAVMusicItem@@@1@@Z ; std::allocator<std::_List_nod<MusicItem *,std::allocator<MusicItem *> >::_Node>::allocator<std::_List_nod<MusicItem *,std::allocator<MusicItem *> >::_Node><MusicItem *>
PUBLIC	?fill@?$basic_ios@GU?$char_traits@G@std@@@std@@QAEGG@Z ; std::basic_ios<unsigned short,std::char_traits<unsigned short> >::fill
PUBLIC	??0?$_Fillobj@G@std@@QAE@G@Z			; std::_Fillobj<unsigned short>::_Fillobj<unsigned short>
PUBLIC	?dec@std@@YAAAVios_base@1@AAV21@@Z		; std::dec
PUBLIC	?setf@ios_base@std@@QAEHHH@Z			; std::ios_base::setf
PUBLIC	?hex@std@@YAAAVios_base@1@AAV21@@Z		; std::hex
PUBLIC	?setCode@MusicItem@@UAEXPAV?$basic_string@DU?$char_traits@D@std@@V?$allocator@D@2@@std@@@Z ; MusicItem::setCode
PUBLIC	?getCode@MusicItem@@UAEXPAV?$basic_string@DU?$char_traits@D@std@@V?$allocator@D@2@@std@@@Z ; MusicItem::getCode
PUBLIC	?getAsm@MusicItem@@UAEXPAVMusicFile@@@Z		; MusicItem::getAsm
; Listing generated by Microsoft (R) Optimizing Compiler Version 13.10.3077 

	TITLE	.\MusicItem.cpp
	.386P
include listing.inc
if @Version gt 510
.model FLAT
else
;	COMDAT ??_C@_1CO@CABMGNMH@?$AAC?$AAr?$AAe?$AAa?$AAt?$AAe?$AA?5?$AAM?$AAu?$AAs?$AAi?$AAc?$AA?5?$AAO?$AAb?$AAj?$AAe?$AAc?$AAt?$AA?5@
CONST	SEGMENT DWORD USE32 PUBLIC 'CONST'
CONST	ENDS
;	COMDAT ??_C@_13LLDNKHDC@?$AA?$CI?$AA?$AA@
CONST	SEGMENT DWORD USE32 PUBLIC 'CONST'
CONST	ENDS
;	COMDAT ??_C@_1DK@NDALBCEO@?$AAC?$AAr?$AAe?$AAa?$AAt?$AAe?$AA?5?$AAM?$AAu?$AAs?$AAi?$AAc?$AA?5?$AAO?$AAb?$AAj?$AAe?$AAc?$AAt?$AA?5@
CONST	SEGMENT DWORD USE32 PUBLIC 'CONST'
CONST	ENDS
;	COMDAT ??_C@_1BA@IPNAJJBI@?$AA?$CJ?$AA?5?$AA?$FN?$AA?$DN?$AA?$DN?$AA?$DN?$AA?$DN?$AA?$AA@
CONST	SEGMENT DWORD USE32 PUBLIC 'CONST'
CONST	ENDS
;	COMDAT ??_C@_1CO@OFPKHPDE@?$AAD?$AAe?$AAl?$AAe?$AAt?$AAe?$AA?5?$AAM?$AAu?$AAs?$AAi?$AAc?$AA?5?$AAO?$AAb?$AAj?$AAe?$AAc?$AAt?$AA?5@
CONST	SEGMENT DWORD USE32 PUBLIC 'CONST'
CONST	ENDS
;	COMDAT ??_C@_1DI@HOOCLMDN@?$AAC?$AAl?$AAe?$AAa?$AAr?$AA?5?$AAM?$AAu?$AAs?$AAi?$AAc?$AA?5?$AAO?$AAb?$AAj?$AAe?$AAc?$AAt?$AA?5?$AA?3@
CONST	SEGMENT DWORD USE32 PUBLIC 'CONST'
CONST	ENDS
;	COMDAT ??_C@_17FBCNENHE@?$AA?$FN?$AA?3?$AA?5?$AA?$AA@
CONST	SEGMENT DWORD USE32 PUBLIC 'CONST'
CONST	ENDS
;	COMDAT ??_C@_1CG@JGMDIGM@?$AAO?$AAb?$AAj?$AAe?$AAc?$AAt?$AA?5?$AAA?$AAd?$AAd?$AAr?$AAe?$AAs?$AAs?$AA?5?$AA?$FL?$AA0?$AAx?$AA?$AA@
CONST	SEGMENT DWORD USE32 PUBLIC 'CONST'
CONST	ENDS
;	COMDAT ??_C@_13HOIJIPNN@?$AA?5?$AA?$AA@
CONST	SEGMENT DWORD USE32 PUBLIC 'CONST'
CONST	ENDS
;	COMDAT ??_C@_15ELOONFKJ@?$AA?3?$AA?5?$AA?$AA@
CONST	SEGMENT DWORD USE32 PUBLIC 'CONST'
CONST	ENDS
;	COMDAT ??_C@_08JHDOLHLM@?7?4byte?7$?$AA@
CONST	SEGMENT DWORD USE32 PUBLIC 'CONST'
CONST	ENDS
;	COMDAT ??_C@_03LODGNBPP@?5?0$?$AA@
CONST	SEGMENT DWORD USE32 PUBLIC 'CONST'
CONST	ENDS
text$yc	SEGMENT PARA USE32 PUBLIC 'CODE'
text$yc	ENDS
;	COMDAT ??_GMusicItem@@QAEPAXI@Z
_TEXT	SEGMENT PARA USE32 PUBLIC 'CODE'
_TEXT	ENDS
;	COMDAT ?append@?$basic_string@DU?$char_traits@D@std@@V?$allocator@D@2@@std@@QAEAAV12@ABV12@@Z
_TEXT	SEGMENT PARA USE32 PUBLIC 'CODE'
_TEXT	ENDS
;	COMDAT ??6?$basic_ostream@GU?$char_traits@G@std@@@std@@QAEAAV01@P6AAAVios_base@1@AAV21@@Z@Z
_TEXT	SEGMENT PARA USE32 PUBLIC 'CODE'
_TEXT	ENDS
;	COMDAT ??6?$basic_ostream@DU?$char_traits@D@std@@@std@@QAEAAV01@P6AAAVios_base@1@AAV21@@Z@Z
_TEXT	SEGMENT PARA USE32 PUBLIC 'CODE'
_TEXT	ENDS
;	COMDAT ??6?$basic_ostream@DU?$char_traits@D@std@@@std@@QAEAAV01@H@Z
_TEXT	SEGMENT PARA USE32 PUBLIC 'CODE'
_TEXT	ENDS
;	COMDAT ??0?$list@PAVMusicItem@@V?$allocator@PAVMusicItem@@@std@@@std@@QAE@XZ
_TEXT	SEGMENT PARA USE32 PUBLIC 'CODE'
_TEXT	ENDS
;	COMDAT ??1?$list@PAVMusicItem@@V?$allocator@PAVMusicItem@@@std@@@std@@QAE@XZ
_TEXT	SEGMENT PARA USE32 PUBLIC 'CODE'
_TEXT	ENDS
;	COMDAT ?begin@?$list@PAVMusicItem@@V?$allocator@PAVMusicItem@@@std@@@std@@QAE?AViterator@12@XZ
_TEXT	SEGMENT PARA USE32 PUBLIC 'CODE'
_TEXT	ENDS
;	COMDAT ?empty@?$list@PAVMusicItem@@V?$allocator@PAVMusicItem@@@std@@@std@@QBE_NXZ
_TEXT	SEGMENT PARA USE32 PUBLIC 'CODE'
_TEXT	ENDS
;	COMDAT ?clear@?$list@PAVMusicItem@@V?$allocator@PAVMusicItem@@@std@@@std@@QAEXXZ
_TEXT	SEGMENT PARA USE32 PUBLIC 'CODE'
_TEXT	ENDS
;	COMDAT ??0iterator@?$list@PAVMusicItem@@V?$allocator@PAVMusicItem@@@std@@@std@@QAE@XZ
_TEXT	SEGMENT PARA USE32 PUBLIC 'CODE'
_TEXT	ENDS
;	COMDAT ??Diterator@?$list@PAVMusicItem@@V?$allocator@PAVMusicItem@@@std@@@std@@QBEAAPAVMusicItem@@XZ
_TEXT	SEGMENT PARA USE32 PUBLIC 'CODE'
_TEXT	ENDS
;	COMDAT ??Eiterator@?$list@PAVMusicItem@@V?$allocator@PAVMusicItem@@@std@@@std@@QAE?AV012@H@Z
_TEXT	SEGMENT PARA USE32 PUBLIC 'CODE'
_TEXT	ENDS
;	COMDAT ??9const_iterator@?$list@PAVMusicItem@@V?$allocator@PAVMusicItem@@@std@@@std@@QBE_NABV012@@Z
_TEXT	SEGMENT PARA USE32 PUBLIC 'CODE'
_TEXT	ENDS
;	COMDAT ?_Buynode@?$list@PAVMusicItem@@V?$allocator@PAVMusicItem@@@std@@@std@@IAEPAU_Node@?$_List_nod@PAVMusicItem@@V?$allocator@PAVMusicItem@@@std@@@2@XZ
_TEXT	SEGMENT PARA USE32 PUBLIC 'CODE'
_TEXT	ENDS
;	COMDAT ?_Tidy@?$list@PAVMusicItem@@V?$allocator@PAVMusicItem@@@std@@@std@@IAEXXZ
_TEXT	SEGMENT PARA USE32 PUBLIC 'CODE'
_TEXT	ENDS
;	COMDAT ??0?$_List_val@PAVMusicItem@@V?$allocator@PAVMusicItem@@@std@@@std@@IAE@V?$allocator@PAVMusicItem@@@1@@Z
_TEXT	SEGMENT PARA USE32 PUBLIC 'CODE'
_TEXT	ENDS
;	COMDAT ??0?$allocator@PAVMusicItem@@@std@@QAE@XZ
_TEXT	SEGMENT PARA USE32 PUBLIC 'CODE'
_TEXT	ENDS
;	COMDAT ?destroy@?$allocator@U_Node@?$_List_nod@PAVMusicItem@@V?$allocator@PAVMusicItem@@@std@@@std@@@std@@QAEXPAU_Node@?$_List_nod@PAVMusicItem@@V?$allocator@PAVMusicItem@@@std@@@2@@Z
_TEXT	SEGMENT PARA USE32 PUBLIC 'CODE'
_TEXT	ENDS
;	COMDAT ??Eiterator@?$list@PAVMusicItem@@V?$allocator@PAVMusicItem@@@std@@@std@@QAEAAV012@XZ
_TEXT	SEGMENT PARA USE32 PUBLIC 'CODE'
_TEXT	ENDS
;	COMDAT ??0const_iterator@?$list@PAVMusicItem@@V?$allocator@PAVMusicItem@@@std@@@std@@QAE@XZ
_TEXT	SEGMENT PARA USE32 PUBLIC 'CODE'
_TEXT	ENDS
;	COMDAT ??Dconst_iterator@?$list@PAVMusicItem@@V?$allocator@PAVMusicItem@@@std@@@std@@QBEABQAVMusicItem@@XZ
_TEXT	SEGMENT PARA USE32 PUBLIC 'CODE'
_TEXT	ENDS
;	COMDAT ??8const_iterator@?$list@PAVMusicItem@@V?$allocator@PAVMusicItem@@@std@@@std@@QBE_NABV012@@Z
_TEXT	SEGMENT PARA USE32 PUBLIC 'CODE'
_TEXT	ENDS
;	COMDAT ?put@?$num_put@DV?$ostreambuf_iterator@DU?$char_traits@D@std@@@std@@@std@@QBE?AV?$ostreambuf_iterator@DU?$char_traits@D@std@@@2@V32@AAVios_base@2@DJ@Z
_TEXT	SEGMENT PARA USE32 PUBLIC 'CODE'
_TEXT	ENDS
;	COMDAT ?_Myval@?$list@PAVMusicItem@@V?$allocator@PAVMusicItem@@@std@@@std@@KAAAPAVMusicItem@@PAU_Node@?$_List_nod@PAVMusicItem@@V?$allocator@PAVMusicItem@@@std@@@2@@Z
_TEXT	SEGMENT PARA USE32 PUBLIC 'CODE'
_TEXT	ENDS
;	COMDAT ??0?$_List_ptr@PAVMusicItem@@V?$allocator@PAVMusicItem@@@std@@@std@@IAE@V?$allocator@PAVMusicItem@@@1@@Z
_TEXT	SEGMENT PARA USE32 PUBLIC 'CODE'
_TEXT	ENDS
;	COMDAT ??0?$allocator@PAVMusicItem@@@std@@QAE@ABV01@@Z
_TEXT	SEGMENT PARA USE32 PUBLIC 'CODE'
_TEXT	ENDS
;	COMDAT ?construct@?$allocator@PAU_Node@?$_List_nod@PAVMusicItem@@V?$allocator@PAVMusicItem@@@std@@@std@@@std@@QAEXPAPAU_Node@?$_List_nod@PAVMusicItem@@V?$allocator@PAVMusicItem@@@std@@@2@ABQAU342@@Z
_TEXT	SEGMENT PARA USE32 PUBLIC 'CODE'
_TEXT	ENDS
;	COMDAT ?destroy@?$allocator@PAU_Node@?$_List_nod@PAVMusicItem@@V?$allocator@PAVMusicItem@@@std@@@std@@@std@@QAEXPAPAU_Node@?$_List_nod@PAVMusicItem@@V?$allocator@PAVMusicItem@@@std@@@2@@Z
_TEXT	SEGMENT PARA USE32 PUBLIC 'CODE'
_TEXT	ENDS
;	COMDAT ??Econst_iterator@?$list@PAVMusicItem@@V?$allocator@PAVMusicItem@@@std@@@std@@QAEAAV012@XZ
_TEXT	SEGMENT PARA USE32 PUBLIC 'CODE'
_TEXT	ENDS
;	COMDAT ??0?$_List_nod@PAVMusicItem@@V?$allocator@PAVMusicItem@@@std@@@std@@IAE@V?$allocator@PAVMusicItem@@@1@@Z
_TEXT	SEGMENT PARA USE32 PUBLIC 'CODE'
_TEXT	ENDS
;	COMDAT _$E1
text$yc	SEGMENT PARA USE32 PUBLIC 'CODE'
text$yc	ENDS
;	COMDAT ??$?6GU?$char_traits@G@std@@H@std@@YAAAV?$basic_ostream@GU?$char_traits@G@std@@@0@AAV10@ABU?$_Smanip@H@0@@Z
_TEXT	SEGMENT PARA USE32 PUBLIC 'CODE'
_TEXT	ENDS
;	COMDAT ??$setfill@G@std@@YA?AU?$_Fillobj@G@0@G@Z
_TEXT	SEGMENT PARA USE32 PUBLIC 'CODE'
_TEXT	ENDS
;	COMDAT ??$?6GU?$char_traits@G@std@@@std@@YAAAV?$basic_ostream@GU?$char_traits@G@std@@@0@AAV10@ABU?$_Fillobj@G@0@@Z
_TEXT	SEGMENT PARA USE32 PUBLIC 'CODE'
_TEXT	ENDS
;	COMDAT ??$_Destroy@U_Node@?$_List_nod@PAVMusicItem@@V?$allocator@PAVMusicItem@@@std@@@std@@@std@@YAXPAU_Node@?$_List_nod@PAVMusicItem@@V?$allocator@PAVMusicItem@@@std@@@0@@Z
_TEXT	SEGMENT PARA USE32 PUBLIC 'CODE'
_TEXT	ENDS
;	COMDAT ??$?0PAVMusicItem@@@?$allocator@PAU_Node@?$_List_nod@PAVMusicItem@@V?$allocator@PAVMusicItem@@@std@@@std@@@std@@QAE@ABV?$allocator@PAVMusicItem@@@1@@Z
_TEXT	SEGMENT PARA USE32 PUBLIC 'CODE'
_TEXT	ENDS
;	COMDAT ??$_Construct@PAU_Node@?$_List_nod@PAVMusicItem@@V?$allocator@PAVMusicItem@@@std@@@std@@PAU123@@std@@YAXPAPAU_Node@?$_List_nod@PAVMusicItem@@V?$allocator@PAVMusicItem@@@std@@@0@ABQAU120@@Z
_TEXT	SEGMENT PARA USE32 PUBLIC 'CODE'
_TEXT	ENDS
;	COMDAT ??$_Destroy@PAU_Node@?$_List_nod@PAVMusicItem@@V?$allocator@PAVMusicItem@@@std@@@std@@@std@@YAXPAPAU_Node@?$_List_nod@PAVMusicItem@@V?$allocator@PAVMusicItem@@@std@@@0@@Z
_TEXT	SEGMENT PARA USE32 PUBLIC 'CODE'
_TEXT	ENDS
;	COMDAT ??$?0PAVMusicItem@@@?$allocator@U_Node@?$_List_nod@PAVMusicItem@@V?$allocator@PAVMusicItem@@@std@@@std@@@std@@QAE@ABV?$allocator@PAVMusicItem@@@1@@Z
_TEXT	SEGMENT PARA USE32 PUBLIC 'CODE'
_TEXT	ENDS
;	COMDAT ?fill@?$basic_ios@GU?$char_traits@G@std@@@std@@QAEGG@Z
_TEXT	SEGMENT PARA USE32 PUBLIC 'CODE'
_TEXT	ENDS
;	COMDAT ??0?$_Fillobj@G@std@@QAE@G@Z
_TEXT	SEGMENT PARA USE32 PUBLIC 'CODE'
_TEXT	ENDS
;	COMDAT _$E3
text$yc	SEGMENT PARA USE32 PUBLIC 'CODE'
text$yc	ENDS
;	COMDAT _$E5
text$yc	SEGMENT PARA USE32 PUBLIC 'CODE'
text$yc	ENDS
;	COMDAT _$E7
text$yc	SEGMENT PARA USE32 PUBLIC 'CODE'
text$yc	ENDS
;	COMDAT _$E9
text$yc	SEGMENT PARA USE32 PUBLIC 'CODE'
text$yc	ENDS
;	COMDAT ?dec@std@@YAAAVios_base@1@AAV21@@Z
_TEXT	SEGMENT PARA USE32 PUBLIC 'CODE'
_TEXT	ENDS
;	COMDAT ?setf@ios_base@std@@QAEHHH@Z
_TEXT	SEGMENT PARA USE32 PUBLIC 'CODE'
_TEXT	ENDS
;	COMDAT ?hex@std@@YAAAVios_base@1@AAV21@@Z
_TEXT	SEGMENT PARA USE32 PUBLIC 'CODE'
_TEXT	ENDS
;	COMDAT ??_7MusicItem@@6B@
CONST	SEGMENT DWORD USE32 PUBLIC 'CONST'
CONST	ENDS
FLAT	GROUP _DATA, CONST, _BSS
	ASSUME	CS: FLAT, DS: FLAT, SS: FLAT
endif

INCLUDELIB LIBCMT
INCLUDELIB OLDNAMES

PUBLIC	??_C@_1CO@CABMGNMH@?$AAC?$AAr?$AAe?$AAa?$AAt?$AAe?$AA?5?$AAM?$AAu?$AAs?$AAi?$AAc?$AA?5?$AAO?$AAb?$AAj?$AAe?$AAc?$AAt?$AA?5@ ; `string'
PUBLIC	??_C@_13LLDNKHDC@?$AA?$CI?$AA?$AA@		; `string'
PUBLIC	??_C@_1DK@NDALBCEO@?$AAC?$AAr?$AAe?$AAa?$AAt?$AAe?$AA?5?$AAM?$AAu?$AAs?$AAi?$AAc?$AA?5?$AAO?$AAb?$AAj?$AAe?$AAc?$AAt?$AA?5@ ; `string'
PUBLIC	??_C@_1BA@IPNAJJBI@?$AA?$CJ?$AA?5?$AA?$FN?$AA?$DN?$AA?$DN?$AA?$DN?$AA?$DN?$AA?$AA@ ; `string'
PUBLIC	??_C@_1CO@OFPKHPDE@?$AAD?$AAe?$AAl?$AAe?$AAt?$AAe?$AA?5?$AAM?$AAu?$AAs?$AAi?$AAc?$AA?5?$AAO?$AAb?$AAj?$AAe?$AAc?$AAt?$AA?5@ ; `string'
PUBLIC	??_C@_1DI@HOOCLMDN@?$AAC?$AAl?$AAe?$AAa?$AAr?$AA?5?$AAM?$AAu?$AAs?$AAi?$AAc?$AA?5?$AAO?$AAb?$AAj?$AAe?$AAc?$AAt?$AA?5?$AA?3@ ; `string'
PUBLIC	??_C@_17FBCNENHE@?$AA?$FN?$AA?3?$AA?5?$AA?$AA@	; `string'
PUBLIC	??_C@_1CG@JGMDIGM@?$AAO?$AAb?$AAj?$AAe?$AAc?$AAt?$AA?5?$AAA?$AAd?$AAd?$AAr?$AAe?$AAs?$AAs?$AA?5?$AA?$FL?$AA0?$AAx?$AA?$AA@ ; `string'
PUBLIC	??_C@_13HOIJIPNN@?$AA?5?$AA?$AA@		; `string'
PUBLIC	??_C@_15ELOONFKJ@?$AA?3?$AA?5?$AA?$AA@		; `string'
PUBLIC	??_C@_08JHDOLHLM@?7?4byte?7$?$AA@		; `string'
PUBLIC	??_C@_03LODGNBPP@?5?0$?$AA@			; `string'
PUBLIC	??_7MusicItem@@6B@				; MusicItem::`vftable'
;	COMDAT ??_C@_1CO@CABMGNMH@?$AAC?$AAr?$AAe?$AAa?$AAt?$AAe?$AA?5?$AAM?$AAu?$AAs?$AAi?$AAc?$AA?5?$AAO?$AAb?$AAj?$AAe?$AAc?$AAt?$AA?5@
CONST	SEGMENT
??_C@_1CO@CABMGNMH@?$AAC?$AAr?$AAe?$AAa?$AAt?$AAe?$AA?5?$AAM?$AAu?$AAs?$AAi?$AAc?$AA?5?$AAO?$AAb?$AAj?$AAe?$AAc?$AAt?$AA?5@ DB 'C'
	DB	00H, 'r', 00H, 'e', 00H, 'a', 00H, 't', 00H, 'e', 00H, ' ', 00H
	DB	'M', 00H, 'u', 00H, 's', 00H, 'i', 00H, 'c', 00H, ' ', 00H, 'O'
	DB	00H, 'b', 00H, 'j', 00H, 'e', 00H, 'c', 00H, 't', 00H, ' ', 00H
	DB	':', 00H, ' ', 00H, 00H, 00H			; `string'
CONST	ENDS
;	COMDAT ??_C@_13LLDNKHDC@?$AA?$CI?$AA?$AA@
CONST	SEGMENT
??_C@_13LLDNKHDC@?$AA?$CI?$AA?$AA@ DB '(', 00H, 00H, 00H ; `string'
CONST	ENDS
;	COMDAT ??_C@_1DK@NDALBCEO@?$AAC?$AAr?$AAe?$AAa?$AAt?$AAe?$AA?5?$AAM?$AAu?$AAs?$AAi?$AAc?$AA?5?$AAO?$AAb?$AAj?$AAe?$AAc?$AAt?$AA?5@
CONST	SEGMENT
??_C@_1DK@NDALBCEO@?$AAC?$AAr?$AAe?$AAa?$AAt?$AAe?$AA?5?$AAM?$AAu?$AAs?$AAi?$AAc?$AA?5?$AAO?$AAb?$AAj?$AAe?$AAc?$AAt?$AA?5@ DB 'C'
	DB	00H, 'r', 00H, 'e', 00H, 'a', 00H, 't', 00H, 'e', 00H, ' ', 00H
	DB	'M', 00H, 'u', 00H, 's', 00H, 'i', 00H, 'c', 00H, ' ', 00H, 'O'
	DB	00H, 'b', 00H, 'j', 00H, 'e', 00H, 'c', 00H, 't', 00H, ' ', 00H
	DB	':', 00H, ' ', 00H, '=', 00H, '=', 00H, '=', 00H, '=', 00H, '['
	DB	00H, ' ', 00H, 00H, 00H			; `string'
CONST	ENDS
;	COMDAT ??_C@_1BA@IPNAJJBI@?$AA?$CJ?$AA?5?$AA?$FN?$AA?$DN?$AA?$DN?$AA?$DN?$AA?$DN?$AA?$AA@
CONST	SEGMENT
??_C@_1BA@IPNAJJBI@?$AA?$CJ?$AA?5?$AA?$FN?$AA?$DN?$AA?$DN?$AA?$DN?$AA?$DN?$AA?$AA@ DB ')'
	DB	00H, ' ', 00H, ']', 00H, '=', 00H, '=', 00H, '=', 00H, '=', 00H
	DB	00H, 00H					; `string'
CONST	ENDS
;	COMDAT ??_C@_1CO@OFPKHPDE@?$AAD?$AAe?$AAl?$AAe?$AAt?$AAe?$AA?5?$AAM?$AAu?$AAs?$AAi?$AAc?$AA?5?$AAO?$AAb?$AAj?$AAe?$AAc?$AAt?$AA?5@
CONST	SEGMENT
??_C@_1CO@OFPKHPDE@?$AAD?$AAe?$AAl?$AAe?$AAt?$AAe?$AA?5?$AAM?$AAu?$AAs?$AAi?$AAc?$AA?5?$AAO?$AAb?$AAj?$AAe?$AAc?$AAt?$AA?5@ DB 'D'
	DB	00H, 'e', 00H, 'l', 00H, 'e', 00H, 't', 00H, 'e', 00H, ' ', 00H
	DB	'M', 00H, 'u', 00H, 's', 00H, 'i', 00H, 'c', 00H, ' ', 00H, 'O'
	DB	00H, 'b', 00H, 'j', 00H, 'e', 00H, 'c', 00H, 't', 00H, ' ', 00H
	DB	':', 00H, ' ', 00H, 00H, 00H			; `string'
CONST	ENDS
;	COMDAT ??_C@_1DI@HOOCLMDN@?$AAC?$AAl?$AAe?$AAa?$AAr?$AA?5?$AAM?$AAu?$AAs?$AAi?$AAc?$AA?5?$AAO?$AAb?$AAj?$AAe?$AAc?$AAt?$AA?5?$AA?3@
CONST	SEGMENT
??_C@_1DI@HOOCLMDN@?$AAC?$AAl?$AAe?$AAa?$AAr?$AA?5?$AAM?$AAu?$AAs?$AAi?$AAc?$AA?5?$AAO?$AAb?$AAj?$AAe?$AAc?$AAt?$AA?5?$AA?3@ DB 'C'
	DB	00H, 'l', 00H, 'e', 00H, 'a', 00H, 'r', 00H, ' ', 00H, 'M', 00H
	DB	'u', 00H, 's', 00H, 'i', 00H, 'c', 00H, ' ', 00H, 'O', 00H, 'b'
	DB	00H, 'j', 00H, 'e', 00H, 'c', 00H, 't', 00H, ' ', 00H, ':', 00H
	DB	' ', 00H, '=', 00H, '=', 00H, '=', 00H, '=', 00H, '[', 00H, ' '
	DB	00H, 00H, 00H				; `string'
CONST	ENDS
;	COMDAT ??_C@_17FBCNENHE@?$AA?$FN?$AA?3?$AA?5?$AA?$AA@
CONST	SEGMENT
??_C@_17FBCNENHE@?$AA?$FN?$AA?3?$AA?5?$AA?$AA@ DB ']', 00H, ':', 00H, ' ', 00H
	DB	00H, 00H					; `string'
CONST	ENDS
;	COMDAT ??_C@_1CG@JGMDIGM@?$AAO?$AAb?$AAj?$AAe?$AAc?$AAt?$AA?5?$AAA?$AAd?$AAd?$AAr?$AAe?$AAs?$AAs?$AA?5?$AA?$FL?$AA0?$AAx?$AA?$AA@
CONST	SEGMENT
??_C@_1CG@JGMDIGM@?$AAO?$AAb?$AAj?$AAe?$AAc?$AAt?$AA?5?$AAA?$AAd?$AAd?$AAr?$AAe?$AAs?$AAs?$AA?5?$AA?$FL?$AA0?$AAx?$AA?$AA@ DB 'O'
	DB	00H, 'b', 00H, 'j', 00H, 'e', 00H, 'c', 00H, 't', 00H, ' ', 00H
	DB	'A', 00H, 'd', 00H, 'd', 00H, 'r', 00H, 'e', 00H, 's', 00H, 's'
	DB	00H, ' ', 00H, '[', 00H, '0', 00H, 'x', 00H, 00H, 00H ; `string'
CONST	ENDS
;	COMDAT ??_C@_13HOIJIPNN@?$AA?5?$AA?$AA@
CONST	SEGMENT
??_C@_13HOIJIPNN@?$AA?5?$AA?$AA@ DB ' ', 00H, 00H, 00H	; `string'
CONST	ENDS
;	COMDAT ??_C@_15ELOONFKJ@?$AA?3?$AA?5?$AA?$AA@
CONST	SEGMENT
??_C@_15ELOONFKJ@?$AA?3?$AA?5?$AA?$AA@ DB ':', 00H, ' ', 00H, 00H, 00H ; `string'
CONST	ENDS
;	COMDAT ??_C@_08JHDOLHLM@?7?4byte?7$?$AA@
CONST	SEGMENT
??_C@_08JHDOLHLM@?7?4byte?7$?$AA@ DB 09H, '.byte', 09H, '$', 00H ; `string'
CONST	ENDS
;	COMDAT ??_C@_03LODGNBPP@?5?0$?$AA@
CONST	SEGMENT
??_C@_03LODGNBPP@?5?0$?$AA@ DB ' ,$', 00H		; `string'
CONST	ENDS
;	COMDAT ??_7MusicItem@@6B@
CONST	SEGMENT
??_7MusicItem@@6B@ DD FLAT:?getCode@MusicItem@@UAEXPAV?$basic_string@DU?$char_traits@D@std@@V?$allocator@D@2@@std@@@Z ; MusicItem::`vftable'
	DD	FLAT:?setCode@MusicItem@@UAEXPAV?$basic_string@DU?$char_traits@D@std@@V?$allocator@D@2@@std@@@Z
	DD	FLAT:?getAsm@MusicItem@@UAEXPAVMusicFile@@@Z
; Function compile flags: /Ogsy
; File c:\program files (x86)\microsoft visual studio .net 2003\vc7\include\xiosbase
;	COMDAT ?setf@ios_base@std@@QAEHHH@Z
_TEXT	SEGMENT
__Newfmtflags$ = 8					; size = 4
__Mask$ = 12						; size = 4
?setf@ios_base@std@@QAEHHH@Z PROC NEAR			; std::ios_base::setf, COMDAT
; _this$ = ecx

; 345  : 		ios_base::fmtflags _Oldfmtflags = _Fmtfl;
; 346  : 		_Fmtfl = (fmtflags)(((int)_Fmtfl & (int)~_Mask)
; 347  : 			| ((int)_Newfmtflags & (int)_Mask & (int)_Fmtmask));

  00000	8b 54 24 08	 mov	 edx, DWORD PTR __Mask$[esp-4]
  00004	8b 41 10	 mov	 eax, DWORD PTR [ecx+16]
  00007	56		 push	 esi
  00008	8b 74 24 08	 mov	 esi, DWORD PTR __Newfmtflags$[esp]
  0000c	23 74 24 0c	 and	 esi, DWORD PTR __Mask$[esp]
  00010	f7 d2		 not	 edx
  00012	81 e6 ff ff 00
	00		 and	 esi, 65535		; 0000ffffH
  00018	23 d0		 and	 edx, eax
  0001a	0b d6		 or	 edx, esi
  0001c	89 51 10	 mov	 DWORD PTR [ecx+16], edx
  0001f	5e		 pop	 esi

; 348  : 		return (_Oldfmtflags);
; 349  : 		}

  00020	c2 08 00	 ret	 8
?setf@ios_base@std@@QAEHHH@Z ENDP			; std::ios_base::setf
; Function compile flags: /Ogsy
; File c:\program files (x86)\microsoft visual studio .net 2003\vc7\include\ios
_TEXT	ENDS
;	COMDAT ?dec@std@@YAAAVios_base@1@AAV21@@Z
_TEXT	SEGMENT
__Iosbase$ = 8						; size = 4
?dec@std@@YAAAVios_base@1@AAV21@@Z PROC NEAR		; std::dec, COMDAT

; 175  : 	_Iosbase.setf(ios_base::dec, ios_base::basefield);

  00000	8b 44 24 04	 mov	 eax, DWORD PTR __Iosbase$[esp-4]
  00004	8b 48 10	 mov	 ecx, DWORD PTR [eax+16]
  00007	81 e1 ff f3 ff
	ff		 and	 ecx, -3073		; fffff3ffH
  0000d	81 c9 00 02 00
	00		 or	 ecx, 512		; 00000200H
  00013	89 48 10	 mov	 DWORD PTR [eax+16], ecx

; 176  : 	return (_Iosbase);
; 177  : 	}

  00016	c3		 ret	 0
?dec@std@@YAAAVios_base@1@AAV21@@Z ENDP			; std::dec
; Function compile flags: /Ogsy
; File c:\program files (x86)\microsoft visual studio .net 2003\vc7\include\iomanip
_TEXT	ENDS
;	COMDAT ??0?$_Fillobj@G@std@@QAE@G@Z
_TEXT	SEGMENT
??0?$_Fillobj@G@std@@QAE@G@Z PROC NEAR			; std::_Fillobj<unsigned short>::_Fillobj<unsigned short>, COMDAT
; _this$ = eax
; __Ch$ = ecx

; 17   : 		{	// construct from fill character

  00000	66 89 08	 mov	 WORD PTR [eax], cx

; 18   : 		}

  00003	c3		 ret	 0
??0?$_Fillobj@G@std@@QAE@G@Z ENDP			; std::_Fillobj<unsigned short>::_Fillobj<unsigned short>
; Function compile flags: /Ogsy
; File c:\program files (x86)\microsoft visual studio .net 2003\vc7\include\ios
_TEXT	ENDS
;	COMDAT ?fill@?$basic_ios@GU?$char_traits@G@std@@@std@@QAEGG@Z
_TEXT	SEGMENT
?fill@?$basic_ios@GU?$char_traits@G@std@@@std@@QAEGG@Z PROC NEAR ; std::basic_ios<unsigned short,std::char_traits<unsigned short> >::fill, COMDAT
; _this$ = ecx
; __Newfill$ = edx

; 107  : 		_Elem _Oldfill = _Fillch;

  00000	66 8b 41 30	 mov	 ax, WORD PTR [ecx+48]

; 108  : 		_Fillch = _Newfill;

  00004	66 89 51 30	 mov	 WORD PTR [ecx+48], dx

; 109  : 		return (_Oldfill);
; 110  : 		}

  00008	c3		 ret	 0
?fill@?$basic_ios@GU?$char_traits@G@std@@@std@@QAEGG@Z ENDP ; std::basic_ios<unsigned short,std::char_traits<unsigned short> >::fill
; Function compile flags: /Ogsy
; File c:\program files (x86)\microsoft visual studio .net 2003\vc7\include\xmemory
_TEXT	ENDS
;	COMDAT ??$?0PAVMusicItem@@@?$allocator@U_Node@?$_List_nod@PAVMusicItem@@V?$allocator@PAVMusicItem@@@std@@@std@@@std@@QAE@ABV?$allocator@PAVMusicItem@@@1@@Z
_TEXT	SEGMENT
??$?0PAVMusicItem@@@?$allocator@U_Node@?$_List_nod@PAVMusicItem@@V?$allocator@PAVMusicItem@@@std@@@std@@@std@@QAE@ABV?$allocator@PAVMusicItem@@@1@@Z PROC NEAR ; std::allocator<std::_List_nod<MusicItem *,std::allocator<MusicItem *> >::_Node>::allocator<std::_List_nod<MusicItem *,std::allocator<MusicItem *> >::_Node><MusicItem *>, COMDAT
; _this$ = eax

; 121  : 		{	// construct from a related allocator (do nothing)
; 122  : 		}

  00000	c3		 ret	 0
??$?0PAVMusicItem@@@?$allocator@U_Node@?$_List_nod@PAVMusicItem@@V?$allocator@PAVMusicItem@@@std@@@std@@@std@@QAE@ABV?$allocator@PAVMusicItem@@@1@@Z ENDP ; std::allocator<std::_List_nod<MusicItem *,std::allocator<MusicItem *> >::_Node>::allocator<std::_List_nod<MusicItem *,std::allocator<MusicItem *> >::_Node><MusicItem *>
; Function compile flags: /Ogsy
_TEXT	ENDS
;	COMDAT ??$_Destroy@PAU_Node@?$_List_nod@PAVMusicItem@@V?$allocator@PAVMusicItem@@@std@@@std@@@std@@YAXPAPAU_Node@?$_List_nod@PAVMusicItem@@V?$allocator@PAVMusicItem@@@std@@@0@@Z
_TEXT	SEGMENT
??$_Destroy@PAU_Node@?$_List_nod@PAVMusicItem@@V?$allocator@PAVMusicItem@@@std@@@std@@@std@@YAXPAPAU_Node@?$_List_nod@PAVMusicItem@@V?$allocator@PAVMusicItem@@@std@@@0@@Z PROC NEAR ; std::_Destroy<std::_List_nod<MusicItem *,std::allocator<MusicItem *> >::_Node *>, COMDAT

; 49   : 	_DESTRUCTOR(_Ty, _Ptr);
; 50   : 	}

  00000	c3		 ret	 0
??$_Destroy@PAU_Node@?$_List_nod@PAVMusicItem@@V?$allocator@PAVMusicItem@@@std@@@std@@@std@@YAXPAPAU_Node@?$_List_nod@PAVMusicItem@@V?$allocator@PAVMusicItem@@@std@@@0@@Z ENDP ; std::_Destroy<std::_List_nod<MusicItem *,std::allocator<MusicItem *> >::_Node *>
; Function compile flags: /Ogsy
_TEXT	ENDS
;	COMDAT ??$?0PAVMusicItem@@@?$allocator@PAU_Node@?$_List_nod@PAVMusicItem@@V?$allocator@PAVMusicItem@@@std@@@std@@@std@@QAE@ABV?$allocator@PAVMusicItem@@@1@@Z
_TEXT	SEGMENT
??$?0PAVMusicItem@@@?$allocator@PAU_Node@?$_List_nod@PAVMusicItem@@V?$allocator@PAVMusicItem@@@std@@@std@@@std@@QAE@ABV?$allocator@PAVMusicItem@@@1@@Z PROC NEAR ; std::allocator<std::_List_nod<MusicItem *,std::allocator<MusicItem *> >::_Node *>::allocator<std::_List_nod<MusicItem *,std::allocator<MusicItem *> >::_Node *><MusicItem *>, COMDAT
; _this$ = eax

; 121  : 		{	// construct from a related allocator (do nothing)
; 122  : 		}

  00000	c3		 ret	 0
??$?0PAVMusicItem@@@?$allocator@PAU_Node@?$_List_nod@PAVMusicItem@@V?$allocator@PAVMusicItem@@@std@@@std@@@std@@QAE@ABV?$allocator@PAVMusicItem@@@1@@Z ENDP ; std::allocator<std::_List_nod<MusicItem *,std::allocator<MusicItem *> >::_Node *>::allocator<std::_List_nod<MusicItem *,std::allocator<MusicItem *> >::_Node *><MusicItem *>
; Function compile flags: /Ogsy
_TEXT	ENDS
;	COMDAT ??$_Destroy@U_Node@?$_List_nod@PAVMusicItem@@V?$allocator@PAVMusicItem@@@std@@@std@@@std@@YAXPAU_Node@?$_List_nod@PAVMusicItem@@V?$allocator@PAVMusicItem@@@std@@@0@@Z
_TEXT	SEGMENT
??$_Destroy@U_Node@?$_List_nod@PAVMusicItem@@V?$allocator@PAVMusicItem@@@std@@@std@@@std@@YAXPAU_Node@?$_List_nod@PAVMusicItem@@V?$allocator@PAVMusicItem@@@std@@@0@@Z PROC NEAR ; std::_Destroy<std::_List_nod<MusicItem *,std::allocator<MusicItem *> >::_Node>, COMDAT

; 49   : 	_DESTRUCTOR(_Ty, _Ptr);
; 50   : 	}

  00000	c3		 ret	 0
??$_Destroy@U_Node@?$_List_nod@PAVMusicItem@@V?$allocator@PAVMusicItem@@@std@@@std@@@std@@YAXPAU_Node@?$_List_nod@PAVMusicItem@@V?$allocator@PAVMusicItem@@@std@@@0@@Z ENDP ; std::_Destroy<std::_List_nod<MusicItem *,std::allocator<MusicItem *> >::_Node>
; Function compile flags: /Ogsy
; File c:\program files (x86)\microsoft visual studio .net 2003\vc7\include\iomanip
_TEXT	ENDS
;	COMDAT ??$?6GU?$char_traits@G@std@@@std@@YAAAV?$basic_ostream@GU?$char_traits@G@std@@@0@AAV10@ABU?$_Fillobj@G@0@@Z
_TEXT	SEGMENT
??$?6GU?$char_traits@G@std@@@std@@YAAAV?$basic_ostream@GU?$char_traits@G@std@@@0@AAV10@ABU?$_Fillobj@G@0@@Z PROC NEAR ; std::operator<<<unsigned short,std::char_traits<unsigned short> >, COMDAT
; __Ostr$ = eax
; __Manip$ = edx

; 44   : 	_Ostr.fill(_Manip._Fill);

  00000	8b 08		 mov	 ecx, DWORD PTR [eax]
  00002	8b 49 04	 mov	 ecx, DWORD PTR [ecx+4]
  00005	66 8b 12	 mov	 dx, WORD PTR [edx]
  00008	66 89 54 01 30	 mov	 WORD PTR [ecx+eax+48], dx

; 45   : 	return (_Ostr);
; 46   : 	}

  0000d	c3		 ret	 0
??$?6GU?$char_traits@G@std@@@std@@YAAAV?$basic_ostream@GU?$char_traits@G@std@@@0@AAV10@ABU?$_Fillobj@G@0@@Z ENDP ; std::operator<<<unsigned short,std::char_traits<unsigned short> >
; Function compile flags: /Ogsy
_TEXT	ENDS
;	COMDAT ??$setfill@G@std@@YA?AU?$_Fillobj@G@0@G@Z
_TEXT	SEGMENT
??$setfill@G@std@@YA?AU?$_Fillobj@G@0@G@Z PROC NEAR	; std::setfill<unsigned short>, COMDAT
; ___$ReturnUdt$ = eax
; __Ch$ = ecx

; 27   : 	return (_Fillobj<_Elem>(_Ch));

  00000	66 89 08	 mov	 WORD PTR [eax], cx

; 28   : 	}

  00003	c3		 ret	 0
??$setfill@G@std@@YA?AU?$_Fillobj@G@0@G@Z ENDP		; std::setfill<unsigned short>
; Function compile flags: /Ogsy
_TEXT	ENDS
;	COMDAT ??$?6GU?$char_traits@G@std@@H@std@@YAAAV?$basic_ostream@GU?$char_traits@G@std@@@0@AAV10@ABU?$_Smanip@H@0@@Z
_TEXT	SEGMENT
??$?6GU?$char_traits@G@std@@H@std@@YAAAV?$basic_ostream@GU?$char_traits@G@std@@@0@AAV10@ABU?$_Smanip@H@0@@Z PROC NEAR ; std::operator<<<unsigned short,std::char_traits<unsigned short>,int>, COMDAT
; __Ostr$ = esi
; __Manip$ = ecx

; 73   : 	(*_Manip._Pfun)(_Ostr, _Manip._Manarg);

  00000	85 f6		 test	 esi, esi
  00002	75 04		 jne	 SHORT $L38387
  00004	33 c0		 xor	 eax, eax
  00006	eb 07		 jmp	 SHORT $L38388
$L38387:
  00008	8b 06		 mov	 eax, DWORD PTR [esi]
  0000a	8b 40 04	 mov	 eax, DWORD PTR [eax+4]
  0000d	03 c6		 add	 eax, esi
$L38388:
  0000f	ff 71 04	 push	 DWORD PTR [ecx+4]
  00012	50		 push	 eax
  00013	ff 11		 call	 DWORD PTR [ecx]
  00015	59		 pop	 ecx
  00016	59		 pop	 ecx

; 74   : 	return (_Ostr);

  00017	8b c6		 mov	 eax, esi

; 75   : 	}

  00019	c3		 ret	 0
??$?6GU?$char_traits@G@std@@H@std@@YAAAV?$basic_ostream@GU?$char_traits@G@std@@@0@AAV10@ABU?$_Smanip@H@0@@Z ENDP ; std::operator<<<unsigned short,std::char_traits<unsigned short>,int>
; Function compile flags: /Ogsy
; File c:\program files (x86)\microsoft visual studio .net 2003\vc7\include\list
_TEXT	ENDS
;	COMDAT ??0?$_List_nod@PAVMusicItem@@V?$allocator@PAVMusicItem@@@std@@@std@@IAE@V?$allocator@PAVMusicItem@@@1@@Z
_TEXT	SEGMENT
__Al$ = 8						; size = 1
??0?$_List_nod@PAVMusicItem@@V?$allocator@PAVMusicItem@@@std@@@std@@IAE@V?$allocator@PAVMusicItem@@@1@@Z PROC NEAR ; std::_List_nod<MusicItem *,std::allocator<MusicItem *> >::_List_nod<MusicItem *,std::allocator<MusicItem *> >, COMDAT
; _this$ = eax

; 45   : 		}

  00000	c2 04 00	 ret	 4
??0?$_List_nod@PAVMusicItem@@V?$allocator@PAVMusicItem@@@std@@@std@@IAE@V?$allocator@PAVMusicItem@@@1@@Z ENDP ; std::_List_nod<MusicItem *,std::allocator<MusicItem *> >::_List_nod<MusicItem *,std::allocator<MusicItem *> >
; Function compile flags: /Ogsy
; File c:\program files (x86)\microsoft visual studio .net 2003\vc7\include\xmemory
_TEXT	ENDS
;	COMDAT ?destroy@?$allocator@PAU_Node@?$_List_nod@PAVMusicItem@@V?$allocator@PAVMusicItem@@@std@@@std@@@std@@QAEXPAPAU_Node@?$_List_nod@PAVMusicItem@@V?$allocator@PAVMusicItem@@@std@@@2@@Z
_TEXT	SEGMENT
?destroy@?$allocator@PAU_Node@?$_List_nod@PAVMusicItem@@V?$allocator@PAVMusicItem@@@std@@@std@@@std@@QAEXPAPAU_Node@?$_List_nod@PAVMusicItem@@V?$allocator@PAVMusicItem@@@std@@@2@@Z PROC NEAR ; std::allocator<std::_List_nod<MusicItem *,std::allocator<MusicItem *> >::_Node *>::destroy, COMDAT

; 152  : 		_Destroy(_Ptr);
; 153  : 		}

  00000	c3		 ret	 0
?destroy@?$allocator@PAU_Node@?$_List_nod@PAVMusicItem@@V?$allocator@PAVMusicItem@@@std@@@std@@@std@@QAEXPAPAU_Node@?$_List_nod@PAVMusicItem@@V?$allocator@PAVMusicItem@@@std@@@2@@Z ENDP ; std::allocator<std::_List_nod<MusicItem *,std::allocator<MusicItem *> >::_Node *>::destroy
; Function compile flags: /Ogsy
_TEXT	ENDS
;	COMDAT ??0?$allocator@PAVMusicItem@@@std@@QAE@ABV01@@Z
_TEXT	SEGMENT
??0?$allocator@PAVMusicItem@@@std@@QAE@ABV01@@Z PROC NEAR ; std::allocator<MusicItem *>::allocator<MusicItem *>, COMDAT
; _this$ = eax

; 116  : 		{	// construct by copying (do nothing)
; 117  : 		}

  00000	c3		 ret	 0
??0?$allocator@PAVMusicItem@@@std@@QAE@ABV01@@Z ENDP	; std::allocator<MusicItem *>::allocator<MusicItem *>
; Function compile flags: /Ogsy
; File c:\program files (x86)\microsoft visual studio .net 2003\vc7\include\list
_TEXT	ENDS
;	COMDAT ??0?$_List_ptr@PAVMusicItem@@V?$allocator@PAVMusicItem@@@std@@@std@@IAE@V?$allocator@PAVMusicItem@@@1@@Z
_TEXT	SEGMENT
__Al$ = 8						; size = 1
??0?$_List_ptr@PAVMusicItem@@V?$allocator@PAVMusicItem@@@std@@@std@@IAE@V?$allocator@PAVMusicItem@@@1@@Z PROC NEAR ; std::_List_ptr<MusicItem *,std::allocator<MusicItem *> >::_List_ptr<MusicItem *,std::allocator<MusicItem *> >, COMDAT
; _this$ = eax

; 65   : 		}

  00000	c2 04 00	 ret	 4
??0?$_List_ptr@PAVMusicItem@@V?$allocator@PAVMusicItem@@@std@@@std@@IAE@V?$allocator@PAVMusicItem@@@1@@Z ENDP ; std::_List_ptr<MusicItem *,std::allocator<MusicItem *> >::_List_ptr<MusicItem *,std::allocator<MusicItem *> >
; Function compile flags: /Ogsy
_TEXT	ENDS
;	COMDAT ?_Myval@?$list@PAVMusicItem@@V?$allocator@PAVMusicItem@@@std@@@std@@KAAAPAVMusicItem@@PAU_Node@?$_List_nod@PAVMusicItem@@V?$allocator@PAVMusicItem@@@std@@@2@@Z
_TEXT	SEGMENT
?_Myval@?$list@PAVMusicItem@@V?$allocator@PAVMusicItem@@@std@@@std@@KAAAPAVMusicItem@@PAU_Node@?$_List_nod@PAVMusicItem@@V?$allocator@PAVMusicItem@@@std@@@2@@Z PROC NEAR ; std::list<MusicItem *,std::allocator<MusicItem *> >::_Myval, COMDAT
; __Pnode$ = eax

; 118  : 		return ((_Vref)(*_Pnode)._Myval);

  00000	83 c0 08	 add	 eax, 8

; 119  : 		}

  00003	c3		 ret	 0
?_Myval@?$list@PAVMusicItem@@V?$allocator@PAVMusicItem@@@std@@@std@@KAAAPAVMusicItem@@PAU_Node@?$_List_nod@PAVMusicItem@@V?$allocator@PAVMusicItem@@@std@@@2@@Z ENDP ; std::list<MusicItem *,std::allocator<MusicItem *> >::_Myval
; Function compile flags: /Ogsy
; File c:\program files (x86)\microsoft visual studio .net 2003\vc7\include\xlocnum
_TEXT	ENDS
;	COMDAT ?put@?$num_put@DV?$ostreambuf_iterator@DU?$char_traits@D@std@@@std@@@std@@QBE?AV?$ostreambuf_iterator@DU?$char_traits@D@std@@@2@V32@AAVios_base@2@DJ@Z
_TEXT	SEGMENT
___$ReturnUdt$ = 8					; size = 4
__Dest$ = 12						; size = 8
__Iosbase$ = 20						; size = 4
__Fill$ = 24						; size = 1
__Val$ = 28						; size = 4
?put@?$num_put@DV?$ostreambuf_iterator@DU?$char_traits@D@std@@@std@@@std@@QBE?AV?$ostreambuf_iterator@DU?$char_traits@D@std@@@2@V32@AAVios_base@2@DJ@Z PROC NEAR ; std::num_put<char,std::ostreambuf_iterator<char,std::char_traits<char> > >::put, COMDAT
; _this$ = ecx

; 836  : 		{	// put formatted long to _Dest

  00000	55		 push	 ebp
  00001	8b ec		 mov	 ebp, esp

; 837  : 		return (do_put(_Dest, _Iosbase, _Fill, _Val));

  00003	ff 75 1c	 push	 DWORD PTR __Val$[ebp]
  00006	8b 01		 mov	 eax, DWORD PTR [ecx]
  00008	ff 75 18	 push	 DWORD PTR __Fill$[ebp]
  0000b	ff 75 14	 push	 DWORD PTR __Iosbase$[ebp]
  0000e	ff 75 10	 push	 DWORD PTR __Dest$[ebp+4]
  00011	ff 75 0c	 push	 DWORD PTR __Dest$[ebp]
  00014	ff 75 08	 push	 DWORD PTR ___$ReturnUdt$[ebp]
  00017	ff 50 1c	 call	 DWORD PTR [eax+28]
  0001a	8b 45 08	 mov	 eax, DWORD PTR ___$ReturnUdt$[ebp]

; 838  : 		}

  0001d	5d		 pop	 ebp
  0001e	c2 18 00	 ret	 24			; 00000018H
?put@?$num_put@DV?$ostreambuf_iterator@DU?$char_traits@D@std@@@std@@@std@@QBE?AV?$ostreambuf_iterator@DU?$char_traits@D@std@@@2@V32@AAVios_base@2@DJ@Z ENDP ; std::num_put<char,std::ostreambuf_iterator<char,std::char_traits<char> > >::put
; Function compile flags: /Ogsy
; File c:\program files (x86)\microsoft visual studio .net 2003\vc7\include\list
_TEXT	ENDS
;	COMDAT ??8const_iterator@?$list@PAVMusicItem@@V?$allocator@PAVMusicItem@@@std@@@std@@QBE_NABV012@@Z
_TEXT	SEGMENT
??8const_iterator@?$list@PAVMusicItem@@V?$allocator@PAVMusicItem@@@std@@@std@@QBE_NABV012@@Z PROC NEAR ; std::list<MusicItem *,std::allocator<MusicItem *> >::const_iterator::operator==, COMDAT
; _this$ = eax
; __Right$ = ecx

; 197  : 			return (_Ptr == _Right._Ptr);

  00000	8b 00		 mov	 eax, DWORD PTR [eax]
  00002	2b 01		 sub	 eax, DWORD PTR [ecx]
  00004	f7 d8		 neg	 eax
  00006	1b c0		 sbb	 eax, eax
  00008	40		 inc	 eax

; 198  : 			}

  00009	c3		 ret	 0
??8const_iterator@?$list@PAVMusicItem@@V?$allocator@PAVMusicItem@@@std@@@std@@QBE_NABV012@@Z ENDP ; std::list<MusicItem *,std::allocator<MusicItem *> >::const_iterator::operator==
; Function compile flags: /Ogsy
_TEXT	ENDS
;	COMDAT ??Dconst_iterator@?$list@PAVMusicItem@@V?$allocator@PAVMusicItem@@@std@@@std@@QBEABQAVMusicItem@@XZ
_TEXT	SEGMENT
??Dconst_iterator@?$list@PAVMusicItem@@V?$allocator@PAVMusicItem@@@std@@@std@@QBEABQAVMusicItem@@XZ PROC NEAR ; std::list<MusicItem *,std::allocator<MusicItem *> >::const_iterator::operator*, COMDAT
; _this$ = eax

; 161  : 			return (_Myval(_Ptr));

  00000	8b 00		 mov	 eax, DWORD PTR [eax]
  00002	83 c0 08	 add	 eax, 8

; 162  : 			}

  00005	c3		 ret	 0
??Dconst_iterator@?$list@PAVMusicItem@@V?$allocator@PAVMusicItem@@@std@@@std@@QBEABQAVMusicItem@@XZ ENDP ; std::list<MusicItem *,std::allocator<MusicItem *> >::const_iterator::operator*
; Function compile flags: /Ogsy
_TEXT	ENDS
;	COMDAT ??0const_iterator@?$list@PAVMusicItem@@V?$allocator@PAVMusicItem@@@std@@@std@@QAE@XZ
_TEXT	SEGMENT
??0const_iterator@?$list@PAVMusicItem@@V?$allocator@PAVMusicItem@@@std@@@std@@QAE@XZ PROC NEAR ; std::list<MusicItem *,std::allocator<MusicItem *> >::const_iterator::const_iterator, COMDAT
; _this$ = eax

; 151  : 			{	// construct with null node pointer

  00000	83 20 00	 and	 DWORD PTR [eax], 0

; 152  : 			}

  00003	c3		 ret	 0
??0const_iterator@?$list@PAVMusicItem@@V?$allocator@PAVMusicItem@@@std@@@std@@QAE@XZ ENDP ; std::list<MusicItem *,std::allocator<MusicItem *> >::const_iterator::const_iterator
; Function compile flags: /Ogsy
; File c:\program files (x86)\microsoft visual studio .net 2003\vc7\include\xmemory
_TEXT	ENDS
;	COMDAT ?destroy@?$allocator@U_Node@?$_List_nod@PAVMusicItem@@V?$allocator@PAVMusicItem@@@std@@@std@@@std@@QAEXPAU_Node@?$_List_nod@PAVMusicItem@@V?$allocator@PAVMusicItem@@@std@@@2@@Z
_TEXT	SEGMENT
?destroy@?$allocator@U_Node@?$_List_nod@PAVMusicItem@@V?$allocator@PAVMusicItem@@@std@@@std@@@std@@QAEXPAU_Node@?$_List_nod@PAVMusicItem@@V?$allocator@PAVMusicItem@@@std@@@2@@Z PROC NEAR ; std::allocator<std::_List_nod<MusicItem *,std::allocator<MusicItem *> >::_Node>::destroy, COMDAT

; 152  : 		_Destroy(_Ptr);
; 153  : 		}

  00000	c3		 ret	 0
?destroy@?$allocator@U_Node@?$_List_nod@PAVMusicItem@@V?$allocator@PAVMusicItem@@@std@@@std@@@std@@QAEXPAU_Node@?$_List_nod@PAVMusicItem@@V?$allocator@PAVMusicItem@@@std@@@2@@Z ENDP ; std::allocator<std::_List_nod<MusicItem *,std::allocator<MusicItem *> >::_Node>::destroy
; Function compile flags: /Ogsy
_TEXT	ENDS
;	COMDAT ??0?$allocator@PAVMusicItem@@@std@@QAE@XZ
_TEXT	SEGMENT
??0?$allocator@PAVMusicItem@@@std@@QAE@XZ PROC NEAR	; std::allocator<MusicItem *>::allocator<MusicItem *>, COMDAT
; _this$ = eax

; 112  : 		{	// construct default allocator (do nothing)
; 113  : 		}

  00000	c3		 ret	 0
??0?$allocator@PAVMusicItem@@@std@@QAE@XZ ENDP		; std::allocator<MusicItem *>::allocator<MusicItem *>
; Function compile flags: /Ogsy
; File c:\program files (x86)\microsoft visual studio .net 2003\vc7\include\list
_TEXT	ENDS
;	COMDAT ??0?$_List_val@PAVMusicItem@@V?$allocator@PAVMusicItem@@@std@@@std@@IAE@V?$allocator@PAVMusicItem@@@1@@Z
_TEXT	SEGMENT
__Al$ = 8						; size = 1
??0?$_List_val@PAVMusicItem@@V?$allocator@PAVMusicItem@@@std@@@std@@IAE@V?$allocator@PAVMusicItem@@@1@@Z PROC NEAR ; std::_List_val<MusicItem *,std::allocator<MusicItem *> >::_List_val<MusicItem *,std::allocator<MusicItem *> >, COMDAT
; _this$ = eax

; 83   : 		}

  00000	c2 04 00	 ret	 4
??0?$_List_val@PAVMusicItem@@V?$allocator@PAVMusicItem@@@std@@@std@@IAE@V?$allocator@PAVMusicItem@@@1@@Z ENDP ; std::_List_val<MusicItem *,std::allocator<MusicItem *> >::_List_val<MusicItem *,std::allocator<MusicItem *> >
; Function compile flags: /Ogsy
_TEXT	ENDS
;	COMDAT ??9const_iterator@?$list@PAVMusicItem@@V?$allocator@PAVMusicItem@@@std@@@std@@QBE_NABV012@@Z
_TEXT	SEGMENT
??9const_iterator@?$list@PAVMusicItem@@V?$allocator@PAVMusicItem@@@std@@@std@@QBE_NABV012@@Z PROC NEAR ; std::list<MusicItem *,std::allocator<MusicItem *> >::const_iterator::operator!=, COMDAT
; _this$ = eax
; __Right$ = edx

; 202  : 			return (!(*this == _Right));

  00000	8b 00		 mov	 eax, DWORD PTR [eax]
  00002	33 c9		 xor	 ecx, ecx
  00004	3b 02		 cmp	 eax, DWORD PTR [edx]
  00006	0f 95 c1	 setne	 cl
  00009	8a c1		 mov	 al, cl

; 203  : 			}

  0000b	c3		 ret	 0
??9const_iterator@?$list@PAVMusicItem@@V?$allocator@PAVMusicItem@@@std@@@std@@QBE_NABV012@@Z ENDP ; std::list<MusicItem *,std::allocator<MusicItem *> >::const_iterator::operator!=
; Function compile flags: /Ogsy
_TEXT	ENDS
;	COMDAT ??Diterator@?$list@PAVMusicItem@@V?$allocator@PAVMusicItem@@@std@@@std@@QBEAAPAVMusicItem@@XZ
_TEXT	SEGMENT
??Diterator@?$list@PAVMusicItem@@V?$allocator@PAVMusicItem@@@std@@@std@@QBEAAPAVMusicItem@@XZ PROC NEAR ; std::list<MusicItem *,std::allocator<MusicItem *> >::iterator::operator*, COMDAT
; _this$ = eax

; 240  : 			return ((reference)**(const_iterator *)this);

  00000	8b 00		 mov	 eax, DWORD PTR [eax]
  00002	83 c0 08	 add	 eax, 8

; 241  : 			}

  00005	c3		 ret	 0
??Diterator@?$list@PAVMusicItem@@V?$allocator@PAVMusicItem@@@std@@@std@@QBEAAPAVMusicItem@@XZ ENDP ; std::list<MusicItem *,std::allocator<MusicItem *> >::iterator::operator*
; Function compile flags: /Ogsy
_TEXT	ENDS
;	COMDAT ??0iterator@?$list@PAVMusicItem@@V?$allocator@PAVMusicItem@@@std@@@std@@QAE@XZ
_TEXT	SEGMENT
??0iterator@?$list@PAVMusicItem@@V?$allocator@PAVMusicItem@@@std@@@std@@QAE@XZ PROC NEAR ; std::list<MusicItem *,std::allocator<MusicItem *> >::iterator::iterator, COMDAT
; _this$ = eax

; 229  : 		iterator()

  00000	83 20 00	 and	 DWORD PTR [eax], 0

; 230  : 			{	// construct with null node
; 231  : 			}

  00003	c3		 ret	 0
??0iterator@?$list@PAVMusicItem@@V?$allocator@PAVMusicItem@@@std@@@std@@QAE@XZ ENDP ; std::list<MusicItem *,std::allocator<MusicItem *> >::iterator::iterator
; Function compile flags: /Ogsy
_TEXT	ENDS
;	COMDAT ?empty@?$list@PAVMusicItem@@V?$allocator@PAVMusicItem@@@std@@@std@@QBE_NXZ
_TEXT	SEGMENT
?empty@?$list@PAVMusicItem@@V?$allocator@PAVMusicItem@@@std@@@std@@QBE_NXZ PROC NEAR ; std::list<MusicItem *,std::allocator<MusicItem *> >::empty, COMDAT
; _this$ = ecx

; 441  : 		return (_Mysize == 0);

  00000	33 c0		 xor	 eax, eax
  00002	39 41 08	 cmp	 DWORD PTR [ecx+8], eax
  00005	0f 94 c0	 sete	 al

; 442  : 		}

  00008	c3		 ret	 0
?empty@?$list@PAVMusicItem@@V?$allocator@PAVMusicItem@@@std@@@std@@QBE_NXZ ENDP ; std::list<MusicItem *,std::allocator<MusicItem *> >::empty
; Function compile flags: /Ogsy
; File c:\program files (x86)\microsoft visual studio .net 2003\vc7\include\ostream
_TEXT	ENDS
;	COMDAT ??6?$basic_ostream@DU?$char_traits@D@std@@@std@@QAEAAV01@P6AAAVios_base@1@AAV21@@Z@Z
_TEXT	SEGMENT
__Pfn$ = 8						; size = 4
??6?$basic_ostream@DU?$char_traits@D@std@@@std@@QAEAAV01@P6AAAVios_base@1@AAV21@@Z@Z PROC NEAR ; std::basic_ostream<char,std::char_traits<char> >::operator<<, COMDAT
; _this$ = esi

; 150  : 		(*_Pfn)(*(ios_base *)this);

  00000	85 f6		 test	 esi, esi
  00002	75 04		 jne	 SHORT $L38517
  00004	33 c0		 xor	 eax, eax
  00006	eb 07		 jmp	 SHORT $L38518
$L38517:
  00008	8b 06		 mov	 eax, DWORD PTR [esi]
  0000a	8b 40 04	 mov	 eax, DWORD PTR [eax+4]
  0000d	03 c6		 add	 eax, esi
$L38518:
  0000f	50		 push	 eax
  00010	ff 54 24 08	 call	 DWORD PTR __Pfn$[esp]
  00014	59		 pop	 ecx

; 151  : 		return (*this);

  00015	8b c6		 mov	 eax, esi

; 152  : 		}

  00017	c2 04 00	 ret	 4
??6?$basic_ostream@DU?$char_traits@D@std@@@std@@QAEAAV01@P6AAAVios_base@1@AAV21@@Z@Z ENDP ; std::basic_ostream<char,std::char_traits<char> >::operator<<
; Function compile flags: /Ogsy
_TEXT	ENDS
;	COMDAT ??6?$basic_ostream@GU?$char_traits@G@std@@@std@@QAEAAV01@P6AAAVios_base@1@AAV21@@Z@Z
_TEXT	SEGMENT
__Pfn$ = 8						; size = 4
??6?$basic_ostream@GU?$char_traits@G@std@@@std@@QAEAAV01@P6AAAVios_base@1@AAV21@@Z@Z PROC NEAR ; std::basic_ostream<unsigned short,std::char_traits<unsigned short> >::operator<<, COMDAT
; _this$ = esi

; 150  : 		(*_Pfn)(*(ios_base *)this);

  00000	85 f6		 test	 esi, esi
  00002	75 04		 jne	 SHORT $L38522
  00004	33 c0		 xor	 eax, eax
  00006	eb 07		 jmp	 SHORT $L38523
$L38522:
  00008	8b 06		 mov	 eax, DWORD PTR [esi]
  0000a	8b 40 04	 mov	 eax, DWORD PTR [eax+4]
  0000d	03 c6		 add	 eax, esi
$L38523:
  0000f	50		 push	 eax
  00010	ff 54 24 08	 call	 DWORD PTR __Pfn$[esp]
  00014	59		 pop	 ecx

; 151  : 		return (*this);

  00015	8b c6		 mov	 eax, esi

; 152  : 		}

  00017	c2 04 00	 ret	 4
??6?$basic_ostream@GU?$char_traits@G@std@@@std@@QAEAAV01@P6AAAVios_base@1@AAV21@@Z@Z ENDP ; std::basic_ostream<unsigned short,std::char_traits<unsigned short> >::operator<<
_TEXT	ENDS
PUBLIC	?getOffset@MusicItem@@QAEIXZ			; MusicItem::getOffset
; Function compile flags: /Ogsy
; File f:\nes\nsdl\src\nsc\musicitem.cpp
_TEXT	SEGMENT
?getOffset@MusicItem@@QAEIXZ PROC NEAR			; MusicItem::getOffset
; _this$ = eax

; 134  : 	return(iOffset);

  00000	8b 40 34	 mov	 eax, DWORD PTR [eax+52]

; 135  : }

  00003	c3		 ret	 0
?getOffset@MusicItem@@QAEIXZ ENDP			; MusicItem::getOffset
_TEXT	ENDS
PUBLIC	?getSize@MusicItem@@QAEIXZ			; MusicItem::getSize
; Function compile flags: /Ogsy
_TEXT	SEGMENT
?getSize@MusicItem@@QAEIXZ PROC NEAR			; MusicItem::getSize
; _this$ = eax

; 121  : 	return(iSize);

  00004	8b 40 30	 mov	 eax, DWORD PTR [eax+48]

; 122  : }

  00007	c3		 ret	 0
?getSize@MusicItem@@QAEIXZ ENDP				; MusicItem::getSize
_TEXT	ENDS
PUBLIC	??1MusicItem@@QAE@XZ				; MusicItem::~MusicItem
; Function compile flags: /Ogsy
;	COMDAT ??_GMusicItem@@QAEPAXI@Z
_TEXT	SEGMENT
_this$ = 8						; size = 4
___flags$ = 12						; size = 4
??_GMusicItem@@QAEPAXI@Z PROC NEAR			; MusicItem::`scalar deleting destructor', COMDAT
  00000	8b 4c 24 04	 mov	 ecx, DWORD PTR _this$[esp-4]
  00004	e8 00 00 00 00	 call	 ??1MusicItem@@QAE@XZ	; MusicItem::~MusicItem
  00009	f6 44 24 08 01	 test	 BYTE PTR ___flags$[esp-4], 1
  0000e	74 0a		 je	 SHORT $L24274
  00010	ff 74 24 04	 push	 DWORD PTR _this$[esp-4]
  00014	e8 00 00 00 00	 call	 ??3@YAXPAX@Z		; operator delete
  00019	59		 pop	 ecx
$L24274:
  0001a	8b 44 24 04	 mov	 eax, DWORD PTR _this$[esp-4]
  0001e	c2 08 00	 ret	 8
??_GMusicItem@@QAEPAXI@Z ENDP				; MusicItem::`scalar deleting destructor'
; Function compile flags: /Ogsy
; File c:\program files (x86)\microsoft visual studio .net 2003\vc7\include\ios
;	COMDAT ?hex@std@@YAAAVios_base@1@AAV21@@Z
_TEXT	SEGMENT
__Iosbase$ = 8						; size = 4
?hex@std@@YAAAVios_base@1@AAV21@@Z PROC NEAR		; std::hex, COMDAT

; 187  : 	_Iosbase.setf(ios_base::hex, ios_base::basefield);

  00000	8b 44 24 04	 mov	 eax, DWORD PTR __Iosbase$[esp-4]
  00004	8b 48 10	 mov	 ecx, DWORD PTR [eax+16]
  00007	81 e1 ff f9 ff
	ff		 and	 ecx, -1537		; fffff9ffH
  0000d	81 c9 00 08 00
	00		 or	 ecx, 2048		; 00000800H
  00013	89 48 10	 mov	 DWORD PTR [eax+16], ecx

; 188  : 	return (_Iosbase);
; 189  : 	}

  00016	c3		 ret	 0
?hex@std@@YAAAVios_base@1@AAV21@@Z ENDP			; std::hex
; Function compile flags: /Ogsy
; File c:\program files (x86)\microsoft visual studio .net 2003\vc7\include\xmemory
_TEXT	ENDS
;	COMDAT ??$_Construct@PAU_Node@?$_List_nod@PAVMusicItem@@V?$allocator@PAVMusicItem@@@std@@@std@@PAU123@@std@@YAXPAPAU_Node@?$_List_nod@PAVMusicItem@@V?$allocator@PAVMusicItem@@@std@@@0@ABQAU120@@Z
_TEXT	SEGMENT
??$_Construct@PAU_Node@?$_List_nod@PAVMusicItem@@V?$allocator@PAVMusicItem@@@std@@@std@@PAU123@@std@@YAXPAPAU_Node@?$_List_nod@PAVMusicItem@@V?$allocator@PAVMusicItem@@@std@@@0@ABQAU120@@Z PROC NEAR ; std::_Construct<std::_List_nod<MusicItem *,std::allocator<MusicItem *> >::_Node *,std::_List_nod<MusicItem *,std::allocator<MusicItem *> >::_Node *>, COMDAT
; __Ptr$ = eax
; __Val$ = ecx

; 42   : 	new ((void _FARQ *)_Ptr) _T1(_Val);

  00000	85 c0		 test	 eax, eax
  00002	74 04		 je	 SHORT $L46262
  00004	8b 09		 mov	 ecx, DWORD PTR [ecx]
  00006	89 08		 mov	 DWORD PTR [eax], ecx
$L46262:

; 43   : 	}

  00008	c3		 ret	 0
??$_Construct@PAU_Node@?$_List_nod@PAVMusicItem@@V?$allocator@PAVMusicItem@@@std@@@std@@PAU123@@std@@YAXPAPAU_Node@?$_List_nod@PAVMusicItem@@V?$allocator@PAVMusicItem@@@std@@@0@ABQAU120@@Z ENDP ; std::_Construct<std::_List_nod<MusicItem *,std::allocator<MusicItem *> >::_Node *,std::_List_nod<MusicItem *,std::allocator<MusicItem *> >::_Node *>
; Function compile flags: /Ogsy
; File c:\program files (x86)\microsoft visual studio .net 2003\vc7\include\list
_TEXT	ENDS
;	COMDAT ??Econst_iterator@?$list@PAVMusicItem@@V?$allocator@PAVMusicItem@@@std@@@std@@QAEAAV012@XZ
_TEXT	SEGMENT
??Econst_iterator@?$list@PAVMusicItem@@V?$allocator@PAVMusicItem@@@std@@@std@@QAEAAV012@XZ PROC NEAR ; std::list<MusicItem *,std::allocator<MusicItem *> >::const_iterator::operator++, COMDAT
; _this$ = eax

; 171  : 			_Ptr = _Nextnode(_Ptr);

  00000	8b 08		 mov	 ecx, DWORD PTR [eax]
  00002	8b 09		 mov	 ecx, DWORD PTR [ecx]
  00004	89 08		 mov	 DWORD PTR [eax], ecx

; 172  : 			return (*this);
; 173  : 			}

  00006	c3		 ret	 0
??Econst_iterator@?$list@PAVMusicItem@@V?$allocator@PAVMusicItem@@@std@@@std@@QAEAAV012@XZ ENDP ; std::list<MusicItem *,std::allocator<MusicItem *> >::const_iterator::operator++
; Function compile flags: /Ogsy
; File c:\program files (x86)\microsoft visual studio .net 2003\vc7\include\xmemory
_TEXT	ENDS
;	COMDAT ?construct@?$allocator@PAU_Node@?$_List_nod@PAVMusicItem@@V?$allocator@PAVMusicItem@@@std@@@std@@@std@@QAEXPAPAU_Node@?$_List_nod@PAVMusicItem@@V?$allocator@PAVMusicItem@@@std@@@2@ABQAU342@@Z
_TEXT	SEGMENT
?construct@?$allocator@PAU_Node@?$_List_nod@PAVMusicItem@@V?$allocator@PAVMusicItem@@@std@@@std@@@std@@QAEXPAPAU_Node@?$_List_nod@PAVMusicItem@@V?$allocator@PAVMusicItem@@@std@@@2@ABQAU342@@Z PROC NEAR ; std::allocator<std::_List_nod<MusicItem *,std::allocator<MusicItem *> >::_Node *>::construct, COMDAT
; __Ptr$ = eax
; __Val$ = ecx

; 147  : 		_Construct(_Ptr, _Val);

  00000	85 c0		 test	 eax, eax
  00002	74 04		 je	 SHORT $L46287
  00004	8b 09		 mov	 ecx, DWORD PTR [ecx]
  00006	89 08		 mov	 DWORD PTR [eax], ecx
$L46287:

; 148  : 		}

  00008	c3		 ret	 0
?construct@?$allocator@PAU_Node@?$_List_nod@PAVMusicItem@@V?$allocator@PAVMusicItem@@@std@@@std@@@std@@QAEXPAPAU_Node@?$_List_nod@PAVMusicItem@@V?$allocator@PAVMusicItem@@@std@@@2@ABQAU342@@Z ENDP ; std::allocator<std::_List_nod<MusicItem *,std::allocator<MusicItem *> >::_Node *>::construct
; Function compile flags: /Ogsy
; File c:\program files (x86)\microsoft visual studio .net 2003\vc7\include\list
_TEXT	ENDS
;	COMDAT ??Eiterator@?$list@PAVMusicItem@@V?$allocator@PAVMusicItem@@@std@@@std@@QAEAAV012@XZ
_TEXT	SEGMENT
??Eiterator@?$list@PAVMusicItem@@V?$allocator@PAVMusicItem@@@std@@@std@@QAEAAV012@XZ PROC NEAR ; std::list<MusicItem *,std::allocator<MusicItem *> >::iterator::operator++, COMDAT
; _this$ = eax

; 250  : 			++(*(const_iterator *)this);

  00000	8b 08		 mov	 ecx, DWORD PTR [eax]
  00002	8b 09		 mov	 ecx, DWORD PTR [ecx]
  00004	89 08		 mov	 DWORD PTR [eax], ecx

; 251  : 			return (*this);
; 252  : 			}

  00006	c3		 ret	 0
??Eiterator@?$list@PAVMusicItem@@V?$allocator@PAVMusicItem@@@std@@@std@@QAEAAV012@XZ ENDP ; std::list<MusicItem *,std::allocator<MusicItem *> >::iterator::operator++
; Function compile flags: /Ogsy
_TEXT	ENDS
;	COMDAT ?_Buynode@?$list@PAVMusicItem@@V?$allocator@PAVMusicItem@@@std@@@std@@IAEPAU_Node@?$_List_nod@PAVMusicItem@@V?$allocator@PAVMusicItem@@@std@@@2@XZ
_TEXT	SEGMENT
?_Buynode@?$list@PAVMusicItem@@V?$allocator@PAVMusicItem@@@std@@@std@@IAEPAU_Node@?$_List_nod@PAVMusicItem@@V?$allocator@PAVMusicItem@@@std@@@2@XZ PROC NEAR ; std::list<MusicItem *,std::allocator<MusicItem *> >::_Buynode, COMDAT

; 899  : 		_Nodeptr _Pnode = this->_Alnod.allocate(1);

  00000	6a 0c		 push	 12			; 0000000cH
  00002	e8 00 00 00 00	 call	 ??2@YAPAXI@Z		; operator new

; 900  : 		int _Linkcnt = 0;
; 901  : 
; 902  : 		_TRY_BEGIN
; 903  : 		this->_Alptr.construct(&_Nextnode(_Pnode), _Pnode);

  00007	85 c0		 test	 eax, eax
  00009	59		 pop	 ecx
  0000a	74 02		 je	 SHORT $L46338
  0000c	89 00		 mov	 DWORD PTR [eax], eax
$L46338:

; 904  : 		++_Linkcnt;
; 905  : 		this->_Alptr.construct(&_Prevnode(_Pnode), _Pnode);

  0000e	8d 48 04	 lea	 ecx, DWORD PTR [eax+4]
  00011	85 c9		 test	 ecx, ecx
  00013	74 02		 je	 SHORT $L46367
  00015	89 01		 mov	 DWORD PTR [ecx], eax
$L46367:

; 906  : 		_CATCH_ALL
; 907  : 		if (0 < _Linkcnt)
; 908  : 			this->_Alptr.destroy(&_Nextnode(_Pnode));
; 909  : 		this->_Alnod.deallocate(_Pnode, 1);
; 910  : 		_RERAISE;
; 911  : 		_CATCH_END
; 912  : 		return (_Pnode);
; 913  : 		}

  00017	c3		 ret	 0
?_Buynode@?$list@PAVMusicItem@@V?$allocator@PAVMusicItem@@@std@@@std@@IAEPAU_Node@?$_List_nod@PAVMusicItem@@V?$allocator@PAVMusicItem@@@std@@@2@XZ ENDP ; std::list<MusicItem *,std::allocator<MusicItem *> >::_Buynode
; Function compile flags: /Ogsy
_TEXT	ENDS
;	COMDAT ??Eiterator@?$list@PAVMusicItem@@V?$allocator@PAVMusicItem@@@std@@@std@@QAE?AV012@H@Z
_TEXT	SEGMENT
??Eiterator@?$list@PAVMusicItem@@V?$allocator@PAVMusicItem@@@std@@@std@@QAE?AV012@H@Z PROC NEAR ; std::list<MusicItem *,std::allocator<MusicItem *> >::iterator::operator++, COMDAT
; _this$ = edx
; ___$ReturnUdt$ = eax

; 256  : 			iterator _Tmp = *this;

  00000	8b 0a		 mov	 ecx, DWORD PTR [edx]
  00002	56		 push	 esi

; 257  : 			++*this;

  00003	8b 31		 mov	 esi, DWORD PTR [ecx]
  00005	89 32		 mov	 DWORD PTR [edx], esi

; 258  : 			return (_Tmp);

  00007	89 08		 mov	 DWORD PTR [eax], ecx
  00009	5e		 pop	 esi

; 259  : 			}

  0000a	c3		 ret	 0
??Eiterator@?$list@PAVMusicItem@@V?$allocator@PAVMusicItem@@@std@@@std@@QAE?AV012@H@Z ENDP ; std::list<MusicItem *,std::allocator<MusicItem *> >::iterator::operator++
; Function compile flags: /Ogsy
_TEXT	ENDS
;	COMDAT ?clear@?$list@PAVMusicItem@@V?$allocator@PAVMusicItem@@@std@@@std@@QAEXXZ
_TEXT	SEGMENT
?clear@?$list@PAVMusicItem@@V?$allocator@PAVMusicItem@@@std@@@std@@QAEXXZ PROC NEAR ; std::list<MusicItem *,std::allocator<MusicItem *> >::clear, COMDAT
; _this$ = esi

; 611  : 		_Nodeptr _Pnext;
; 612  : 		_Nodeptr _Pnode = _Nextnode(_Myhead);

  00000	8b 46 04	 mov	 eax, DWORD PTR [esi+4]
  00003	8b 08		 mov	 ecx, DWORD PTR [eax]

; 613  : 		_Nextnode(_Myhead) = _Myhead;

  00005	89 00		 mov	 DWORD PTR [eax], eax

; 614  : 		_Prevnode(_Myhead) = _Myhead;

  00007	8b 46 04	 mov	 eax, DWORD PTR [esi+4]
  0000a	89 40 04	 mov	 DWORD PTR [eax+4], eax

; 615  : 		_Mysize = 0;

  0000d	83 66 08 00	 and	 DWORD PTR [esi+8], 0

; 616  : 
; 617  : 		for (; _Pnode != _Myhead; _Pnode = _Pnext)

  00011	3b 4e 04	 cmp	 ecx, DWORD PTR [esi+4]
  00014	74 12		 je	 SHORT $L24893
  00016	57		 push	 edi
$L24891:

; 618  : 			{	// delete an element
; 619  : 			_Pnext = _Nextnode(_Pnode);

  00017	8b 39		 mov	 edi, DWORD PTR [ecx]

; 620  : 			this->_Alnod.destroy(_Pnode);
; 621  : 			this->_Alnod.deallocate(_Pnode, 1);

  00019	51		 push	 ecx
  0001a	e8 00 00 00 00	 call	 ??3@YAXPAX@Z		; operator delete
  0001f	3b 7e 04	 cmp	 edi, DWORD PTR [esi+4]
  00022	59		 pop	 ecx
  00023	8b cf		 mov	 ecx, edi
  00025	75 f0		 jne	 SHORT $L24891
  00027	5f		 pop	 edi
$L24893:

; 622  : 			}
; 623  : 		}

  00028	c3		 ret	 0
?clear@?$list@PAVMusicItem@@V?$allocator@PAVMusicItem@@@std@@@std@@QAEXXZ ENDP ; std::list<MusicItem *,std::allocator<MusicItem *> >::clear
; Function compile flags: /Ogsy
_TEXT	ENDS
;	COMDAT ?begin@?$list@PAVMusicItem@@V?$allocator@PAVMusicItem@@@std@@@std@@QAE?AViterator@12@XZ
_TEXT	SEGMENT
?begin@?$list@PAVMusicItem@@V?$allocator@PAVMusicItem@@@std@@@std@@QAE?AViterator@12@XZ PROC NEAR ; std::list<MusicItem *,std::allocator<MusicItem *> >::begin, COMDAT
; _this$ = ecx
; ___$ReturnUdt$ = eax

; 377  : 		return (iterator(_Nextnode(_Myhead)));

  00000	8b 49 04	 mov	 ecx, DWORD PTR [ecx+4]
  00003	8b 09		 mov	 ecx, DWORD PTR [ecx]
  00005	89 08		 mov	 DWORD PTR [eax], ecx

; 378  : 		}

  00007	c3		 ret	 0
?begin@?$list@PAVMusicItem@@V?$allocator@PAVMusicItem@@@std@@@std@@QAE?AViterator@12@XZ ENDP ; std::list<MusicItem *,std::allocator<MusicItem *> >::begin
; Function compile flags: /Ogsy
_TEXT	ENDS
;	COMDAT ??0?$list@PAVMusicItem@@V?$allocator@PAVMusicItem@@@std@@@std@@QAE@XZ
_TEXT	SEGMENT
??0?$list@PAVMusicItem@@V?$allocator@PAVMusicItem@@@std@@@std@@QAE@XZ PROC NEAR ; std::list<MusicItem *,std::allocator<MusicItem *> >::list<MusicItem *,std::allocator<MusicItem *> >, COMDAT
; _this$ = esi

; 280  : 		{	// construct empty list

  00000	e8 00 00 00 00	 call	 ?_Buynode@?$list@PAVMusicItem@@V?$allocator@PAVMusicItem@@@std@@@std@@IAEPAU_Node@?$_List_nod@PAVMusicItem@@V?$allocator@PAVMusicItem@@@std@@@2@XZ ; std::list<MusicItem *,std::allocator<MusicItem *> >::_Buynode
  00005	83 66 08 00	 and	 DWORD PTR [esi+8], 0
  00009	89 46 04	 mov	 DWORD PTR [esi+4], eax

; 281  : 		}

  0000c	8b c6		 mov	 eax, esi
  0000e	c3		 ret	 0
??0?$list@PAVMusicItem@@V?$allocator@PAVMusicItem@@@std@@@std@@QAE@XZ ENDP ; std::list<MusicItem *,std::allocator<MusicItem *> >::list<MusicItem *,std::allocator<MusicItem *> >
; Function compile flags: /Ogsy
;	COMDAT ?_Tidy@?$list@PAVMusicItem@@V?$allocator@PAVMusicItem@@@std@@@std@@IAEXXZ
_TEXT	SEGMENT
?_Tidy@?$list@PAVMusicItem@@V?$allocator@PAVMusicItem@@@std@@@std@@IAEXXZ PROC NEAR ; std::list<MusicItem *,std::allocator<MusicItem *> >::_Tidy, COMDAT
; _this$ = eax

; 929  : 		{	// free all storage

  00000	56		 push	 esi
  00001	8b f0		 mov	 esi, eax

; 930  : 		clear();

  00003	e8 00 00 00 00	 call	 ?clear@?$list@PAVMusicItem@@V?$allocator@PAVMusicItem@@@std@@@std@@QAEXXZ ; std::list<MusicItem *,std::allocator<MusicItem *> >::clear

; 931  : 		this->_Alptr.destroy(&_Nextnode(_Myhead));
; 932  : 		this->_Alptr.destroy(&_Prevnode(_Myhead));
; 933  : 		this->_Alnod.deallocate(_Myhead, 1);

  00008	ff 76 04	 push	 DWORD PTR [esi+4]
  0000b	e8 00 00 00 00	 call	 ??3@YAXPAX@Z		; operator delete

; 934  : 		_Myhead = 0;

  00010	83 66 04 00	 and	 DWORD PTR [esi+4], 0
  00014	59		 pop	 ecx
  00015	5e		 pop	 esi

; 935  : 		}

  00016	c3		 ret	 0
?_Tidy@?$list@PAVMusicItem@@V?$allocator@PAVMusicItem@@@std@@@std@@IAEXXZ ENDP ; std::list<MusicItem *,std::allocator<MusicItem *> >::_Tidy
; Function compile flags: /Ogsy
_TEXT	ENDS
;	COMDAT ??1?$list@PAVMusicItem@@V?$allocator@PAVMusicItem@@@std@@@std@@QAE@XZ
_TEXT	SEGMENT
??1?$list@PAVMusicItem@@V?$allocator@PAVMusicItem@@@std@@@std@@QAE@XZ PROC NEAR ; std::list<MusicItem *,std::allocator<MusicItem *> >::~list<MusicItem *,std::allocator<MusicItem *> >, COMDAT
; _this$ = eax

; 365  : 		_Tidy();

  00000	e9 00 00 00 00	 jmp	 ?_Tidy@?$list@PAVMusicItem@@V?$allocator@PAVMusicItem@@@std@@@std@@IAEXXZ ; std::list<MusicItem *,std::allocator<MusicItem *> >::_Tidy
??1?$list@PAVMusicItem@@V?$allocator@PAVMusicItem@@@std@@@std@@QAE@XZ ENDP ; std::list<MusicItem *,std::allocator<MusicItem *> >::~list<MusicItem *,std::allocator<MusicItem *> >
; Function compile flags: /Ogsy
; File c:\program files (x86)\microsoft visual studio .net 2003\vc7\include\xstring
_TEXT	ENDS
;	COMDAT ?append@?$basic_string@DU?$char_traits@D@std@@V?$allocator@D@2@@std@@QAEAAV12@ABV12@@Z
_TEXT	SEGMENT
__Right$ = 8						; size = 4
?append@?$basic_string@DU?$char_traits@D@std@@V?$allocator@D@2@@std@@QAEAAV12@ABV12@@Z PROC NEAR ; std::basic_string<char,std::char_traits<char>,std::allocator<char> >::append, COMDAT
; _this$ = ecx

; 497  : 		return (append(_Right, 0, npos));

  00000	6a ff		 push	 -1
  00002	6a 00		 push	 0
  00004	ff 74 24 0c	 push	 DWORD PTR __Right$[esp+4]
  00008	e8 00 00 00 00	 call	 ?append@?$basic_string@DU?$char_traits@D@std@@V?$allocator@D@2@@std@@QAEAAV12@ABV12@II@Z ; std::basic_string<char,std::char_traits<char>,std::allocator<char> >::append

; 498  : 		}

  0000d	c2 04 00	 ret	 4
?append@?$basic_string@DU?$char_traits@D@std@@V?$allocator@D@2@@std@@QAEAAV12@ABV12@@Z ENDP ; std::basic_string<char,std::char_traits<char>,std::allocator<char> >::append
; Function compile flags: /Ogsy
; File f:\nes\nsdl\src\nsc\musicitem.cpp
_TEXT	ENDS
_TEXT	SEGMENT
__str$ = 8						; size = 4
?getCode@MusicItem@@UAEXPAV?$basic_string@DU?$char_traits@D@std@@V?$allocator@D@2@@std@@@Z PROC NEAR ; MusicItem::getCode
; _this$ = ecx

; 206  : {

  00008	57		 push	 edi
  00009	8b f9		 mov	 edi, ecx

; 207  : 	//----------------------
; 208  : 	//Local
; 209  : 	list<	MusicItem*>::iterator	itItem;
; 210  : 
; 211  : 	_str->append(code);

  0000b	8b 4c 24 08	 mov	 ecx, DWORD PTR __str$[esp]
  0000f	6a ff		 push	 -1
  00011	6a 00		 push	 0
  00013	8d 47 14	 lea	 eax, DWORD PTR [edi+20]
  00016	50		 push	 eax
  00017	e8 00 00 00 00	 call	 ?append@?$basic_string@DU?$char_traits@D@std@@V?$allocator@D@2@@std@@QAEAAV12@ABV12@II@Z ; std::basic_string<char,std::char_traits<char>,std::allocator<char> >::append

; 212  : 
; 213  : 	if(!ptcItem.empty()){

  0001c	83 7f 10 00	 cmp	 DWORD PTR [edi+16], 0
  00020	74 1d		 je	 SHORT $L24379

; 214  : 		itItem = ptcItem.begin();

  00022	8b 47 0c	 mov	 eax, DWORD PTR [edi+12]
  00025	56		 push	 esi
  00026	8b 30		 mov	 esi, DWORD PTR [eax]

; 215  : 		while(itItem != ptcItem.end()){

  00028	3b f0		 cmp	 esi, eax
  0002a	74 12		 je	 SHORT $L56175
$L24378:

; 216  : 			(*itItem)->getCode(_str);

  0002c	8b 4e 08	 mov	 ecx, DWORD PTR [esi+8]
  0002f	ff 74 24 0c	 push	 DWORD PTR __str$[esp+4]
  00033	8b 01		 mov	 eax, DWORD PTR [ecx]
  00035	ff 10		 call	 DWORD PTR [eax]

; 217  : 			itItem++;

  00037	8b 36		 mov	 esi, DWORD PTR [esi]
  00039	3b 77 0c	 cmp	 esi, DWORD PTR [edi+12]
  0003c	75 ee		 jne	 SHORT $L24378
$L56175:
  0003e	5e		 pop	 esi
$L24379:
  0003f	5f		 pop	 edi

; 218  : 		}
; 219  : 	}
; 220  : }

  00040	c2 04 00	 ret	 4
?getCode@MusicItem@@UAEXPAV?$basic_string@DU?$char_traits@D@std@@V?$allocator@D@2@@std@@@Z ENDP ; MusicItem::getCode
_TEXT	ENDS
PUBLIC	?getCode@MusicItem@@QAEEI@Z			; MusicItem::getCode
; Function compile flags: /Ogsy
_TEXT	SEGMENT
?getCode@MusicItem@@QAEEI@Z PROC NEAR			; MusicItem::getCode
; _this$ = eax
; _n$ = ecx

; 186  : 	unsigned	char	iCode;
; 187  : 	
; 188  : 	if((n<0) || (n>iSize)){

  00043	3b 48 30	 cmp	 ecx, DWORD PTR [eax+48]
  00046	77 12		 ja	 SHORT $L24367

; 190  : 	} else {
; 191  : 		iCode = code[n];

  00048	83 78 2c 10	 cmp	 DWORD PTR [eax+44], 16	; 00000010H
  0004c	72 05		 jb	 SHORT $L56188
  0004e	8b 40 18	 mov	 eax, DWORD PTR [eax+24]
  00051	eb 03		 jmp	 SHORT $L56189
$L56188:
  00053	83 c0 18	 add	 eax, 24			; 00000018H
$L56189:
  00056	8a 04 08	 mov	 al, BYTE PTR [eax+ecx]

; 192  : 	}
; 193  : 
; 194  : 	return(iCode);
; 195  : }

  00059	c3		 ret	 0
$L24367:

; 189  : 		iCode = 0xFF;

  0005a	0c ff		 or	 al, 255			; 000000ffH

; 192  : 	}
; 193  : 
; 194  : 	return(iCode);
; 195  : }

  0005c	c3		 ret	 0
?getCode@MusicItem@@QAEEI@Z ENDP			; MusicItem::getCode
;	COMDAT xdata$x
; File c:\program files (x86)\microsoft visual studio .net 2003\vc7\include\xiosbase
xdata$x	SEGMENT
$T62035	DD	0ffffffffH
	DD	FLAT:$L61993
	DD	00H
	DD	FLAT:$L61994
	DD	00H
	DD	00H
	DD	00H
	DD	00H
$T62037	DD	00H
	DD	00H
	DD	00H
	DD	FLAT:$L61992
$T62036	DD	02H
	DD	02H
	DD	03H
	DD	01H
	DD	FLAT:$T62037
$T62031	DD	019930520H
	DD	04H
	DD	FLAT:$T62035
	DD	01H
	DD	FLAT:$T62036
	DD	2 DUP(00H)
; Function compile flags: /Ogsy
; File c:\program files (x86)\microsoft visual studio .net 2003\vc7\include\ostream
xdata$x	ENDS
;	COMDAT ??6?$basic_ostream@DU?$char_traits@D@std@@@std@@QAEAAV01@H@Z
_TEXT	SEGMENT
$T61989 = -40						; size = 8
$T61988 = -40						; size = 8
__Ok$ = -32						; size = 8
$T62006 = -24						; size = 1
$T61983 = -24						; size = 4
__State$ = -20						; size = 4
__$EHRec$ = -16						; size = 16
_this$ = 8						; size = 4
__Val$ = 12						; size = 4
??6?$basic_ostream@DU?$char_traits@D@std@@@std@@QAEAAV01@H@Z PROC NEAR ; std::basic_ostream<char,std::char_traits<char> >::operator<<, COMDAT

; 228  : 		{	// insert an int

  00000	b8 00 00 00 00	 mov	 eax, __ehhandler$??6?$basic_ostream@DU?$char_traits@D@std@@@std@@QAEAAV01@H@Z
  00005	e8 00 00 00 00	 call	 __EH_prolog
  0000a	83 ec 1c	 sub	 esp, 28			; 0000001cH
  0000d	53		 push	 ebx
  0000e	56		 push	 esi
  0000f	57		 push	 edi
  00010	8b 7d 08	 mov	 edi, DWORD PTR _this$[ebp]

; 229  : 		ios_base::iostate _State = ios_base::goodbit;
; 230  : 		const sentry _Ok(*this);

  00013	8d 45 e0	 lea	 eax, DWORD PTR __Ok$[ebp]
  00016	89 65 f0	 mov	 DWORD PTR __$EHRec$[ebp], esp
  00019	33 db		 xor	 ebx, ebx
  0001b	50		 push	 eax
  0001c	89 5d ec	 mov	 DWORD PTR __State$[ebp], ebx
  0001f	e8 00 00 00 00	 call	 ??0sentry@?$basic_ostream@DU?$char_traits@D@std@@@std@@QAE@AAV12@@Z ; std::basic_ostream<char,std::char_traits<char> >::sentry::sentry
  00024	89 5d fc	 mov	 DWORD PTR __$EHRec$[ebp+12], ebx

; 231  : 
; 232  : 		if (_Ok)

  00027	38 5d e4	 cmp	 BYTE PTR __Ok$[ebp+4], bl
  0002a	0f 84 87 00 00
	00		 je	 $L24690

; 233  : 			{	// state okay, use facet to insert
; 234  : 			const _Nput& _Nput_fac = _USE(ios_base::getloc(), _Nput);

  00030	8d 45 e8	 lea	 eax, DWORD PTR $T61983[ebp]
  00033	50		 push	 eax
  00034	8b 07		 mov	 eax, DWORD PTR [edi]
  00036	8b 48 04	 mov	 ecx, DWORD PTR [eax+4]
  00039	03 cf		 add	 ecx, edi
  0003b	e8 00 00 00 00	 call	 ?getloc@ios_base@std@@QBE?AVlocale@2@XZ ; std::ios_base::getloc
  00040	50		 push	 eax
  00041	c6 45 fc 01	 mov	 BYTE PTR __$EHRec$[ebp+12], 1
  00045	e8 00 00 00 00	 call	 ??$use_facet@V?$num_put@DV?$ostreambuf_iterator@DU?$char_traits@D@std@@@std@@@std@@@std@@YAABV?$num_put@DV?$ostreambuf_iterator@DU?$char_traits@D@std@@@std@@@0@ABVlocale@0@@Z ; std::use_facet<std::num_put<char,std::ostreambuf_iterator<char,std::char_traits<char> > > >
  0004a	59		 pop	 ecx
  0004b	8d 4d e8	 lea	 ecx, DWORD PTR $T61983[ebp]
  0004e	8b f0		 mov	 esi, eax
  00050	e8 00 00 00 00	 call	 ??1locale@std@@QAE@XZ	; std::locale::~locale

; 235  : 			ios_base::fmtflags _Bfl =
; 236  : 				ios_base::flags() & ios_base::basefield;

  00055	8b 0f		 mov	 ecx, DWORD PTR [edi]

; 237  : 			long _Tmp = (_Bfl == ios_base::oct
; 238  : 				|| _Bfl == ios_base::hex)
; 239  : 				? (long)(unsigned int)_Val : (long)_Val;
; 240  : 
; 241  : 			_TRY_IO_BEGIN
; 242  : 			if (_Nput_fac.put(_Iter(_Myios::rdbuf()), *this,
; 243  : 				_Myios::fill(), _Tmp).failed())

  00057	ff 75 0c	 push	 DWORD PTR __Val$[ebp]
  0005a	c6 45 fc 02	 mov	 BYTE PTR __$EHRec$[ebp+12], 2
  0005e	8b 41 04	 mov	 eax, DWORD PTR [ecx+4]
  00061	8b 49 04	 mov	 ecx, DWORD PTR [ecx+4]
  00064	03 cf		 add	 ecx, edi
  00066	8a 51 30	 mov	 dl, BYTE PTR [ecx+48]
  00069	8b 49 28	 mov	 ecx, DWORD PTR [ecx+40]
  0006c	88 55 e8	 mov	 BYTE PTR $T62006[ebp], dl
  0006f	ff 75 e8	 push	 DWORD PTR $T62006[ebp]
  00072	03 c7		 add	 eax, edi
  00074	50		 push	 eax
  00075	51		 push	 ecx
  00076	88 5d d8	 mov	 BYTE PTR $T61988[ebp], bl
  00079	ff 75 d8	 push	 DWORD PTR $T61988[ebp]
  0007c	8d 45 d8	 lea	 eax, DWORD PTR $T61989[ebp]
  0007f	50		 push	 eax
  00080	8b ce		 mov	 ecx, esi
  00082	e8 00 00 00 00	 call	 ?put@?$num_put@DV?$ostreambuf_iterator@DU?$char_traits@D@std@@@std@@@std@@QBE?AV?$ostreambuf_iterator@DU?$char_traits@D@std@@@2@V32@AAVios_base@2@DJ@Z ; std::num_put<char,std::ostreambuf_iterator<char,std::char_traits<char> > >::put
  00087	38 18		 cmp	 BYTE PTR [eax], bl
  00089	74 2c		 je	 SHORT $L24690

; 244  : 				_State |= ios_base::badbit;

  0008b	c7 45 ec 04 00
	00 00		 mov	 DWORD PTR __State$[ebp], 4
  00092	eb 23		 jmp	 SHORT $L24690
$L61992:

; 245  : 			_CATCH_IO_END

  00094	8b 45 08	 mov	 eax, DWORD PTR _this$[ebp]
  00097	8b 08		 mov	 ecx, DWORD PTR [eax]
  00099	8b 49 04	 mov	 ecx, DWORD PTR [ecx+4]
  0009c	03 c8		 add	 ecx, eax
  0009e	8b 41 08	 mov	 eax, DWORD PTR [ecx+8]
  000a1	6a 01		 push	 1
  000a3	83 c8 04	 or	 eax, 4
  000a6	50		 push	 eax
  000a7	e8 00 00 00 00	 call	 ?clear@?$basic_ios@DU?$char_traits@D@std@@@std@@QAEXH_N@Z ; std::basic_ios<char,std::char_traits<char> >::clear
  000ac	b8 00 00 00 00	 mov	 eax, $L62032
  000b1	c3		 ret	 0
$L62032:
  000b2	8b 7d 08	 mov	 edi, DWORD PTR _this$[ebp]
  000b5	33 db		 xor	 ebx, ebx
$L24690:
  000b7	89 5d fc	 mov	 DWORD PTR __$EHRec$[ebp+12], ebx

; 246  : 			}
; 247  : 
; 248  : 		_Myios::setstate(_State);

  000ba	8b 07		 mov	 eax, DWORD PTR [edi]
  000bc	8b 48 04	 mov	 ecx, DWORD PTR [eax+4]
  000bf	53		 push	 ebx
  000c0	ff 75 ec	 push	 DWORD PTR __State$[ebp]
  000c3	03 cf		 add	 ecx, edi
  000c5	e8 00 00 00 00	 call	 ?setstate@?$basic_ios@DU?$char_traits@D@std@@@std@@QAEXH_N@Z ; std::basic_ios<char,std::char_traits<char> >::setstate

; 249  : 		return (*this);

  000ca	83 4d fc ff	 or	 DWORD PTR __$EHRec$[ebp+12], -1
  000ce	8d 45 e0	 lea	 eax, DWORD PTR __Ok$[ebp]
  000d1	50		 push	 eax
  000d2	e8 00 00 00 00	 call	 ??1sentry@?$basic_ostream@DU?$char_traits@D@std@@@std@@QAE@XZ ; std::basic_ostream<char,std::char_traits<char> >::sentry::~sentry

; 250  : 		}

  000d7	8b 4d f4	 mov	 ecx, DWORD PTR __$EHRec$[ebp+4]
  000da	8b c7		 mov	 eax, edi
  000dc	5f		 pop	 edi
  000dd	5e		 pop	 esi
  000de	64 89 0d 00 00
	00 00		 mov	 DWORD PTR fs:__except_list, ecx
  000e5	5b		 pop	 ebx
  000e6	c9		 leave
  000e7	c2 08 00	 ret	 8
_TEXT	ENDS
;	COMDAT text$x
text$x	SEGMENT
$L61993:
  00000	8d 45 e0	 lea	 eax, DWORD PTR __Ok$[ebp]
  00003	50		 push	 eax
  00004	e8 00 00 00 00	 call	 ??1sentry@?$basic_ostream@DU?$char_traits@D@std@@@std@@QAE@XZ ; std::basic_ostream<char,std::char_traits<char> >::sentry::~sentry
  00009	c3		 ret	 0
$L61994:
  0000a	8d 4d e8	 lea	 ecx, DWORD PTR $T61983[ebp]
  0000d	e9 00 00 00 00	 jmp	 ??1locale@std@@QAE@XZ	; std::locale::~locale
__ehhandler$??6?$basic_ostream@DU?$char_traits@D@std@@@std@@QAEAAV01@H@Z:
  00012	b8 00 00 00 00	 mov	 eax, OFFSET FLAT:$T62031
  00017	e9 00 00 00 00	 jmp	 ___CxxFrameHandler
text$x	ENDS
??6?$basic_ostream@DU?$char_traits@D@std@@@std@@QAEAAV01@H@Z ENDP ; std::basic_ostream<char,std::char_traits<char> >::operator<<
; Function compile flags: /Ogsy
; File f:\nes\nsdl\src\nsc\musicitem.cpp
_TEXT	SEGMENT
__str$ = 8						; size = 4
?setCode@MusicItem@@UAEXPAV?$basic_string@DU?$char_traits@D@std@@V?$allocator@D@2@@std@@@Z PROC NEAR ; MusicItem::setCode
; _this$ = ecx

; 231  : {

  0005d	56		 push	 esi
  0005e	8b f1		 mov	 esi, ecx
  00060	57		 push	 edi

; 232  : 	code.clear();

  00061	8d 7e 14	 lea	 edi, DWORD PTR [esi+20]
  00064	8b c7		 mov	 eax, edi
  00066	e8 00 00 00 00	 call	 ?clear@?$basic_string@DU?$char_traits@D@std@@V?$allocator@D@2@@std@@QAEXXZ ; std::basic_string<char,std::char_traits<char>,std::allocator<char> >::clear

; 233  : 	code.assign(*_str);

  0006b	6a ff		 push	 -1
  0006d	6a 00		 push	 0
  0006f	ff 74 24 14	 push	 DWORD PTR __str$[esp+12]
  00073	8b cf		 mov	 ecx, edi
  00075	e8 00 00 00 00	 call	 ?assign@?$basic_string@DU?$char_traits@D@std@@V?$allocator@D@2@@std@@QAEAAV12@ABV12@II@Z ; std::basic_string<char,std::char_traits<char>,std::allocator<char> >::assign

; 234  : 	iSize = code.size();

  0007a	8b 46 28	 mov	 eax, DWORD PTR [esi+40]
  0007d	5f		 pop	 edi
  0007e	89 46 30	 mov	 DWORD PTR [esi+48], eax
  00081	5e		 pop	 esi

; 235  : }

  00082	c2 04 00	 ret	 4
?setCode@MusicItem@@UAEXPAV?$basic_string@DU?$char_traits@D@std@@V?$allocator@D@2@@std@@@Z ENDP ; MusicItem::setCode
_TEXT	ENDS
PUBLIC	?clear@MusicItem@@QAEXXZ			; MusicItem::clear
; Function compile flags: /Ogsy
_TEXT	SEGMENT
?clear@MusicItem@@QAEXXZ PROC NEAR			; MusicItem::clear
; _this$ = edi

; 80   : 	//----------------------
; 81   : 	//Local
; 82   : 	list<	MusicItem*>::iterator	itItem;
; 83   : 
; 84   : 	//----------------------
; 85   : 	//clear
; 86   : 	code.clear();

  00085	8d 47 14	 lea	 eax, DWORD PTR [edi+20]
  00088	e8 00 00 00 00	 call	 ?clear@?$basic_string@DU?$char_traits@D@std@@V?$allocator@D@2@@std@@QAEXXZ ; std::basic_string<char,std::char_traits<char>,std::allocator<char> >::clear

; 87   : 
; 88   : 	//----------------------
; 89   : 	//Delete Class
; 90   : 	if(!ptcItem.empty()){

  0008d	83 7f 10 00	 cmp	 DWORD PTR [edi+16], 0
  00091	74 29		 je	 SHORT $L24262

; 91   : 		itItem = ptcItem.begin();

  00093	8b 47 0c	 mov	 eax, DWORD PTR [edi+12]
  00096	56		 push	 esi
  00097	8b 30		 mov	 esi, DWORD PTR [eax]

; 92   : 		while(itItem != ptcItem.end()){

  00099	3b f0		 cmp	 esi, eax
  0009b	74 16		 je	 SHORT $L24266
$L24265:

; 93   : 			delete *itItem;

  0009d	8b 46 08	 mov	 eax, DWORD PTR [esi+8]
  000a0	85 c0		 test	 eax, eax
  000a2	74 08		 je	 SHORT $L62054
  000a4	6a 01		 push	 1
  000a6	50		 push	 eax
  000a7	e8 00 00 00 00	 call	 ??_GMusicItem@@QAEPAXI@Z
$L62054:

; 94   : 			itItem++;

  000ac	8b 36		 mov	 esi, DWORD PTR [esi]
  000ae	3b 77 0c	 cmp	 esi, DWORD PTR [edi+12]
  000b1	75 ea		 jne	 SHORT $L24265
$L24266:

; 95   : 		}
; 96   : 		ptcItem.clear();

  000b3	8d 77 08	 lea	 esi, DWORD PTR [edi+8]
  000b6	e8 00 00 00 00	 call	 ?clear@?$list@PAVMusicItem@@V?$allocator@PAVMusicItem@@@std@@@std@@QAEXXZ ; std::list<MusicItem *,std::allocator<MusicItem *> >::clear
  000bb	5e		 pop	 esi
$L24262:

; 97   : 	}
; 98   : }

  000bc	c3		 ret	 0
?clear@MusicItem@@QAEXXZ ENDP				; MusicItem::clear
; Function compile flags: /Ogsy
_TEXT	SEGMENT
$T64655 = -20						; size = 8
tv319 = -12						; size = 4
tv185 = -8						; size = 4
_i$ = -4						; size = 4
_MUS$ = 8						; size = 4
?getAsm@MusicItem@@UAEXPAVMusicFile@@@Z PROC NEAR	; MusicItem::getAsm
; _this$ = ecx

; 246  : {

  000bd	55		 push	 ebp
  000be	8b ec		 mov	 ebp, esp
  000c0	83 ec 14	 sub	 esp, 20			; 00000014H

; 247  : 	//----------------------
; 248  : 	//Local
; 249  : 	unsigned	int	i = 0;

  000c3	83 65 fc 00	 and	 DWORD PTR _i$[ebp], 0
  000c7	56		 push	 esi
  000c8	57		 push	 edi
  000c9	8b f9		 mov	 edi, ecx

; 250  : 	list<	MusicItem*>::iterator	itItem;
; 251  : 
; 252  : 	if(code.size() > 0){

  000cb	8b 47 28	 mov	 eax, DWORD PTR [edi+40]
  000ce	85 c0		 test	 eax, eax
  000d0	0f 86 9d 00 00
	00		 jbe	 $L64808

; 253  : 		while(i < code.size()){

  000d6	8b 75 08	 mov	 esi, DWORD PTR _MUS$[ebp]
  000d9	53		 push	 ebx

; 257  : 				*MUS << " ,$";

  000da	8b de		 mov	 ebx, esi
  000dc	f7 db		 neg	 ebx
  000de	8d 46 3c	 lea	 eax, DWORD PTR [esi+60]
  000e1	1b db		 sbb	 ebx, ebx
  000e3	23 d8		 and	 ebx, eax
$L24395:

; 254  : 			if(i==0){

  000e5	83 7d fc 00	 cmp	 DWORD PTR _i$[ebp], 0
  000e9	75 07		 jne	 SHORT $L24397

; 255  : 				*MUS << "	.byte	$";

  000eb	68 00 00 00 00	 push	 OFFSET FLAT:??_C@_08JHDOLHLM@?7?4byte?7$?$AA@

; 256  : 			} else {

  000f0	eb 05		 jmp	 SHORT $L64809
$L24397:

; 257  : 				*MUS << " ,$";

  000f2	68 00 00 00 00	 push	 OFFSET FLAT:??_C@_03LODGNBPP@?5?0$?$AA@
$L64809:
  000f7	53		 push	 ebx
  000f8	e8 00 00 00 00	 call	 ??$?6U?$char_traits@D@std@@@std@@YAAAV?$basic_ostream@DU?$char_traits@D@std@@@0@AAV10@PBD@Z ; std::operator<<<std::char_traits<char> >

; 258  : 			}
; 259  : 			*MUS << hex << setw(2) << setfill('0') << (int)(code[i] & 0xFF);

  000fd	83 7f 2c 10	 cmp	 DWORD PTR [edi+44], 16	; 00000010H
  00101	59		 pop	 ecx
  00102	59		 pop	 ecx
  00103	72 05		 jb	 SHORT $L64685
  00105	8b 47 18	 mov	 eax, DWORD PTR [edi+24]
  00108	eb 03		 jmp	 SHORT $L64810
$L64685:
  0010a	8d 47 18	 lea	 eax, DWORD PTR [edi+24]
$L64810:
  0010d	89 45 f8	 mov	 DWORD PTR tv185[ebp], eax
  00110	8d 45 ec	 lea	 eax, DWORD PTR $T64655[ebp]
  00113	6a 02		 push	 2
  00115	50		 push	 eax
  00116	e8 00 00 00 00	 call	 ?setw@std@@YA?AU?$_Smanip@H@1@H@Z ; std::setw
  0011b	59		 pop	 ecx
  0011c	59		 pop	 ecx
  0011d	68 00 00 00 00	 push	 OFFSET FLAT:?hex@std@@YAAAVios_base@1@AAV21@@Z ; std::hex
  00122	83 c6 3c	 add	 esi, 60			; 0000003cH
  00125	89 45 f4	 mov	 DWORD PTR tv319[ebp], eax
  00128	e8 00 00 00 00	 call	 ??6?$basic_ostream@DU?$char_traits@D@std@@@std@@QAEAAV01@P6AAAVios_base@1@AAV21@@Z@Z ; std::basic_ostream<char,std::char_traits<char> >::operator<<
  0012d	8b 4d f4	 mov	 ecx, DWORD PTR tv319[ebp]
  00130	8b f0		 mov	 esi, eax
  00132	e8 00 00 00 00	 call	 ??$?6DU?$char_traits@D@std@@H@std@@YAAAV?$basic_ostream@DU?$char_traits@D@std@@@0@AAV10@ABU?$_Smanip@H@0@@Z ; std::operator<<<char,std::char_traits<char>,int>
  00137	8b 08		 mov	 ecx, DWORD PTR [eax]
  00139	8b 49 04	 mov	 ecx, DWORD PTR [ecx+4]
  0013c	8b 75 fc	 mov	 esi, DWORD PTR _i$[ebp]
  0013f	c6 44 01 30 30	 mov	 BYTE PTR [ecx+eax+48], 48 ; 00000030H
  00144	8b 4d f8	 mov	 ecx, DWORD PTR tv185[ebp]
  00147	0f b6 0c 31	 movzx	 ecx, BYTE PTR [ecx+esi]
  0014b	51		 push	 ecx
  0014c	50		 push	 eax
  0014d	e8 00 00 00 00	 call	 ??6?$basic_ostream@DU?$char_traits@D@std@@@std@@QAEAAV01@H@Z ; std::basic_ostream<char,std::char_traits<char> >::operator<<

; 260  : 			i++;

  00152	46		 inc	 esi
  00153	3b 77 28	 cmp	 esi, DWORD PTR [edi+40]
  00156	89 75 fc	 mov	 DWORD PTR _i$[ebp], esi

; 261  : 		}
; 262  : 		*MUS << dec << endl;

  00159	8b 75 08	 mov	 esi, DWORD PTR _MUS$[ebp]
  0015c	72 87		 jb	 SHORT $L24395
  0015e	5b		 pop	 ebx
  0015f	68 00 00 00 00	 push	 OFFSET FLAT:?dec@std@@YAAAVios_base@1@AAV21@@Z ; std::dec
  00164	83 c6 3c	 add	 esi, 60			; 0000003cH
  00167	e8 00 00 00 00	 call	 ??6?$basic_ostream@DU?$char_traits@D@std@@@std@@QAEAAV01@P6AAAVios_base@1@AAV21@@Z@Z ; std::basic_ostream<char,std::char_traits<char> >::operator<<
  0016c	50		 push	 eax
  0016d	e8 00 00 00 00	 call	 ?endl@std@@YAAAV?$basic_ostream@DU?$char_traits@D@std@@@1@AAV21@@Z ; std::endl
  00172	59		 pop	 ecx
$L64808:

; 263  : 	}
; 264  : 
; 265  : 	if(!ptcItem.empty()){

  00173	83 7f 10 00	 cmp	 DWORD PTR [edi+16], 0
  00177	74 1b		 je	 SHORT $L24446

; 266  : 		itItem = ptcItem.begin();

  00179	8b 47 0c	 mov	 eax, DWORD PTR [edi+12]
  0017c	8b 30		 mov	 esi, DWORD PTR [eax]

; 267  : 		while(itItem != ptcItem.end()){

  0017e	3b f0		 cmp	 esi, eax
  00180	74 12		 je	 SHORT $L24446
$L24445:

; 268  : 			(*itItem)->getAsm(MUS);

  00182	8b 4e 08	 mov	 ecx, DWORD PTR [esi+8]
  00185	ff 75 08	 push	 DWORD PTR _MUS$[ebp]
  00188	8b 01		 mov	 eax, DWORD PTR [ecx]
  0018a	ff 50 08	 call	 DWORD PTR [eax+8]

; 269  : 			itItem++;

  0018d	8b 36		 mov	 esi, DWORD PTR [esi]
  0018f	3b 77 0c	 cmp	 esi, DWORD PTR [edi+12]
  00192	75 ee		 jne	 SHORT $L24445
$L24446:
  00194	5f		 pop	 edi
  00195	5e		 pop	 esi

; 270  : 		}
; 271  : 	}
; 272  : }

  00196	c9		 leave
  00197	c2 04 00	 ret	 4
?getAsm@MusicItem@@UAEXPAVMusicFile@@@Z ENDP		; MusicItem::getAsm
PUBLIC	?SetOffset@MusicItem@@QAEII@Z			; MusicItem::SetOffset
; Function compile flags: /Ogsy
_TEXT	SEGMENT
$T69778 = -12						; size = 8
$T69776 = -12						; size = 8
tv406 = -4						; size = 4
tv207 = -4						; size = 4
__offset$ = 8						; size = 4
?SetOffset@MusicItem@@QAEII@Z PROC NEAR			; MusicItem::SetOffset
; _this$ = ecx

; 146  : {

  0019a	55		 push	 ebp
  0019b	8b ec		 mov	 ebp, esp
  0019d	83 ec 0c	 sub	 esp, 12			; 0000000cH

; 147  : 	//----------------------
; 148  : 	//Local
; 149  : 	list<	MusicItem*>::iterator	itItem;
; 150  : 	unsigned	int		i	=	0;
; 151  : 
; 152  : 	//Debug message@ioBj
; 153  : 	if(cOptionSW->cDebug & 0x02){

  001a0	a1 00 00 00 00	 mov	 eax, DWORD PTR ?cOptionSW@@3PAVOPSW@@A ; cOptionSW
  001a5	53		 push	 ebx
  001a6	56		 push	 esi
  001a7	33 db		 xor	 ebx, ebx
  001a9	f6 00 02	 test	 BYTE PTR [eax], 2
  001ac	57		 push	 edi
  001ad	8b f9		 mov	 edi, ecx
  001af	0f 84 12 01 00
	00		 je	 $L69899

; 154  : 		_COUT << _T("Object Address [0x") << hex << setw(4) << setfill(_T('0')) << _offset << _T("]: ");

  001b5	8d 45 f4	 lea	 eax, DWORD PTR $T69776[ebp]
  001b8	6a 04		 push	 4
  001ba	50		 push	 eax
  001bb	e8 00 00 00 00	 call	 ?setw@std@@YA?AU?$_Smanip@H@1@H@Z ; std::setw
  001c0	59		 pop	 ecx
  001c1	59		 pop	 ecx
  001c2	68 00 00 00 00	 push	 OFFSET FLAT:?hex@std@@YAAAVios_base@1@AAV21@@Z ; std::hex
  001c7	68 00 00 00 00	 push	 OFFSET FLAT:??_C@_1CG@JGMDIGM@?$AAO?$AAb?$AAj?$AAe?$AAc?$AAt?$AA?5?$AAA?$AAd?$AAd?$AAr?$AAe?$AAs?$AAs?$AA?5?$AA?$FL?$AA0?$AAx?$AA?$AA@
  001cc	68 00 00 00 00	 push	 OFFSET FLAT:?wcout@std@@3V?$basic_ostream@GU?$char_traits@G@std@@@1@A ; std::wcout
  001d1	89 45 fc	 mov	 DWORD PTR tv406[ebp], eax
  001d4	e8 00 00 00 00	 call	 ??$?6GU?$char_traits@G@std@@@std@@YAAAV?$basic_ostream@GU?$char_traits@G@std@@@0@AAV10@PBG@Z ; std::operator<<<unsigned short,std::char_traits<unsigned short> >
  001d9	59		 pop	 ecx
  001da	59		 pop	 ecx
  001db	8b f0		 mov	 esi, eax
  001dd	e8 00 00 00 00	 call	 ??6?$basic_ostream@GU?$char_traits@G@std@@@std@@QAEAAV01@P6AAAVios_base@1@AAV21@@Z@Z ; std::basic_ostream<unsigned short,std::char_traits<unsigned short> >::operator<<
  001e2	8b 4d fc	 mov	 ecx, DWORD PTR tv406[ebp]
  001e5	8b f0		 mov	 esi, eax
  001e7	e8 00 00 00 00	 call	 ??$?6GU?$char_traits@G@std@@H@std@@YAAAV?$basic_ostream@GU?$char_traits@G@std@@@0@AAV10@ABU?$_Smanip@H@0@@Z ; std::operator<<<unsigned short,std::char_traits<unsigned short>,int>
  001ec	8b 08		 mov	 ecx, DWORD PTR [eax]
  001ee	8b 49 04	 mov	 ecx, DWORD PTR [ecx+4]
  001f1	68 00 00 00 00	 push	 OFFSET FLAT:??_C@_17FBCNENHE@?$AA?$FN?$AA?3?$AA?5?$AA?$AA@
  001f6	ff 75 08	 push	 DWORD PTR __offset$[ebp]
  001f9	66 c7 44 01 30
	30 00		 mov	 WORD PTR [ecx+eax+48], 48 ; 00000030H
  00200	50		 push	 eax
  00201	e8 00 00 00 00	 call	 ??6?$basic_ostream@GU?$char_traits@G@std@@@std@@QAEAAV01@I@Z ; std::basic_ostream<unsigned short,std::char_traits<unsigned short> >::operator<<
  00206	50		 push	 eax
  00207	e8 00 00 00 00	 call	 ??$?6GU?$char_traits@G@std@@@std@@YAAAV?$basic_ostream@GU?$char_traits@G@std@@@0@AAV10@PBG@Z ; std::operator<<<unsigned short,std::char_traits<unsigned short> >

; 155  : 		while(i < code.size()){

  0020c	39 5f 28	 cmp	 DWORD PTR [edi+40], ebx
  0020f	59		 pop	 ecx
  00210	59		 pop	 ecx
  00211	be 00 00 00 00	 mov	 esi, OFFSET FLAT:?wcout@std@@3V?$basic_ostream@GU?$char_traits@G@std@@@1@A
  00216	76 74		 jbe	 SHORT $L24345
$L24344:

; 156  : 			_COUT	<<	hex	<<	setw(2)	<<	setfill(_T('0'))	<<	(unsigned int)(code[i] & 0xFF)	<<	_T(" ");

  00218	83 7f 2c 10	 cmp	 DWORD PTR [edi+44], 16	; 00000010H
  0021c	72 05		 jb	 SHORT $L69826
  0021e	8b 47 18	 mov	 eax, DWORD PTR [edi+24]
  00221	eb 03		 jmp	 SHORT $L69998
$L69826:
  00223	8d 47 18	 lea	 eax, DWORD PTR [edi+24]
$L69998:
  00226	89 45 fc	 mov	 DWORD PTR tv207[ebp], eax
  00229	a1 00 00 00 00	 mov	 eax, DWORD PTR ?wcout@std@@3V?$basic_ostream@GU?$char_traits@G@std@@@1@A
  0022e	8b 40 04	 mov	 eax, DWORD PTR [eax+4]
  00231	03 c6		 add	 eax, esi
  00233	8b 48 10	 mov	 ecx, DWORD PTR [eax+16]
  00236	81 e1 ff f9 ff
	ff		 and	 ecx, -1537		; fffff9ffH
  0023c	81 c9 00 08 00
	00		 or	 ecx, 2048		; 00000800H
  00242	89 48 10	 mov	 DWORD PTR [eax+16], ecx
  00245	8d 45 f4	 lea	 eax, DWORD PTR $T69778[ebp]
  00248	6a 02		 push	 2
  0024a	50		 push	 eax
  0024b	e8 00 00 00 00	 call	 ?setw@std@@YA?AU?$_Smanip@H@1@H@Z ; std::setw
  00250	59		 pop	 ecx
  00251	59		 pop	 ecx
  00252	8b c8		 mov	 ecx, eax
  00254	e8 00 00 00 00	 call	 ??$?6GU?$char_traits@G@std@@H@std@@YAAAV?$basic_ostream@GU?$char_traits@G@std@@@0@AAV10@ABU?$_Smanip@H@0@@Z ; std::operator<<<unsigned short,std::char_traits<unsigned short>,int>
  00259	8b 08		 mov	 ecx, DWORD PTR [eax]
  0025b	8b 49 04	 mov	 ecx, DWORD PTR [ecx+4]
  0025e	66 c7 44 01 30
	30 00		 mov	 WORD PTR [ecx+eax+48], 48 ; 00000030H
  00265	8b 4d fc	 mov	 ecx, DWORD PTR tv207[ebp]
  00268	0f be 0c 19	 movsx	 ecx, BYTE PTR [ecx+ebx]
  0026c	68 00 00 00 00	 push	 OFFSET FLAT:??_C@_13HOIJIPNN@?$AA?5?$AA?$AA@
  00271	81 e1 ff 00 00
	00		 and	 ecx, 255		; 000000ffH
  00277	51		 push	 ecx
  00278	50		 push	 eax
  00279	e8 00 00 00 00	 call	 ??6?$basic_ostream@GU?$char_traits@G@std@@@std@@QAEAAV01@I@Z ; std::basic_ostream<unsigned short,std::char_traits<unsigned short> >::operator<<
  0027e	50		 push	 eax
  0027f	e8 00 00 00 00	 call	 ??$?6GU?$char_traits@G@std@@@std@@YAAAV?$basic_ostream@GU?$char_traits@G@std@@@0@AAV10@PBG@Z ; std::operator<<<unsigned short,std::char_traits<unsigned short> >

; 157  : 			i++;

  00284	43		 inc	 ebx
  00285	3b 5f 28	 cmp	 ebx, DWORD PTR [edi+40]
  00288	59		 pop	 ecx
  00289	59		 pop	 ecx
  0028a	72 8c		 jb	 SHORT $L24344
$L24345:

; 158  : 		}
; 159  : 		_COUT  << dec	<< _T(": ") << strName << endl;

  0028c	a1 00 00 00 00	 mov	 eax, DWORD PTR ?wcout@std@@3V?$basic_ostream@GU?$char_traits@G@std@@@1@A
  00291	8b 40 04	 mov	 eax, DWORD PTR [eax+4]
  00294	03 c6		 add	 eax, esi
  00296	8b 48 10	 mov	 ecx, DWORD PTR [eax+16]
  00299	81 e1 ff f3 ff
	ff		 and	 ecx, -3073		; fffff3ffH
  0029f	81 c9 00 02 00
	00		 or	 ecx, 512		; 00000200H
  002a5	89 48 10	 mov	 DWORD PTR [eax+16], ecx
  002a8	ff 77 04	 push	 DWORD PTR [edi+4]
  002ab	68 00 00 00 00	 push	 OFFSET FLAT:??_C@_15ELOONFKJ@?$AA?3?$AA?5?$AA?$AA@
  002b0	56		 push	 esi
  002b1	e8 00 00 00 00	 call	 ??$?6GU?$char_traits@G@std@@@std@@YAAAV?$basic_ostream@GU?$char_traits@G@std@@@0@AAV10@PBG@Z ; std::operator<<<unsigned short,std::char_traits<unsigned short> >
  002b6	59		 pop	 ecx
  002b7	59		 pop	 ecx
  002b8	50		 push	 eax
  002b9	e8 00 00 00 00	 call	 ??$?6GU?$char_traits@G@std@@@std@@YAAAV?$basic_ostream@GU?$char_traits@G@std@@@0@AAV10@PBG@Z ; std::operator<<<unsigned short,std::char_traits<unsigned short> >
  002be	50		 push	 eax
  002bf	e8 00 00 00 00	 call	 ?endl@std@@YAAAV?$basic_ostream@GU?$char_traits@G@std@@@1@AAV21@@Z ; std::endl
  002c4	83 c4 0c	 add	 esp, 12			; 0000000cH
$L69899:

; 160  : 	}
; 161  : 
; 162  : 	iOffset = _offset;

  002c7	8b 45 08	 mov	 eax, DWORD PTR __offset$[ebp]
  002ca	89 47 34	 mov	 DWORD PTR [edi+52], eax

; 163  : 	_offset	+= (unsigned int)code.size();

  002cd	03 47 28	 add	 eax, DWORD PTR [edi+40]

; 164  : 
; 165  : 	if(!ptcItem.empty()){

  002d0	83 7f 10 00	 cmp	 DWORD PTR [edi+16], 0
  002d4	74 1c		 je	 SHORT $L24358

; 166  : 		itItem = ptcItem.begin();

  002d6	8b 4f 0c	 mov	 ecx, DWORD PTR [edi+12]
  002d9	8b 31		 mov	 esi, DWORD PTR [ecx]

; 167  : 		while(itItem != ptcItem.end()){

  002db	3b f1		 cmp	 esi, ecx
  002dd	74 13		 je	 SHORT $L24358
$L69997:

; 168  : 			_offset = (*itItem)->SetOffset(_offset);

  002df	8b 4e 08	 mov	 ecx, DWORD PTR [esi+8]
  002e2	50		 push	 eax
  002e3	e8 00 00 00 00	 call	 ?SetOffset@MusicItem@@QAEII@Z ; MusicItem::SetOffset

; 169  : 			itItem++;

  002e8	8b 36		 mov	 esi, DWORD PTR [esi]
  002ea	3b 77 0c	 cmp	 esi, DWORD PTR [edi+12]
  002ed	89 45 08	 mov	 DWORD PTR __offset$[ebp], eax
  002f0	75 ed		 jne	 SHORT $L69997
$L24358:
  002f2	5f		 pop	 edi
  002f3	5e		 pop	 esi
  002f4	5b		 pop	 ebx

; 170  : 		}
; 171  : 	}
; 172  : 
; 173  : 	return(_offset);
; 174  : }

  002f5	c9		 leave
  002f6	c2 04 00	 ret	 4
?SetOffset@MusicItem@@QAEII@Z ENDP			; MusicItem::SetOffset
_TEXT	ENDS
PUBLIC	?clear@MusicItem@@QAEXH@Z			; MusicItem::clear
; Function compile flags: /Ogsy
_TEXT	SEGMENT
__id$ = 8						; size = 4
?clear@MusicItem@@QAEXH@Z PROC NEAR			; MusicItem::clear
; _this$ = eax

; 101  : {

  002f9	57		 push	 edi
  002fa	8b f8		 mov	 edi, eax

; 102  : 
; 103  : 	//Debug message@ioBj
; 104  : 	if(cOptionSW->cDebug & 0x40){

  002fc	a1 00 00 00 00	 mov	 eax, DWORD PTR ?cOptionSW@@3PAVOPSW@@A ; cOptionSW
  00301	f6 00 40	 test	 BYTE PTR [eax], 64	; 00000040H
  00304	74 47		 je	 SHORT $L70002

; 105  : 		_COUT << _T("Clear Music Object : ====[ ") << strName << _T("(") << _id << _T(") ]====") << endl;

  00306	68 00 00 00 00	 push	 OFFSET FLAT:??_C@_1BA@IPNAJJBI@?$AA?$CJ?$AA?5?$AA?$FN?$AA?$DN?$AA?$DN?$AA?$DN?$AA?$DN?$AA?$AA@
  0030b	ff 74 24 0c	 push	 DWORD PTR __id$[esp+4]
  0030f	68 00 00 00 00	 push	 OFFSET FLAT:??_C@_13LLDNKHDC@?$AA?$CI?$AA?$AA@
  00314	ff 77 04	 push	 DWORD PTR [edi+4]
  00317	68 00 00 00 00	 push	 OFFSET FLAT:??_C@_1DI@HOOCLMDN@?$AAC?$AAl?$AAe?$AAa?$AAr?$AA?5?$AAM?$AAu?$AAs?$AAi?$AAc?$AA?5?$AAO?$AAb?$AAj?$AAe?$AAc?$AAt?$AA?5?$AA?3@
  0031c	68 00 00 00 00	 push	 OFFSET FLAT:?wcout@std@@3V?$basic_ostream@GU?$char_traits@G@std@@@1@A ; std::wcout
  00321	e8 00 00 00 00	 call	 ??$?6GU?$char_traits@G@std@@@std@@YAAAV?$basic_ostream@GU?$char_traits@G@std@@@0@AAV10@PBG@Z ; std::operator<<<unsigned short,std::char_traits<unsigned short> >
  00326	59		 pop	 ecx
  00327	59		 pop	 ecx
  00328	50		 push	 eax
  00329	e8 00 00 00 00	 call	 ??$?6GU?$char_traits@G@std@@@std@@YAAAV?$basic_ostream@GU?$char_traits@G@std@@@0@AAV10@PBG@Z ; std::operator<<<unsigned short,std::char_traits<unsigned short> >
  0032e	59		 pop	 ecx
  0032f	59		 pop	 ecx
  00330	50		 push	 eax
  00331	e8 00 00 00 00	 call	 ??$?6GU?$char_traits@G@std@@@std@@YAAAV?$basic_ostream@GU?$char_traits@G@std@@@0@AAV10@PBG@Z ; std::operator<<<unsigned short,std::char_traits<unsigned short> >
  00336	59		 pop	 ecx
  00337	59		 pop	 ecx
  00338	50		 push	 eax
  00339	e8 00 00 00 00	 call	 ??6?$basic_ostream@GU?$char_traits@G@std@@@std@@QAEAAV01@H@Z ; std::basic_ostream<unsigned short,std::char_traits<unsigned short> >::operator<<
  0033e	50		 push	 eax
  0033f	e8 00 00 00 00	 call	 ??$?6GU?$char_traits@G@std@@@std@@YAAAV?$basic_ostream@GU?$char_traits@G@std@@@0@AAV10@PBG@Z ; std::operator<<<unsigned short,std::char_traits<unsigned short> >
  00344	50		 push	 eax
  00345	e8 00 00 00 00	 call	 ?endl@std@@YAAAV?$basic_ostream@GU?$char_traits@G@std@@@1@AAV21@@Z ; std::endl
  0034a	83 c4 0c	 add	 esp, 12			; 0000000cH
$L70002:

; 106  : 	}
; 107  : 
; 108  : 	clear();

  0034d	e8 00 00 00 00	 call	 ?clear@MusicItem@@QAEXXZ ; MusicItem::clear
  00352	5f		 pop	 edi

; 109  : }

  00353	c2 04 00	 ret	 4
?clear@MusicItem@@QAEXH@Z ENDP				; MusicItem::clear
$T70020	DD	0ffffffffH
	DD	FLAT:$L70005
	DD	00H
	DD	FLAT:$L70006
$T70018	DD	019930520H
	DD	02H
	DD	FLAT:$T70020
	DD	2 DUP(00H)
	DD	2 DUP(00H)
; Function compile flags: /Ogsy
_TEXT	SEGMENT
_this$ = -16						; size = 4
__$EHRec$ = -12						; size = 12
??1MusicItem@@QAE@XZ PROC NEAR				; MusicItem::~MusicItem
; _this$ = ecx

; 61   : {

  00356	b8 00 00 00 00	 mov	 eax, __ehhandler$??1MusicItem@@QAE@XZ
  0035b	e8 00 00 00 00	 call	 __EH_prolog
  00360	51		 push	 ecx
  00361	57		 push	 edi
  00362	8b f9		 mov	 edi, ecx
  00364	89 7d f0	 mov	 DWORD PTR _this$[ebp], edi
  00367	c7 07 00 00 00
	00		 mov	 DWORD PTR [edi], OFFSET FLAT:??_7MusicItem@@6B@
  0036d	c7 45 fc 01 00
	00 00		 mov	 DWORD PTR __$EHRec$[ebp+8], 1

; 62   : 	clear();

  00374	e8 00 00 00 00	 call	 ?clear@MusicItem@@QAEXXZ ; MusicItem::clear

; 63   : 
; 64   : 	//Debug message@ioBj
; 65   : 	if(cOptionSW->cDebug & 0x80){

  00379	a1 00 00 00 00	 mov	 eax, DWORD PTR ?cOptionSW@@3PAVOPSW@@A ; cOptionSW
  0037e	f6 00 80	 test	 BYTE PTR [eax], 128	; 00000080H
  00381	74 23		 je	 SHORT $L70009

; 66   : 		_COUT << _T("Delete Music Object : ") << strName << endl;

  00383	ff 77 04	 push	 DWORD PTR [edi+4]
  00386	68 00 00 00 00	 push	 OFFSET FLAT:??_C@_1CO@OFPKHPDE@?$AAD?$AAe?$AAl?$AAe?$AAt?$AAe?$AA?5?$AAM?$AAu?$AAs?$AAi?$AAc?$AA?5?$AAO?$AAb?$AAj?$AAe?$AAc?$AAt?$AA?5@
  0038b	68 00 00 00 00	 push	 OFFSET FLAT:?wcout@std@@3V?$basic_ostream@GU?$char_traits@G@std@@@1@A ; std::wcout
  00390	e8 00 00 00 00	 call	 ??$?6GU?$char_traits@G@std@@@std@@YAAAV?$basic_ostream@GU?$char_traits@G@std@@@0@AAV10@PBG@Z ; std::operator<<<unsigned short,std::char_traits<unsigned short> >
  00395	59		 pop	 ecx
  00396	59		 pop	 ecx
  00397	50		 push	 eax
  00398	e8 00 00 00 00	 call	 ??$?6GU?$char_traits@G@std@@@std@@YAAAV?$basic_ostream@GU?$char_traits@G@std@@@0@AAV10@PBG@Z ; std::operator<<<unsigned short,std::char_traits<unsigned short> >
  0039d	50		 push	 eax
  0039e	e8 00 00 00 00	 call	 ?endl@std@@YAAAV?$basic_ostream@GU?$char_traits@G@std@@@1@AAV21@@Z ; std::endl
  003a3	83 c4 0c	 add	 esp, 12			; 0000000cH
$L70009:

; 67   : 	}
; 68   : }

  003a6	6a 00		 push	 0
  003a8	6a 01		 push	 1
  003aa	8d 4f 14	 lea	 ecx, DWORD PTR [edi+20]
  003ad	e8 00 00 00 00	 call	 ?_Tidy@?$basic_string@DU?$char_traits@D@std@@V?$allocator@D@2@@std@@IAEX_NI@Z ; std::basic_string<char,std::char_traits<char>,std::allocator<char> >::_Tidy
  003b2	8d 47 08	 lea	 eax, DWORD PTR [edi+8]
  003b5	e8 00 00 00 00	 call	 ?_Tidy@?$list@PAVMusicItem@@V?$allocator@PAVMusicItem@@@std@@@std@@IAEXXZ ; std::list<MusicItem *,std::allocator<MusicItem *> >::_Tidy
  003ba	8b 4d f4	 mov	 ecx, DWORD PTR __$EHRec$[ebp]
  003bd	5f		 pop	 edi
  003be	64 89 0d 00 00
	00 00		 mov	 DWORD PTR fs:__except_list, ecx
  003c5	c9		 leave
  003c6	c3		 ret	 0
$L70005:
  000bb	8b 45 f0	 mov	 eax, DWORD PTR _this$[ebp]
  000be	83 c0 08	 add	 eax, 8
  000c1	e9 00 00 00 00	 jmp	 ??1?$list@PAVMusicItem@@V?$allocator@PAVMusicItem@@@std@@@std@@QAE@XZ ; std::list<MusicItem *,std::allocator<MusicItem *> >::~list<MusicItem *,std::allocator<MusicItem *> >
$L70006:
  000c6	8b 4d f0	 mov	 ecx, DWORD PTR _this$[ebp]
  000c9	83 c1 14	 add	 ecx, 20			; 00000014H
  000cc	e9 00 00 00 00	 jmp	 ??1?$basic_string@DU?$char_traits@D@std@@V?$allocator@D@2@@std@@QAE@XZ ; std::basic_string<char,std::char_traits<char>,std::allocator<char> >::~basic_string<char,std::char_traits<char>,std::allocator<char> >
__ehhandler$??1MusicItem@@QAE@XZ:
  000d1	b8 00 00 00 00	 mov	 eax, OFFSET FLAT:$T70018
  000d6	e9 00 00 00 00	 jmp	 ___CxxFrameHandler
??1MusicItem@@QAE@XZ ENDP				; MusicItem::~MusicItem
PUBLIC	??0MusicItem@@QAE@HQBG@Z			; MusicItem::MusicItem
$T70116	DD	0ffffffffH
	DD	FLAT:$L70022
	DD	00H
	DD	FLAT:$L70023
$T70114	DD	019930520H
	DD	02H
	DD	FLAT:$T70116
	DD	2 DUP(00H)
	DD	2 DUP(00H)
; Function compile flags: /Ogsy
_TEXT	SEGMENT
__$EHRec$ = -12						; size = 12
_this$ = 8						; size = 4
__id$ = 12						; size = 4
__strName$ = 16						; size = 4
??0MusicItem@@QAE@HQBG@Z PROC NEAR			; MusicItem::MusicItem

; 43   : {

  003c7	b8 00 00 00 00	 mov	 eax, __ehhandler$??0MusicItem@@QAE@HQBG@Z
  003cc	e8 00 00 00 00	 call	 __EH_prolog
  003d1	8b 45 10	 mov	 eax, DWORD PTR __strName$[ebp]
  003d4	53		 push	 ebx
  003d5	56		 push	 esi
  003d6	8b 75 08	 mov	 esi, DWORD PTR _this$[ebp]
  003d9	c7 06 00 00 00
	00		 mov	 DWORD PTR [esi], OFFSET FLAT:??_7MusicItem@@6B@
  003df	89 46 04	 mov	 DWORD PTR [esi+4], eax
  003e2	e8 00 00 00 00	 call	 ?_Buynode@?$list@PAVMusicItem@@V?$allocator@PAVMusicItem@@@std@@@std@@IAEPAU_Node@?$_List_nod@PAVMusicItem@@V?$allocator@PAVMusicItem@@@std@@@2@XZ ; std::list<MusicItem *,std::allocator<MusicItem *> >::_Buynode
  003e7	33 db		 xor	 ebx, ebx
  003e9	89 46 0c	 mov	 DWORD PTR [esi+12], eax
  003ec	89 5e 10	 mov	 DWORD PTR [esi+16], ebx
  003ef	8d 4e 14	 lea	 ecx, DWORD PTR [esi+20]
  003f2	89 5d fc	 mov	 DWORD PTR __$EHRec$[ebp+8], ebx
  003f5	e8 00 00 00 00	 call	 ??0?$basic_string@DU?$char_traits@D@std@@V?$allocator@D@2@@std@@QAE@XZ ; std::basic_string<char,std::char_traits<char>,std::allocator<char> >::basic_string<char,std::char_traits<char>,std::allocator<char> >
  003fa	c6 45 fc 01	 mov	 BYTE PTR __$EHRec$[ebp+8], 1

; 44   : 	//Debug message@ioBj
; 45   : 	if(cOptionSW->cDebug & 0x01){

  003fe	a1 00 00 00 00	 mov	 eax, DWORD PTR ?cOptionSW@@3PAVOPSW@@A ; cOptionSW
  00403	89 5e 30	 mov	 DWORD PTR [esi+48], ebx
  00406	89 5e 34	 mov	 DWORD PTR [esi+52], ebx
  00409	88 5e 38	 mov	 BYTE PTR [esi+56], bl
  0040c	f6 00 01	 test	 BYTE PTR [eax], 1
  0040f	74 4d		 je	 SHORT $L70111
  00411	57		 push	 edi

; 46   : 		_COUT << _T("Create Music Object : ====[ ") << strName << _T("(");

  00412	68 00 00 00 00	 push	 OFFSET FLAT:??_C@_13LLDNKHDC@?$AA?$CI?$AA?$AA@
  00417	ff 76 04	 push	 DWORD PTR [esi+4]
  0041a	bf 00 00 00 00	 mov	 edi, OFFSET FLAT:?wcout@std@@3V?$basic_ostream@GU?$char_traits@G@std@@@1@A ; std::wcout
  0041f	68 00 00 00 00	 push	 OFFSET FLAT:??_C@_1DK@NDALBCEO@?$AAC?$AAr?$AAe?$AAa?$AAt?$AAe?$AA?5?$AAM?$AAu?$AAs?$AAi?$AAc?$AA?5?$AAO?$AAb?$AAj?$AAe?$AAc?$AAt?$AA?5@
  00424	57		 push	 edi
  00425	e8 00 00 00 00	 call	 ??$?6GU?$char_traits@G@std@@@std@@YAAAV?$basic_ostream@GU?$char_traits@G@std@@@0@AAV10@PBG@Z ; std::operator<<<unsigned short,std::char_traits<unsigned short> >
  0042a	59		 pop	 ecx
  0042b	59		 pop	 ecx
  0042c	50		 push	 eax
  0042d	e8 00 00 00 00	 call	 ??$?6GU?$char_traits@G@std@@@std@@YAAAV?$basic_ostream@GU?$char_traits@G@std@@@0@AAV10@PBG@Z ; std::operator<<<unsigned short,std::char_traits<unsigned short> >
  00432	59		 pop	 ecx
  00433	59		 pop	 ecx
  00434	50		 push	 eax
  00435	e8 00 00 00 00	 call	 ??$?6GU?$char_traits@G@std@@@std@@YAAAV?$basic_ostream@GU?$char_traits@G@std@@@0@AAV10@PBG@Z ; std::operator<<<unsigned short,std::char_traits<unsigned short> >
  0043a	59		 pop	 ecx
  0043b	59		 pop	 ecx

; 47   : 		cout << _id;

  0043c	ff 75 0c	 push	 DWORD PTR __id$[ebp]
  0043f	68 00 00 00 00	 push	 OFFSET FLAT:?cout@std@@3V?$basic_ostream@DU?$char_traits@D@std@@@1@A
  00444	e8 00 00 00 00	 call	 ??6?$basic_ostream@DU?$char_traits@D@std@@@std@@QAEAAV01@H@Z ; std::basic_ostream<char,std::char_traits<char> >::operator<<

; 48   : 		_COUT << _T(") ]====") << endl;

  00449	68 00 00 00 00	 push	 OFFSET FLAT:??_C@_1BA@IPNAJJBI@?$AA?$CJ?$AA?5?$AA?$FN?$AA?$DN?$AA?$DN?$AA?$DN?$AA?$DN?$AA?$AA@
  0044e	57		 push	 edi
  0044f	e8 00 00 00 00	 call	 ??$?6GU?$char_traits@G@std@@@std@@YAAAV?$basic_ostream@GU?$char_traits@G@std@@@0@AAV10@PBG@Z ; std::operator<<<unsigned short,std::char_traits<unsigned short> >
  00454	50		 push	 eax
  00455	e8 00 00 00 00	 call	 ?endl@std@@YAAAV?$basic_ostream@GU?$char_traits@G@std@@@1@AAV21@@Z ; std::endl
  0045a	83 c4 0c	 add	 esp, 12			; 0000000cH
  0045d	5f		 pop	 edi
$L70111:

; 49   : 	}
; 50   : }

  0045e	8b 4d f4	 mov	 ecx, DWORD PTR __$EHRec$[ebp]
  00461	8b c6		 mov	 eax, esi
  00463	5e		 pop	 esi
  00464	5b		 pop	 ebx
  00465	64 89 0d 00 00
	00 00		 mov	 DWORD PTR fs:__except_list, ecx
  0046c	c9		 leave
  0046d	c2 0c 00	 ret	 12			; 0000000cH
$L70022:
  000db	8b 45 08	 mov	 eax, DWORD PTR _this$[ebp]
  000de	83 c0 08	 add	 eax, 8
  000e1	e9 00 00 00 00	 jmp	 ??1?$list@PAVMusicItem@@V?$allocator@PAVMusicItem@@@std@@@std@@QAE@XZ ; std::list<MusicItem *,std::allocator<MusicItem *> >::~list<MusicItem *,std::allocator<MusicItem *> >
$L70023:
  000e6	8b 4d 08	 mov	 ecx, DWORD PTR _this$[ebp]
  000e9	83 c1 14	 add	 ecx, 20			; 00000014H
  000ec	e9 00 00 00 00	 jmp	 ??1?$basic_string@DU?$char_traits@D@std@@V?$allocator@D@2@@std@@QAE@XZ ; std::basic_string<char,std::char_traits<char>,std::allocator<char> >::~basic_string<char,std::char_traits<char>,std::allocator<char> >
__ehhandler$??0MusicItem@@QAE@HQBG@Z:
  000f1	b8 00 00 00 00	 mov	 eax, OFFSET FLAT:$T70114
  000f6	e9 00 00 00 00	 jmp	 ___CxxFrameHandler
??0MusicItem@@QAE@HQBG@Z ENDP				; MusicItem::MusicItem
PUBLIC	??0MusicItem@@QAE@QBG@Z				; MusicItem::MusicItem
$T70212	DD	0ffffffffH
	DD	FLAT:$L70118
	DD	00H
	DD	FLAT:$L70119
$T70210	DD	019930520H
	DD	02H
	DD	FLAT:$T70212
	DD	2 DUP(00H)
	DD	2 DUP(00H)
; Function compile flags: /Ogsy
_TEXT	SEGMENT
__$EHRec$ = -12						; size = 12
_this$ = 8						; size = 4
__strName$ = 12						; size = 4
??0MusicItem@@QAE@QBG@Z PROC NEAR			; MusicItem::MusicItem

; 31   : {

  00470	b8 00 00 00 00	 mov	 eax, __ehhandler$??0MusicItem@@QAE@QBG@Z
  00475	e8 00 00 00 00	 call	 __EH_prolog
  0047a	8b 45 0c	 mov	 eax, DWORD PTR __strName$[ebp]
  0047d	53		 push	 ebx
  0047e	56		 push	 esi
  0047f	8b 75 08	 mov	 esi, DWORD PTR _this$[ebp]
  00482	c7 06 00 00 00
	00		 mov	 DWORD PTR [esi], OFFSET FLAT:??_7MusicItem@@6B@
  00488	89 46 04	 mov	 DWORD PTR [esi+4], eax
  0048b	e8 00 00 00 00	 call	 ?_Buynode@?$list@PAVMusicItem@@V?$allocator@PAVMusicItem@@@std@@@std@@IAEPAU_Node@?$_List_nod@PAVMusicItem@@V?$allocator@PAVMusicItem@@@std@@@2@XZ ; std::list<MusicItem *,std::allocator<MusicItem *> >::_Buynode
  00490	33 db		 xor	 ebx, ebx
  00492	89 46 0c	 mov	 DWORD PTR [esi+12], eax
  00495	89 5e 10	 mov	 DWORD PTR [esi+16], ebx
  00498	8d 4e 14	 lea	 ecx, DWORD PTR [esi+20]
  0049b	89 5d fc	 mov	 DWORD PTR __$EHRec$[ebp+8], ebx
  0049e	e8 00 00 00 00	 call	 ??0?$basic_string@DU?$char_traits@D@std@@V?$allocator@D@2@@std@@QAE@XZ ; std::basic_string<char,std::char_traits<char>,std::allocator<char> >::basic_string<char,std::char_traits<char>,std::allocator<char> >
  004a3	c6 45 fc 01	 mov	 BYTE PTR __$EHRec$[ebp+8], 1

; 32   : 	//Debug message@ioBj
; 33   : 	if(cOptionSW->cDebug & 0x01){

  004a7	a1 00 00 00 00	 mov	 eax, DWORD PTR ?cOptionSW@@3PAVOPSW@@A ; cOptionSW
  004ac	89 5e 30	 mov	 DWORD PTR [esi+48], ebx
  004af	89 5e 34	 mov	 DWORD PTR [esi+52], ebx
  004b2	88 5e 38	 mov	 BYTE PTR [esi+56], bl
  004b5	f6 00 01	 test	 BYTE PTR [eax], 1
  004b8	74 23		 je	 SHORT $L70207

; 34   : 		_COUT << _T("Create Music Object : ") << strName << endl;

  004ba	ff 76 04	 push	 DWORD PTR [esi+4]
  004bd	68 00 00 00 00	 push	 OFFSET FLAT:??_C@_1CO@CABMGNMH@?$AAC?$AAr?$AAe?$AAa?$AAt?$AAe?$AA?5?$AAM?$AAu?$AAs?$AAi?$AAc?$AA?5?$AAO?$AAb?$AAj?$AAe?$AAc?$AAt?$AA?5@
  004c2	68 00 00 00 00	 push	 OFFSET FLAT:?wcout@std@@3V?$basic_ostream@GU?$char_traits@G@std@@@1@A ; std::wcout
  004c7	e8 00 00 00 00	 call	 ??$?6GU?$char_traits@G@std@@@std@@YAAAV?$basic_ostream@GU?$char_traits@G@std@@@0@AAV10@PBG@Z ; std::operator<<<unsigned short,std::char_traits<unsigned short> >
  004cc	59		 pop	 ecx
  004cd	59		 pop	 ecx
  004ce	50		 push	 eax
  004cf	e8 00 00 00 00	 call	 ??$?6GU?$char_traits@G@std@@@std@@YAAAV?$basic_ostream@GU?$char_traits@G@std@@@0@AAV10@PBG@Z ; std::operator<<<unsigned short,std::char_traits<unsigned short> >
  004d4	50		 push	 eax
  004d5	e8 00 00 00 00	 call	 ?endl@std@@YAAAV?$basic_ostream@GU?$char_traits@G@std@@@1@AAV21@@Z ; std::endl
  004da	83 c4 0c	 add	 esp, 12			; 0000000cH
$L70207:

; 35   : 	}
; 36   : }

  004dd	8b 4d f4	 mov	 ecx, DWORD PTR __$EHRec$[ebp]
  004e0	8b c6		 mov	 eax, esi
  004e2	5e		 pop	 esi
  004e3	5b		 pop	 ebx
  004e4	64 89 0d 00 00
	00 00		 mov	 DWORD PTR fs:__except_list, ecx
  004eb	c9		 leave
  004ec	c2 08 00	 ret	 8
$L70118:
  000fb	8b 45 08	 mov	 eax, DWORD PTR _this$[ebp]
  000fe	83 c0 08	 add	 eax, 8
  00101	e9 00 00 00 00	 jmp	 ??1?$list@PAVMusicItem@@V?$allocator@PAVMusicItem@@@std@@@std@@QAE@XZ ; std::list<MusicItem *,std::allocator<MusicItem *> >::~list<MusicItem *,std::allocator<MusicItem *> >
$L70119:
  00106	8b 4d 08	 mov	 ecx, DWORD PTR _this$[ebp]
  00109	83 c1 14	 add	 ecx, 20			; 00000014H
  0010c	e9 00 00 00 00	 jmp	 ??1?$basic_string@DU?$char_traits@D@std@@V?$allocator@D@2@@std@@QAE@XZ ; std::basic_string<char,std::char_traits<char>,std::allocator<char> >::~basic_string<char,std::char_traits<char>,std::allocator<char> >
__ehhandler$??0MusicItem@@QAE@QBG@Z:
  00111	b8 00 00 00 00	 mov	 eax, OFFSET FLAT:$T70210
  00116	e9 00 00 00 00	 jmp	 ___CxxFrameHandler
??0MusicItem@@QAE@QBG@Z ENDP				; MusicItem::MusicItem
; Function compile flags: /Ogsy
; File c:\program files (x86)\microsoft visual studio .net 2003\vc7\include\xlocnum
;	COMDAT _$E3
text$yc	SEGMENT
_$E3	PROC NEAR					; COMDAT

; 806  : 		{	// initialize from _Locinfo object

  00000	83 25 00 00 00
	00 00		 and	 DWORD PTR ?id@?$num_put@GV?$ostreambuf_iterator@GU?$char_traits@G@std@@@std@@@std@@2V0locale@2@A, 0 ; std::num_put<unsigned short,std::ostreambuf_iterator<unsigned short,std::char_traits<unsigned short> > >::id
  00007	c3		 ret	 0
_$E3	ENDP
END
