; Listing generated by Microsoft (R) Optimizing Compiler Version 13.10.3077 

	TITLE	.\nsc.cpp
	.386P
include listing.inc
if @Version gt 510
.model FLAT
else
;	COMDAT ??_C@_00CNPNBAHC@?$AA@
CONST	SEGMENT DWORD USE32 PUBLIC 'CONST'
CONST	ENDS
;	COMDAT ??_C@_1NK@KENGHJLD@?$AAM?$AAM?$AAL?$AA?5?$AAC?$AAo?$AAm?$AAp?$AAi?$AAl?$AAe?$AAr?$AA?5?$AAf?$AAo?$AAr?$AA?5?$AAN?$AAE?$AAS@
CONST	SEGMENT DWORD USE32 PUBLIC 'CONST'
CONST	ENDS
;	COMDAT ??_C@_1HK@PLEACAAO@?$AA?9?$AA?9?$AA?9?$AA?9?$AA?9?$AA?9?$AA?9?$AA?9?$AA?9?$AA?9?$AA?9?$AA?9?$AA?9?$AA?9?$AA?9?$AA?9?$AA?9?$AA?9?$AA?9?$AA?9@
CONST	SEGMENT DWORD USE32 PUBLIC 'CONST'
CONST	ENDS
;	COMDAT ??_C@_1DC@NFNOFJGE@?$AA?$CK?$AAO?$AAb?$AAj?$AAe?$AAc?$AAt?$AA?5?$AAc?$AAr?$AAe?$AAa?$AAt?$AAi?$AAn?$AAg?$AA?5?$AAp?$AAr?$AAo@
CONST	SEGMENT DWORD USE32 PUBLIC 'CONST'
CONST	ENDS
;	COMDAT ??_C@_1CI@BGPJBPBK@?$AA?$DN?$AA?$DN?$AA?$DN?$AA?$DN?$AA?5?$AA?$FL?$AA?5?$AAM?$AAu?$AAs?$AAi?$AAc?$AA?5?$AA?$FN?$AA?5?$AA?$DN?$AA?$DN?$AA?$DN?$AA?$DN?$AA?$AA@
CONST	SEGMENT DWORD USE32 PUBLIC 'CONST'
CONST	ENDS
;	COMDAT ??_C@_1EE@BGEBAFOM@?$AA?$CK?$AAO?$AAp?$AAt?$AAi?$AAm?$AAi?$AAz?$AAe?$AA?5?$AA?$CG?$AA?5?$AAT?$AAi?$AAc?$AAk?$AA?5?$AAc?$AAo?$AAu@
CONST	SEGMENT DWORD USE32 PUBLIC 'CONST'
CONST	ENDS
;	COMDAT ??_C@_1DI@JGLJCCJP@?$AA?$CK?$AAA?$AAd?$AAd?$AAr?$AAe?$AAs?$AAs?$AA?5?$AAs?$AAe?$AAt?$AAt?$AAl?$AAe?$AAm?$AAe?$AAn?$AAt?$AA?5@
CONST	SEGMENT DWORD USE32 PUBLIC 'CONST'
CONST	ENDS
;	COMDAT ??_C@_07FBHPMLEN@?5?$FLByte?$FN?$AA@
CONST	SEGMENT DWORD USE32 PUBLIC 'CONST'
CONST	ENDS
;	COMDAT ??_C@_0BA@DKKDKJML@?5?5Music?5Size?5?$DN?5?$AA@
CONST	SEGMENT DWORD USE32 PUBLIC 'CONST'
CONST	ENDS
;	COMDAT ??_C@_0BA@IEMDIJBO@?5?5DPCM?5Size?5?5?$DN?5?$AA@
CONST	SEGMENT DWORD USE32 PUBLIC 'CONST'
CONST	ENDS
;	COMDAT ??_C@_1BA@BJOMPAID@?$AAE?$AAr?$AAr?$AAo?$AAr?$AA?$CB?$AA?3?$AA?$AA@
CONST	SEGMENT DWORD USE32 PUBLIC 'CONST'
CONST	ENDS
;	COMDAT ??_C@_02EAOCLKAK@ld?$AA@
CONST	SEGMENT DWORD USE32 PUBLIC 'CONST'
CONST	ENDS
;	COMDAT ??_C@_02BDDLJJBK@lu?$AA@
CONST	SEGMENT DWORD USE32 PUBLIC 'CONST'
CONST	ENDS
;	COMDAT ??_C@_02HIKPPMOK@Ld?$AA@
CONST	SEGMENT DWORD USE32 PUBLIC 'CONST'
CONST	ENDS
;	COMDAT ??_C@_02CLHGNPPK@Lu?$AA@
CONST	SEGMENT DWORD USE32 PUBLIC 'CONST'
CONST	ENDS
;	COMDAT ??_C@_02BBAHNLBA@?$CFp?$AA@
CONST	SEGMENT DWORD USE32 PUBLIC 'CONST'
CONST	ENDS
;	COMDAT ??_C@_01DDCIFGEA@E?$AA@
CONST	SEGMENT DWORD USE32 PUBLIC 'CONST'
CONST	ENDS
;	COMDAT ??_C@_01KGKMHCOC@e?$AA@
CONST	SEGMENT DWORD USE32 PUBLIC 'CONST'
CONST	ENDS
text$yc	SEGMENT PARA USE32 PUBLIC 'CODE'
text$yc	ENDS
CRT$XCA	SEGMENT DWORD USE32 PUBLIC 'DATA'
CRT$XCA	ENDS
CRT$XCU	SEGMENT DWORD USE32 PUBLIC 'DATA'
CRT$XCU	ENDS
CRT$XCL	SEGMENT DWORD USE32 PUBLIC 'DATA'
CRT$XCL	ENDS
CRT$XCC	SEGMENT DWORD USE32 PUBLIC 'DATA'
CRT$XCC	ENDS
CRT$XCZ	SEGMENT DWORD USE32 PUBLIC 'DATA'
CRT$XCZ	ENDS
xdata$x	SEGMENT DWORD USE32 PUBLIC 'CONST'
xdata$x	ENDS
;	COMDAT ??_GMMLfile@@QAEPAXI@Z
_TEXT	SEGMENT PARA USE32 PUBLIC 'CODE'
_TEXT	ENDS
;	COMDAT ??_GOPSW@@QAEPAXI@Z
_TEXT	SEGMENT PARA USE32 PUBLIC 'CODE'
_TEXT	ENDS
;	COMDAT ??6?$basic_ostream@GU?$char_traits@G@std@@@std@@QAEAAV01@P6AAAV01@AAV01@@Z@Z
_TEXT	SEGMENT PARA USE32 PUBLIC 'CODE'
_TEXT	ENDS
;	COMDAT ??6?$basic_ostream@GU?$char_traits@G@std@@@std@@QAEAAV01@H@Z
_TEXT	SEGMENT PARA USE32 PUBLIC 'CODE'
_TEXT	ENDS
;	COMDAT ??6?$basic_ostream@DU?$char_traits@D@std@@@std@@QAEAAV01@P6AAAV01@AAV01@@Z@Z
_TEXT	SEGMENT PARA USE32 PUBLIC 'CODE'
_TEXT	ENDS
;	COMDAT ??6?$basic_ostream@DU?$char_traits@D@std@@@std@@QAEAAV01@I@Z
_TEXT	SEGMENT PARA USE32 PUBLIC 'CODE'
_TEXT	ENDS
;	COMDAT ?fill@?$basic_ios@DU?$char_traits@D@std@@@std@@QBEDXZ
_TEXT	SEGMENT PARA USE32 PUBLIC 'CODE'
_TEXT	ENDS
;	COMDAT ??1?$num_put@GV?$ostreambuf_iterator@GU?$char_traits@G@std@@@std@@@std@@MAE@XZ
_TEXT	SEGMENT PARA USE32 PUBLIC 'CODE'
_TEXT	ENDS
;	COMDAT ?put@?$num_put@GV?$ostreambuf_iterator@GU?$char_traits@G@std@@@std@@@std@@QBE?AV?$ostreambuf_iterator@GU?$char_traits@G@std@@@2@V32@AAVios_base@2@GJ@Z
_TEXT	SEGMENT PARA USE32 PUBLIC 'CODE'
_TEXT	ENDS
;	COMDAT ?do_put@?$num_put@GV?$ostreambuf_iterator@GU?$char_traits@G@std@@@std@@@std@@MBE?AV?$ostreambuf_iterator@GU?$char_traits@G@std@@@2@V32@AAVios_base@2@G_N@Z
_TEXT	SEGMENT PARA USE32 PUBLIC 'CODE'
_TEXT	ENDS
;	COMDAT ?do_put@?$num_put@GV?$ostreambuf_iterator@GU?$char_traits@G@std@@@std@@@std@@MBE?AV?$ostreambuf_iterator@GU?$char_traits@G@std@@@2@V32@AAVios_base@2@GJ@Z
_TEXT	SEGMENT PARA USE32 PUBLIC 'CODE'
_TEXT	ENDS
;	COMDAT ?do_put@?$num_put@GV?$ostreambuf_iterator@GU?$char_traits@G@std@@@std@@@std@@MBE?AV?$ostreambuf_iterator@GU?$char_traits@G@std@@@2@V32@AAVios_base@2@GK@Z
_TEXT	SEGMENT PARA USE32 PUBLIC 'CODE'
_TEXT	ENDS
;	COMDAT ?do_put@?$num_put@GV?$ostreambuf_iterator@GU?$char_traits@G@std@@@std@@@std@@MBE?AV?$ostreambuf_iterator@GU?$char_traits@G@std@@@2@V32@AAVios_base@2@G_J@Z
_TEXT	SEGMENT PARA USE32 PUBLIC 'CODE'
_TEXT	ENDS
;	COMDAT ?do_put@?$num_put@GV?$ostreambuf_iterator@GU?$char_traits@G@std@@@std@@@std@@MBE?AV?$ostreambuf_iterator@GU?$char_traits@G@std@@@2@V32@AAVios_base@2@G_K@Z
_TEXT	SEGMENT PARA USE32 PUBLIC 'CODE'
_TEXT	ENDS
;	COMDAT ?do_put@?$num_put@GV?$ostreambuf_iterator@GU?$char_traits@G@std@@@std@@@std@@MBE?AV?$ostreambuf_iterator@GU?$char_traits@G@std@@@2@V32@AAVios_base@2@GN@Z
_TEXT	SEGMENT PARA USE32 PUBLIC 'CODE'
_TEXT	ENDS
;	COMDAT ?do_put@?$num_put@GV?$ostreambuf_iterator@GU?$char_traits@G@std@@@std@@@std@@MBE?AV?$ostreambuf_iterator@GU?$char_traits@G@std@@@2@V32@AAVios_base@2@GO@Z
_TEXT	SEGMENT PARA USE32 PUBLIC 'CODE'
_TEXT	ENDS
;	COMDAT ?do_put@?$num_put@GV?$ostreambuf_iterator@GU?$char_traits@G@std@@@std@@@std@@MBE?AV?$ostreambuf_iterator@GU?$char_traits@G@std@@@2@V32@AAVios_base@2@GPBX@Z
_TEXT	SEGMENT PARA USE32 PUBLIC 'CODE'
_TEXT	ENDS
;	COMDAT ??0?$ostreambuf_iterator@GU?$char_traits@G@std@@@std@@QAE@PAV?$basic_streambuf@GU?$char_traits@G@std@@@1@@Z
_TEXT	SEGMENT PARA USE32 PUBLIC 'CODE'
_TEXT	ENDS
;	COMDAT ?failed@?$ostreambuf_iterator@GU?$char_traits@G@std@@@std@@QBE_NXZ
_TEXT	SEGMENT PARA USE32 PUBLIC 'CODE'
_TEXT	ENDS
;	COMDAT ??1?$num_put@DV?$ostreambuf_iterator@DU?$char_traits@D@std@@@std@@@std@@MAE@XZ
_TEXT	SEGMENT PARA USE32 PUBLIC 'CODE'
_TEXT	ENDS
;	COMDAT ?put@?$num_put@DV?$ostreambuf_iterator@DU?$char_traits@D@std@@@std@@@std@@QBE?AV?$ostreambuf_iterator@DU?$char_traits@D@std@@@2@V32@AAVios_base@2@DK@Z
_TEXT	SEGMENT PARA USE32 PUBLIC 'CODE'
_TEXT	ENDS
;	COMDAT ?do_put@?$num_put@DV?$ostreambuf_iterator@DU?$char_traits@D@std@@@std@@@std@@MBE?AV?$ostreambuf_iterator@DU?$char_traits@D@std@@@2@V32@AAVios_base@2@D_N@Z
_TEXT	SEGMENT PARA USE32 PUBLIC 'CODE'
_TEXT	ENDS
;	COMDAT ?do_put@?$num_put@DV?$ostreambuf_iterator@DU?$char_traits@D@std@@@std@@@std@@MBE?AV?$ostreambuf_iterator@DU?$char_traits@D@std@@@2@V32@AAVios_base@2@DJ@Z
_TEXT	SEGMENT PARA USE32 PUBLIC 'CODE'
_TEXT	ENDS
;	COMDAT ?do_put@?$num_put@DV?$ostreambuf_iterator@DU?$char_traits@D@std@@@std@@@std@@MBE?AV?$ostreambuf_iterator@DU?$char_traits@D@std@@@2@V32@AAVios_base@2@DK@Z
_TEXT	SEGMENT PARA USE32 PUBLIC 'CODE'
_TEXT	ENDS
;	COMDAT ?do_put@?$num_put@DV?$ostreambuf_iterator@DU?$char_traits@D@std@@@std@@@std@@MBE?AV?$ostreambuf_iterator@DU?$char_traits@D@std@@@2@V32@AAVios_base@2@D_J@Z
_TEXT	SEGMENT PARA USE32 PUBLIC 'CODE'
_TEXT	ENDS
;	COMDAT ?do_put@?$num_put@DV?$ostreambuf_iterator@DU?$char_traits@D@std@@@std@@@std@@MBE?AV?$ostreambuf_iterator@DU?$char_traits@D@std@@@2@V32@AAVios_base@2@D_K@Z
_TEXT	SEGMENT PARA USE32 PUBLIC 'CODE'
_TEXT	ENDS
;	COMDAT ?do_put@?$num_put@DV?$ostreambuf_iterator@DU?$char_traits@D@std@@@std@@@std@@MBE?AV?$ostreambuf_iterator@DU?$char_traits@D@std@@@2@V32@AAVios_base@2@DN@Z
_TEXT	SEGMENT PARA USE32 PUBLIC 'CODE'
_TEXT	ENDS
;	COMDAT ?do_put@?$num_put@DV?$ostreambuf_iterator@DU?$char_traits@D@std@@@std@@@std@@MBE?AV?$ostreambuf_iterator@DU?$char_traits@D@std@@@2@V32@AAVios_base@2@DO@Z
_TEXT	SEGMENT PARA USE32 PUBLIC 'CODE'
_TEXT	ENDS
;	COMDAT ?do_put@?$num_put@DV?$ostreambuf_iterator@DU?$char_traits@D@std@@@std@@@std@@MBE?AV?$ostreambuf_iterator@DU?$char_traits@D@std@@@2@V32@AAVios_base@2@DPBX@Z
_TEXT	SEGMENT PARA USE32 PUBLIC 'CODE'
_TEXT	ENDS
;	COMDAT ??0?$ostreambuf_iterator@DU?$char_traits@D@std@@@std@@QAE@PAV?$basic_streambuf@DU?$char_traits@D@std@@@1@@Z
_TEXT	SEGMENT PARA USE32 PUBLIC 'CODE'
_TEXT	ENDS
;	COMDAT ?failed@?$ostreambuf_iterator@DU?$char_traits@D@std@@@std@@QBE_NXZ
_TEXT	SEGMENT PARA USE32 PUBLIC 'CODE'
_TEXT	ENDS
;	COMDAT ??_G?$num_put@GV?$ostreambuf_iterator@GU?$char_traits@G@std@@@std@@@std@@MAEPAXI@Z
_TEXT	SEGMENT PARA USE32 PUBLIC 'CODE'
_TEXT	ENDS
;	COMDAT ??_G?$num_put@DV?$ostreambuf_iterator@DU?$char_traits@D@std@@@std@@@std@@MAEPAXI@Z
_TEXT	SEGMENT PARA USE32 PUBLIC 'CODE'
_TEXT	ENDS
;	COMDAT ?assign@?$basic_string@DU?$char_traits@D@std@@V?$allocator@D@2@@std@@QAEAAV12@ABV12@@Z
_TEXT	SEGMENT PARA USE32 PUBLIC 'CODE'
_TEXT	ENDS
;	COMDAT ?_Ffmt@?$num_put@GV?$ostreambuf_iterator@GU?$char_traits@G@std@@@std@@@std@@ABAPADPADDH@Z
_TEXT	SEGMENT PARA USE32 PUBLIC 'CODE'
_TEXT	ENDS
;	COMDAT ?_Fput@?$num_put@GV?$ostreambuf_iterator@GU?$char_traits@G@std@@@std@@@std@@ABA?AV?$ostreambuf_iterator@GU?$char_traits@G@std@@@2@V32@AAVios_base@2@GPBDIIII@Z
_TEXT	SEGMENT PARA USE32 PUBLIC 'CODE'
_TEXT	ENDS
;	COMDAT ?_Ifmt@?$num_put@GV?$ostreambuf_iterator@GU?$char_traits@G@std@@@std@@@std@@ABAPADPADPBDH@Z
_TEXT	SEGMENT PARA USE32 PUBLIC 'CODE'
_TEXT	ENDS
;	COMDAT ?_Iput@?$num_put@GV?$ostreambuf_iterator@GU?$char_traits@G@std@@@std@@@std@@ABA?AV?$ostreambuf_iterator@GU?$char_traits@G@std@@@2@V32@AAVios_base@2@GPADI@Z
_TEXT	SEGMENT PARA USE32 PUBLIC 'CODE'
_TEXT	ENDS
;	COMDAT ?_Put@?$num_put@GV?$ostreambuf_iterator@GU?$char_traits@G@std@@@std@@@std@@ABA?AV?$ostreambuf_iterator@GU?$char_traits@G@std@@@2@V32@PBGI@Z
_TEXT	SEGMENT PARA USE32 PUBLIC 'CODE'
_TEXT	ENDS
;	COMDAT ?_Rep@?$num_put@GV?$ostreambuf_iterator@GU?$char_traits@G@std@@@std@@@std@@ABA?AV?$ostreambuf_iterator@GU?$char_traits@G@std@@@2@V32@GI@Z
_TEXT	SEGMENT PARA USE32 PUBLIC 'CODE'
_TEXT	ENDS
;	COMDAT ?_Ffmt@?$num_put@DV?$ostreambuf_iterator@DU?$char_traits@D@std@@@std@@@std@@ABAPADPADDH@Z
_TEXT	SEGMENT PARA USE32 PUBLIC 'CODE'
_TEXT	ENDS
;	COMDAT ?_Fput@?$num_put@DV?$ostreambuf_iterator@DU?$char_traits@D@std@@@std@@@std@@ABA?AV?$ostreambuf_iterator@DU?$char_traits@D@std@@@2@V32@AAVios_base@2@DPBDIIII@Z
_TEXT	SEGMENT PARA USE32 PUBLIC 'CODE'
_TEXT	ENDS
;	COMDAT ?_Ifmt@?$num_put@DV?$ostreambuf_iterator@DU?$char_traits@D@std@@@std@@@std@@ABAPADPADPBDH@Z
_TEXT	SEGMENT PARA USE32 PUBLIC 'CODE'
_TEXT	ENDS
;	COMDAT ?_Iput@?$num_put@DV?$ostreambuf_iterator@DU?$char_traits@D@std@@@std@@@std@@ABA?AV?$ostreambuf_iterator@DU?$char_traits@D@std@@@2@V32@AAVios_base@2@DPADI@Z
_TEXT	SEGMENT PARA USE32 PUBLIC 'CODE'
_TEXT	ENDS
;	COMDAT ?_Put@?$num_put@DV?$ostreambuf_iterator@DU?$char_traits@D@std@@@std@@@std@@ABA?AV?$ostreambuf_iterator@DU?$char_traits@D@std@@@2@V32@PBDI@Z
_TEXT	SEGMENT PARA USE32 PUBLIC 'CODE'
_TEXT	ENDS
;	COMDAT ?_Rep@?$num_put@DV?$ostreambuf_iterator@DU?$char_traits@D@std@@@std@@@std@@ABA?AV?$ostreambuf_iterator@DU?$char_traits@D@std@@@2@V32@DI@Z
_TEXT	SEGMENT PARA USE32 PUBLIC 'CODE'
_TEXT	ENDS
;	COMDAT ??0?$basic_string@GU?$char_traits@G@std@@V?$allocator@G@2@@std@@QAE@XZ
_TEXT	SEGMENT PARA USE32 PUBLIC 'CODE'
_TEXT	ENDS
;	COMDAT ??1?$basic_string@GU?$char_traits@G@std@@V?$allocator@G@2@@std@@QAE@XZ
_TEXT	SEGMENT PARA USE32 PUBLIC 'CODE'
_TEXT	ENDS
;	COMDAT ?assign@?$basic_string@GU?$char_traits@G@std@@V?$allocator@G@2@@std@@QAEAAV12@ABV12@@Z
_TEXT	SEGMENT PARA USE32 PUBLIC 'CODE'
_TEXT	ENDS
;	COMDAT ?c_str@?$basic_string@GU?$char_traits@G@std@@V?$allocator@G@2@@std@@QBEPBGXZ
_TEXT	SEGMENT PARA USE32 PUBLIC 'CODE'
_TEXT	ENDS
;	COMDAT ?size@?$basic_string@GU?$char_traits@G@std@@V?$allocator@G@2@@std@@QBEIXZ
_TEXT	SEGMENT PARA USE32 PUBLIC 'CODE'
_TEXT	ENDS
;	COMDAT ?falsename@?$numpunct@G@std@@QBE?AV?$basic_string@GU?$char_traits@G@std@@V?$allocator@G@2@@2@XZ
_TEXT	SEGMENT PARA USE32 PUBLIC 'CODE'
_TEXT	ENDS
;	COMDAT ?truename@?$numpunct@G@std@@QBE?AV?$basic_string@GU?$char_traits@G@std@@V?$allocator@G@2@@2@XZ
_TEXT	SEGMENT PARA USE32 PUBLIC 'CODE'
_TEXT	ENDS
;	COMDAT ??1?$numpunct@G@std@@MAE@XZ
_TEXT	SEGMENT PARA USE32 PUBLIC 'CODE'
_TEXT	ENDS
;	COMDAT ?do_decimal_point@?$numpunct@G@std@@MBEGXZ
_TEXT	SEGMENT PARA USE32 PUBLIC 'CODE'
_TEXT	ENDS
;	COMDAT ?do_thousands_sep@?$numpunct@G@std@@MBEGXZ
_TEXT	SEGMENT PARA USE32 PUBLIC 'CODE'
_TEXT	ENDS
;	COMDAT ?do_grouping@?$numpunct@G@std@@MBE?AV?$basic_string@DU?$char_traits@D@std@@V?$allocator@D@2@@2@XZ
_TEXT	SEGMENT PARA USE32 PUBLIC 'CODE'
_TEXT	ENDS
;	COMDAT ?do_falsename@?$numpunct@G@std@@MBE?AV?$basic_string@GU?$char_traits@G@std@@V?$allocator@G@2@@2@XZ
_TEXT	SEGMENT PARA USE32 PUBLIC 'CODE'
_TEXT	ENDS
;	COMDAT ?do_truename@?$numpunct@G@std@@MBE?AV?$basic_string@GU?$char_traits@G@std@@V?$allocator@G@2@@2@XZ
_TEXT	SEGMENT PARA USE32 PUBLIC 'CODE'
_TEXT	ENDS
;	COMDAT ?falsename@?$numpunct@D@std@@QBE?AV?$basic_string@DU?$char_traits@D@std@@V?$allocator@D@2@@2@XZ
_TEXT	SEGMENT PARA USE32 PUBLIC 'CODE'
_TEXT	ENDS
;	COMDAT ?truename@?$numpunct@D@std@@QBE?AV?$basic_string@DU?$char_traits@D@std@@V?$allocator@D@2@@2@XZ
_TEXT	SEGMENT PARA USE32 PUBLIC 'CODE'
_TEXT	ENDS
;	COMDAT ??1?$numpunct@D@std@@MAE@XZ
_TEXT	SEGMENT PARA USE32 PUBLIC 'CODE'
_TEXT	ENDS
;	COMDAT ?do_decimal_point@?$numpunct@D@std@@MBEDXZ
_TEXT	SEGMENT PARA USE32 PUBLIC 'CODE'
_TEXT	ENDS
;	COMDAT ?do_thousands_sep@?$numpunct@D@std@@MBEDXZ
_TEXT	SEGMENT PARA USE32 PUBLIC 'CODE'
_TEXT	ENDS
;	COMDAT ?do_grouping@?$numpunct@D@std@@MBE?AV?$basic_string@DU?$char_traits@D@std@@V?$allocator@D@2@@2@XZ
_TEXT	SEGMENT PARA USE32 PUBLIC 'CODE'
_TEXT	ENDS
;	COMDAT ?do_falsename@?$numpunct@D@std@@MBE?AV?$basic_string@DU?$char_traits@D@std@@V?$allocator@D@2@@2@XZ
_TEXT	SEGMENT PARA USE32 PUBLIC 'CODE'
_TEXT	ENDS
;	COMDAT ?do_truename@?$numpunct@D@std@@MBE?AV?$basic_string@DU?$char_traits@D@std@@V?$allocator@D@2@@2@XZ
_TEXT	SEGMENT PARA USE32 PUBLIC 'CODE'
_TEXT	ENDS
;	COMDAT ??_G?$numpunct@G@std@@MAEPAXI@Z
_TEXT	SEGMENT PARA USE32 PUBLIC 'CODE'
_TEXT	ENDS
;	COMDAT ??_G?$numpunct@D@std@@MAEPAXI@Z
_TEXT	SEGMENT PARA USE32 PUBLIC 'CODE'
_TEXT	ENDS
;	COMDAT ??0?$basic_string@DU?$char_traits@D@std@@V?$allocator@D@2@@std@@QAE@PBD@Z
_TEXT	SEGMENT PARA USE32 PUBLIC 'CODE'
_TEXT	ENDS
;	COMDAT ?append@?$basic_string@DU?$char_traits@D@std@@V?$allocator@D@2@@std@@QAEAAV12@PBDI@Z
_TEXT	SEGMENT PARA USE32 PUBLIC 'CODE'
_TEXT	ENDS
;	COMDAT ?insert@?$basic_string@DU?$char_traits@D@std@@V?$allocator@D@2@@std@@QAEAAV12@IID@Z
_TEXT	SEGMENT PARA USE32 PUBLIC 'CODE'
_TEXT	ENDS
;	COMDAT ?_Putc@?$num_put@GV?$ostreambuf_iterator@GU?$char_traits@G@std@@@std@@@std@@ABA?AV?$ostreambuf_iterator@GU?$char_traits@G@std@@@2@V32@PBDI@Z
_TEXT	SEGMENT PARA USE32 PUBLIC 'CODE'
_TEXT	ENDS
;	COMDAT ?_Putgrouped@?$num_put@GV?$ostreambuf_iterator@GU?$char_traits@G@std@@@std@@@std@@ABA?AV?$ostreambuf_iterator@GU?$char_traits@G@std@@@2@V32@PBDIG@Z
_TEXT	SEGMENT PARA USE32 PUBLIC 'CODE'
_TEXT	ENDS
;	COMDAT ??4?$ostreambuf_iterator@GU?$char_traits@G@std@@@std@@QAEAAV01@G@Z
_TEXT	SEGMENT PARA USE32 PUBLIC 'CODE'
_TEXT	ENDS
;	COMDAT ??D?$ostreambuf_iterator@GU?$char_traits@G@std@@@std@@QAEAAV01@XZ
_TEXT	SEGMENT PARA USE32 PUBLIC 'CODE'
_TEXT	ENDS
;	COMDAT ??E?$ostreambuf_iterator@GU?$char_traits@G@std@@@std@@QAEAAV01@XZ
_TEXT	SEGMENT PARA USE32 PUBLIC 'CODE'
_TEXT	ENDS
;	COMDAT ?_Putc@?$num_put@DV?$ostreambuf_iterator@DU?$char_traits@D@std@@@std@@@std@@ABA?AV?$ostreambuf_iterator@DU?$char_traits@D@std@@@2@V32@PBDI@Z
_TEXT	SEGMENT PARA USE32 PUBLIC 'CODE'
_TEXT	ENDS
;	COMDAT ?_Putgrouped@?$num_put@DV?$ostreambuf_iterator@DU?$char_traits@D@std@@@std@@@std@@ABA?AV?$ostreambuf_iterator@DU?$char_traits@D@std@@@2@V32@PBDID@Z
_TEXT	SEGMENT PARA USE32 PUBLIC 'CODE'
_TEXT	ENDS
;	COMDAT ??4?$ostreambuf_iterator@DU?$char_traits@D@std@@@std@@QAEAAV01@D@Z
_TEXT	SEGMENT PARA USE32 PUBLIC 'CODE'
_TEXT	ENDS
;	COMDAT ??D?$ostreambuf_iterator@DU?$char_traits@D@std@@@std@@QAEAAV01@XZ
_TEXT	SEGMENT PARA USE32 PUBLIC 'CODE'
_TEXT	ENDS
;	COMDAT ??E?$ostreambuf_iterator@DU?$char_traits@D@std@@@std@@QAEAAV01@XZ
_TEXT	SEGMENT PARA USE32 PUBLIC 'CODE'
_TEXT	ENDS
;	COMDAT ??0?$basic_string@GU?$char_traits@G@std@@V?$allocator@G@2@@std@@QAE@PBG@Z
_TEXT	SEGMENT PARA USE32 PUBLIC 'CODE'
_TEXT	ENDS
;	COMDAT ?assign@?$basic_string@GU?$char_traits@G@std@@V?$allocator@G@2@@std@@QAEAAV12@ABV12@II@Z
_TEXT	SEGMENT PARA USE32 PUBLIC 'CODE'
_TEXT	ENDS
;	COMDAT ?_Tidy@?$basic_string@GU?$char_traits@G@std@@V?$allocator@G@2@@std@@IAEX_NI@Z
_TEXT	SEGMENT PARA USE32 PUBLIC 'CODE'
_TEXT	ENDS
;	COMDAT ?_Myptr@?$basic_string@GU?$char_traits@G@std@@V?$allocator@G@2@@std@@QBEPBGXZ
_TEXT	SEGMENT PARA USE32 PUBLIC 'CODE'
_TEXT	ENDS
;	COMDAT ??0?$_String_val@GV?$allocator@G@std@@@std@@IAE@V?$allocator@G@1@@Z
_TEXT	SEGMENT PARA USE32 PUBLIC 'CODE'
_TEXT	ENDS
;	COMDAT ??0?$allocator@G@std@@QAE@XZ
_TEXT	SEGMENT PARA USE32 PUBLIC 'CODE'
_TEXT	ENDS
;	COMDAT ?decimal_point@?$numpunct@G@std@@QBEGXZ
_TEXT	SEGMENT PARA USE32 PUBLIC 'CODE'
_TEXT	ENDS
;	COMDAT ?thousands_sep@?$numpunct@G@std@@QBEGXZ
_TEXT	SEGMENT PARA USE32 PUBLIC 'CODE'
_TEXT	ENDS
;	COMDAT ?grouping@?$numpunct@G@std@@QBE?AV?$basic_string@DU?$char_traits@D@std@@V?$allocator@D@2@@2@XZ
_TEXT	SEGMENT PARA USE32 PUBLIC 'CODE'
_TEXT	ENDS
;	COMDAT ?_Tidy@?$numpunct@G@std@@AAEXXZ
_TEXT	SEGMENT PARA USE32 PUBLIC 'CODE'
_TEXT	ENDS
;	COMDAT ?decimal_point@?$numpunct@D@std@@QBEDXZ
_TEXT	SEGMENT PARA USE32 PUBLIC 'CODE'
_TEXT	ENDS
;	COMDAT ?thousands_sep@?$numpunct@D@std@@QBEDXZ
_TEXT	SEGMENT PARA USE32 PUBLIC 'CODE'
_TEXT	ENDS
;	COMDAT ?grouping@?$numpunct@D@std@@QBE?AV?$basic_string@DU?$char_traits@D@std@@V?$allocator@D@2@@2@XZ
_TEXT	SEGMENT PARA USE32 PUBLIC 'CODE'
_TEXT	ENDS
;	COMDAT ?_Tidy@?$numpunct@D@std@@AAEXXZ
_TEXT	SEGMENT PARA USE32 PUBLIC 'CODE'
_TEXT	ENDS
;	COMDAT ?append@?$basic_string@DU?$char_traits@D@std@@V?$allocator@D@2@@std@@QAEAAV12@ABV12@II@Z
_TEXT	SEGMENT PARA USE32 PUBLIC 'CODE'
_TEXT	ENDS
;	COMDAT ?assign@?$basic_string@GU?$char_traits@G@std@@V?$allocator@G@2@@std@@QAEAAV12@PBG@Z
_TEXT	SEGMENT PARA USE32 PUBLIC 'CODE'
_TEXT	ENDS
;	COMDAT ?erase@?$basic_string@GU?$char_traits@G@std@@V?$allocator@G@2@@std@@QAEAAV12@II@Z
_TEXT	SEGMENT PARA USE32 PUBLIC 'CODE'
_TEXT	ENDS
;	COMDAT ?_Eos@?$basic_string@GU?$char_traits@G@std@@V?$allocator@G@2@@std@@IAEXI@Z
_TEXT	SEGMENT PARA USE32 PUBLIC 'CODE'
_TEXT	ENDS
;	COMDAT ?_Grow@?$basic_string@GU?$char_traits@G@std@@V?$allocator@G@2@@std@@IAE_NI_N@Z
_TEXT	SEGMENT PARA USE32 PUBLIC 'CODE'
_TEXT	ENDS
;	COMDAT ?_Myptr@?$basic_string@GU?$char_traits@G@std@@V?$allocator@G@2@@std@@QAEPAGXZ
_TEXT	SEGMENT PARA USE32 PUBLIC 'CODE'
_TEXT	ENDS
;	COMDAT ??0?$allocator@G@std@@QAE@ABV01@@Z
_TEXT	SEGMENT PARA USE32 PUBLIC 'CODE'
_TEXT	ENDS
;	COMDAT ?deallocate@?$allocator@G@std@@QAEXPAGI@Z
_TEXT	SEGMENT PARA USE32 PUBLIC 'CODE'
_TEXT	ENDS
;	COMDAT ?assign@?$basic_string@GU?$char_traits@G@std@@V?$allocator@G@2@@std@@QAEAAV12@PBGI@Z
_TEXT	SEGMENT PARA USE32 PUBLIC 'CODE'
_TEXT	ENDS
;	COMDAT ?max_size@?$basic_string@GU?$char_traits@G@std@@V?$allocator@G@2@@std@@QBEIXZ
_TEXT	SEGMENT PARA USE32 PUBLIC 'CODE'
_TEXT	ENDS
;	COMDAT ?_Copy@?$basic_string@GU?$char_traits@G@std@@V?$allocator@G@2@@std@@IAEXII@Z
_TEXT	SEGMENT PARA USE32 PUBLIC 'CODE'
_TEXT	ENDS
;	COMDAT ?_Inside@?$basic_string@GU?$char_traits@G@std@@V?$allocator@G@2@@std@@IAE_NPBG@Z
_TEXT	SEGMENT PARA USE32 PUBLIC 'CODE'
_TEXT	ENDS
;	COMDAT ?allocate@?$allocator@G@std@@QAEPAGI@Z
_TEXT	SEGMENT PARA USE32 PUBLIC 'CODE'
_TEXT	ENDS
;	COMDAT ?max_size@?$allocator@G@std@@QBEIXZ
_TEXT	SEGMENT PARA USE32 PUBLIC 'CODE'
_TEXT	ENDS
;	COMDAT _$E1
text$yc	SEGMENT PARA USE32 PUBLIC 'CODE'
text$yc	ENDS
;	COMDAT ??$?6GU?$char_traits@G@std@@@std@@YAAAV?$basic_ostream@GU?$char_traits@G@std@@@0@AAV10@PBG@Z
_TEXT	SEGMENT PARA USE32 PUBLIC 'CODE'
_TEXT	ENDS
;	COMDAT ??$?6U?$char_traits@D@std@@@std@@YAAAV?$basic_ostream@DU?$char_traits@D@std@@@0@AAV10@PBD@Z
_TEXT	SEGMENT PARA USE32 PUBLIC 'CODE'
_TEXT	ENDS
;	COMDAT ??$setfill@D@std@@YA?AU?$_Fillobj@D@0@D@Z
_TEXT	SEGMENT PARA USE32 PUBLIC 'CODE'
_TEXT	ENDS
;	COMDAT ??$?6DU?$char_traits@D@std@@@std@@YAAAV?$basic_ostream@DU?$char_traits@D@std@@@0@AAV10@ABU?$_Fillobj@D@0@@Z
_TEXT	SEGMENT PARA USE32 PUBLIC 'CODE'
_TEXT	ENDS
;	COMDAT ??$?6DU?$char_traits@D@std@@H@std@@YAAAV?$basic_ostream@DU?$char_traits@D@std@@@0@AAV10@ABU?$_Smanip@H@0@@Z
_TEXT	SEGMENT PARA USE32 PUBLIC 'CODE'
_TEXT	ENDS
;	COMDAT ??$use_facet@V?$num_put@GV?$ostreambuf_iterator@GU?$char_traits@G@std@@@std@@@std@@@std@@YAABV?$num_put@GV?$ostreambuf_iterator@GU?$char_traits@G@std@@@std@@@0@ABVlocale@0@@Z
_TEXT	SEGMENT PARA USE32 PUBLIC 'CODE'
_TEXT	ENDS
;	COMDAT ??$use_facet@V?$num_put@DV?$ostreambuf_iterator@DU?$char_traits@D@std@@@std@@@std@@@std@@YAABV?$num_put@DV?$ostreambuf_iterator@DU?$char_traits@D@std@@@std@@@0@ABVlocale@0@@Z
_TEXT	SEGMENT PARA USE32 PUBLIC 'CODE'
_TEXT	ENDS
;	COMDAT ??$use_facet@V?$numpunct@G@std@@@std@@YAABV?$numpunct@G@0@ABVlocale@0@@Z
_TEXT	SEGMENT PARA USE32 PUBLIC 'CODE'
_TEXT	ENDS
;	COMDAT ??$use_facet@V?$numpunct@D@std@@@std@@YAABV?$numpunct@D@0@ABVlocale@0@@Z
_TEXT	SEGMENT PARA USE32 PUBLIC 'CODE'
_TEXT	ENDS
;	COMDAT ??$_Maklocchr@D@std@@YADDPADABU_Cvtvec@@@Z
_TEXT	SEGMENT PARA USE32 PUBLIC 'CODE'
_TEXT	ENDS
;	COMDAT ??$_Allocate@G@std@@YAPAGIPAG@Z
_TEXT	SEGMENT PARA USE32 PUBLIC 'CODE'
_TEXT	ENDS
;	COMDAT ?sputn@?$basic_streambuf@GU?$char_traits@G@std@@@std@@QAEHPBGH@Z
_TEXT	SEGMENT PARA USE32 PUBLIC 'CODE'
_TEXT	ENDS
;	COMDAT ?fill@?$basic_ios@DU?$char_traits@D@std@@@std@@QAEDD@Z
_TEXT	SEGMENT PARA USE32 PUBLIC 'CODE'
_TEXT	ENDS
;	COMDAT ?sputn@?$basic_streambuf@DU?$char_traits@D@std@@@std@@QAEHPBDH@Z
_TEXT	SEGMENT PARA USE32 PUBLIC 'CODE'
_TEXT	ENDS
;	COMDAT ??0?$_Fillobj@D@std@@QAE@D@Z
_TEXT	SEGMENT PARA USE32 PUBLIC 'CODE'
_TEXT	ENDS
;	COMDAT ?_Getcat@?$num_put@GV?$ostreambuf_iterator@GU?$char_traits@G@std@@@std@@@std@@SAIPAPBVfacet@locale@2@@Z
_TEXT	SEGMENT PARA USE32 PUBLIC 'CODE'
_TEXT	ENDS
;	COMDAT ?_Getcat@?$num_put@DV?$ostreambuf_iterator@DU?$char_traits@D@std@@@std@@@std@@SAIPAPBVfacet@locale@2@@Z
_TEXT	SEGMENT PARA USE32 PUBLIC 'CODE'
_TEXT	ENDS
;	COMDAT ?_Getcat@?$numpunct@G@std@@SAIPAPBVfacet@locale@2@@Z
_TEXT	SEGMENT PARA USE32 PUBLIC 'CODE'
_TEXT	ENDS
;	COMDAT ?_Getcat@?$numpunct@D@std@@SAIPAPBVfacet@locale@2@@Z
_TEXT	SEGMENT PARA USE32 PUBLIC 'CODE'
_TEXT	ENDS
;	COMDAT ??0?$num_put@GV?$ostreambuf_iterator@GU?$char_traits@G@std@@@std@@@std@@QAE@I@Z
_TEXT	SEGMENT PARA USE32 PUBLIC 'CODE'
_TEXT	ENDS
;	COMDAT ??0?$num_put@DV?$ostreambuf_iterator@DU?$char_traits@D@std@@@std@@@std@@QAE@I@Z
_TEXT	SEGMENT PARA USE32 PUBLIC 'CODE'
_TEXT	ENDS
;	COMDAT ??0?$numpunct@G@std@@QAE@I@Z
_TEXT	SEGMENT PARA USE32 PUBLIC 'CODE'
_TEXT	ENDS
;	COMDAT ??0?$numpunct@D@std@@QAE@I@Z
_TEXT	SEGMENT PARA USE32 PUBLIC 'CODE'
_TEXT	ENDS
;	COMDAT ?_Init@?$num_put@GV?$ostreambuf_iterator@GU?$char_traits@G@std@@@std@@@std@@IAEXABV_Locinfo@2@@Z
_TEXT	SEGMENT PARA USE32 PUBLIC 'CODE'
_TEXT	ENDS
;	COMDAT ?_Init@?$num_put@DV?$ostreambuf_iterator@DU?$char_traits@D@std@@@std@@@std@@IAEXABV_Locinfo@2@@Z
_TEXT	SEGMENT PARA USE32 PUBLIC 'CODE'
_TEXT	ENDS
;	COMDAT ?_Init@?$numpunct@G@std@@IAEXABV_Locinfo@2@@Z
_TEXT	SEGMENT PARA USE32 PUBLIC 'CODE'
_TEXT	ENDS
;	COMDAT ?_Init@?$numpunct@D@std@@IAEXABV_Locinfo@2@@Z
_TEXT	SEGMENT PARA USE32 PUBLIC 'CODE'
_TEXT	ENDS
;	COMDAT _$E3
text$yc	SEGMENT PARA USE32 PUBLIC 'CODE'
text$yc	ENDS
;	COMDAT _$E5
text$yc	SEGMENT PARA USE32 PUBLIC 'CODE'
text$yc	ENDS
;	COMDAT _$E7
text$yc	SEGMENT PARA USE32 PUBLIC 'CODE'
text$yc	ENDS
;	COMDAT _$E9
text$yc	SEGMENT PARA USE32 PUBLIC 'CODE'
text$yc	ENDS
;	COMDAT ??$_Maklocstr@D@std@@YAPADPBDPADABU_Cvtvec@@@Z
_TEXT	SEGMENT PARA USE32 PUBLIC 'CODE'
_TEXT	ENDS
;	COMDAT ?id@?$numpunct@D@std@@2V0locale@2@A
_BSS	SEGMENT DWORD USE32 PUBLIC 'BSS'
_BSS	ENDS
;	COMDAT CRT$XCU
CRT$XCU	SEGMENT DWORD USE32 PUBLIC 'DATA'
CRT$XCU	ENDS
;	COMDAT ?id@?$numpunct@G@std@@2V0locale@2@A
_BSS	SEGMENT DWORD USE32 PUBLIC 'BSS'
_BSS	ENDS
;	COMDAT CRT$XCU
CRT$XCU	SEGMENT DWORD USE32 PUBLIC 'DATA'
CRT$XCU	ENDS
;	COMDAT ?id@?$num_put@DV?$ostreambuf_iterator@DU?$char_traits@D@std@@@std@@@std@@2V0locale@2@A
_BSS	SEGMENT DWORD USE32 PUBLIC 'BSS'
_BSS	ENDS
;	COMDAT CRT$XCU
CRT$XCU	SEGMENT DWORD USE32 PUBLIC 'DATA'
CRT$XCU	ENDS
;	COMDAT ?id@?$num_put@GV?$ostreambuf_iterator@GU?$char_traits@G@std@@@std@@@std@@2V0locale@2@A
_BSS	SEGMENT DWORD USE32 PUBLIC 'BSS'
_BSS	ENDS
;	COMDAT CRT$XCU
CRT$XCU	SEGMENT DWORD USE32 PUBLIC 'DATA'
CRT$XCU	ENDS
;	COMDAT ?_Gettrue@_Locinfo@std@@QBEPBDXZ
_TEXT	SEGMENT PARA USE32 PUBLIC 'CODE'
_TEXT	ENDS
;	COMDAT ??_C@_04LOAJBDKD@true?$AA@
CONST	SEGMENT DWORD USE32 PUBLIC 'CONST'
CONST	ENDS
;	COMDAT ?_Getfalse@_Locinfo@std@@QBEPBDXZ
_TEXT	SEGMENT PARA USE32 PUBLIC 'CODE'
_TEXT	ENDS
;	COMDAT ??_C@_05LAPONLG@false?$AA@
CONST	SEGMENT DWORD USE32 PUBLIC 'CONST'
CONST	ENDS
;	COMDAT ??$_Maklocstr@G@std@@YAPAGPBDPAGABU_Cvtvec@@@Z
_TEXT	SEGMENT PARA USE32 PUBLIC 'CODE'
_TEXT	ENDS
;	COMDAT ?_Getlconv@_Locinfo@std@@QBEPBUlconv@@XZ
_TEXT	SEGMENT PARA USE32 PUBLIC 'CODE'
_TEXT	ENDS
;	COMDAT ?_Getcvt@_Locinfo@std@@QBE?AU_Cvtvec@@XZ
_TEXT	SEGMENT PARA USE32 PUBLIC 'CODE'
_TEXT	ENDS
;	COMDAT ??0facet@locale@std@@IAE@I@Z
_TEXT	SEGMENT PARA USE32 PUBLIC 'CODE'
_TEXT	ENDS
;	COMDAT ??_7facet@locale@std@@6B@
CONST	SEGMENT DWORD USE32 PUBLIC 'CONST'
CONST	ENDS
;	COMDAT ??_Gfacet@locale@std@@UAEPAXI@Z
_TEXT	SEGMENT PARA USE32 PUBLIC 'CODE'
_TEXT	ENDS
;	COMDAT ?_Psave@?$_Facetptr@V?$numpunct@D@std@@@std@@2PBVfacet@locale@2@B
_DATA	SEGMENT DWORD USE32 PUBLIC 'DATA'
_DATA	ENDS
;	COMDAT ?_Psave@?$_Facetptr@V?$numpunct@G@std@@@std@@2PBVfacet@locale@2@B
_DATA	SEGMENT DWORD USE32 PUBLIC 'DATA'
_DATA	ENDS
;	COMDAT ?_Psave@?$_Facetptr@V?$num_put@DV?$ostreambuf_iterator@DU?$char_traits@D@std@@@std@@@std@@@std@@2PBVfacet@locale@2@B
_DATA	SEGMENT DWORD USE32 PUBLIC 'DATA'
_DATA	ENDS
;	COMDAT ?_Incref@facet@locale@std@@QAEXXZ
_TEXT	SEGMENT PARA USE32 PUBLIC 'CODE'
_TEXT	ENDS
;	COMDAT __TI2?AVbad_cast@@
xdata$x	SEGMENT DWORD USE32 PUBLIC 'CONST'
xdata$x	ENDS
;	COMDAT __CTA2?AVbad_cast@@
xdata$x	SEGMENT DWORD USE32 PUBLIC 'CONST'
xdata$x	ENDS
;	COMDAT __CT??_R0?AVbad_cast@@@8??0bad_cast@@QAE@ABV0@@Z12
xdata$x	SEGMENT DWORD USE32 PUBLIC 'CONST'
xdata$x	ENDS
;	COMDAT ??_R0?AVbad_cast@@@8
_DATA	SEGMENT DWORD USE32 PUBLIC 'DATA'
_DATA	ENDS
;	COMDAT __CT??_R0?AVexception@@@8??0exception@@QAE@ABV0@@Z12
xdata$x	SEGMENT DWORD USE32 PUBLIC 'CONST'
xdata$x	ENDS
;	COMDAT ??_R0?AVexception@@@8
_DATA	SEGMENT DWORD USE32 PUBLIC 'DATA'
_DATA	ENDS
;	COMDAT ??_C@_08EPJLHIJG@bad?5cast?$AA@
CONST	SEGMENT DWORD USE32 PUBLIC 'CONST'
CONST	ENDS
;	COMDAT ??Bid@locale@std@@QAEIXZ
_TEXT	SEGMENT PARA USE32 PUBLIC 'CODE'
_TEXT	ENDS
;	COMDAT ?_Psave@?$_Facetptr@V?$num_put@GV?$ostreambuf_iterator@GU?$char_traits@G@std@@@std@@@std@@@std@@2PBVfacet@locale@2@B
_DATA	SEGMENT DWORD USE32 PUBLIC 'DATA'
_DATA	ENDS
;	COMDAT ?length@?$char_traits@D@std@@SAIPBD@Z
_TEXT	SEGMENT PARA USE32 PUBLIC 'CODE'
_TEXT	ENDS
;	COMDAT ?id@?$codecvt@DDH@std@@2V0locale@2@A
_BSS	SEGMENT DWORD USE32 PUBLIC 'BSS'
_BSS	ENDS
;	COMDAT CRT$XCU
CRT$XCU	SEGMENT DWORD USE32 PUBLIC 'DATA'
CRT$XCU	ENDS
;	COMDAT ??0id@locale@std@@QAE@I@Z
_TEXT	SEGMENT PARA USE32 PUBLIC 'CODE'
_TEXT	ENDS
;	COMDAT ?assign@?$char_traits@G@std@@SAXAAGABG@Z
_TEXT	SEGMENT PARA USE32 PUBLIC 'CODE'
_TEXT	ENDS
;	COMDAT ?move@?$char_traits@G@std@@SAPAGPAGPBGI@Z
_TEXT	SEGMENT PARA USE32 PUBLIC 'CODE'
_TEXT	ENDS
;	COMDAT _wmemmove
_TEXT	SEGMENT PARA USE32 PUBLIC 'CODE'
_TEXT	ENDS
;	COMDAT ?length@?$char_traits@G@std@@SAIPBG@Z
_TEXT	SEGMENT PARA USE32 PUBLIC 'CODE'
_TEXT	ENDS
;	COMDAT ?_Myptr@?$basic_string@DU?$char_traits@D@std@@V?$allocator@D@2@@std@@QBEPBDXZ
_TEXT	SEGMENT PARA USE32 PUBLIC 'CODE'
_TEXT	ENDS
;	COMDAT ?copy@?$char_traits@G@std@@SAPAGPAGPBGI@Z
_TEXT	SEGMENT PARA USE32 PUBLIC 'CODE'
_TEXT	ENDS
;	COMDAT _wmemcpy
_TEXT	SEGMENT PARA USE32 PUBLIC 'CODE'
_TEXT	ENDS
;	COMDAT ?eof@?$char_traits@D@std@@SAHXZ
_TEXT	SEGMENT PARA USE32 PUBLIC 'CODE'
_TEXT	ENDS
;	COMDAT ?sputc@?$basic_streambuf@DU?$char_traits@D@std@@@std@@QAEHD@Z
_TEXT	SEGMENT PARA USE32 PUBLIC 'CODE'
_TEXT	ENDS
;	COMDAT ?pptr@?$basic_streambuf@DU?$char_traits@D@std@@@std@@IBEPADXZ
_TEXT	SEGMENT PARA USE32 PUBLIC 'CODE'
_TEXT	ENDS
;	COMDAT ?epptr@?$basic_streambuf@DU?$char_traits@D@std@@@std@@IBEPADXZ
_TEXT	SEGMENT PARA USE32 PUBLIC 'CODE'
_TEXT	ENDS
;	COMDAT ?_Pninc@?$basic_streambuf@DU?$char_traits@D@std@@@std@@IAEPADXZ
_TEXT	SEGMENT PARA USE32 PUBLIC 'CODE'
_TEXT	ENDS
;	COMDAT ?to_int_type@?$char_traits@D@std@@SAHABD@Z
_TEXT	SEGMENT PARA USE32 PUBLIC 'CODE'
_TEXT	ENDS
;	COMDAT ?eq_int_type@?$char_traits@D@std@@SA_NABH0@Z
_TEXT	SEGMENT PARA USE32 PUBLIC 'CODE'
_TEXT	ENDS
;	COMDAT ?eof@?$char_traits@G@std@@SAGXZ
_TEXT	SEGMENT PARA USE32 PUBLIC 'CODE'
_TEXT	ENDS
;	COMDAT ?sputc@?$basic_streambuf@GU?$char_traits@G@std@@@std@@QAEGG@Z
_TEXT	SEGMENT PARA USE32 PUBLIC 'CODE'
_TEXT	ENDS
;	COMDAT ?pptr@?$basic_streambuf@GU?$char_traits@G@std@@@std@@IBEPAGXZ
_TEXT	SEGMENT PARA USE32 PUBLIC 'CODE'
_TEXT	ENDS
;	COMDAT ?epptr@?$basic_streambuf@GU?$char_traits@G@std@@@std@@IBEPAGXZ
_TEXT	SEGMENT PARA USE32 PUBLIC 'CODE'
_TEXT	ENDS
;	COMDAT ?_Pninc@?$basic_streambuf@GU?$char_traits@G@std@@@std@@IAEPAGXZ
_TEXT	SEGMENT PARA USE32 PUBLIC 'CODE'
_TEXT	ENDS
;	COMDAT ?to_int_type@?$char_traits@G@std@@SAGABG@Z
_TEXT	SEGMENT PARA USE32 PUBLIC 'CODE'
_TEXT	ENDS
;	COMDAT ?eq_int_type@?$char_traits@G@std@@SA_NABG0@Z
_TEXT	SEGMENT PARA USE32 PUBLIC 'CODE'
_TEXT	ENDS
;	COMDAT ?assign@?$char_traits@D@std@@SAPADPADID@Z
_TEXT	SEGMENT PARA USE32 PUBLIC 'CODE'
_TEXT	ENDS
;	COMDAT ?move@?$char_traits@D@std@@SAPADPADPBDI@Z
_TEXT	SEGMENT PARA USE32 PUBLIC 'CODE'
_TEXT	ENDS
;	COMDAT ?_Eos@?$basic_string@DU?$char_traits@D@std@@V?$allocator@D@2@@std@@IAEXI@Z
_TEXT	SEGMENT PARA USE32 PUBLIC 'CODE'
_TEXT	ENDS
;	COMDAT ?assign@?$char_traits@D@std@@SAXAADABD@Z
_TEXT	SEGMENT PARA USE32 PUBLIC 'CODE'
_TEXT	ENDS
;	COMDAT ?copy@?$char_traits@D@std@@SAPADPADPBDI@Z
_TEXT	SEGMENT PARA USE32 PUBLIC 'CODE'
_TEXT	ENDS
;	COMDAT ?_Grow@?$basic_string@DU?$char_traits@D@std@@V?$allocator@D@2@@std@@IAE_NI_N@Z
_TEXT	SEGMENT PARA USE32 PUBLIC 'CODE'
_TEXT	ENDS
;	COMDAT ?max_size@?$basic_string@DU?$char_traits@D@std@@V?$allocator@D@2@@std@@QBEIXZ
_TEXT	SEGMENT PARA USE32 PUBLIC 'CODE'
_TEXT	ENDS
;	COMDAT ?max_size@?$allocator@D@std@@QBEIXZ
_TEXT	SEGMENT PARA USE32 PUBLIC 'CODE'
_TEXT	ENDS
;	COMDAT ?_Copy@?$basic_string@DU?$char_traits@D@std@@V?$allocator@D@2@@std@@IAEXII@Z
_TEXT	SEGMENT PARA USE32 PUBLIC 'CODE'
_TEXT	ENDS
;	COMDAT ?allocate@?$allocator@D@std@@QAEPADI@Z
_TEXT	SEGMENT PARA USE32 PUBLIC 'CODE'
_TEXT	ENDS
;	COMDAT ??$_Allocate@D@std@@YAPADIPAD@Z
_TEXT	SEGMENT PARA USE32 PUBLIC 'CODE'
_TEXT	ENDS
;	COMDAT ?_Myptr@?$basic_string@DU?$char_traits@D@std@@V?$allocator@D@2@@std@@QAEPADXZ
_TEXT	SEGMENT PARA USE32 PUBLIC 'CODE'
_TEXT	ENDS
;	COMDAT ?_Inside@?$basic_string@DU?$char_traits@D@std@@V?$allocator@D@2@@std@@IAE_NPBD@Z
_TEXT	SEGMENT PARA USE32 PUBLIC 'CODE'
_TEXT	ENDS
;	COMDAT ?assign@?$basic_string@DU?$char_traits@D@std@@V?$allocator@D@2@@std@@QAEAAV12@PBD@Z
_TEXT	SEGMENT PARA USE32 PUBLIC 'CODE'
_TEXT	ENDS
;	COMDAT ?assign@?$basic_string@DU?$char_traits@D@std@@V?$allocator@D@2@@std@@QAEAAV12@PBDI@Z
_TEXT	SEGMENT PARA USE32 PUBLIC 'CODE'
_TEXT	ENDS
;	COMDAT ?_Tidy@?$basic_string@DU?$char_traits@D@std@@V?$allocator@D@2@@std@@IAEX_NI@Z
_TEXT	SEGMENT PARA USE32 PUBLIC 'CODE'
_TEXT	ENDS
;	COMDAT ?deallocate@?$allocator@D@std@@QAEXPADI@Z
_TEXT	SEGMENT PARA USE32 PUBLIC 'CODE'
_TEXT	ENDS
;	COMDAT ??0?$allocator@D@std@@QAE@XZ
_TEXT	SEGMENT PARA USE32 PUBLIC 'CODE'
_TEXT	ENDS
;	COMDAT ??0?$_String_val@DV?$allocator@D@std@@@std@@IAE@V?$allocator@D@1@@Z
_TEXT	SEGMENT PARA USE32 PUBLIC 'CODE'
_TEXT	ENDS
;	COMDAT ??0?$allocator@D@std@@QAE@ABV01@@Z
_TEXT	SEGMENT PARA USE32 PUBLIC 'CODE'
_TEXT	ENDS
;	COMDAT ??_7?$numpunct@D@std@@6B@
CONST	SEGMENT DWORD USE32 PUBLIC 'CONST'
CONST	ENDS
;	COMDAT ??_7?$numpunct@G@std@@6B@
CONST	SEGMENT DWORD USE32 PUBLIC 'CONST'
CONST	ENDS
;	COMDAT ?npos@?$basic_string@GU?$char_traits@G@std@@V?$allocator@G@2@@std@@2IB
CONST	SEGMENT DWORD USE32 PUBLIC 'CONST'
CONST	ENDS
;	COMDAT ??A?$basic_string@DU?$char_traits@D@std@@V?$allocator@D@2@@std@@QAEAADI@Z
_TEXT	SEGMENT PARA USE32 PUBLIC 'CODE'
_TEXT	ENDS
;	COMDAT ?append@?$basic_string@DU?$char_traits@D@std@@V?$allocator@D@2@@std@@QAEAAV12@ID@Z
_TEXT	SEGMENT PARA USE32 PUBLIC 'CODE'
_TEXT	ENDS
;	COMDAT ?npos@?$basic_string@DU?$char_traits@D@std@@V?$allocator@D@2@@std@@2IB
CONST	SEGMENT DWORD USE32 PUBLIC 'CONST'
CONST	ENDS
;	COMDAT ??$_Maklocchr@G@std@@YAGDPAGABU_Cvtvec@@@Z
_TEXT	SEGMENT PARA USE32 PUBLIC 'CODE'
_TEXT	ENDS
;	COMDAT ?assign@?$basic_string@DU?$char_traits@D@std@@V?$allocator@D@2@@std@@QAEAAV12@ABV12@II@Z
_TEXT	SEGMENT PARA USE32 PUBLIC 'CODE'
_TEXT	ENDS
;	COMDAT ?erase@?$basic_string@DU?$char_traits@D@std@@V?$allocator@D@2@@std@@QAEAAV12@II@Z
_TEXT	SEGMENT PARA USE32 PUBLIC 'CODE'
_TEXT	ENDS
;	COMDAT ?size@?$basic_string@DU?$char_traits@D@std@@V?$allocator@D@2@@std@@QBEIXZ
_TEXT	SEGMENT PARA USE32 PUBLIC 'CODE'
_TEXT	ENDS
;	COMDAT ??0?$basic_string@DU?$char_traits@D@std@@V?$allocator@D@2@@std@@QAE@XZ
_TEXT	SEGMENT PARA USE32 PUBLIC 'CODE'
_TEXT	ENDS
;	COMDAT ??_7?$num_put@DV?$ostreambuf_iterator@DU?$char_traits@D@std@@@std@@@std@@6B@
CONST	SEGMENT DWORD USE32 PUBLIC 'CONST'
CONST	ENDS
;	COMDAT ?precision@ios_base@std@@QBEHXZ
_TEXT	SEGMENT PARA USE32 PUBLIC 'CODE'
_TEXT	ENDS
;	COMDAT ?width@ios_base@std@@QAEHH@Z
_TEXT	SEGMENT PARA USE32 PUBLIC 'CODE'
_TEXT	ENDS
;	COMDAT ?width@ios_base@std@@QBEHXZ
_TEXT	SEGMENT PARA USE32 PUBLIC 'CODE'
_TEXT	ENDS
;	COMDAT ??1facet@locale@std@@UAE@XZ
_TEXT	SEGMENT PARA USE32 PUBLIC 'CODE'
_TEXT	ENDS
;	COMDAT ??_7?$num_put@GV?$ostreambuf_iterator@GU?$char_traits@G@std@@@std@@@std@@6B@
CONST	SEGMENT DWORD USE32 PUBLIC 'CONST'
CONST	ENDS
;	COMDAT ??_C@_01GFHCPBMG@C?$AA@
CONST	SEGMENT DWORD USE32 PUBLIC 'CONST'
CONST	ENDS
;	COMDAT ?setstate@?$basic_ios@DU?$char_traits@D@std@@@std@@QAEXH_N@Z
_TEXT	SEGMENT PARA USE32 PUBLIC 'CODE'
_TEXT	ENDS
;	COMDAT ?clear@?$basic_ios@DU?$char_traits@D@std@@@std@@QAEXH_N@Z
_TEXT	SEGMENT PARA USE32 PUBLIC 'CODE'
_TEXT	ENDS
;	COMDAT ?rdstate@ios_base@std@@QBEHXZ
_TEXT	SEGMENT PARA USE32 PUBLIC 'CODE'
_TEXT	ENDS
;	COMDAT ?rdbuf@?$basic_ios@DU?$char_traits@D@std@@@std@@QBEPAV?$basic_streambuf@DU?$char_traits@D@std@@@2@XZ
_TEXT	SEGMENT PARA USE32 PUBLIC 'CODE'
_TEXT	ENDS
;	COMDAT ??Bsentry@?$basic_ostream@DU?$char_traits@D@std@@@std@@QBE_NXZ
_TEXT	SEGMENT PARA USE32 PUBLIC 'CODE'
_TEXT	ENDS
;	COMDAT ??1sentry@?$basic_ostream@DU?$char_traits@D@std@@@std@@QAE@XZ
_TEXT	SEGMENT PARA USE32 PUBLIC 'CODE'
_TEXT	ENDS
;	COMDAT ??1_Sentry_base@?$basic_ostream@DU?$char_traits@D@std@@@std@@QAE@XZ
_TEXT	SEGMENT PARA USE32 PUBLIC 'CODE'
_TEXT	ENDS
;	COMDAT ?_Unlock@?$basic_streambuf@DU?$char_traits@D@std@@@std@@QAEXXZ
_TEXT	SEGMENT PARA USE32 PUBLIC 'CODE'
_TEXT	ENDS
;	COMDAT ?_Osfx@?$basic_ostream@DU?$char_traits@D@std@@@std@@QAEXXZ
_TEXT	SEGMENT PARA USE32 PUBLIC 'CODE'
_TEXT	ENDS
;	COMDAT ?flush@?$basic_ostream@DU?$char_traits@D@std@@@std@@QAEAAV12@XZ
_TEXT	SEGMENT PARA USE32 PUBLIC 'CODE'
_TEXT	ENDS
;	COMDAT ?fail@ios_base@std@@QBE_NXZ
_TEXT	SEGMENT PARA USE32 PUBLIC 'CODE'
_TEXT	ENDS
;	COMDAT ?pubsync@?$basic_streambuf@DU?$char_traits@D@std@@@std@@QAEHXZ
_TEXT	SEGMENT PARA USE32 PUBLIC 'CODE'
_TEXT	ENDS
;	COMDAT ??0sentry@?$basic_ostream@DU?$char_traits@D@std@@@std@@QAE@AAV12@@Z
_TEXT	SEGMENT PARA USE32 PUBLIC 'CODE'
_TEXT	ENDS
;	COMDAT ??0_Sentry_base@?$basic_ostream@DU?$char_traits@D@std@@@std@@QAE@AAV12@@Z
_TEXT	SEGMENT PARA USE32 PUBLIC 'CODE'
_TEXT	ENDS
;	COMDAT ?_Lock@?$basic_streambuf@DU?$char_traits@D@std@@@std@@QAEXXZ
_TEXT	SEGMENT PARA USE32 PUBLIC 'CODE'
_TEXT	ENDS
;	COMDAT ?tie@?$basic_ios@DU?$char_traits@D@std@@@std@@QBEPAV?$basic_ostream@DU?$char_traits@D@std@@@2@XZ
_TEXT	SEGMENT PARA USE32 PUBLIC 'CODE'
_TEXT	ENDS
;	COMDAT ?good@ios_base@std@@QBE_NXZ
_TEXT	SEGMENT PARA USE32 PUBLIC 'CODE'
_TEXT	ENDS
;	COMDAT ?setstate@?$basic_ios@GU?$char_traits@G@std@@@std@@QAEXH_N@Z
_TEXT	SEGMENT PARA USE32 PUBLIC 'CODE'
_TEXT	ENDS
;	COMDAT ?clear@?$basic_ios@GU?$char_traits@G@std@@@std@@QAEXH_N@Z
_TEXT	SEGMENT PARA USE32 PUBLIC 'CODE'
_TEXT	ENDS
;	COMDAT ?rdbuf@?$basic_ios@GU?$char_traits@G@std@@@std@@QBEPAV?$basic_streambuf@GU?$char_traits@G@std@@@2@XZ
_TEXT	SEGMENT PARA USE32 PUBLIC 'CODE'
_TEXT	ENDS
;	COMDAT ?fill@?$basic_ios@GU?$char_traits@G@std@@@std@@QBEGXZ
_TEXT	SEGMENT PARA USE32 PUBLIC 'CODE'
_TEXT	ENDS
;	COMDAT ?flags@ios_base@std@@QBEHXZ
_TEXT	SEGMENT PARA USE32 PUBLIC 'CODE'
_TEXT	ENDS
;	COMDAT ?getloc@ios_base@std@@QBE?AVlocale@2@XZ
_TEXT	SEGMENT PARA USE32 PUBLIC 'CODE'
_TEXT	ENDS
;	COMDAT ??0locale@std@@QAE@ABV01@@Z
_TEXT	SEGMENT PARA USE32 PUBLIC 'CODE'
_TEXT	ENDS
;	COMDAT ??Bsentry@?$basic_ostream@GU?$char_traits@G@std@@@std@@QBE_NXZ
_TEXT	SEGMENT PARA USE32 PUBLIC 'CODE'
_TEXT	ENDS
;	COMDAT ??1sentry@?$basic_ostream@GU?$char_traits@G@std@@@std@@QAE@XZ
_TEXT	SEGMENT PARA USE32 PUBLIC 'CODE'
_TEXT	ENDS
;	COMDAT ??1_Sentry_base@?$basic_ostream@GU?$char_traits@G@std@@@std@@QAE@XZ
_TEXT	SEGMENT PARA USE32 PUBLIC 'CODE'
_TEXT	ENDS
;	COMDAT ?_Unlock@?$basic_streambuf@GU?$char_traits@G@std@@@std@@QAEXXZ
_TEXT	SEGMENT PARA USE32 PUBLIC 'CODE'
_TEXT	ENDS
;	COMDAT ?_Osfx@?$basic_ostream@GU?$char_traits@G@std@@@std@@QAEXXZ
_TEXT	SEGMENT PARA USE32 PUBLIC 'CODE'
_TEXT	ENDS
;	COMDAT ?flush@?$basic_ostream@GU?$char_traits@G@std@@@std@@QAEAAV12@XZ
_TEXT	SEGMENT PARA USE32 PUBLIC 'CODE'
_TEXT	ENDS
;	COMDAT ?pubsync@?$basic_streambuf@GU?$char_traits@G@std@@@std@@QAEHXZ
_TEXT	SEGMENT PARA USE32 PUBLIC 'CODE'
_TEXT	ENDS
;	COMDAT ??0sentry@?$basic_ostream@GU?$char_traits@G@std@@@std@@QAE@AAV12@@Z
_TEXT	SEGMENT PARA USE32 PUBLIC 'CODE'
_TEXT	ENDS
;	COMDAT ??0_Sentry_base@?$basic_ostream@GU?$char_traits@G@std@@@std@@QAE@AAV12@@Z
_TEXT	SEGMENT PARA USE32 PUBLIC 'CODE'
_TEXT	ENDS
;	COMDAT ?_Lock@?$basic_streambuf@GU?$char_traits@G@std@@@std@@QAEXXZ
_TEXT	SEGMENT PARA USE32 PUBLIC 'CODE'
_TEXT	ENDS
;	COMDAT ?tie@?$basic_ios@GU?$char_traits@G@std@@@std@@QBEPAV?$basic_ostream@GU?$char_traits@G@std@@@2@XZ
_TEXT	SEGMENT PARA USE32 PUBLIC 'CODE'
_TEXT	ENDS
;	COMDAT ?endl@std@@YAAAV?$basic_ostream@DU?$char_traits@D@std@@@1@AAV21@@Z
_TEXT	SEGMENT PARA USE32 PUBLIC 'CODE'
_TEXT	ENDS
;	COMDAT ?put@?$basic_ostream@DU?$char_traits@D@std@@@std@@QAEAAV12@D@Z
_TEXT	SEGMENT PARA USE32 PUBLIC 'CODE'
_TEXT	ENDS
;	COMDAT ??1?$basic_string@DU?$char_traits@D@std@@V?$allocator@D@2@@std@@QAE@XZ
_TEXT	SEGMENT PARA USE32 PUBLIC 'CODE'
_TEXT	ENDS
;	COMDAT ??0?$basic_string@DU?$char_traits@D@std@@V?$allocator@D@2@@std@@QAE@ABV01@@Z
_TEXT	SEGMENT PARA USE32 PUBLIC 'CODE'
_TEXT	ENDS
;	COMDAT ?c_str@?$basic_string@DU?$char_traits@D@std@@V?$allocator@D@2@@std@@QBEPBDXZ
_TEXT	SEGMENT PARA USE32 PUBLIC 'CODE'
_TEXT	ENDS
;	COMDAT ?endl@std@@YAAAV?$basic_ostream@GU?$char_traits@G@std@@@1@AAV21@@Z
_TEXT	SEGMENT PARA USE32 PUBLIC 'CODE'
_TEXT	ENDS
;	COMDAT ?put@?$basic_ostream@GU?$char_traits@G@std@@@std@@QAEAAV12@G@Z
_TEXT	SEGMENT PARA USE32 PUBLIC 'CODE'
_TEXT	ENDS
;	COMDAT ??1locale@std@@QAE@XZ
_TEXT	SEGMENT PARA USE32 PUBLIC 'CODE'
_TEXT	ENDS
;	COMDAT ?_Decref@facet@locale@std@@QAEPAV123@XZ
_TEXT	SEGMENT PARA USE32 PUBLIC 'CODE'
_TEXT	ENDS
;	COMDAT __CTA1H
xdata$x	SEGMENT DWORD USE32 PUBLIC 'CONST'
xdata$x	ENDS
;	COMDAT __CT??_R0H@84
xdata$x	SEGMENT DWORD USE32 PUBLIC 'CONST'
xdata$x	ENDS
;	COMDAT ??_R0H@8
_DATA	SEGMENT DWORD USE32 PUBLIC 'DATA'
_DATA	ENDS
;	COMDAT __TI1H
xdata$x	SEGMENT DWORD USE32 PUBLIC 'CONST'
xdata$x	ENDS
sxdata	SEGMENT DWORD USE32 'SXDATA'
sxdata	ENDS
FLAT	GROUP _DATA, CONST, _BSS, CRT$XCU, CRT$XCU, CRT$XCU, CRT$XCU, CRT$XCU
	ASSUME	CS: FLAT, DS: FLAT, SS: FLAT
endif

INCLUDELIB LIBCMT
INCLUDELIB OLDNAMES

PUBLIC	??_C@_00CNPNBAHC@?$AA@				; `string'
PUBLIC	??_C@_1NK@KENGHJLD@?$AAM?$AAM?$AAL?$AA?5?$AAC?$AAo?$AAm?$AAp?$AAi?$AAl?$AAe?$AAr?$AA?5?$AAf?$AAo?$AAr?$AA?5?$AAN?$AAE?$AAS@ ; `string'
PUBLIC	??_C@_1HK@PLEACAAO@?$AA?9?$AA?9?$AA?9?$AA?9?$AA?9?$AA?9?$AA?9?$AA?9?$AA?9?$AA?9?$AA?9?$AA?9?$AA?9?$AA?9?$AA?9?$AA?9?$AA?9?$AA?9?$AA?9?$AA?9@ ; `string'
PUBLIC	??_C@_1DC@NFNOFJGE@?$AA?$CK?$AAO?$AAb?$AAj?$AAe?$AAc?$AAt?$AA?5?$AAc?$AAr?$AAe?$AAa?$AAt?$AAi?$AAn?$AAg?$AA?5?$AAp?$AAr?$AAo@ ; `string'
PUBLIC	??_C@_1CI@BGPJBPBK@?$AA?$DN?$AA?$DN?$AA?$DN?$AA?$DN?$AA?5?$AA?$FL?$AA?5?$AAM?$AAu?$AAs?$AAi?$AAc?$AA?5?$AA?$FN?$AA?5?$AA?$DN?$AA?$DN?$AA?$DN?$AA?$DN?$AA?$AA@ ; `string'
PUBLIC	??_C@_1EE@BGEBAFOM@?$AA?$CK?$AAO?$AAp?$AAt?$AAi?$AAm?$AAi?$AAz?$AAe?$AA?5?$AA?$CG?$AA?5?$AAT?$AAi?$AAc?$AAk?$AA?5?$AAc?$AAo?$AAu@ ; `string'
PUBLIC	??_C@_1DI@JGLJCCJP@?$AA?$CK?$AAA?$AAd?$AAd?$AAr?$AAe?$AAs?$AAs?$AA?5?$AAs?$AAe?$AAt?$AAt?$AAl?$AAe?$AAm?$AAe?$AAn?$AAt?$AA?5@ ; `string'
PUBLIC	??_C@_07FBHPMLEN@?5?$FLByte?$FN?$AA@		; `string'
PUBLIC	??_C@_0BA@DKKDKJML@?5?5Music?5Size?5?$DN?5?$AA@	; `string'
PUBLIC	??_C@_0BA@IEMDIJBO@?5?5DPCM?5Size?5?5?$DN?5?$AA@ ; `string'
PUBLIC	??_C@_1BA@BJOMPAID@?$AAE?$AAr?$AAr?$AAo?$AAr?$AA?$CB?$AA?3?$AA?$AA@ ; `string'
PUBLIC	??_C@_02EAOCLKAK@ld?$AA@			; `string'
PUBLIC	??_C@_02BDDLJJBK@lu?$AA@			; `string'
PUBLIC	??_C@_02HIKPPMOK@Ld?$AA@			; `string'
PUBLIC	??_C@_02CLHGNPPK@Lu?$AA@			; `string'
PUBLIC	??_C@_02BBAHNLBA@?$CFp?$AA@			; `string'
PUBLIC	??_C@_01DDCIFGEA@E?$AA@				; `string'
PUBLIC	??_C@_01KGKMHCOC@e?$AA@				; `string'
PUBLIC	??_GMMLfile@@QAEPAXI@Z				; MMLfile::`scalar deleting destructor'
PUBLIC	??_GOPSW@@QAEPAXI@Z				; OPSW::`scalar deleting destructor'
PUBLIC	??6?$basic_ostream@GU?$char_traits@G@std@@@std@@QAEAAV01@P6AAAV01@AAV01@@Z@Z ; std::basic_ostream<unsigned short,std::char_traits<unsigned short> >::operator<<
PUBLIC	??6?$basic_ostream@GU?$char_traits@G@std@@@std@@QAEAAV01@H@Z ; std::basic_ostream<unsigned short,std::char_traits<unsigned short> >::operator<<
PUBLIC	??6?$basic_ostream@DU?$char_traits@D@std@@@std@@QAEAAV01@P6AAAV01@AAV01@@Z@Z ; std::basic_ostream<char,std::char_traits<char> >::operator<<
PUBLIC	??6?$basic_ostream@DU?$char_traits@D@std@@@std@@QAEAAV01@I@Z ; std::basic_ostream<char,std::char_traits<char> >::operator<<
PUBLIC	?fill@?$basic_ios@DU?$char_traits@D@std@@@std@@QBEDXZ ; std::basic_ios<char,std::char_traits<char> >::fill
PUBLIC	??1?$num_put@GV?$ostreambuf_iterator@GU?$char_traits@G@std@@@std@@@std@@MAE@XZ ; std::num_put<unsigned short,std::ostreambuf_iterator<unsigned short,std::char_traits<unsigned short> > >::~num_put<unsigned short,std::ostreambuf_iterator<unsigned short,std::char_traits<unsigned short> > >
PUBLIC	?put@?$num_put@GV?$ostreambuf_iterator@GU?$char_traits@G@std@@@std@@@std@@QBE?AV?$ostreambuf_iterator@GU?$char_traits@G@std@@@2@V32@AAVios_base@2@GJ@Z ; std::num_put<unsigned short,std::ostreambuf_iterator<unsigned short,std::char_traits<unsigned short> > >::put
PUBLIC	?do_put@?$num_put@GV?$ostreambuf_iterator@GU?$char_traits@G@std@@@std@@@std@@MBE?AV?$ostreambuf_iterator@GU?$char_traits@G@std@@@2@V32@AAVios_base@2@G_N@Z ; std::num_put<unsigned short,std::ostreambuf_iterator<unsigned short,std::char_traits<unsigned short> > >::do_put
PUBLIC	?do_put@?$num_put@GV?$ostreambuf_iterator@GU?$char_traits@G@std@@@std@@@std@@MBE?AV?$ostreambuf_iterator@GU?$char_traits@G@std@@@2@V32@AAVios_base@2@GJ@Z ; std::num_put<unsigned short,std::ostreambuf_iterator<unsigned short,std::char_traits<unsigned short> > >::do_put
PUBLIC	?do_put@?$num_put@GV?$ostreambuf_iterator@GU?$char_traits@G@std@@@std@@@std@@MBE?AV?$ostreambuf_iterator@GU?$char_traits@G@std@@@2@V32@AAVios_base@2@GK@Z ; std::num_put<unsigned short,std::ostreambuf_iterator<unsigned short,std::char_traits<unsigned short> > >::do_put
PUBLIC	?do_put@?$num_put@GV?$ostreambuf_iterator@GU?$char_traits@G@std@@@std@@@std@@MBE?AV?$ostreambuf_iterator@GU?$char_traits@G@std@@@2@V32@AAVios_base@2@G_J@Z ; std::num_put<unsigned short,std::ostreambuf_iterator<unsigned short,std::char_traits<unsigned short> > >::do_put
PUBLIC	?do_put@?$num_put@GV?$ostreambuf_iterator@GU?$char_traits@G@std@@@std@@@std@@MBE?AV?$ostreambuf_iterator@GU?$char_traits@G@std@@@2@V32@AAVios_base@2@G_K@Z ; std::num_put<unsigned short,std::ostreambuf_iterator<unsigned short,std::char_traits<unsigned short> > >::do_put
PUBLIC	?do_put@?$num_put@GV?$ostreambuf_iterator@GU?$char_traits@G@std@@@std@@@std@@MBE?AV?$ostreambuf_iterator@GU?$char_traits@G@std@@@2@V32@AAVios_base@2@GN@Z ; std::num_put<unsigned short,std::ostreambuf_iterator<unsigned short,std::char_traits<unsigned short> > >::do_put
PUBLIC	?do_put@?$num_put@GV?$ostreambuf_iterator@GU?$char_traits@G@std@@@std@@@std@@MBE?AV?$ostreambuf_iterator@GU?$char_traits@G@std@@@2@V32@AAVios_base@2@GO@Z ; std::num_put<unsigned short,std::ostreambuf_iterator<unsigned short,std::char_traits<unsigned short> > >::do_put
PUBLIC	?do_put@?$num_put@GV?$ostreambuf_iterator@GU?$char_traits@G@std@@@std@@@std@@MBE?AV?$ostreambuf_iterator@GU?$char_traits@G@std@@@2@V32@AAVios_base@2@GPBX@Z ; std::num_put<unsigned short,std::ostreambuf_iterator<unsigned short,std::char_traits<unsigned short> > >::do_put
PUBLIC	??0?$ostreambuf_iterator@GU?$char_traits@G@std@@@std@@QAE@PAV?$basic_streambuf@GU?$char_traits@G@std@@@1@@Z ; std::ostreambuf_iterator<unsigned short,std::char_traits<unsigned short> >::ostreambuf_iterator<unsigned short,std::char_traits<unsigned short> >
PUBLIC	?failed@?$ostreambuf_iterator@GU?$char_traits@G@std@@@std@@QBE_NXZ ; std::ostreambuf_iterator<unsigned short,std::char_traits<unsigned short> >::failed
PUBLIC	??1?$num_put@DV?$ostreambuf_iterator@DU?$char_traits@D@std@@@std@@@std@@MAE@XZ ; std::num_put<char,std::ostreambuf_iterator<char,std::char_traits<char> > >::~num_put<char,std::ostreambuf_iterator<char,std::char_traits<char> > >
PUBLIC	?put@?$num_put@DV?$ostreambuf_iterator@DU?$char_traits@D@std@@@std@@@std@@QBE?AV?$ostreambuf_iterator@DU?$char_traits@D@std@@@2@V32@AAVios_base@2@DK@Z ; std::num_put<char,std::ostreambuf_iterator<char,std::char_traits<char> > >::put
PUBLIC	?do_put@?$num_put@DV?$ostreambuf_iterator@DU?$char_traits@D@std@@@std@@@std@@MBE?AV?$ostreambuf_iterator@DU?$char_traits@D@std@@@2@V32@AAVios_base@2@D_N@Z ; std::num_put<char,std::ostreambuf_iterator<char,std::char_traits<char> > >::do_put
PUBLIC	?do_put@?$num_put@DV?$ostreambuf_iterator@DU?$char_traits@D@std@@@std@@@std@@MBE?AV?$ostreambuf_iterator@DU?$char_traits@D@std@@@2@V32@AAVios_base@2@DJ@Z ; std::num_put<char,std::ostreambuf_iterator<char,std::char_traits<char> > >::do_put
PUBLIC	?do_put@?$num_put@DV?$ostreambuf_iterator@DU?$char_traits@D@std@@@std@@@std@@MBE?AV?$ostreambuf_iterator@DU?$char_traits@D@std@@@2@V32@AAVios_base@2@DK@Z ; std::num_put<char,std::ostreambuf_iterator<char,std::char_traits<char> > >::do_put
PUBLIC	?do_put@?$num_put@DV?$ostreambuf_iterator@DU?$char_traits@D@std@@@std@@@std@@MBE?AV?$ostreambuf_iterator@DU?$char_traits@D@std@@@2@V32@AAVios_base@2@D_J@Z ; std::num_put<char,std::ostreambuf_iterator<char,std::char_traits<char> > >::do_put
PUBLIC	?do_put@?$num_put@DV?$ostreambuf_iterator@DU?$char_traits@D@std@@@std@@@std@@MBE?AV?$ostreambuf_iterator@DU?$char_traits@D@std@@@2@V32@AAVios_base@2@D_K@Z ; std::num_put<char,std::ostreambuf_iterator<char,std::char_traits<char> > >::do_put
PUBLIC	?do_put@?$num_put@DV?$ostreambuf_iterator@DU?$char_traits@D@std@@@std@@@std@@MBE?AV?$ostreambuf_iterator@DU?$char_traits@D@std@@@2@V32@AAVios_base@2@DN@Z ; std::num_put<char,std::ostreambuf_iterator<char,std::char_traits<char> > >::do_put
PUBLIC	?do_put@?$num_put@DV?$ostreambuf_iterator@DU?$char_traits@D@std@@@std@@@std@@MBE?AV?$ostreambuf_iterator@DU?$char_traits@D@std@@@2@V32@AAVios_base@2@DO@Z ; std::num_put<char,std::ostreambuf_iterator<char,std::char_traits<char> > >::do_put
PUBLIC	?do_put@?$num_put@DV?$ostreambuf_iterator@DU?$char_traits@D@std@@@std@@@std@@MBE?AV?$ostreambuf_iterator@DU?$char_traits@D@std@@@2@V32@AAVios_base@2@DPBX@Z ; std::num_put<char,std::ostreambuf_iterator<char,std::char_traits<char> > >::do_put
PUBLIC	??0?$ostreambuf_iterator@DU?$char_traits@D@std@@@std@@QAE@PAV?$basic_streambuf@DU?$char_traits@D@std@@@1@@Z ; std::ostreambuf_iterator<char,std::char_traits<char> >::ostreambuf_iterator<char,std::char_traits<char> >
PUBLIC	?failed@?$ostreambuf_iterator@DU?$char_traits@D@std@@@std@@QBE_NXZ ; std::ostreambuf_iterator<char,std::char_traits<char> >::failed
PUBLIC	??_G?$num_put@GV?$ostreambuf_iterator@GU?$char_traits@G@std@@@std@@@std@@MAEPAXI@Z ; std::num_put<unsigned short,std::ostreambuf_iterator<unsigned short,std::char_traits<unsigned short> > >::`scalar deleting destructor'
PUBLIC	??_G?$num_put@DV?$ostreambuf_iterator@DU?$char_traits@D@std@@@std@@@std@@MAEPAXI@Z ; std::num_put<char,std::ostreambuf_iterator<char,std::char_traits<char> > >::`scalar deleting destructor'
PUBLIC	?assign@?$basic_string@DU?$char_traits@D@std@@V?$allocator@D@2@@std@@QAEAAV12@ABV12@@Z ; std::basic_string<char,std::char_traits<char>,std::allocator<char> >::assign
PUBLIC	?_Ffmt@?$num_put@GV?$ostreambuf_iterator@GU?$char_traits@G@std@@@std@@@std@@ABAPADPADDH@Z ; std::num_put<unsigned short,std::ostreambuf_iterator<unsigned short,std::char_traits<unsigned short> > >::_Ffmt
PUBLIC	?_Fput@?$num_put@GV?$ostreambuf_iterator@GU?$char_traits@G@std@@@std@@@std@@ABA?AV?$ostreambuf_iterator@GU?$char_traits@G@std@@@2@V32@AAVios_base@2@GPBDIIII@Z ; std::num_put<unsigned short,std::ostreambuf_iterator<unsigned short,std::char_traits<unsigned short> > >::_Fput
PUBLIC	?_Ifmt@?$num_put@GV?$ostreambuf_iterator@GU?$char_traits@G@std@@@std@@@std@@ABAPADPADPBDH@Z ; std::num_put<unsigned short,std::ostreambuf_iterator<unsigned short,std::char_traits<unsigned short> > >::_Ifmt
PUBLIC	?_Iput@?$num_put@GV?$ostreambuf_iterator@GU?$char_traits@G@std@@@std@@@std@@ABA?AV?$ostreambuf_iterator@GU?$char_traits@G@std@@@2@V32@AAVios_base@2@GPADI@Z ; std::num_put<unsigned short,std::ostreambuf_iterator<unsigned short,std::char_traits<unsigned short> > >::_Iput
PUBLIC	?_Put@?$num_put@GV?$ostreambuf_iterator@GU?$char_traits@G@std@@@std@@@std@@ABA?AV?$ostreambuf_iterator@GU?$char_traits@G@std@@@2@V32@PBGI@Z ; std::num_put<unsigned short,std::ostreambuf_iterator<unsigned short,std::char_traits<unsigned short> > >::_Put
PUBLIC	?_Rep@?$num_put@GV?$ostreambuf_iterator@GU?$char_traits@G@std@@@std@@@std@@ABA?AV?$ostreambuf_iterator@GU?$char_traits@G@std@@@2@V32@GI@Z ; std::num_put<unsigned short,std::ostreambuf_iterator<unsigned short,std::char_traits<unsigned short> > >::_Rep
PUBLIC	?_Ffmt@?$num_put@DV?$ostreambuf_iterator@DU?$char_traits@D@std@@@std@@@std@@ABAPADPADDH@Z ; std::num_put<char,std::ostreambuf_iterator<char,std::char_traits<char> > >::_Ffmt
PUBLIC	?_Fput@?$num_put@DV?$ostreambuf_iterator@DU?$char_traits@D@std@@@std@@@std@@ABA?AV?$ostreambuf_iterator@DU?$char_traits@D@std@@@2@V32@AAVios_base@2@DPBDIIII@Z ; std::num_put<char,std::ostreambuf_iterator<char,std::char_traits<char> > >::_Fput
PUBLIC	?_Ifmt@?$num_put@DV?$ostreambuf_iterator@DU?$char_traits@D@std@@@std@@@std@@ABAPADPADPBDH@Z ; std::num_put<char,std::ostreambuf_iterator<char,std::char_traits<char> > >::_Ifmt
PUBLIC	?_Iput@?$num_put@DV?$ostreambuf_iterator@DU?$char_traits@D@std@@@std@@@std@@ABA?AV?$ostreambuf_iterator@DU?$char_traits@D@std@@@2@V32@AAVios_base@2@DPADI@Z ; std::num_put<char,std::ostreambuf_iterator<char,std::char_traits<char> > >::_Iput
PUBLIC	?_Put@?$num_put@DV?$ostreambuf_iterator@DU?$char_traits@D@std@@@std@@@std@@ABA?AV?$ostreambuf_iterator@DU?$char_traits@D@std@@@2@V32@PBDI@Z ; std::num_put<char,std::ostreambuf_iterator<char,std::char_traits<char> > >::_Put
PUBLIC	?_Rep@?$num_put@DV?$ostreambuf_iterator@DU?$char_traits@D@std@@@std@@@std@@ABA?AV?$ostreambuf_iterator@DU?$char_traits@D@std@@@2@V32@DI@Z ; std::num_put<char,std::ostreambuf_iterator<char,std::char_traits<char> > >::_Rep
PUBLIC	??0?$basic_string@GU?$char_traits@G@std@@V?$allocator@G@2@@std@@QAE@XZ ; std::basic_string<unsigned short,std::char_traits<unsigned short>,std::allocator<unsigned short> >::basic_string<unsigned short,std::char_traits<unsigned short>,std::allocator<unsigned short> >
PUBLIC	??1?$basic_string@GU?$char_traits@G@std@@V?$allocator@G@2@@std@@QAE@XZ ; std::basic_string<unsigned short,std::char_traits<unsigned short>,std::allocator<unsigned short> >::~basic_string<unsigned short,std::char_traits<unsigned short>,std::allocator<unsigned short> >
PUBLIC	?assign@?$basic_string@GU?$char_traits@G@std@@V?$allocator@G@2@@std@@QAEAAV12@ABV12@@Z ; std::basic_string<unsigned short,std::char_traits<unsigned short>,std::allocator<unsigned short> >::assign
PUBLIC	?c_str@?$basic_string@GU?$char_traits@G@std@@V?$allocator@G@2@@std@@QBEPBGXZ ; std::basic_string<unsigned short,std::char_traits<unsigned short>,std::allocator<unsigned short> >::c_str
PUBLIC	?size@?$basic_string@GU?$char_traits@G@std@@V?$allocator@G@2@@std@@QBEIXZ ; std::basic_string<unsigned short,std::char_traits<unsigned short>,std::allocator<unsigned short> >::size
PUBLIC	?falsename@?$numpunct@G@std@@QBE?AV?$basic_string@GU?$char_traits@G@std@@V?$allocator@G@2@@2@XZ ; std::numpunct<unsigned short>::falsename
PUBLIC	?truename@?$numpunct@G@std@@QBE?AV?$basic_string@GU?$char_traits@G@std@@V?$allocator@G@2@@2@XZ ; std::numpunct<unsigned short>::truename
PUBLIC	??1?$numpunct@G@std@@MAE@XZ			; std::numpunct<unsigned short>::~numpunct<unsigned short>
PUBLIC	?do_decimal_point@?$numpunct@G@std@@MBEGXZ	; std::numpunct<unsigned short>::do_decimal_point
PUBLIC	?do_thousands_sep@?$numpunct@G@std@@MBEGXZ	; std::numpunct<unsigned short>::do_thousands_sep
PUBLIC	?do_grouping@?$numpunct@G@std@@MBE?AV?$basic_string@DU?$char_traits@D@std@@V?$allocator@D@2@@2@XZ ; std::numpunct<unsigned short>::do_grouping
PUBLIC	?do_falsename@?$numpunct@G@std@@MBE?AV?$basic_string@GU?$char_traits@G@std@@V?$allocator@G@2@@2@XZ ; std::numpunct<unsigned short>::do_falsename
PUBLIC	?do_truename@?$numpunct@G@std@@MBE?AV?$basic_string@GU?$char_traits@G@std@@V?$allocator@G@2@@2@XZ ; std::numpunct<unsigned short>::do_truename
PUBLIC	?falsename@?$numpunct@D@std@@QBE?AV?$basic_string@DU?$char_traits@D@std@@V?$allocator@D@2@@2@XZ ; std::numpunct<char>::falsename
PUBLIC	?truename@?$numpunct@D@std@@QBE?AV?$basic_string@DU?$char_traits@D@std@@V?$allocator@D@2@@2@XZ ; std::numpunct<char>::truename
PUBLIC	??1?$numpunct@D@std@@MAE@XZ			; std::numpunct<char>::~numpunct<char>
PUBLIC	?do_decimal_point@?$numpunct@D@std@@MBEDXZ	; std::numpunct<char>::do_decimal_point
PUBLIC	?do_thousands_sep@?$numpunct@D@std@@MBEDXZ	; std::numpunct<char>::do_thousands_sep
PUBLIC	?do_grouping@?$numpunct@D@std@@MBE?AV?$basic_string@DU?$char_traits@D@std@@V?$allocator@D@2@@2@XZ ; std::numpunct<char>::do_grouping
PUBLIC	?do_falsename@?$numpunct@D@std@@MBE?AV?$basic_string@DU?$char_traits@D@std@@V?$allocator@D@2@@2@XZ ; std::numpunct<char>::do_falsename
PUBLIC	?do_truename@?$numpunct@D@std@@MBE?AV?$basic_string@DU?$char_traits@D@std@@V?$allocator@D@2@@2@XZ ; std::numpunct<char>::do_truename
PUBLIC	??_G?$numpunct@G@std@@MAEPAXI@Z			; std::numpunct<unsigned short>::`scalar deleting destructor'
PUBLIC	??_G?$numpunct@D@std@@MAEPAXI@Z			; std::numpunct<char>::`scalar deleting destructor'
PUBLIC	??0?$basic_string@DU?$char_traits@D@std@@V?$allocator@D@2@@std@@QAE@PBD@Z ; std::basic_string<char,std::char_traits<char>,std::allocator<char> >::basic_string<char,std::char_traits<char>,std::allocator<char> >
PUBLIC	?append@?$basic_string@DU?$char_traits@D@std@@V?$allocator@D@2@@std@@QAEAAV12@PBDI@Z ; std::basic_string<char,std::char_traits<char>,std::allocator<char> >::append
PUBLIC	?insert@?$basic_string@DU?$char_traits@D@std@@V?$allocator@D@2@@std@@QAEAAV12@IID@Z ; std::basic_string<char,std::char_traits<char>,std::allocator<char> >::insert
PUBLIC	?_Putc@?$num_put@GV?$ostreambuf_iterator@GU?$char_traits@G@std@@@std@@@std@@ABA?AV?$ostreambuf_iterator@GU?$char_traits@G@std@@@2@V32@PBDI@Z ; std::num_put<unsigned short,std::ostreambuf_iterator<unsigned short,std::char_traits<unsigned short> > >::_Putc
PUBLIC	?_Putgrouped@?$num_put@GV?$ostreambuf_iterator@GU?$char_traits@G@std@@@std@@@std@@ABA?AV?$ostreambuf_iterator@GU?$char_traits@G@std@@@2@V32@PBDIG@Z ; std::num_put<unsigned short,std::ostreambuf_iterator<unsigned short,std::char_traits<unsigned short> > >::_Putgrouped
PUBLIC	??4?$ostreambuf_iterator@GU?$char_traits@G@std@@@std@@QAEAAV01@G@Z ; std::ostreambuf_iterator<unsigned short,std::char_traits<unsigned short> >::operator=
PUBLIC	??D?$ostreambuf_iterator@GU?$char_traits@G@std@@@std@@QAEAAV01@XZ ; std::ostreambuf_iterator<unsigned short,std::char_traits<unsigned short> >::operator*
PUBLIC	??E?$ostreambuf_iterator@GU?$char_traits@G@std@@@std@@QAEAAV01@XZ ; std::ostreambuf_iterator<unsigned short,std::char_traits<unsigned short> >::operator++
PUBLIC	?_Putc@?$num_put@DV?$ostreambuf_iterator@DU?$char_traits@D@std@@@std@@@std@@ABA?AV?$ostreambuf_iterator@DU?$char_traits@D@std@@@2@V32@PBDI@Z ; std::num_put<char,std::ostreambuf_iterator<char,std::char_traits<char> > >::_Putc
PUBLIC	?_Putgrouped@?$num_put@DV?$ostreambuf_iterator@DU?$char_traits@D@std@@@std@@@std@@ABA?AV?$ostreambuf_iterator@DU?$char_traits@D@std@@@2@V32@PBDID@Z ; std::num_put<char,std::ostreambuf_iterator<char,std::char_traits<char> > >::_Putgrouped
PUBLIC	??4?$ostreambuf_iterator@DU?$char_traits@D@std@@@std@@QAEAAV01@D@Z ; std::ostreambuf_iterator<char,std::char_traits<char> >::operator=
PUBLIC	??D?$ostreambuf_iterator@DU?$char_traits@D@std@@@std@@QAEAAV01@XZ ; std::ostreambuf_iterator<char,std::char_traits<char> >::operator*
PUBLIC	??E?$ostreambuf_iterator@DU?$char_traits@D@std@@@std@@QAEAAV01@XZ ; std::ostreambuf_iterator<char,std::char_traits<char> >::operator++
PUBLIC	??0?$basic_string@GU?$char_traits@G@std@@V?$allocator@G@2@@std@@QAE@PBG@Z ; std::basic_string<unsigned short,std::char_traits<unsigned short>,std::allocator<unsigned short> >::basic_string<unsigned short,std::char_traits<unsigned short>,std::allocator<unsigned short> >
PUBLIC	?assign@?$basic_string@GU?$char_traits@G@std@@V?$allocator@G@2@@std@@QAEAAV12@ABV12@II@Z ; std::basic_string<unsigned short,std::char_traits<unsigned short>,std::allocator<unsigned short> >::assign
PUBLIC	?_Tidy@?$basic_string@GU?$char_traits@G@std@@V?$allocator@G@2@@std@@IAEX_NI@Z ; std::basic_string<unsigned short,std::char_traits<unsigned short>,std::allocator<unsigned short> >::_Tidy
PUBLIC	?_Myptr@?$basic_string@GU?$char_traits@G@std@@V?$allocator@G@2@@std@@QBEPBGXZ ; std::basic_string<unsigned short,std::char_traits<unsigned short>,std::allocator<unsigned short> >::_Myptr
PUBLIC	??0?$_String_val@GV?$allocator@G@std@@@std@@IAE@V?$allocator@G@1@@Z ; std::_String_val<unsigned short,std::allocator<unsigned short> >::_String_val<unsigned short,std::allocator<unsigned short> >
PUBLIC	??0?$allocator@G@std@@QAE@XZ			; std::allocator<unsigned short>::allocator<unsigned short>
PUBLIC	?decimal_point@?$numpunct@G@std@@QBEGXZ		; std::numpunct<unsigned short>::decimal_point
PUBLIC	?thousands_sep@?$numpunct@G@std@@QBEGXZ		; std::numpunct<unsigned short>::thousands_sep
PUBLIC	?grouping@?$numpunct@G@std@@QBE?AV?$basic_string@DU?$char_traits@D@std@@V?$allocator@D@2@@2@XZ ; std::numpunct<unsigned short>::grouping
PUBLIC	?_Tidy@?$numpunct@G@std@@AAEXXZ			; std::numpunct<unsigned short>::_Tidy
PUBLIC	?decimal_point@?$numpunct@D@std@@QBEDXZ		; std::numpunct<char>::decimal_point
PUBLIC	?thousands_sep@?$numpunct@D@std@@QBEDXZ		; std::numpunct<char>::thousands_sep
PUBLIC	?grouping@?$numpunct@D@std@@QBE?AV?$basic_string@DU?$char_traits@D@std@@V?$allocator@D@2@@2@XZ ; std::numpunct<char>::grouping
PUBLIC	?_Tidy@?$numpunct@D@std@@AAEXXZ			; std::numpunct<char>::_Tidy
PUBLIC	?append@?$basic_string@DU?$char_traits@D@std@@V?$allocator@D@2@@std@@QAEAAV12@ABV12@II@Z ; std::basic_string<char,std::char_traits<char>,std::allocator<char> >::append
PUBLIC	?assign@?$basic_string@GU?$char_traits@G@std@@V?$allocator@G@2@@std@@QAEAAV12@PBG@Z ; std::basic_string<unsigned short,std::char_traits<unsigned short>,std::allocator<unsigned short> >::assign
PUBLIC	?erase@?$basic_string@GU?$char_traits@G@std@@V?$allocator@G@2@@std@@QAEAAV12@II@Z ; std::basic_string<unsigned short,std::char_traits<unsigned short>,std::allocator<unsigned short> >::erase
PUBLIC	?_Eos@?$basic_string@GU?$char_traits@G@std@@V?$allocator@G@2@@std@@IAEXI@Z ; std::basic_string<unsigned short,std::char_traits<unsigned short>,std::allocator<unsigned short> >::_Eos
PUBLIC	?_Grow@?$basic_string@GU?$char_traits@G@std@@V?$allocator@G@2@@std@@IAE_NI_N@Z ; std::basic_string<unsigned short,std::char_traits<unsigned short>,std::allocator<unsigned short> >::_Grow
PUBLIC	?_Myptr@?$basic_string@GU?$char_traits@G@std@@V?$allocator@G@2@@std@@QAEPAGXZ ; std::basic_string<unsigned short,std::char_traits<unsigned short>,std::allocator<unsigned short> >::_Myptr
PUBLIC	??0?$allocator@G@std@@QAE@ABV01@@Z		; std::allocator<unsigned short>::allocator<unsigned short>
PUBLIC	?deallocate@?$allocator@G@std@@QAEXPAGI@Z	; std::allocator<unsigned short>::deallocate
PUBLIC	?assign@?$basic_string@GU?$char_traits@G@std@@V?$allocator@G@2@@std@@QAEAAV12@PBGI@Z ; std::basic_string<unsigned short,std::char_traits<unsigned short>,std::allocator<unsigned short> >::assign
PUBLIC	?max_size@?$basic_string@GU?$char_traits@G@std@@V?$allocator@G@2@@std@@QBEIXZ ; std::basic_string<unsigned short,std::char_traits<unsigned short>,std::allocator<unsigned short> >::max_size
PUBLIC	?_Copy@?$basic_string@GU?$char_traits@G@std@@V?$allocator@G@2@@std@@IAEXII@Z ; std::basic_string<unsigned short,std::char_traits<unsigned short>,std::allocator<unsigned short> >::_Copy
PUBLIC	?_Inside@?$basic_string@GU?$char_traits@G@std@@V?$allocator@G@2@@std@@IAE_NPBG@Z ; std::basic_string<unsigned short,std::char_traits<unsigned short>,std::allocator<unsigned short> >::_Inside
PUBLIC	?allocate@?$allocator@G@std@@QAEPAGI@Z		; std::allocator<unsigned short>::allocate
PUBLIC	?max_size@?$allocator@G@std@@QBEIXZ		; std::allocator<unsigned short>::max_size
PUBLIC	??$?6GU?$char_traits@G@std@@@std@@YAAAV?$basic_ostream@GU?$char_traits@G@std@@@0@AAV10@PBG@Z ; std::operator<<<unsigned short,std::char_traits<unsigned short> >
PUBLIC	??$?6U?$char_traits@D@std@@@std@@YAAAV?$basic_ostream@DU?$char_traits@D@std@@@0@AAV10@PBD@Z ; std::operator<<<std::char_traits<char> >
PUBLIC	??$setfill@D@std@@YA?AU?$_Fillobj@D@0@D@Z	; std::setfill<char>
PUBLIC	??$?6DU?$char_traits@D@std@@@std@@YAAAV?$basic_ostream@DU?$char_traits@D@std@@@0@AAV10@ABU?$_Fillobj@D@0@@Z ; std::operator<<<char,std::char_traits<char> >
PUBLIC	??$?6DU?$char_traits@D@std@@H@std@@YAAAV?$basic_ostream@DU?$char_traits@D@std@@@0@AAV10@ABU?$_Smanip@H@0@@Z ; std::operator<<<char,std::char_traits<char>,int>
PUBLIC	??$use_facet@V?$num_put@GV?$ostreambuf_iterator@GU?$char_traits@G@std@@@std@@@std@@@std@@YAABV?$num_put@GV?$ostreambuf_iterator@GU?$char_traits@G@std@@@std@@@0@ABVlocale@0@@Z ; std::use_facet<std::num_put<unsigned short,std::ostreambuf_iterator<unsigned short,std::char_traits<unsigned short> > > >
PUBLIC	??$use_facet@V?$num_put@DV?$ostreambuf_iterator@DU?$char_traits@D@std@@@std@@@std@@@std@@YAABV?$num_put@DV?$ostreambuf_iterator@DU?$char_traits@D@std@@@std@@@0@ABVlocale@0@@Z ; std::use_facet<std::num_put<char,std::ostreambuf_iterator<char,std::char_traits<char> > > >
PUBLIC	??$use_facet@V?$numpunct@G@std@@@std@@YAABV?$numpunct@G@0@ABVlocale@0@@Z ; std::use_facet<std::numpunct<unsigned short> >
PUBLIC	??$use_facet@V?$numpunct@D@std@@@std@@YAABV?$numpunct@D@0@ABVlocale@0@@Z ; std::use_facet<std::numpunct<char> >
PUBLIC	??$_Maklocchr@D@std@@YADDPADABU_Cvtvec@@@Z	; std::_Maklocchr<char>
PUBLIC	??$_Allocate@G@std@@YAPAGIPAG@Z			; std::_Allocate<unsigned short>
PUBLIC	?sputn@?$basic_streambuf@GU?$char_traits@G@std@@@std@@QAEHPBGH@Z ; std::basic_streambuf<unsigned short,std::char_traits<unsigned short> >::sputn
PUBLIC	?fill@?$basic_ios@DU?$char_traits@D@std@@@std@@QAEDD@Z ; std::basic_ios<char,std::char_traits<char> >::fill
PUBLIC	?sputn@?$basic_streambuf@DU?$char_traits@D@std@@@std@@QAEHPBDH@Z ; std::basic_streambuf<char,std::char_traits<char> >::sputn
PUBLIC	??0?$_Fillobj@D@std@@QAE@D@Z			; std::_Fillobj<char>::_Fillobj<char>
PUBLIC	?_Getcat@?$num_put@GV?$ostreambuf_iterator@GU?$char_traits@G@std@@@std@@@std@@SAIPAPBVfacet@locale@2@@Z ; std::num_put<unsigned short,std::ostreambuf_iterator<unsigned short,std::char_traits<unsigned short> > >::_Getcat
PUBLIC	?_Getcat@?$num_put@DV?$ostreambuf_iterator@DU?$char_traits@D@std@@@std@@@std@@SAIPAPBVfacet@locale@2@@Z ; std::num_put<char,std::ostreambuf_iterator<char,std::char_traits<char> > >::_Getcat
PUBLIC	?_Getcat@?$numpunct@G@std@@SAIPAPBVfacet@locale@2@@Z ; std::numpunct<unsigned short>::_Getcat
PUBLIC	?_Getcat@?$numpunct@D@std@@SAIPAPBVfacet@locale@2@@Z ; std::numpunct<char>::_Getcat
PUBLIC	??0?$num_put@GV?$ostreambuf_iterator@GU?$char_traits@G@std@@@std@@@std@@QAE@I@Z ; std::num_put<unsigned short,std::ostreambuf_iterator<unsigned short,std::char_traits<unsigned short> > >::num_put<unsigned short,std::ostreambuf_iterator<unsigned short,std::char_traits<unsigned short> > >
PUBLIC	??0?$num_put@DV?$ostreambuf_iterator@DU?$char_traits@D@std@@@std@@@std@@QAE@I@Z ; std::num_put<char,std::ostreambuf_iterator<char,std::char_traits<char> > >::num_put<char,std::ostreambuf_iterator<char,std::char_traits<char> > >
PUBLIC	??0?$numpunct@G@std@@QAE@I@Z			; std::numpunct<unsigned short>::numpunct<unsigned short>
PUBLIC	??0?$numpunct@D@std@@QAE@I@Z			; std::numpunct<char>::numpunct<char>
PUBLIC	?_Init@?$num_put@GV?$ostreambuf_iterator@GU?$char_traits@G@std@@@std@@@std@@IAEXABV_Locinfo@2@@Z ; std::num_put<unsigned short,std::ostreambuf_iterator<unsigned short,std::char_traits<unsigned short> > >::_Init
PUBLIC	?_Init@?$num_put@DV?$ostreambuf_iterator@DU?$char_traits@D@std@@@std@@@std@@IAEXABV_Locinfo@2@@Z ; std::num_put<char,std::ostreambuf_iterator<char,std::char_traits<char> > >::_Init
PUBLIC	?_Init@?$numpunct@G@std@@IAEXABV_Locinfo@2@@Z	; std::numpunct<unsigned short>::_Init
PUBLIC	?_Init@?$numpunct@D@std@@IAEXABV_Locinfo@2@@Z	; std::numpunct<char>::_Init
PUBLIC	??$_Maklocstr@D@std@@YAPADPBDPADABU_Cvtvec@@@Z	; std::_Maklocstr<char>
PUBLIC	?_Gettrue@_Locinfo@std@@QBEPBDXZ		; std::_Locinfo::_Gettrue
PUBLIC	??_C@_04LOAJBDKD@true?$AA@			; `string'
PUBLIC	?_Getfalse@_Locinfo@std@@QBEPBDXZ		; std::_Locinfo::_Getfalse
PUBLIC	??_C@_05LAPONLG@false?$AA@			; `string'
PUBLIC	??$_Maklocstr@G@std@@YAPAGPBDPAGABU_Cvtvec@@@Z	; std::_Maklocstr<unsigned short>
PUBLIC	?_Getlconv@_Locinfo@std@@QBEPBUlconv@@XZ	; std::_Locinfo::_Getlconv
PUBLIC	?_Getcvt@_Locinfo@std@@QBE?AU_Cvtvec@@XZ	; std::_Locinfo::_Getcvt
PUBLIC	??0facet@locale@std@@IAE@I@Z			; std::locale::facet::facet
PUBLIC	??_7facet@locale@std@@6B@			; std::locale::facet::`vftable'
PUBLIC	??_Gfacet@locale@std@@UAEPAXI@Z			; std::locale::facet::`scalar deleting destructor'
PUBLIC	?_Psave@?$_Facetptr@V?$numpunct@D@std@@@std@@2PBVfacet@locale@2@B ; std::_Facetptr<std::numpunct<char> >::_Psave
PUBLIC	?_Psave@?$_Facetptr@V?$numpunct@G@std@@@std@@2PBVfacet@locale@2@B ; std::_Facetptr<std::numpunct<unsigned short> >::_Psave
PUBLIC	?_Psave@?$_Facetptr@V?$num_put@DV?$ostreambuf_iterator@DU?$char_traits@D@std@@@std@@@std@@@std@@2PBVfacet@locale@2@B ; std::_Facetptr<std::num_put<char,std::ostreambuf_iterator<char,std::char_traits<char> > > >::_Psave
PUBLIC	?_Incref@facet@locale@std@@QAEXXZ		; std::locale::facet::_Incref
PUBLIC	__TI2?AVbad_cast@@
PUBLIC	__CTA2?AVbad_cast@@
PUBLIC	__CT??_R0?AVbad_cast@@@8??0bad_cast@@QAE@ABV0@@Z12
PUBLIC	??_R0?AVbad_cast@@@8				; bad_cast `RTTI Type Descriptor'
PUBLIC	__CT??_R0?AVexception@@@8??0exception@@QAE@ABV0@@Z12
PUBLIC	??_R0?AVexception@@@8				; exception `RTTI Type Descriptor'
PUBLIC	??_C@_08EPJLHIJG@bad?5cast?$AA@			; `string'
PUBLIC	??Bid@locale@std@@QAEIXZ			; std::locale::id::operator unsigned int
PUBLIC	?_Psave@?$_Facetptr@V?$num_put@GV?$ostreambuf_iterator@GU?$char_traits@G@std@@@std@@@std@@@std@@2PBVfacet@locale@2@B ; std::_Facetptr<std::num_put<unsigned short,std::ostreambuf_iterator<unsigned short,std::char_traits<unsigned short> > > >::_Psave
PUBLIC	?length@?$char_traits@D@std@@SAIPBD@Z		; std::char_traits<char>::length
PUBLIC	??0id@locale@std@@QAE@I@Z			; std::locale::id::id
PUBLIC	?assign@?$char_traits@G@std@@SAXAAGABG@Z	; std::char_traits<unsigned short>::assign
PUBLIC	?move@?$char_traits@G@std@@SAPAGPAGPBGI@Z	; std::char_traits<unsigned short>::move
PUBLIC	_wmemmove
PUBLIC	?length@?$char_traits@G@std@@SAIPBG@Z		; std::char_traits<unsigned short>::length
PUBLIC	?_Myptr@?$basic_string@DU?$char_traits@D@std@@V?$allocator@D@2@@std@@QBEPBDXZ ; std::basic_string<char,std::char_traits<char>,std::allocator<char> >::_Myptr
PUBLIC	?copy@?$char_traits@G@std@@SAPAGPAGPBGI@Z	; std::char_traits<unsigned short>::copy
PUBLIC	_wmemcpy
PUBLIC	?eof@?$char_traits@D@std@@SAHXZ			; std::char_traits<char>::eof
PUBLIC	?sputc@?$basic_streambuf@DU?$char_traits@D@std@@@std@@QAEHD@Z ; std::basic_streambuf<char,std::char_traits<char> >::sputc
PUBLIC	?pptr@?$basic_streambuf@DU?$char_traits@D@std@@@std@@IBEPADXZ ; std::basic_streambuf<char,std::char_traits<char> >::pptr
PUBLIC	?epptr@?$basic_streambuf@DU?$char_traits@D@std@@@std@@IBEPADXZ ; std::basic_streambuf<char,std::char_traits<char> >::epptr
PUBLIC	?_Pninc@?$basic_streambuf@DU?$char_traits@D@std@@@std@@IAEPADXZ ; std::basic_streambuf<char,std::char_traits<char> >::_Pninc
PUBLIC	?to_int_type@?$char_traits@D@std@@SAHABD@Z	; std::char_traits<char>::to_int_type
PUBLIC	?eq_int_type@?$char_traits@D@std@@SA_NABH0@Z	; std::char_traits<char>::eq_int_type
PUBLIC	?eof@?$char_traits@G@std@@SAGXZ			; std::char_traits<unsigned short>::eof
PUBLIC	?sputc@?$basic_streambuf@GU?$char_traits@G@std@@@std@@QAEGG@Z ; std::basic_streambuf<unsigned short,std::char_traits<unsigned short> >::sputc
PUBLIC	?pptr@?$basic_streambuf@GU?$char_traits@G@std@@@std@@IBEPAGXZ ; std::basic_streambuf<unsigned short,std::char_traits<unsigned short> >::pptr
PUBLIC	?epptr@?$basic_streambuf@GU?$char_traits@G@std@@@std@@IBEPAGXZ ; std::basic_streambuf<unsigned short,std::char_traits<unsigned short> >::epptr
PUBLIC	?_Pninc@?$basic_streambuf@GU?$char_traits@G@std@@@std@@IAEPAGXZ ; std::basic_streambuf<unsigned short,std::char_traits<unsigned short> >::_Pninc
PUBLIC	?to_int_type@?$char_traits@G@std@@SAGABG@Z	; std::char_traits<unsigned short>::to_int_type
PUBLIC	?eq_int_type@?$char_traits@G@std@@SA_NABG0@Z	; std::char_traits<unsigned short>::eq_int_type
PUBLIC	?assign@?$char_traits@D@std@@SAPADPADID@Z	; std::char_traits<char>::assign
PUBLIC	?move@?$char_traits@D@std@@SAPADPADPBDI@Z	; std::char_traits<char>::move
PUBLIC	?_Eos@?$basic_string@DU?$char_traits@D@std@@V?$allocator@D@2@@std@@IAEXI@Z ; std::basic_string<char,std::char_traits<char>,std::allocator<char> >::_Eos
PUBLIC	?assign@?$char_traits@D@std@@SAXAADABD@Z	; std::char_traits<char>::assign
PUBLIC	?copy@?$char_traits@D@std@@SAPADPADPBDI@Z	; std::char_traits<char>::copy
PUBLIC	?_Grow@?$basic_string@DU?$char_traits@D@std@@V?$allocator@D@2@@std@@IAE_NI_N@Z ; std::basic_string<char,std::char_traits<char>,std::allocator<char> >::_Grow
PUBLIC	?max_size@?$basic_string@DU?$char_traits@D@std@@V?$allocator@D@2@@std@@QBEIXZ ; std::basic_string<char,std::char_traits<char>,std::allocator<char> >::max_size
PUBLIC	?max_size@?$allocator@D@std@@QBEIXZ		; std::allocator<char>::max_size
PUBLIC	?_Copy@?$basic_string@DU?$char_traits@D@std@@V?$allocator@D@2@@std@@IAEXII@Z ; std::basic_string<char,std::char_traits<char>,std::allocator<char> >::_Copy
PUBLIC	?allocate@?$allocator@D@std@@QAEPADI@Z		; std::allocator<char>::allocate
PUBLIC	??$_Allocate@D@std@@YAPADIPAD@Z			; std::_Allocate<char>
PUBLIC	?_Myptr@?$basic_string@DU?$char_traits@D@std@@V?$allocator@D@2@@std@@QAEPADXZ ; std::basic_string<char,std::char_traits<char>,std::allocator<char> >::_Myptr
PUBLIC	?_Inside@?$basic_string@DU?$char_traits@D@std@@V?$allocator@D@2@@std@@IAE_NPBD@Z ; std::basic_string<char,std::char_traits<char>,std::allocator<char> >::_Inside
PUBLIC	?assign@?$basic_string@DU?$char_traits@D@std@@V?$allocator@D@2@@std@@QAEAAV12@PBD@Z ; std::basic_string<char,std::char_traits<char>,std::allocator<char> >::assign
PUBLIC	?assign@?$basic_string@DU?$char_traits@D@std@@V?$allocator@D@2@@std@@QAEAAV12@PBDI@Z ; std::basic_string<char,std::char_traits<char>,std::allocator<char> >::assign
PUBLIC	?_Tidy@?$basic_string@DU?$char_traits@D@std@@V?$allocator@D@2@@std@@IAEX_NI@Z ; std::basic_string<char,std::char_traits<char>,std::allocator<char> >::_Tidy
PUBLIC	?deallocate@?$allocator@D@std@@QAEXPADI@Z	; std::allocator<char>::deallocate
PUBLIC	??0?$allocator@D@std@@QAE@XZ			; std::allocator<char>::allocator<char>
PUBLIC	??0?$_String_val@DV?$allocator@D@std@@@std@@IAE@V?$allocator@D@1@@Z ; std::_String_val<char,std::allocator<char> >::_String_val<char,std::allocator<char> >
PUBLIC	??0?$allocator@D@std@@QAE@ABV01@@Z		; std::allocator<char>::allocator<char>
PUBLIC	??_7?$numpunct@D@std@@6B@			; std::numpunct<char>::`vftable'
PUBLIC	??_7?$numpunct@G@std@@6B@			; std::numpunct<unsigned short>::`vftable'
PUBLIC	?npos@?$basic_string@GU?$char_traits@G@std@@V?$allocator@G@2@@std@@2IB ; std::basic_string<unsigned short,std::char_traits<unsigned short>,std::allocator<unsigned short> >::npos
PUBLIC	??A?$basic_string@DU?$char_traits@D@std@@V?$allocator@D@2@@std@@QAEAADI@Z ; std::basic_string<char,std::char_traits<char>,std::allocator<char> >::operator[]
PUBLIC	?append@?$basic_string@DU?$char_traits@D@std@@V?$allocator@D@2@@std@@QAEAAV12@ID@Z ; std::basic_string<char,std::char_traits<char>,std::allocator<char> >::append
PUBLIC	?npos@?$basic_string@DU?$char_traits@D@std@@V?$allocator@D@2@@std@@2IB ; std::basic_string<char,std::char_traits<char>,std::allocator<char> >::npos
PUBLIC	??$_Maklocchr@G@std@@YAGDPAGABU_Cvtvec@@@Z	; std::_Maklocchr<unsigned short>
PUBLIC	?assign@?$basic_string@DU?$char_traits@D@std@@V?$allocator@D@2@@std@@QAEAAV12@ABV12@II@Z ; std::basic_string<char,std::char_traits<char>,std::allocator<char> >::assign
PUBLIC	?erase@?$basic_string@DU?$char_traits@D@std@@V?$allocator@D@2@@std@@QAEAAV12@II@Z ; std::basic_string<char,std::char_traits<char>,std::allocator<char> >::erase
PUBLIC	?size@?$basic_string@DU?$char_traits@D@std@@V?$allocator@D@2@@std@@QBEIXZ ; std::basic_string<char,std::char_traits<char>,std::allocator<char> >::size
PUBLIC	??0?$basic_string@DU?$char_traits@D@std@@V?$allocator@D@2@@std@@QAE@XZ ; std::basic_string<char,std::char_traits<char>,std::allocator<char> >::basic_string<char,std::char_traits<char>,std::allocator<char> >
PUBLIC	??_7?$num_put@DV?$ostreambuf_iterator@DU?$char_traits@D@std@@@std@@@std@@6B@ ; std::num_put<char,std::ostreambuf_iterator<char,std::char_traits<char> > >::`vftable'
PUBLIC	?precision@ios_base@std@@QBEHXZ			; std::ios_base::precision
PUBLIC	?width@ios_base@std@@QAEHH@Z			; std::ios_base::width
PUBLIC	?width@ios_base@std@@QBEHXZ			; std::ios_base::width
PUBLIC	??1facet@locale@std@@UAE@XZ			; std::locale::facet::~facet
PUBLIC	??_7?$num_put@GV?$ostreambuf_iterator@GU?$char_traits@G@std@@@std@@@std@@6B@ ; std::num_put<unsigned short,std::ostreambuf_iterator<unsigned short,std::char_traits<unsigned short> > >::`vftable'
PUBLIC	??_C@_01GFHCPBMG@C?$AA@				; `string'
PUBLIC	?setstate@?$basic_ios@DU?$char_traits@D@std@@@std@@QAEXH_N@Z ; std::basic_ios<char,std::char_traits<char> >::setstate
PUBLIC	?clear@?$basic_ios@DU?$char_traits@D@std@@@std@@QAEXH_N@Z ; std::basic_ios<char,std::char_traits<char> >::clear
PUBLIC	?rdstate@ios_base@std@@QBEHXZ			; std::ios_base::rdstate
PUBLIC	?rdbuf@?$basic_ios@DU?$char_traits@D@std@@@std@@QBEPAV?$basic_streambuf@DU?$char_traits@D@std@@@2@XZ ; std::basic_ios<char,std::char_traits<char> >::rdbuf
PUBLIC	??Bsentry@?$basic_ostream@DU?$char_traits@D@std@@@std@@QBE_NXZ ; std::basic_ostream<char,std::char_traits<char> >::sentry::operator bool
PUBLIC	??1sentry@?$basic_ostream@DU?$char_traits@D@std@@@std@@QAE@XZ ; std::basic_ostream<char,std::char_traits<char> >::sentry::~sentry
PUBLIC	??1_Sentry_base@?$basic_ostream@DU?$char_traits@D@std@@@std@@QAE@XZ ; std::basic_ostream<char,std::char_traits<char> >::_Sentry_base::~_Sentry_base
PUBLIC	?_Unlock@?$basic_streambuf@DU?$char_traits@D@std@@@std@@QAEXXZ ; std::basic_streambuf<char,std::char_traits<char> >::_Unlock
PUBLIC	?_Osfx@?$basic_ostream@DU?$char_traits@D@std@@@std@@QAEXXZ ; std::basic_ostream<char,std::char_traits<char> >::_Osfx
PUBLIC	?flush@?$basic_ostream@DU?$char_traits@D@std@@@std@@QAEAAV12@XZ ; std::basic_ostream<char,std::char_traits<char> >::flush
PUBLIC	?fail@ios_base@std@@QBE_NXZ			; std::ios_base::fail
PUBLIC	?pubsync@?$basic_streambuf@DU?$char_traits@D@std@@@std@@QAEHXZ ; std::basic_streambuf<char,std::char_traits<char> >::pubsync
PUBLIC	??0sentry@?$basic_ostream@DU?$char_traits@D@std@@@std@@QAE@AAV12@@Z ; std::basic_ostream<char,std::char_traits<char> >::sentry::sentry
PUBLIC	??0_Sentry_base@?$basic_ostream@DU?$char_traits@D@std@@@std@@QAE@AAV12@@Z ; std::basic_ostream<char,std::char_traits<char> >::_Sentry_base::_Sentry_base
PUBLIC	?_Lock@?$basic_streambuf@DU?$char_traits@D@std@@@std@@QAEXXZ ; std::basic_streambuf<char,std::char_traits<char> >::_Lock
PUBLIC	?tie@?$basic_ios@DU?$char_traits@D@std@@@std@@QBEPAV?$basic_ostream@DU?$char_traits@D@std@@@2@XZ ; std::basic_ios<char,std::char_traits<char> >::tie
PUBLIC	?good@ios_base@std@@QBE_NXZ			; std::ios_base::good
PUBLIC	?setstate@?$basic_ios@GU?$char_traits@G@std@@@std@@QAEXH_N@Z ; std::basic_ios<unsigned short,std::char_traits<unsigned short> >::setstate
PUBLIC	?clear@?$basic_ios@GU?$char_traits@G@std@@@std@@QAEXH_N@Z ; std::basic_ios<unsigned short,std::char_traits<unsigned short> >::clear
PUBLIC	?rdbuf@?$basic_ios@GU?$char_traits@G@std@@@std@@QBEPAV?$basic_streambuf@GU?$char_traits@G@std@@@2@XZ ; std::basic_ios<unsigned short,std::char_traits<unsigned short> >::rdbuf
PUBLIC	?fill@?$basic_ios@GU?$char_traits@G@std@@@std@@QBEGXZ ; std::basic_ios<unsigned short,std::char_traits<unsigned short> >::fill
PUBLIC	?flags@ios_base@std@@QBEHXZ			; std::ios_base::flags
PUBLIC	?getloc@ios_base@std@@QBE?AVlocale@2@XZ		; std::ios_base::getloc
PUBLIC	??0locale@std@@QAE@ABV01@@Z			; std::locale::locale
PUBLIC	??Bsentry@?$basic_ostream@GU?$char_traits@G@std@@@std@@QBE_NXZ ; std::basic_ostream<unsigned short,std::char_traits<unsigned short> >::sentry::operator bool
PUBLIC	??1sentry@?$basic_ostream@GU?$char_traits@G@std@@@std@@QAE@XZ ; std::basic_ostream<unsigned short,std::char_traits<unsigned short> >::sentry::~sentry
PUBLIC	??1_Sentry_base@?$basic_ostream@GU?$char_traits@G@std@@@std@@QAE@XZ ; std::basic_ostream<unsigned short,std::char_traits<unsigned short> >::_Sentry_base::~_Sentry_base
PUBLIC	?_Unlock@?$basic_streambuf@GU?$char_traits@G@std@@@std@@QAEXXZ ; std::basic_streambuf<unsigned short,std::char_traits<unsigned short> >::_Unlock
PUBLIC	?_Osfx@?$basic_ostream@GU?$char_traits@G@std@@@std@@QAEXXZ ; std::basic_ostream<unsigned short,std::char_traits<unsigned short> >::_Osfx
PUBLIC	?flush@?$basic_ostream@GU?$char_traits@G@std@@@std@@QAEAAV12@XZ ; std::basic_ostream<unsigned short,std::char_traits<unsigned short> >::flush
PUBLIC	?pubsync@?$basic_streambuf@GU?$char_traits@G@std@@@std@@QAEHXZ ; std::basic_streambuf<unsigned short,std::char_traits<unsigned short> >::pubsync
PUBLIC	??0sentry@?$basic_ostream@GU?$char_traits@G@std@@@std@@QAE@AAV12@@Z ; std::basic_ostream<unsigned short,std::char_traits<unsigned short> >::sentry::sentry
PUBLIC	??0_Sentry_base@?$basic_ostream@GU?$char_traits@G@std@@@std@@QAE@AAV12@@Z ; std::basic_ostream<unsigned short,std::char_traits<unsigned short> >::_Sentry_base::_Sentry_base
PUBLIC	?_Lock@?$basic_streambuf@GU?$char_traits@G@std@@@std@@QAEXXZ ; std::basic_streambuf<unsigned short,std::char_traits<unsigned short> >::_Lock
PUBLIC	?tie@?$basic_ios@GU?$char_traits@G@std@@@std@@QBEPAV?$basic_ostream@GU?$char_traits@G@std@@@2@XZ ; std::basic_ios<unsigned short,std::char_traits<unsigned short> >::tie
PUBLIC	?endl@std@@YAAAV?$basic_ostream@DU?$char_traits@D@std@@@1@AAV21@@Z ; std::endl
PUBLIC	?put@?$basic_ostream@DU?$char_traits@D@std@@@std@@QAEAAV12@D@Z ; std::basic_ostream<char,std::char_traits<char> >::put
PUBLIC	??1?$basic_string@DU?$char_traits@D@std@@V?$allocator@D@2@@std@@QAE@XZ ; std::basic_string<char,std::char_traits<char>,std::allocator<char> >::~basic_string<char,std::char_traits<char>,std::allocator<char> >
PUBLIC	??0?$basic_string@DU?$char_traits@D@std@@V?$allocator@D@2@@std@@QAE@ABV01@@Z ; std::basic_string<char,std::char_traits<char>,std::allocator<char> >::basic_string<char,std::char_traits<char>,std::allocator<char> >
PUBLIC	?c_str@?$basic_string@DU?$char_traits@D@std@@V?$allocator@D@2@@std@@QBEPBDXZ ; std::basic_string<char,std::char_traits<char>,std::allocator<char> >::c_str
PUBLIC	?endl@std@@YAAAV?$basic_ostream@GU?$char_traits@G@std@@@1@AAV21@@Z ; std::endl
PUBLIC	?put@?$basic_ostream@GU?$char_traits@G@std@@@std@@QAEAAV12@G@Z ; std::basic_ostream<unsigned short,std::char_traits<unsigned short> >::put
PUBLIC	??1locale@std@@QAE@XZ				; std::locale::~locale
PUBLIC	?_Decref@facet@locale@std@@QAEPAV123@XZ		; std::locale::facet::_Decref
PUBLIC	__CTA1H
PUBLIC	__CT??_R0H@84
PUBLIC	??_R0H@8					; int `RTTI Type Descriptor'
PUBLIC	__TI1H
PUBLIC	?cOptionSW@@3PAVOPSW@@A				; cOptionSW
EXTRN	??_E?$num_put@GV?$ostreambuf_iterator@GU?$char_traits@G@std@@@std@@@std@@MAEPAXI@Z:NEAR ; std::num_put<unsigned short,std::ostreambuf_iterator<unsigned short,std::char_traits<unsigned short> > >::`vector deleting destructor'
EXTRN	??_E?$num_put@DV?$ostreambuf_iterator@DU?$char_traits@D@std@@@std@@@std@@MAEPAXI@Z:NEAR ; std::num_put<char,std::ostreambuf_iterator<char,std::char_traits<char> > >::`vector deleting destructor'
EXTRN	??_E?$numpunct@G@std@@MAEPAXI@Z:NEAR		; std::numpunct<unsigned short>::`vector deleting destructor'
EXTRN	??_E?$numpunct@D@std@@MAEPAXI@Z:NEAR		; std::numpunct<char>::`vector deleting destructor'
EXTRN	??_U@YAPAXI@Z:NEAR				; operator new[]
EXTRN	__Mbrtowc:NEAR
EXTRN	__Getcvt:NEAR
EXTRN	??_Efacet@locale@std@@UAEPAXI@Z:NEAR		; std::locale::facet::`vector deleting destructor'
EXTRN	?_Register@facet@locale@std@@QAEXXZ:NEAR	; std::locale::facet::_Register
EXTRN	??1bad_cast@@UAE@XZ:NEAR			; bad_cast::~bad_cast
EXTRN	??0bad_cast@@QAE@ABV0@@Z:NEAR			; bad_cast::bad_cast
EXTRN	??0exception@@QAE@ABV0@@Z:NEAR			; exception::exception
EXTRN	??0bad_cast@@QAE@PBD@Z:NEAR			; bad_cast::bad_cast
EXTRN	?_Getfacet@locale@std@@QBEPBVfacet@12@I@Z:NEAR	; std::locale::_Getfacet
EXTRN	?_Id_cnt@id@locale@std@@0HA:DWORD		; std::locale::id::_Id_cnt
EXTRN	??1_Lockit@std@@QAE@XZ:NEAR			; std::_Lockit::~_Lockit
EXTRN	??0_Lockit@std@@QAE@H@Z:NEAR			; std::_Lockit::_Lockit
EXTRN	_wcslen:NEAR
EXTRN	??_V@YAXPAX@Z:NEAR				; operator delete[]
EXTRN	?_Xran@_String_base@std@@QBEXXZ:NEAR		; std::_String_base::_Xran
EXTRN	?_Xlen@_String_base@std@@QBEXXZ:NEAR		; std::_String_base::_Xlen
EXTRN	_memmove:NEAR
EXTRN	_strcspn:NEAR
EXTRN	_memchr:NEAR
EXTRN	_localeconv:NEAR
EXTRN	_sprintf:NEAR
EXTRN	??1_Locinfo@std@@QAE@XZ:NEAR			; std::_Locinfo::~_Locinfo
EXTRN	??0_Locinfo@std@@QAE@PBD@Z:NEAR			; std::_Locinfo::_Locinfo
EXTRN	?clear@ios_base@std@@QAEXH_N@Z:NEAR		; std::ios_base::clear
EXTRN	?_Unlock@_Mutex@std@@QAEXXZ:NEAR		; std::_Mutex::_Unlock
EXTRN	?uncaught_exception@std@@YA_NXZ:NEAR		; std::uncaught_exception
EXTRN	?_Lock@_Mutex@std@@QAEXXZ:NEAR			; std::_Mutex::_Lock
EXTRN	?cout@std@@3V?$basic_ostream@DU?$char_traits@D@std@@@1@A:BYTE ; std::cout
EXTRN	?setw@std@@YA?AU?$_Smanip@H@1@H@Z:NEAR		; std::setw
EXTRN	??3@YAXPAX@Z:NEAR				; operator delete
EXTRN	??2@YAPAXI@Z:NEAR				; operator new
EXTRN	?wcout@std@@3V?$basic_ostream@GU?$char_traits@G@std@@@1@A:BYTE ; std::wcout
EXTRN	??0locale@std@@QAE@PBDH@Z:NEAR			; std::locale::locale
EXTRN	?global@locale@std@@SA?AV12@ABV12@@Z:NEAR	; std::locale::global
EXTRN	??_7type_info@@6B@:DWORD			; type_info::`vftable'
;	COMDAT ?_Psave@?$_Facetptr@V?$numpunct@D@std@@@std@@2PBVfacet@locale@2@B
_BSS	SEGMENT
?_Psave@?$_Facetptr@V?$numpunct@D@std@@@std@@2PBVfacet@locale@2@B DD 01H DUP (?) ; std::_Facetptr<std::numpunct<char> >::_Psave
_BSS	ENDS
;	COMDAT ?_Psave@?$_Facetptr@V?$numpunct@G@std@@@std@@2PBVfacet@locale@2@B
_BSS	SEGMENT
?_Psave@?$_Facetptr@V?$numpunct@G@std@@@std@@2PBVfacet@locale@2@B DD 01H DUP (?) ; std::_Facetptr<std::numpunct<unsigned short> >::_Psave
_BSS	ENDS
;	COMDAT ?_Psave@?$_Facetptr@V?$num_put@DV?$ostreambuf_iterator@DU?$char_traits@D@std@@@std@@@std@@@std@@2PBVfacet@locale@2@B
_BSS	SEGMENT
?_Psave@?$_Facetptr@V?$num_put@DV?$ostreambuf_iterator@DU?$char_traits@D@std@@@std@@@std@@@std@@2PBVfacet@locale@2@B DD 01H DUP (?) ; std::_Facetptr<std::num_put<char,std::ostreambuf_iterator<char,std::char_traits<char> > > >::_Psave
_BSS	ENDS
;	COMDAT ?_Psave@?$_Facetptr@V?$num_put@GV?$ostreambuf_iterator@GU?$char_traits@G@std@@@std@@@std@@@std@@2PBVfacet@locale@2@B
_BSS	SEGMENT
?_Psave@?$_Facetptr@V?$num_put@GV?$ostreambuf_iterator@GU?$char_traits@G@std@@@std@@@std@@@std@@2PBVfacet@locale@2@B DD 01H DUP (?) ; std::_Facetptr<std::num_put<unsigned short,std::ostreambuf_iterator<unsigned short,std::char_traits<unsigned short> > > >::_Psave
?cOptionSW@@3PAVOPSW@@A DD 01H DUP (?)			; cOptionSW
;	COMDAT ??_R0H@8
_DATA	SEGMENT
??_R0H@8 DD	FLAT:??_7type_info@@6B@			; int `RTTI Type Descriptor'
	DD	00H
	DB	'.H', 00H
_DATA	ENDS
;	COMDAT __CT??_R0H@84
xdata$x	SEGMENT
__CT??_R0H@84 DD 01H
	DD	FLAT:??_R0H@8
	DD	00H
	DD	0ffffffffH
	ORG $+4
	DD	04H
	DD	00H
xdata$x	ENDS
;	COMDAT __CTA1H
xdata$x	SEGMENT
__CTA1H	DD	01H
	DD	FLAT:__CT??_R0H@84
xdata$x	ENDS
;	COMDAT __TI1H
xdata$x	SEGMENT
__TI1H	DD	00H
	DD	00H
	DD	00H
	DD	FLAT:__CTA1H
xdata$x	ENDS
;	COMDAT ??_C@_00CNPNBAHC@?$AA@
CONST	SEGMENT
??_C@_00CNPNBAHC@?$AA@ DB 00H				; `string'
CONST	ENDS
;	COMDAT ??_C@_1NK@KENGHJLD@?$AAM?$AAM?$AAL?$AA?5?$AAC?$AAo?$AAm?$AAp?$AAi?$AAl?$AAe?$AAr?$AA?5?$AAf?$AAo?$AAr?$AA?5?$AAN?$AAE?$AAS@
CONST	SEGMENT
??_C@_1NK@KENGHJLD@?$AAM?$AAM?$AAL?$AA?5?$AAC?$AAo?$AAm?$AAp?$AAi?$AAl?$AAe?$AAr?$AA?5?$AAf?$AAo?$AAr?$AA?5?$AAN?$AAE?$AAS@ DB 'M'
	DB	00H, 'M', 00H, 'L', 00H, ' ', 00H, 'C', 00H, 'o', 00H, 'm', 00H
	DB	'p', 00H, 'i', 00H, 'l', 00H, 'e', 00H, 'r', 00H, ' ', 00H, 'f'
	DB	00H, 'o', 00H, 'r', 00H, ' ', 00H, 'N', 00H, 'E', 00H, 'S', 00H
	DB	' ', 00H, 'S', 00H, 'o', 00H, 'u', 00H, 'n', 00H, 'd', 00H, ' '
	DB	00H, 'D', 00H, 'r', 00H, 'i', 00H, 'v', 00H, 'e', 00H, 'r', 00H
	DB	' ', 00H, '&', 00H, ' ', 00H, 'L', 00H, 'i', 00H, 'b', 00H, 'r'
	DB	00H, 'a', 00H, 'r', 00H, 'y', 00H, ' ', 00H, '(', 00H, 'N', 00H
	DB	'S', 00H, 'D', 00H, '.', 00H, 'L', 00H, 'i', 00H, 'b', 00H, ')'
	DB	00H, 0aH, 00H, ' ', 00H, ' ', 00H, ' ', 00H, ' ', 00H, 'V', 00H
	DB	'e', 00H, 'r', 00H, 's', 00H, 'i', 00H, 'o', 00H, 'n', 00H, ' '
	DB	00H, '1', 00H, '.', 00H, '2', 00H, '8', 00H, 0aH, 00H, ' ', 00H
	DB	' ', 00H, ' ', 00H, ' ', 00H, ' ', 00H, ' ', 00H, ' ', 00H, ' '
	DB	00H, 'C', 00H, 'o', 00H, 'p', 00H, 'y', 00H, 'r', 00H, 'i', 00H
	DB	'g', 00H, 'h', 00H, 't', 00H, ' ', 00H, '(', 00H, 'c', 00H, ')'
	DB	00H, ' ', 00H, '2', 00H, '0', 00H, '1', 00H, '2', 00H, '-', 00H
	DB	'2', 00H, '0', 00H, '1', 00H, '8', 00H, ' ', 00H, 'S', 00H, '.'
	DB	00H, 'W', 00H, '.', 00H, 0aH, 00H, 00H, 00H	; `string'
CONST	ENDS
;	COMDAT ??_C@_1HK@PLEACAAO@?$AA?9?$AA?9?$AA?9?$AA?9?$AA?9?$AA?9?$AA?9?$AA?9?$AA?9?$AA?9?$AA?9?$AA?9?$AA?9?$AA?9?$AA?9?$AA?9?$AA?9?$AA?9?$AA?9?$AA?9@
CONST	SEGMENT
??_C@_1HK@PLEACAAO@?$AA?9?$AA?9?$AA?9?$AA?9?$AA?9?$AA?9?$AA?9?$AA?9?$AA?9?$AA?9?$AA?9?$AA?9?$AA?9?$AA?9?$AA?9?$AA?9?$AA?9?$AA?9?$AA?9?$AA?9@ DB '-'
	DB	00H, '-', 00H, '-', 00H, '-', 00H, '-', 00H, '-', 00H, '-', 00H
	DB	'-', 00H, '-', 00H, '-', 00H, '-', 00H, '-', 00H, '-', 00H, '-'
	DB	00H, '-', 00H, '-', 00H, '-', 00H, '-', 00H, '-', 00H, '-', 00H
	DB	'-', 00H, '-', 00H, '-', 00H, '-', 00H, '-', 00H, '-', 00H, '-'
	DB	00H, '-', 00H, '-', 00H, '-', 00H, '-', 00H, '-', 00H, '-', 00H
	DB	'-', 00H, '-', 00H, '-', 00H, '-', 00H, '-', 00H, '-', 00H, '-'
	DB	00H, '-', 00H, '-', 00H, '-', 00H, '-', 00H, '-', 00H, '-', 00H
	DB	'-', 00H, '-', 00H, '-', 00H, '-', 00H, '-', 00H, '-', 00H, '-'
	DB	00H, '-', 00H, '-', 00H, '-', 00H, '-', 00H, '-', 00H, '-', 00H
	DB	'-', 00H, 00H, 00H				; `string'
CONST	ENDS
;	COMDAT ??_C@_1DC@NFNOFJGE@?$AA?$CK?$AAO?$AAb?$AAj?$AAe?$AAc?$AAt?$AA?5?$AAc?$AAr?$AAe?$AAa?$AAt?$AAi?$AAn?$AAg?$AA?5?$AAp?$AAr?$AAo@
CONST	SEGMENT
??_C@_1DC@NFNOFJGE@?$AA?$CK?$AAO?$AAb?$AAj?$AAe?$AAc?$AAt?$AA?5?$AAc?$AAr?$AAe?$AAa?$AAt?$AAi?$AAn?$AAg?$AA?5?$AAp?$AAr?$AAo@ DB '*'
	DB	00H, 'O', 00H, 'b', 00H, 'j', 00H, 'e', 00H, 'c', 00H, 't', 00H
	DB	' ', 00H, 'c', 00H, 'r', 00H, 'e', 00H, 'a', 00H, 't', 00H, 'i'
	DB	00H, 'n', 00H, 'g', 00H, ' ', 00H, 'p', 00H, 'r', 00H, 'o', 00H
	DB	'c', 00H, 'e', 00H, 's', 00H, 's', 00H, 00H, 00H ; `string'
CONST	ENDS
;	COMDAT ??_C@_1CI@BGPJBPBK@?$AA?$DN?$AA?$DN?$AA?$DN?$AA?$DN?$AA?5?$AA?$FL?$AA?5?$AAM?$AAu?$AAs?$AAi?$AAc?$AA?5?$AA?$FN?$AA?5?$AA?$DN?$AA?$DN?$AA?$DN?$AA?$DN?$AA?$AA@
CONST	SEGMENT
??_C@_1CI@BGPJBPBK@?$AA?$DN?$AA?$DN?$AA?$DN?$AA?$DN?$AA?5?$AA?$FL?$AA?5?$AAM?$AAu?$AAs?$AAi?$AAc?$AA?5?$AA?$FN?$AA?5?$AA?$DN?$AA?$DN?$AA?$DN?$AA?$DN?$AA?$AA@ DB '='
	DB	00H, '=', 00H, '=', 00H, '=', 00H, ' ', 00H, '[', 00H, ' ', 00H
	DB	'M', 00H, 'u', 00H, 's', 00H, 'i', 00H, 'c', 00H, ' ', 00H, ']'
	DB	00H, ' ', 00H, '=', 00H, '=', 00H, '=', 00H, '=', 00H, 00H, 00H ; `string'
CONST	ENDS
;	COMDAT ??_C@_1EE@BGEBAFOM@?$AA?$CK?$AAO?$AAp?$AAt?$AAi?$AAm?$AAi?$AAz?$AAe?$AA?5?$AA?$CG?$AA?5?$AAT?$AAi?$AAc?$AAk?$AA?5?$AAc?$AAo?$AAu@
CONST	SEGMENT
??_C@_1EE@BGEBAFOM@?$AA?$CK?$AAO?$AAp?$AAt?$AAi?$AAm?$AAi?$AAz?$AAe?$AA?5?$AA?$CG?$AA?5?$AAT?$AAi?$AAc?$AAk?$AA?5?$AAc?$AAo?$AAu@ DB '*'
	DB	00H, 'O', 00H, 'p', 00H, 't', 00H, 'i', 00H, 'm', 00H, 'i', 00H
	DB	'z', 00H, 'e', 00H, ' ', 00H, '&', 00H, ' ', 00H, 'T', 00H, 'i'
	DB	00H, 'c', 00H, 'k', 00H, ' ', 00H, 'c', 00H, 'o', 00H, 'u', 00H
	DB	'n', 00H, 't', 00H, 'i', 00H, 'n', 00H, 'g', 00H, ' ', 00H, 'p'
	DB	00H, 'r', 00H, 'o', 00H, 'c', 00H, 'e', 00H, 's', 00H, 's', 00H
	DB	00H, 00H					; `string'
CONST	ENDS
;	COMDAT ??_C@_1DI@JGLJCCJP@?$AA?$CK?$AAA?$AAd?$AAd?$AAr?$AAe?$AAs?$AAs?$AA?5?$AAs?$AAe?$AAt?$AAt?$AAl?$AAe?$AAm?$AAe?$AAn?$AAt?$AA?5@
CONST	SEGMENT
??_C@_1DI@JGLJCCJP@?$AA?$CK?$AAA?$AAd?$AAd?$AAr?$AAe?$AAs?$AAs?$AA?5?$AAs?$AAe?$AAt?$AAt?$AAl?$AAe?$AAm?$AAe?$AAn?$AAt?$AA?5@ DB '*'
	DB	00H, 'A', 00H, 'd', 00H, 'd', 00H, 'r', 00H, 'e', 00H, 's', 00H
	DB	's', 00H, ' ', 00H, 's', 00H, 'e', 00H, 't', 00H, 't', 00H, 'l'
	DB	00H, 'e', 00H, 'm', 00H, 'e', 00H, 'n', 00H, 't', 00H, ' ', 00H
	DB	'p', 00H, 'r', 00H, 'o', 00H, 'c', 00H, 'e', 00H, 's', 00H, 's'
	DB	00H, 00H, 00H				; `string'
CONST	ENDS
;	COMDAT ??_C@_07FBHPMLEN@?5?$FLByte?$FN?$AA@
CONST	SEGMENT
??_C@_07FBHPMLEN@?5?$FLByte?$FN?$AA@ DB ' [Byte]', 00H	; `string'
CONST	ENDS
;	COMDAT ??_C@_0BA@DKKDKJML@?5?5Music?5Size?5?$DN?5?$AA@
CONST	SEGMENT
??_C@_0BA@DKKDKJML@?5?5Music?5Size?5?$DN?5?$AA@ DB '  Music Size = ', 00H ; `string'
CONST	ENDS
;	COMDAT ??_C@_0BA@IEMDIJBO@?5?5DPCM?5Size?5?5?$DN?5?$AA@
CONST	SEGMENT
??_C@_0BA@IEMDIJBO@?5?5DPCM?5Size?5?5?$DN?5?$AA@ DB '  DPCM Size  = ', 00H ; `string'
CONST	ENDS
;	COMDAT ??_C@_1BA@BJOMPAID@?$AAE?$AAr?$AAr?$AAo?$AAr?$AA?$CB?$AA?3?$AA?$AA@
CONST	SEGMENT
??_C@_1BA@BJOMPAID@?$AAE?$AAr?$AAr?$AAo?$AAr?$AA?$CB?$AA?3?$AA?$AA@ DB 'E'
	DB	00H, 'r', 00H, 'r', 00H, 'o', 00H, 'r', 00H, '!', 00H, ':', 00H
	DB	00H, 00H					; `string'
CONST	ENDS
;	COMDAT ??_C@_02EAOCLKAK@ld?$AA@
CONST	SEGMENT
??_C@_02EAOCLKAK@ld?$AA@ DB 'ld', 00H			; `string'
CONST	ENDS
;	COMDAT ??_C@_02BDDLJJBK@lu?$AA@
CONST	SEGMENT
??_C@_02BDDLJJBK@lu?$AA@ DB 'lu', 00H			; `string'
CONST	ENDS
;	COMDAT ??_C@_02HIKPPMOK@Ld?$AA@
CONST	SEGMENT
??_C@_02HIKPPMOK@Ld?$AA@ DB 'Ld', 00H			; `string'
CONST	ENDS
;	COMDAT ??_C@_02CLHGNPPK@Lu?$AA@
CONST	SEGMENT
??_C@_02CLHGNPPK@Lu?$AA@ DB 'Lu', 00H			; `string'
CONST	ENDS
;	COMDAT ??_C@_02BBAHNLBA@?$CFp?$AA@
CONST	SEGMENT
??_C@_02BBAHNLBA@?$CFp?$AA@ DB '%p', 00H		; `string'
CONST	ENDS
;	COMDAT ??_C@_01DDCIFGEA@E?$AA@
CONST	SEGMENT
??_C@_01DDCIFGEA@E?$AA@ DB 'E', 00H			; `string'
CONST	ENDS
;	COMDAT ??_C@_01KGKMHCOC@e?$AA@
CONST	SEGMENT
??_C@_01KGKMHCOC@e?$AA@ DB 'e', 00H			; `string'
CONST	ENDS
;	COMDAT ?npos@?$basic_string@GU?$char_traits@G@std@@V?$allocator@G@2@@std@@2IB
CONST	SEGMENT
?npos@?$basic_string@GU?$char_traits@G@std@@V?$allocator@G@2@@std@@2IB DD 0ffffffffH ; std::basic_string<unsigned short,std::char_traits<unsigned short>,std::allocator<unsigned short> >::npos
CONST	ENDS
;	COMDAT ??_7?$numpunct@D@std@@6B@
CONST	SEGMENT
??_7?$numpunct@D@std@@6B@ DD FLAT:??_E?$numpunct@D@std@@MAEPAXI@Z ; std::numpunct<char>::`vftable'
	DD	FLAT:?do_decimal_point@?$numpunct@D@std@@MBEDXZ
	DD	FLAT:?do_thousands_sep@?$numpunct@D@std@@MBEDXZ
	DD	FLAT:?do_grouping@?$numpunct@D@std@@MBE?AV?$basic_string@DU?$char_traits@D@std@@V?$allocator@D@2@@2@XZ
	DD	FLAT:?do_falsename@?$numpunct@D@std@@MBE?AV?$basic_string@DU?$char_traits@D@std@@V?$allocator@D@2@@2@XZ
	DD	FLAT:?do_truename@?$numpunct@D@std@@MBE?AV?$basic_string@DU?$char_traits@D@std@@V?$allocator@D@2@@2@XZ
CONST	ENDS
;	COMDAT ??_7?$numpunct@G@std@@6B@
CONST	SEGMENT
??_7?$numpunct@G@std@@6B@ DD FLAT:??_E?$numpunct@G@std@@MAEPAXI@Z ; std::numpunct<unsigned short>::`vftable'
	DD	FLAT:?do_decimal_point@?$numpunct@G@std@@MBEGXZ
	DD	FLAT:?do_thousands_sep@?$numpunct@G@std@@MBEGXZ
	DD	FLAT:?do_grouping@?$numpunct@G@std@@MBE?AV?$basic_string@DU?$char_traits@D@std@@V?$allocator@D@2@@2@XZ
	DD	FLAT:?do_falsename@?$numpunct@G@std@@MBE?AV?$basic_string@GU?$char_traits@G@std@@V?$allocator@G@2@@2@XZ
	DD	FLAT:?do_truename@?$numpunct@G@std@@MBE?AV?$basic_string@GU?$char_traits@G@std@@V?$allocator@G@2@@2@XZ
CONST	ENDS
;	COMDAT ??_7?$num_put@DV?$ostreambuf_iterator@DU?$char_traits@D@std@@@std@@@std@@6B@
CONST	SEGMENT
??_7?$num_put@DV?$ostreambuf_iterator@DU?$char_traits@D@std@@@std@@@std@@6B@ DD FLAT:??_E?$num_put@DV?$ostreambuf_iterator@DU?$char_traits@D@std@@@std@@@std@@MAEPAXI@Z ; std::num_put<char,std::ostreambuf_iterator<char,std::char_traits<char> > >::`vftable'
	DD	FLAT:?do_put@?$num_put@DV?$ostreambuf_iterator@DU?$char_traits@D@std@@@std@@@std@@MBE?AV?$ostreambuf_iterator@DU?$char_traits@D@std@@@2@V32@AAVios_base@2@DPBX@Z
	DD	FLAT:?do_put@?$num_put@DV?$ostreambuf_iterator@DU?$char_traits@D@std@@@std@@@std@@MBE?AV?$ostreambuf_iterator@DU?$char_traits@D@std@@@2@V32@AAVios_base@2@DO@Z
	DD	FLAT:?do_put@?$num_put@DV?$ostreambuf_iterator@DU?$char_traits@D@std@@@std@@@std@@MBE?AV?$ostreambuf_iterator@DU?$char_traits@D@std@@@2@V32@AAVios_base@2@DN@Z
	DD	FLAT:?do_put@?$num_put@DV?$ostreambuf_iterator@DU?$char_traits@D@std@@@std@@@std@@MBE?AV?$ostreambuf_iterator@DU?$char_traits@D@std@@@2@V32@AAVios_base@2@D_K@Z
	DD	FLAT:?do_put@?$num_put@DV?$ostreambuf_iterator@DU?$char_traits@D@std@@@std@@@std@@MBE?AV?$ostreambuf_iterator@DU?$char_traits@D@std@@@2@V32@AAVios_base@2@D_J@Z
	DD	FLAT:?do_put@?$num_put@DV?$ostreambuf_iterator@DU?$char_traits@D@std@@@std@@@std@@MBE?AV?$ostreambuf_iterator@DU?$char_traits@D@std@@@2@V32@AAVios_base@2@DK@Z
	DD	FLAT:?do_put@?$num_put@DV?$ostreambuf_iterator@DU?$char_traits@D@std@@@std@@@std@@MBE?AV?$ostreambuf_iterator@DU?$char_traits@D@std@@@2@V32@AAVios_base@2@DJ@Z
	DD	FLAT:?do_put@?$num_put@DV?$ostreambuf_iterator@DU?$char_traits@D@std@@@std@@@std@@MBE?AV?$ostreambuf_iterator@DU?$char_traits@D@std@@@2@V32@AAVios_base@2@D_N@Z
CONST	ENDS
;	COMDAT ??_7?$num_put@GV?$ostreambuf_iterator@GU?$char_traits@G@std@@@std@@@std@@6B@
CONST	SEGMENT
??_7?$num_put@GV?$ostreambuf_iterator@GU?$char_traits@G@std@@@std@@@std@@6B@ DD FLAT:??_E?$num_put@GV?$ostreambuf_iterator@GU?$char_traits@G@std@@@std@@@std@@MAEPAXI@Z ; std::num_put<unsigned short,std::ostreambuf_iterator<unsigned short,std::char_traits<unsigned short> > >::`vftable'
	DD	FLAT:?do_put@?$num_put@GV?$ostreambuf_iterator@GU?$char_traits@G@std@@@std@@@std@@MBE?AV?$ostreambuf_iterator@GU?$char_traits@G@std@@@2@V32@AAVios_base@2@GPBX@Z
	DD	FLAT:?do_put@?$num_put@GV?$ostreambuf_iterator@GU?$char_traits@G@std@@@std@@@std@@MBE?AV?$ostreambuf_iterator@GU?$char_traits@G@std@@@2@V32@AAVios_base@2@GO@Z
	DD	FLAT:?do_put@?$num_put@GV?$ostreambuf_iterator@GU?$char_traits@G@std@@@std@@@std@@MBE?AV?$ostreambuf_iterator@GU?$char_traits@G@std@@@2@V32@AAVios_base@2@GN@Z
	DD	FLAT:?do_put@?$num_put@GV?$ostreambuf_iterator@GU?$char_traits@G@std@@@std@@@std@@MBE?AV?$ostreambuf_iterator@GU?$char_traits@G@std@@@2@V32@AAVios_base@2@G_K@Z
	DD	FLAT:?do_put@?$num_put@GV?$ostreambuf_iterator@GU?$char_traits@G@std@@@std@@@std@@MBE?AV?$ostreambuf_iterator@GU?$char_traits@G@std@@@2@V32@AAVios_base@2@G_J@Z
	DD	FLAT:?do_put@?$num_put@GV?$ostreambuf_iterator@GU?$char_traits@G@std@@@std@@@std@@MBE?AV?$ostreambuf_iterator@GU?$char_traits@G@std@@@2@V32@AAVios_base@2@GK@Z
	DD	FLAT:?do_put@?$num_put@GV?$ostreambuf_iterator@GU?$char_traits@G@std@@@std@@@std@@MBE?AV?$ostreambuf_iterator@GU?$char_traits@G@std@@@2@V32@AAVios_base@2@GJ@Z
	DD	FLAT:?do_put@?$num_put@GV?$ostreambuf_iterator@GU?$char_traits@G@std@@@std@@@std@@MBE?AV?$ostreambuf_iterator@GU?$char_traits@G@std@@@2@V32@AAVios_base@2@G_N@Z
CONST	ENDS
;	COMDAT ??_C@_05LAPONLG@false?$AA@
CONST	SEGMENT
??_C@_05LAPONLG@false?$AA@ DB 'false', 00H		; `string'
CONST	ENDS
;	COMDAT ??_C@_04LOAJBDKD@true?$AA@
CONST	SEGMENT
??_C@_04LOAJBDKD@true?$AA@ DB 'true', 00H		; `string'
CONST	ENDS
;	COMDAT ??_C@_01GFHCPBMG@C?$AA@
CONST	SEGMENT
??_C@_01GFHCPBMG@C?$AA@ DB 'C', 00H			; `string'
CONST	ENDS
;	COMDAT ?npos@?$basic_string@DU?$char_traits@D@std@@V?$allocator@D@2@@std@@2IB
CONST	SEGMENT
?npos@?$basic_string@DU?$char_traits@D@std@@V?$allocator@D@2@@std@@2IB DD 0ffffffffH ; std::basic_string<char,std::char_traits<char>,std::allocator<char> >::npos
CONST	ENDS
;	COMDAT ??_C@_08EPJLHIJG@bad?5cast?$AA@
CONST	SEGMENT
??_C@_08EPJLHIJG@bad?5cast?$AA@ DB 'bad cast', 00H	; `string'
CONST	ENDS
;	COMDAT ??_R0?AVbad_cast@@@8
_DATA	SEGMENT
??_R0?AVbad_cast@@@8 DD FLAT:??_7type_info@@6B@		; bad_cast `RTTI Type Descriptor'
	DD	00H
	DB	'.?AVbad_cast@@', 00H
_DATA	ENDS
;	COMDAT ??_R0?AVexception@@@8
_DATA	SEGMENT
??_R0?AVexception@@@8 DD FLAT:??_7type_info@@6B@	; exception `RTTI Type Descriptor'
	DD	00H
	DB	'.?AVexception@@', 00H
_DATA	ENDS
;	COMDAT __CT??_R0?AVbad_cast@@@8??0bad_cast@@QAE@ABV0@@Z12
xdata$x	SEGMENT
__CT??_R0?AVbad_cast@@@8??0bad_cast@@QAE@ABV0@@Z12 DD 00H
	DD	FLAT:??_R0?AVbad_cast@@@8
	DD	00H
	DD	0ffffffffH
	ORG $+4
	DD	0cH
	DD	FLAT:??0bad_cast@@QAE@ABV0@@Z
xdata$x	ENDS
;	COMDAT __CT??_R0?AVexception@@@8??0exception@@QAE@ABV0@@Z12
xdata$x	SEGMENT
__CT??_R0?AVexception@@@8??0exception@@QAE@ABV0@@Z12 DD 00H
	DD	FLAT:??_R0?AVexception@@@8
	DD	00H
	DD	0ffffffffH
	ORG $+4
	DD	0cH
	DD	FLAT:??0exception@@QAE@ABV0@@Z
xdata$x	ENDS
;	COMDAT __CTA2?AVbad_cast@@
xdata$x	SEGMENT
__CTA2?AVbad_cast@@ DD 02H
	DD	FLAT:__CT??_R0?AVbad_cast@@@8??0bad_cast@@QAE@ABV0@@Z12
	DD	FLAT:__CT??_R0?AVexception@@@8??0exception@@QAE@ABV0@@Z12
xdata$x	ENDS
;	COMDAT __TI2?AVbad_cast@@
xdata$x	SEGMENT
__TI2?AVbad_cast@@ DD 00H
	DD	FLAT:??1bad_cast@@UAE@XZ
	DD	00H
	DD	FLAT:__CTA2?AVbad_cast@@
xdata$x	ENDS
;	COMDAT ??_7facet@locale@std@@6B@
CONST	SEGMENT
??_7facet@locale@std@@6B@ DD FLAT:??_Efacet@locale@std@@UAEPAXI@Z ; std::locale::facet::`vftable'
; Function compile flags: /Ogsy
; File c:\program files (x86)\microsoft visual studio .net 2003\vc7\include\xlocale
;	COMDAT ?_Decref@facet@locale@std@@QAEPAV123@XZ
_TEXT	SEGMENT
__Lock$ = -4						; size = 4
?_Decref@facet@locale@std@@QAEPAV123@XZ PROC NEAR	; std::locale::facet::_Decref, COMDAT
; _this$ = ecx

; 111  : 			{	// safely decrement the reference count, return this when dead

  00000	55		 push	 ebp
  00001	8b ec		 mov	 ebp, esp
  00003	51		 push	 ecx
  00004	56		 push	 esi
  00005	57		 push	 edi
  00006	8b f9		 mov	 edi, ecx

; 112  : 			_Lockit _Lock(_LOCK_LOCALE);

  00008	6a 00		 push	 0
  0000a	8d 4d fc	 lea	 ecx, DWORD PTR __Lock$[ebp]
  0000d	e8 00 00 00 00	 call	 ??0_Lockit@std@@QAE@H@Z	; std::_Lockit::_Lockit

; 113  : 
; 114  : 			if (0 < _Refs && _Refs < (size_t)(-1))

  00012	8b 47 04	 mov	 eax, DWORD PTR [edi+4]
  00015	85 c0		 test	 eax, eax
  00017	76 09		 jbe	 SHORT $L5082
  00019	83 f8 ff	 cmp	 eax, -1
  0001c	73 04		 jae	 SHORT $L5082

; 115  : 				--_Refs;

  0001e	48		 dec	 eax
  0001f	89 47 04	 mov	 DWORD PTR [edi+4], eax
$L5082:

; 116  : 			return (_Refs == 0 ? this : 0);

  00022	8b 77 04	 mov	 esi, DWORD PTR [edi+4]
  00025	f7 de		 neg	 esi
  00027	1b f6		 sbb	 esi, esi
  00029	f7 d6		 not	 esi
  0002b	8d 4d fc	 lea	 ecx, DWORD PTR __Lock$[ebp]
  0002e	23 f7		 and	 esi, edi
  00030	e8 00 00 00 00	 call	 ??1_Lockit@std@@QAE@XZ	; std::_Lockit::~_Lockit
  00035	5f		 pop	 edi
  00036	8b c6		 mov	 eax, esi
  00038	5e		 pop	 esi

; 117  : 			}

  00039	c9		 leave
  0003a	c3		 ret	 0
?_Decref@facet@locale@std@@QAEPAV123@XZ ENDP		; std::locale::facet::_Decref
; Function compile flags: /Ogsy
_TEXT	ENDS
;	COMDAT ??1locale@std@@QAE@XZ
_TEXT	SEGMENT
??1locale@std@@QAE@XZ PROC NEAR				; std::locale::~locale, COMDAT
; _this$ = ecx

; 246  : 		if (_Ptr != 0)

  00000	8b 09		 mov	 ecx, DWORD PTR [ecx]
  00002	85 c9		 test	 ecx, ecx
  00004	74 11		 je	 SHORT $L40649

; 247  : 			_DELETE_CRT(_Ptr->_Decref());

  00006	e8 00 00 00 00	 call	 ?_Decref@facet@locale@std@@QAEPAV123@XZ ; std::locale::facet::_Decref
  0000b	85 c0		 test	 eax, eax
  0000d	74 08		 je	 SHORT $L40649
  0000f	8b 10		 mov	 edx, DWORD PTR [eax]
  00011	6a 01		 push	 1
  00013	8b c8		 mov	 ecx, eax
  00015	ff 12		 call	 DWORD PTR [edx]
$L40649:

; 248  : 		}

  00017	c3		 ret	 0
??1locale@std@@QAE@XZ ENDP				; std::locale::~locale
; Function compile flags: /Ogsy
; File c:\program files (x86)\microsoft visual studio .net 2003\vc7\include\ios
_TEXT	ENDS
;	COMDAT ?tie@?$basic_ios@GU?$char_traits@G@std@@@std@@QBEPAV?$basic_ostream@GU?$char_traits@G@std@@@2@XZ
_TEXT	SEGMENT
?tie@?$basic_ios@GU?$char_traits@G@std@@@std@@QBEPAV?$basic_ostream@GU?$char_traits@G@std@@@2@XZ PROC NEAR ; std::basic_ios<unsigned short,std::char_traits<unsigned short> >::tie, COMDAT
; _this$ = eax

; 69   : 		return (_Tiestr);

  00000	8b 40 2c	 mov	 eax, DWORD PTR [eax+44]

; 70   : 		}

  00003	c3		 ret	 0
?tie@?$basic_ios@GU?$char_traits@G@std@@@std@@QBEPAV?$basic_ostream@GU?$char_traits@G@std@@@2@XZ ENDP ; std::basic_ios<unsigned short,std::char_traits<unsigned short> >::tie
; Function compile flags: /Ogsy
; File c:\program files (x86)\microsoft visual studio .net 2003\vc7\include\streambuf
_TEXT	ENDS
;	COMDAT ?_Lock@?$basic_streambuf@GU?$char_traits@G@std@@@std@@QAEXXZ
_TEXT	SEGMENT
?_Lock@?$basic_streambuf@GU?$char_traits@G@std@@@std@@QAEXXZ PROC NEAR ; std::basic_streambuf<unsigned short,std::char_traits<unsigned short> >::_Lock, COMDAT
; _this$ = ecx

; 158  : 		_Mylock._Lock();

  00000	83 c1 04	 add	 ecx, 4
  00003	e9 00 00 00 00	 jmp	 ?_Lock@_Mutex@std@@QAEXXZ ; std::_Mutex::_Lock
?_Lock@?$basic_streambuf@GU?$char_traits@G@std@@@std@@QAEXXZ ENDP ; std::basic_streambuf<unsigned short,std::char_traits<unsigned short> >::_Lock
; Function compile flags: /Ogsy
_TEXT	ENDS
;	COMDAT ?pubsync@?$basic_streambuf@GU?$char_traits@G@std@@@std@@QAEHXZ
_TEXT	SEGMENT
?pubsync@?$basic_streambuf@GU?$char_traits@G@std@@@std@@QAEHXZ PROC NEAR ; std::basic_streambuf<unsigned short,std::char_traits<unsigned short> >::pubsync, COMDAT
; _this$ = ecx

; 96   : 		return (sync());

  00000	8b 01		 mov	 eax, DWORD PTR [ecx]
  00002	ff 60 2c	 jmp	 DWORD PTR [eax+44]
?pubsync@?$basic_streambuf@GU?$char_traits@G@std@@@std@@QAEHXZ ENDP ; std::basic_streambuf<unsigned short,std::char_traits<unsigned short> >::pubsync
; Function compile flags: /Ogsy
_TEXT	ENDS
;	COMDAT ?_Unlock@?$basic_streambuf@GU?$char_traits@G@std@@@std@@QAEXXZ
_TEXT	SEGMENT
?_Unlock@?$basic_streambuf@GU?$char_traits@G@std@@@std@@QAEXXZ PROC NEAR ; std::basic_streambuf<unsigned short,std::char_traits<unsigned short> >::_Unlock, COMDAT
; _this$ = ecx

; 163  : 		_Mylock._Unlock();

  00000	83 c1 04	 add	 ecx, 4
  00003	e9 00 00 00 00	 jmp	 ?_Unlock@_Mutex@std@@QAEXXZ ; std::_Mutex::_Unlock
?_Unlock@?$basic_streambuf@GU?$char_traits@G@std@@@std@@QAEXXZ ENDP ; std::basic_streambuf<unsigned short,std::char_traits<unsigned short> >::_Unlock
; Function compile flags: /Ogsy
; File c:\program files (x86)\microsoft visual studio .net 2003\vc7\include\ostream
_TEXT	ENDS
;	COMDAT ??Bsentry@?$basic_ostream@GU?$char_traits@G@std@@@std@@QBE_NXZ
_TEXT	SEGMENT
??Bsentry@?$basic_ostream@GU?$char_traits@G@std@@@std@@QBE_NXZ PROC NEAR ; std::basic_ostream<unsigned short,std::char_traits<unsigned short> >::sentry::operator bool, COMDAT
; _this$ = eax

; 109  : 			return (_Ok);

  00000	8a 40 04	 mov	 al, BYTE PTR [eax+4]

; 110  : 			}

  00003	c3		 ret	 0
??Bsentry@?$basic_ostream@GU?$char_traits@G@std@@@std@@QBE_NXZ ENDP ; std::basic_ostream<unsigned short,std::char_traits<unsigned short> >::sentry::operator bool
; Function compile flags: /Ogsy
; File c:\program files (x86)\microsoft visual studio .net 2003\vc7\include\xiosbase
_TEXT	ENDS
;	COMDAT ?flags@ios_base@std@@QBEHXZ
_TEXT	SEGMENT
?flags@ios_base@std@@QBEHXZ PROC NEAR			; std::ios_base::flags, COMDAT
; _this$ = eax

; 325  : 		return (_Fmtfl);

  00000	8b 40 10	 mov	 eax, DWORD PTR [eax+16]

; 326  : 		}

  00003	c3		 ret	 0
?flags@ios_base@std@@QBEHXZ ENDP			; std::ios_base::flags
; Function compile flags: /Ogsy
; File c:\program files (x86)\microsoft visual studio .net 2003\vc7\include\ios
_TEXT	ENDS
;	COMDAT ?fill@?$basic_ios@GU?$char_traits@G@std@@@std@@QBEGXZ
_TEXT	SEGMENT
?fill@?$basic_ios@GU?$char_traits@G@std@@@std@@QBEGXZ PROC NEAR ; std::basic_ios<unsigned short,std::char_traits<unsigned short> >::fill, COMDAT
; _this$ = eax

; 102  : 		return (_Fillch);

  00000	66 8b 40 30	 mov	 ax, WORD PTR [eax+48]

; 103  : 		}

  00004	c3		 ret	 0
?fill@?$basic_ios@GU?$char_traits@G@std@@@std@@QBEGXZ ENDP ; std::basic_ios<unsigned short,std::char_traits<unsigned short> >::fill
; Function compile flags: /Ogsy
_TEXT	ENDS
;	COMDAT ?rdbuf@?$basic_ios@GU?$char_traits@G@std@@@std@@QBEPAV?$basic_streambuf@GU?$char_traits@G@std@@@2@XZ
_TEXT	SEGMENT
?rdbuf@?$basic_ios@GU?$char_traits@G@std@@@std@@QBEPAV?$basic_streambuf@GU?$char_traits@G@std@@@2@XZ PROC NEAR ; std::basic_ios<unsigned short,std::char_traits<unsigned short> >::rdbuf, COMDAT
; _this$ = ecx

; 81   : 		return (_Mystrbuf);

  00000	8b 41 28	 mov	 eax, DWORD PTR [ecx+40]

; 82   : 		}

  00003	c3		 ret	 0
?rdbuf@?$basic_ios@GU?$char_traits@G@std@@@std@@QBEPAV?$basic_streambuf@GU?$char_traits@G@std@@@2@XZ ENDP ; std::basic_ios<unsigned short,std::char_traits<unsigned short> >::rdbuf
; Function compile flags: /Ogsy
_TEXT	ENDS
;	COMDAT ?clear@?$basic_ios@GU?$char_traits@G@std@@@std@@QAEXH_N@Z
_TEXT	SEGMENT
__State$ = 8						; size = 4
__Except$ = 12						; size = 1
?clear@?$basic_ios@GU?$char_traits@G@std@@@std@@QAEXH_N@Z PROC NEAR ; std::basic_ios<unsigned short,std::char_traits<unsigned short> >::clear, COMDAT
; _this$ = ecx

; 39   : 		ios_base::clear((iostate)(_Mystrbuf == 0
; 40   : 			? (int)_State | (int)badbit : (int)_State), _Except);

  00000	83 79 28 00	 cmp	 DWORD PTR [ecx+40], 0
  00004	8b 44 24 04	 mov	 eax, DWORD PTR __State$[esp-4]
  00008	75 03		 jne	 SHORT $L40680
  0000a	83 c8 04	 or	 eax, 4
$L40680:
  0000d	ff 74 24 08	 push	 DWORD PTR __Except$[esp-4]
  00011	50		 push	 eax
  00012	e8 00 00 00 00	 call	 ?clear@ios_base@std@@QAEXH_N@Z ; std::ios_base::clear

; 41   : 		}

  00017	c2 08 00	 ret	 8
?clear@?$basic_ios@GU?$char_traits@G@std@@@std@@QAEXH_N@Z ENDP ; std::basic_ios<unsigned short,std::char_traits<unsigned short> >::clear
; Function compile flags: /Ogsy
_TEXT	ENDS
;	COMDAT ?tie@?$basic_ios@DU?$char_traits@D@std@@@std@@QBEPAV?$basic_ostream@DU?$char_traits@D@std@@@2@XZ
_TEXT	SEGMENT
?tie@?$basic_ios@DU?$char_traits@D@std@@@std@@QBEPAV?$basic_ostream@DU?$char_traits@D@std@@@2@XZ PROC NEAR ; std::basic_ios<char,std::char_traits<char> >::tie, COMDAT
; _this$ = eax

; 69   : 		return (_Tiestr);

  00000	8b 40 2c	 mov	 eax, DWORD PTR [eax+44]

; 70   : 		}

  00003	c3		 ret	 0
?tie@?$basic_ios@DU?$char_traits@D@std@@@std@@QBEPAV?$basic_ostream@DU?$char_traits@D@std@@@2@XZ ENDP ; std::basic_ios<char,std::char_traits<char> >::tie
; Function compile flags: /Ogsy
; File c:\program files (x86)\microsoft visual studio .net 2003\vc7\include\streambuf
_TEXT	ENDS
;	COMDAT ?_Lock@?$basic_streambuf@DU?$char_traits@D@std@@@std@@QAEXXZ
_TEXT	SEGMENT
?_Lock@?$basic_streambuf@DU?$char_traits@D@std@@@std@@QAEXXZ PROC NEAR ; std::basic_streambuf<char,std::char_traits<char> >::_Lock, COMDAT
; _this$ = ecx

; 158  : 		_Mylock._Lock();

  00000	83 c1 04	 add	 ecx, 4
  00003	e9 00 00 00 00	 jmp	 ?_Lock@_Mutex@std@@QAEXXZ ; std::_Mutex::_Lock
?_Lock@?$basic_streambuf@DU?$char_traits@D@std@@@std@@QAEXXZ ENDP ; std::basic_streambuf<char,std::char_traits<char> >::_Lock
; Function compile flags: /Ogsy
_TEXT	ENDS
;	COMDAT ?pubsync@?$basic_streambuf@DU?$char_traits@D@std@@@std@@QAEHXZ
_TEXT	SEGMENT
?pubsync@?$basic_streambuf@DU?$char_traits@D@std@@@std@@QAEHXZ PROC NEAR ; std::basic_streambuf<char,std::char_traits<char> >::pubsync, COMDAT
; _this$ = ecx

; 96   : 		return (sync());

  00000	8b 01		 mov	 eax, DWORD PTR [ecx]
  00002	ff 60 2c	 jmp	 DWORD PTR [eax+44]
?pubsync@?$basic_streambuf@DU?$char_traits@D@std@@@std@@QAEHXZ ENDP ; std::basic_streambuf<char,std::char_traits<char> >::pubsync
; Function compile flags: /Ogsy
_TEXT	ENDS
;	COMDAT ?_Unlock@?$basic_streambuf@DU?$char_traits@D@std@@@std@@QAEXXZ
_TEXT	SEGMENT
?_Unlock@?$basic_streambuf@DU?$char_traits@D@std@@@std@@QAEXXZ PROC NEAR ; std::basic_streambuf<char,std::char_traits<char> >::_Unlock, COMDAT
; _this$ = ecx

; 163  : 		_Mylock._Unlock();

  00000	83 c1 04	 add	 ecx, 4
  00003	e9 00 00 00 00	 jmp	 ?_Unlock@_Mutex@std@@QAEXXZ ; std::_Mutex::_Unlock
?_Unlock@?$basic_streambuf@DU?$char_traits@D@std@@@std@@QAEXXZ ENDP ; std::basic_streambuf<char,std::char_traits<char> >::_Unlock
; Function compile flags: /Ogsy
; File c:\program files (x86)\microsoft visual studio .net 2003\vc7\include\ostream
_TEXT	ENDS
;	COMDAT ??Bsentry@?$basic_ostream@DU?$char_traits@D@std@@@std@@QBE_NXZ
_TEXT	SEGMENT
??Bsentry@?$basic_ostream@DU?$char_traits@D@std@@@std@@QBE_NXZ PROC NEAR ; std::basic_ostream<char,std::char_traits<char> >::sentry::operator bool, COMDAT
; _this$ = eax

; 109  : 			return (_Ok);

  00000	8a 40 04	 mov	 al, BYTE PTR [eax+4]

; 110  : 			}

  00003	c3		 ret	 0
??Bsentry@?$basic_ostream@DU?$char_traits@D@std@@@std@@QBE_NXZ ENDP ; std::basic_ostream<char,std::char_traits<char> >::sentry::operator bool
; Function compile flags: /Ogsy
; File c:\program files (x86)\microsoft visual studio .net 2003\vc7\include\ios
_TEXT	ENDS
;	COMDAT ?rdbuf@?$basic_ios@DU?$char_traits@D@std@@@std@@QBEPAV?$basic_streambuf@DU?$char_traits@D@std@@@2@XZ
_TEXT	SEGMENT
?rdbuf@?$basic_ios@DU?$char_traits@D@std@@@std@@QBEPAV?$basic_streambuf@DU?$char_traits@D@std@@@2@XZ PROC NEAR ; std::basic_ios<char,std::char_traits<char> >::rdbuf, COMDAT
; _this$ = eax

; 81   : 		return (_Mystrbuf);

  00000	8b 40 28	 mov	 eax, DWORD PTR [eax+40]

; 82   : 		}

  00003	c3		 ret	 0
?rdbuf@?$basic_ios@DU?$char_traits@D@std@@@std@@QBEPAV?$basic_streambuf@DU?$char_traits@D@std@@@2@XZ ENDP ; std::basic_ios<char,std::char_traits<char> >::rdbuf
; Function compile flags: /Ogsy
; File c:\program files (x86)\microsoft visual studio .net 2003\vc7\include\xiosbase
_TEXT	ENDS
;	COMDAT ?rdstate@ios_base@std@@QBEHXZ
_TEXT	SEGMENT
?rdstate@ios_base@std@@QBEHXZ PROC NEAR			; std::ios_base::rdstate, COMDAT
; _this$ = ecx

; 266  : 		return (_Mystate);

  00000	8b 41 08	 mov	 eax, DWORD PTR [ecx+8]

; 267  : 		}

  00003	c3		 ret	 0
?rdstate@ios_base@std@@QBEHXZ ENDP			; std::ios_base::rdstate
; Function compile flags: /Ogsy
; File c:\program files (x86)\microsoft visual studio .net 2003\vc7\include\ios
_TEXT	ENDS
;	COMDAT ?clear@?$basic_ios@DU?$char_traits@D@std@@@std@@QAEXH_N@Z
_TEXT	SEGMENT
__State$ = 8						; size = 4
__Except$ = 12						; size = 1
?clear@?$basic_ios@DU?$char_traits@D@std@@@std@@QAEXH_N@Z PROC NEAR ; std::basic_ios<char,std::char_traits<char> >::clear, COMDAT
; _this$ = ecx

; 39   : 		ios_base::clear((iostate)(_Mystrbuf == 0
; 40   : 			? (int)_State | (int)badbit : (int)_State), _Except);

  00000	83 79 28 00	 cmp	 DWORD PTR [ecx+40], 0
  00004	8b 44 24 04	 mov	 eax, DWORD PTR __State$[esp-4]
  00008	75 03		 jne	 SHORT $L40707
  0000a	83 c8 04	 or	 eax, 4
$L40707:
  0000d	ff 74 24 08	 push	 DWORD PTR __Except$[esp-4]
  00011	50		 push	 eax
  00012	e8 00 00 00 00	 call	 ?clear@ios_base@std@@QAEXH_N@Z ; std::ios_base::clear

; 41   : 		}

  00017	c2 08 00	 ret	 8
?clear@?$basic_ios@DU?$char_traits@D@std@@@std@@QAEXH_N@Z ENDP ; std::basic_ios<char,std::char_traits<char> >::clear
; Function compile flags: /Ogsy
_TEXT	ENDS
;	COMDAT ?setstate@?$basic_ios@DU?$char_traits@D@std@@@std@@QAEXH_N@Z
_TEXT	SEGMENT
__State$ = 8						; size = 4
__Except$ = 12						; size = 1
?setstate@?$basic_ios@DU?$char_traits@D@std@@@std@@QAEXH_N@Z PROC NEAR ; std::basic_ios<char,std::char_traits<char> >::setstate, COMDAT
; _this$ = ecx

; 50   : 		if (_State != goodbit)

  00000	83 7c 24 04 00	 cmp	 DWORD PTR __State$[esp-4], 0
  00005	74 11		 je	 SHORT $L22950

; 51   : 			clear((iostate)((int)rdstate() | (int)_State), _Except);

  00007	8b 41 08	 mov	 eax, DWORD PTR [ecx+8]
  0000a	ff 74 24 08	 push	 DWORD PTR __Except$[esp-4]
  0000e	0b 44 24 08	 or	 eax, DWORD PTR __State$[esp]
  00012	50		 push	 eax
  00013	e8 00 00 00 00	 call	 ?clear@?$basic_ios@DU?$char_traits@D@std@@@std@@QAEXH_N@Z ; std::basic_ios<char,std::char_traits<char> >::clear
$L22950:

; 52   : 		}

  00018	c2 08 00	 ret	 8
?setstate@?$basic_ios@DU?$char_traits@D@std@@@std@@QAEXH_N@Z ENDP ; std::basic_ios<char,std::char_traits<char> >::setstate
; Function compile flags: /Ogsy
; File c:\program files (x86)\microsoft visual studio .net 2003\vc7\include\xlocale
_TEXT	ENDS
;	COMDAT ??1facet@locale@std@@UAE@XZ
_TEXT	SEGMENT
??1facet@locale@std@@UAE@XZ PROC NEAR			; std::locale::facet::~facet, COMDAT
; _this$ = ecx

; 123  : 			{	// destroy the object

  00000	c7 01 00 00 00
	00		 mov	 DWORD PTR [ecx], OFFSET FLAT:??_7facet@locale@std@@6B@

; 124  : 			}

  00006	c3		 ret	 0
??1facet@locale@std@@UAE@XZ ENDP			; std::locale::facet::~facet
; Function compile flags: /Ogsy
; File c:\program files (x86)\microsoft visual studio .net 2003\vc7\include\xiosbase
_TEXT	ENDS
;	COMDAT ?width@ios_base@std@@QBEHXZ
_TEXT	SEGMENT
?width@ios_base@std@@QBEHXZ PROC NEAR			; std::ios_base::width, COMDAT
; _this$ = eax

; 370  : 		return (_Wide);

  00000	8b 40 18	 mov	 eax, DWORD PTR [eax+24]

; 371  : 		}

  00003	c3		 ret	 0
?width@ios_base@std@@QBEHXZ ENDP			; std::ios_base::width
; Function compile flags: /Ogsy
_TEXT	ENDS
;	COMDAT ?width@ios_base@std@@QAEHH@Z
_TEXT	SEGMENT
__Newwidth$ = 8						; size = 4
?width@ios_base@std@@QAEHH@Z PROC NEAR			; std::ios_base::width, COMDAT
; _this$ = ecx

; 375  : 		streamsize _Oldwidth = _Wide;
; 376  : 		_Wide = _Newwidth;

  00000	8b 54 24 04	 mov	 edx, DWORD PTR __Newwidth$[esp-4]
  00004	8b 41 18	 mov	 eax, DWORD PTR [ecx+24]
  00007	89 51 18	 mov	 DWORD PTR [ecx+24], edx

; 377  : 		return (_Oldwidth);
; 378  : 		}

  0000a	c2 04 00	 ret	 4
?width@ios_base@std@@QAEHH@Z ENDP			; std::ios_base::width
; Function compile flags: /Ogsy
_TEXT	ENDS
;	COMDAT ?precision@ios_base@std@@QBEHXZ
_TEXT	SEGMENT
?precision@ios_base@std@@QBEHXZ PROC NEAR		; std::ios_base::precision, COMDAT
; _this$ = eax

; 358  : 		return (_Prec);

  00000	8b 40 14	 mov	 eax, DWORD PTR [eax+20]

; 359  : 		}

  00003	c3		 ret	 0
?precision@ios_base@std@@QBEHXZ ENDP			; std::ios_base::precision
; Function compile flags: /Ogsy
; File c:\program files (x86)\microsoft visual studio .net 2003\vc7\include\xstring
_TEXT	ENDS
;	COMDAT ?size@?$basic_string@DU?$char_traits@D@std@@V?$allocator@D@2@@std@@QBEIXZ
_TEXT	SEGMENT
?size@?$basic_string@DU?$char_traits@D@std@@V?$allocator@D@2@@std@@QBEIXZ PROC NEAR ; std::basic_string<char,std::char_traits<char>,std::allocator<char> >::size, COMDAT
; _this$ = ecx

; 1109 : 		return (_Mysize);

  00000	8b 41 14	 mov	 eax, DWORD PTR [ecx+20]

; 1110 : 		}

  00003	c3		 ret	 0
?size@?$basic_string@DU?$char_traits@D@std@@V?$allocator@D@2@@std@@QBEIXZ ENDP ; std::basic_string<char,std::char_traits<char>,std::allocator<char> >::size
; Function compile flags: /Ogsy
; File c:\program files (x86)\microsoft visual studio .net 2003\vc7\include\xlocale
_TEXT	ENDS
;	COMDAT ??$_Maklocchr@G@std@@YAGDPAGABU_Cvtvec@@@Z
_TEXT	SEGMENT
__Mbst1$ = -8						; size = 4
__Wc$ = -4						; size = 2
__Byte$ = 8						; size = 1
___formal$ = 12						; size = 4
__Cvt$ = 16						; size = 4
??$_Maklocchr@G@std@@YAGDPAGABU_Cvtvec@@@Z PROC NEAR	; std::_Maklocchr<unsigned short>, COMDAT

; 437  : 	{	// convert char to wchar_t using _Cvtvec

  00000	55		 push	 ebp
  00001	8b ec		 mov	 ebp, esp
  00003	51		 push	 ecx
  00004	51		 push	 ecx

; 438  : 	wchar_t _Wc = L'\0';
; 439  : 	_Mbstinit(_Mbst1);
; 440  : 	_Mbrtowc(&_Wc, &_Byte, 1, &_Mbst1, &_Cvt);

  00005	ff 75 10	 push	 DWORD PTR __Cvt$[ebp]
  00008	83 65 fc 00	 and	 DWORD PTR __Wc$[ebp], 0
  0000c	83 65 f8 00	 and	 DWORD PTR __Mbst1$[ebp], 0
  00010	8d 45 f8	 lea	 eax, DWORD PTR __Mbst1$[ebp]
  00013	50		 push	 eax
  00014	6a 01		 push	 1
  00016	8d 45 08	 lea	 eax, DWORD PTR __Byte$[ebp]
  00019	50		 push	 eax
  0001a	8d 45 fc	 lea	 eax, DWORD PTR __Wc$[ebp]
  0001d	50		 push	 eax
  0001e	e8 00 00 00 00	 call	 __Mbrtowc

; 441  : 	return (_Wc);

  00023	66 8b 45 fc	 mov	 ax, WORD PTR __Wc$[ebp]
  00027	83 c4 14	 add	 esp, 20			; 00000014H

; 442  : 	}

  0002a	c9		 leave
  0002b	c3		 ret	 0
??$_Maklocchr@G@std@@YAGDPAGABU_Cvtvec@@@Z ENDP		; std::_Maklocchr<unsigned short>
; Function compile flags: /Ogsy
; File c:\program files (x86)\microsoft visual studio .net 2003\vc7\include\xmemory
_TEXT	ENDS
;	COMDAT ??0?$allocator@D@std@@QAE@ABV01@@Z
_TEXT	SEGMENT
___formal$ = 8						; size = 4
??0?$allocator@D@std@@QAE@ABV01@@Z PROC NEAR		; std::allocator<char>::allocator<char>, COMDAT
; _this$ = ecx

; 115  : 	allocator(const allocator<_Ty>&)

  00000	8b c1		 mov	 eax, ecx

; 116  : 		{	// construct by copying (do nothing)
; 117  : 		}

  00002	c2 04 00	 ret	 4
??0?$allocator@D@std@@QAE@ABV01@@Z ENDP			; std::allocator<char>::allocator<char>
; Function compile flags: /Ogsy
; File c:\program files (x86)\microsoft visual studio .net 2003\vc7\include\xstring
_TEXT	ENDS
;	COMDAT ??0?$_String_val@DV?$allocator@D@std@@@std@@IAE@V?$allocator@D@1@@Z
_TEXT	SEGMENT
__Al$ = 8						; size = 1
??0?$_String_val@DV?$allocator@D@std@@@std@@IAE@V?$allocator@D@1@@Z PROC NEAR ; std::_String_val<char,std::allocator<char> >::_String_val<char,std::allocator<char> >, COMDAT
; _this$ = ecx

; 34   : 		{	// construct allocator from _Al

  00000	8b c1		 mov	 eax, ecx

; 35   : 		}

  00002	c2 04 00	 ret	 4
??0?$_String_val@DV?$allocator@D@std@@@std@@IAE@V?$allocator@D@1@@Z ENDP ; std::_String_val<char,std::allocator<char> >::_String_val<char,std::allocator<char> >
; Function compile flags: /Ogsy
; File c:\program files (x86)\microsoft visual studio .net 2003\vc7\include\xmemory
_TEXT	ENDS
;	COMDAT ??0?$allocator@D@std@@QAE@XZ
_TEXT	SEGMENT
??0?$allocator@D@std@@QAE@XZ PROC NEAR			; std::allocator<char>::allocator<char>, COMDAT
; _this$ = ecx

; 111  : 	allocator()

  00000	8b c1		 mov	 eax, ecx

; 112  : 		{	// construct default allocator (do nothing)
; 113  : 		}

  00002	c3		 ret	 0
??0?$allocator@D@std@@QAE@XZ ENDP			; std::allocator<char>::allocator<char>
; Function compile flags: /Ogsy
_TEXT	ENDS
;	COMDAT ?deallocate@?$allocator@D@std@@QAEXPADI@Z
_TEXT	SEGMENT
__Ptr$ = 8						; size = 4
___formal$ = 12						; size = 4
?deallocate@?$allocator@D@std@@QAEXPADI@Z PROC NEAR	; std::allocator<char>::deallocate, COMDAT
; _this$ = ecx

; 132  : 		operator delete(_Ptr);

  00000	ff 74 24 04	 push	 DWORD PTR __Ptr$[esp-4]
  00004	e8 00 00 00 00	 call	 ??3@YAXPAX@Z		; operator delete
  00009	59		 pop	 ecx

; 133  : 		}

  0000a	c2 08 00	 ret	 8
?deallocate@?$allocator@D@std@@QAEXPADI@Z ENDP		; std::allocator<char>::deallocate
; Function compile flags: /Ogsy
; File c:\program files (x86)\microsoft visual studio .net 2003\vc7\include\xstring
_TEXT	ENDS
;	COMDAT ?_Myptr@?$basic_string@DU?$char_traits@D@std@@V?$allocator@D@2@@std@@QAEPADXZ
_TEXT	SEGMENT
?_Myptr@?$basic_string@DU?$char_traits@D@std@@V?$allocator@D@2@@std@@QAEPADXZ PROC NEAR ; std::basic_string<char,std::char_traits<char>,std::allocator<char> >::_Myptr, COMDAT
; _this$ = ecx

; 1532 : 		return (_BUF_SIZE <= _Myres ? _Bx._Ptr : _Bx._Buf);

  00000	83 79 18 10	 cmp	 DWORD PTR [ecx+24], 16	; 00000010H
  00004	72 04		 jb	 SHORT $L40750
  00006	8b 41 04	 mov	 eax, DWORD PTR [ecx+4]

; 1533 : 		}

  00009	c3		 ret	 0
$L40750:

; 1532 : 		return (_BUF_SIZE <= _Myres ? _Bx._Ptr : _Bx._Buf);

  0000a	8d 41 04	 lea	 eax, DWORD PTR [ecx+4]

; 1533 : 		}

  0000d	c3		 ret	 0
?_Myptr@?$basic_string@DU?$char_traits@D@std@@V?$allocator@D@2@@std@@QAEPADXZ ENDP ; std::basic_string<char,std::char_traits<char>,std::allocator<char> >::_Myptr
; Function compile flags: /Ogsy
; File c:\program files (x86)\microsoft visual studio .net 2003\vc7\include\xmemory
_TEXT	ENDS
;	COMDAT ??$_Allocate@D@std@@YAPADIPAD@Z
_TEXT	SEGMENT
__Count$ = 8						; size = 4
___formal$ = 12						; size = 4
??$_Allocate@D@std@@YAPADIPAD@Z PROC NEAR		; std::_Allocate<char>, COMDAT

; 34   : 	return ((_Ty _FARQ *)operator new(_Count * sizeof (_Ty)));

  00000	ff 74 24 04	 push	 DWORD PTR __Count$[esp-4]
  00004	e8 00 00 00 00	 call	 ??2@YAPAXI@Z		; operator new
  00009	59		 pop	 ecx

; 35   : 	}

  0000a	c3		 ret	 0
??$_Allocate@D@std@@YAPADIPAD@Z ENDP			; std::_Allocate<char>
; Function compile flags: /Ogsy
_TEXT	ENDS
;	COMDAT ?allocate@?$allocator@D@std@@QAEPADI@Z
_TEXT	SEGMENT
__Count$ = 8						; size = 4
?allocate@?$allocator@D@std@@QAEPADI@Z PROC NEAR	; std::allocator<char>::allocate, COMDAT
; _this$ = ecx

; 137  : 		return (_Allocate(_Count, (pointer)0));

  00000	ff 74 24 04	 push	 DWORD PTR __Count$[esp-4]
  00004	e8 00 00 00 00	 call	 ??2@YAPAXI@Z		; operator new
  00009	59		 pop	 ecx

; 138  : 		}

  0000a	c2 04 00	 ret	 4
?allocate@?$allocator@D@std@@QAEPADI@Z ENDP		; std::allocator<char>::allocate
; Function compile flags: /Ogsy
_TEXT	ENDS
;	COMDAT ?max_size@?$allocator@D@std@@QBEIXZ
_TEXT	SEGMENT
?max_size@?$allocator@D@std@@QBEIXZ PROC NEAR		; std::allocator<char>::max_size, COMDAT
; _this$ = ecx

; 157  : 		_SIZT _Count = (_SIZT)(-1) / sizeof (_Ty);
; 158  : 		return (0 < _Count ? _Count : 1);

  00000	83 c8 ff	 or	 eax, -1

; 159  : 		}

  00003	c3		 ret	 0
?max_size@?$allocator@D@std@@QBEIXZ ENDP		; std::allocator<char>::max_size
; Function compile flags: /Ogsy
; File c:\program files (x86)\microsoft visual studio .net 2003\vc7\include\xstring
_TEXT	ENDS
;	COMDAT ?max_size@?$basic_string@DU?$char_traits@D@std@@V?$allocator@D@2@@std@@QBEIXZ
_TEXT	SEGMENT
?max_size@?$basic_string@DU?$char_traits@D@std@@V?$allocator@D@2@@std@@QBEIXZ PROC NEAR ; std::basic_string<char,std::char_traits<char>,std::allocator<char> >::max_size, COMDAT
; _this$ = ecx

; 1114 : 		size_type _Num = _Mybase::_Alval.max_size();
; 1115 : 		return (_Num <= 1 ? 1 : _Num - 1);

  00000	6a fe		 push	 -2			; fffffffeH
  00002	58		 pop	 eax

; 1116 : 		}

  00003	c3		 ret	 0
?max_size@?$basic_string@DU?$char_traits@D@std@@V?$allocator@D@2@@std@@QBEIXZ ENDP ; std::basic_string<char,std::char_traits<char>,std::allocator<char> >::max_size
; Function compile flags: /Ogsy
; File c:\program files (x86)\microsoft visual studio .net 2003\vc7\include\iosfwd
_TEXT	ENDS
;	COMDAT ?copy@?$char_traits@D@std@@SAPADPADPBDI@Z
_TEXT	SEGMENT
__First1$ = 8						; size = 4
__First2$ = 12						; size = 4
__Count$ = 16						; size = 4
?copy@?$char_traits@D@std@@SAPADPADPBDI@Z PROC NEAR	; std::char_traits<char>::copy, COMDAT

; 358  : 		return ((_Elem *)::memcpy(_First1, _First2, _Count));

  00000	8b 4c 24 0c	 mov	 ecx, DWORD PTR __Count$[esp-4]
  00004	56		 push	 esi
  00005	8b 74 24 0c	 mov	 esi, DWORD PTR __First2$[esp]
  00009	57		 push	 edi
  0000a	8b 7c 24 0c	 mov	 edi, DWORD PTR __First1$[esp+4]
  0000e	8b c1		 mov	 eax, ecx
  00010	8b d7		 mov	 edx, edi
  00012	c1 e9 02	 shr	 ecx, 2
  00015	f3 a5		 rep movsd
  00017	8b c8		 mov	 ecx, eax
  00019	83 e1 03	 and	 ecx, 3
  0001c	f3 a4		 rep movsb
  0001e	5f		 pop	 edi
  0001f	8b c2		 mov	 eax, edx
  00021	5e		 pop	 esi

; 359  : 		}

  00022	c3		 ret	 0
?copy@?$char_traits@D@std@@SAPADPADPBDI@Z ENDP		; std::char_traits<char>::copy
; Function compile flags: /Ogsy
_TEXT	ENDS
;	COMDAT ?assign@?$char_traits@D@std@@SAXAADABD@Z
_TEXT	SEGMENT
__Left$ = 8						; size = 4
__Right$ = 12						; size = 4
?assign@?$char_traits@D@std@@SAXAADABD@Z PROC NEAR	; std::char_traits<char>::assign, COMDAT

; 331  : 		_Left = _Right;

  00000	8b 44 24 08	 mov	 eax, DWORD PTR __Right$[esp-4]
  00004	8a 00		 mov	 al, BYTE PTR [eax]
  00006	8b 4c 24 04	 mov	 ecx, DWORD PTR __Left$[esp-4]
  0000a	88 01		 mov	 BYTE PTR [ecx], al

; 332  : 		}

  0000c	c3		 ret	 0
?assign@?$char_traits@D@std@@SAXAADABD@Z ENDP		; std::char_traits<char>::assign
; Function compile flags: /Ogsy
; File c:\program files (x86)\microsoft visual studio .net 2003\vc7\include\xstring
_TEXT	ENDS
;	COMDAT ?_Eos@?$basic_string@DU?$char_traits@D@std@@V?$allocator@D@2@@std@@IAEXI@Z
_TEXT	SEGMENT
__Newsize$ = 8						; size = 4
?_Eos@?$basic_string@DU?$char_traits@D@std@@V?$allocator@D@2@@std@@IAEXI@Z PROC NEAR ; std::basic_string<char,std::char_traits<char>,std::allocator<char> >::_Eos, COMDAT
; _this$ = ecx

; 1475 : 		_Traits::assign(_Myptr()[_Mysize = _Newsize], _Elem());

  00000	83 79 18 10	 cmp	 DWORD PTR [ecx+24], 16	; 00000010H
  00004	8b 44 24 04	 mov	 eax, DWORD PTR __Newsize$[esp-4]
  00008	89 41 14	 mov	 DWORD PTR [ecx+20], eax
  0000b	72 05		 jb	 SHORT $L40794
  0000d	8b 49 04	 mov	 ecx, DWORD PTR [ecx+4]
  00010	eb 03		 jmp	 SHORT $L40795
$L40794:
  00012	83 c1 04	 add	 ecx, 4
$L40795:
  00015	c6 04 01 00	 mov	 BYTE PTR [ecx+eax], 0

; 1476 : 		}

  00019	c2 04 00	 ret	 4
?_Eos@?$basic_string@DU?$char_traits@D@std@@V?$allocator@D@2@@std@@IAEXI@Z ENDP ; std::basic_string<char,std::char_traits<char>,std::allocator<char> >::_Eos
; Function compile flags: /Ogsy
; File c:\program files (x86)\microsoft visual studio .net 2003\vc7\include\iosfwd
_TEXT	ENDS
;	COMDAT ?move@?$char_traits@D@std@@SAPADPADPBDI@Z
_TEXT	SEGMENT
__First1$ = 8						; size = 4
__First2$ = 12						; size = 4
__Count$ = 16						; size = 4
?move@?$char_traits@D@std@@SAPADPADPBDI@Z PROC NEAR	; std::char_traits<char>::move, COMDAT

; 370  : 		return ((_Elem *)::memmove(_First1, _First2, _Count));

  00000	e9 00 00 00 00	 jmp	 _memmove
?move@?$char_traits@D@std@@SAPADPADPBDI@Z ENDP		; std::char_traits<char>::move
; Function compile flags: /Ogsy
_TEXT	ENDS
;	COMDAT ?assign@?$char_traits@D@std@@SAPADPADID@Z
_TEXT	SEGMENT
__First$ = 8						; size = 4
__Count$ = 12						; size = 4
__Ch$ = 16						; size = 1
?assign@?$char_traits@D@std@@SAPADPADID@Z PROC NEAR	; std::char_traits<char>::assign, COMDAT

; 375  : 		return ((_Elem *)::memset(_First, _Ch, _Count));

  00000	0f be 44 24 0c	 movsx	 eax, BYTE PTR __Ch$[esp-4]
  00005	8b 4c 24 08	 mov	 ecx, DWORD PTR __Count$[esp-4]
  00009	53		 push	 ebx
  0000a	8a d8		 mov	 bl, al
  0000c	8a fb		 mov	 bh, bl
  0000e	56		 push	 esi
  0000f	57		 push	 edi
  00010	8b 7c 24 10	 mov	 edi, DWORD PTR __First$[esp+8]
  00014	8b d1		 mov	 edx, ecx
  00016	8b f7		 mov	 esi, edi
  00018	c1 e9 02	 shr	 ecx, 2
  0001b	8b c3		 mov	 eax, ebx
  0001d	c1 e0 10	 shl	 eax, 16			; 00000010H
  00020	66 8b c3	 mov	 ax, bx
  00023	f3 ab		 rep stosd
  00025	8b ca		 mov	 ecx, edx
  00027	83 e1 03	 and	 ecx, 3
  0002a	f3 aa		 rep stosb
  0002c	5f		 pop	 edi
  0002d	8b c6		 mov	 eax, esi
  0002f	5e		 pop	 esi
  00030	5b		 pop	 ebx

; 376  : 		}

  00031	c3		 ret	 0
?assign@?$char_traits@D@std@@SAPADPADID@Z ENDP		; std::char_traits<char>::assign
; Function compile flags: /Ogsy
_TEXT	ENDS
;	COMDAT ?eq_int_type@?$char_traits@G@std@@SA_NABG0@Z
_TEXT	SEGMENT
?eq_int_type@?$char_traits@G@std@@SA_NABG0@Z PROC NEAR	; std::char_traits<unsigned short>::eq_int_type, COMDAT
; __Left$ = eax
; __Right$ = ecx

; 304  : 		return (_Left == _Right);

  00000	66 8b 00	 mov	 ax, WORD PTR [eax]
  00003	66 2b 01	 sub	 ax, WORD PTR [ecx]
  00006	66 f7 d8	 neg	 ax
  00009	1b c0		 sbb	 eax, eax
  0000b	40		 inc	 eax

; 305  : 		}

  0000c	c3		 ret	 0
?eq_int_type@?$char_traits@G@std@@SA_NABG0@Z ENDP	; std::char_traits<unsigned short>::eq_int_type
; Function compile flags: /Ogsy
_TEXT	ENDS
;	COMDAT ?to_int_type@?$char_traits@G@std@@SAGABG@Z
_TEXT	SEGMENT
?to_int_type@?$char_traits@G@std@@SAGABG@Z PROC NEAR	; std::char_traits<unsigned short>::to_int_type, COMDAT
; __Ch$ = eax

; 298  : 		return (_Ch);

  00000	66 8b 00	 mov	 ax, WORD PTR [eax]

; 299  : 		}

  00003	c3		 ret	 0
?to_int_type@?$char_traits@G@std@@SAGABG@Z ENDP		; std::char_traits<unsigned short>::to_int_type
; Function compile flags: /Ogsy
; File c:\program files (x86)\microsoft visual studio .net 2003\vc7\include\streambuf
_TEXT	ENDS
;	COMDAT ?_Pninc@?$basic_streambuf@GU?$char_traits@G@std@@@std@@IAEPAGXZ
_TEXT	SEGMENT
?_Pninc@?$basic_streambuf@GU?$char_traits@G@std@@@std@@IAEPAGXZ PROC NEAR ; std::basic_streambuf<unsigned short,std::char_traits<unsigned short> >::_Pninc, COMDAT
; _this$ = ecx

; 245  : 		--*_IPcount;

  00000	8b 41 34	 mov	 eax, DWORD PTR [ecx+52]
  00003	ff 08		 dec	 DWORD PTR [eax]

; 246  : 		return ((*_IPnext)++);

  00005	8b 49 24	 mov	 ecx, DWORD PTR [ecx+36]
  00008	8b 01		 mov	 eax, DWORD PTR [ecx]
  0000a	8d 50 02	 lea	 edx, DWORD PTR [eax+2]
  0000d	89 11		 mov	 DWORD PTR [ecx], edx

; 247  : 		}

  0000f	c3		 ret	 0
?_Pninc@?$basic_streambuf@GU?$char_traits@G@std@@@std@@IAEPAGXZ ENDP ; std::basic_streambuf<unsigned short,std::char_traits<unsigned short> >::_Pninc
; Function compile flags: /Ogsy
_TEXT	ENDS
;	COMDAT ?epptr@?$basic_streambuf@GU?$char_traits@G@std@@@std@@IBEPAGXZ
_TEXT	SEGMENT
?epptr@?$basic_streambuf@GU?$char_traits@G@std@@@std@@IBEPAGXZ PROC NEAR ; std::basic_streambuf<unsigned short,std::char_traits<unsigned short> >::epptr, COMDAT
; _this$ = eax

; 208  : 		return (*_IPnext + *_IPcount);

  00000	8b 48 34	 mov	 ecx, DWORD PTR [eax+52]
  00003	8b 40 24	 mov	 eax, DWORD PTR [eax+36]
  00006	8b 09		 mov	 ecx, DWORD PTR [ecx]
  00008	8b 00		 mov	 eax, DWORD PTR [eax]
  0000a	8d 04 48	 lea	 eax, DWORD PTR [eax+ecx*2]

; 209  : 		}

  0000d	c3		 ret	 0
?epptr@?$basic_streambuf@GU?$char_traits@G@std@@@std@@IBEPAGXZ ENDP ; std::basic_streambuf<unsigned short,std::char_traits<unsigned short> >::epptr
; Function compile flags: /Ogsy
_TEXT	ENDS
;	COMDAT ?pptr@?$basic_streambuf@GU?$char_traits@G@std@@@std@@IBEPAGXZ
_TEXT	SEGMENT
?pptr@?$basic_streambuf@GU?$char_traits@G@std@@@std@@IBEPAGXZ PROC NEAR ; std::basic_streambuf<unsigned short,std::char_traits<unsigned short> >::pptr, COMDAT
; _this$ = eax

; 185  : 		return (*_IPnext);

  00000	8b 40 24	 mov	 eax, DWORD PTR [eax+36]
  00003	8b 00		 mov	 eax, DWORD PTR [eax]

; 186  : 		}

  00005	c3		 ret	 0
?pptr@?$basic_streambuf@GU?$char_traits@G@std@@@std@@IBEPAGXZ ENDP ; std::basic_streambuf<unsigned short,std::char_traits<unsigned short> >::pptr
; Function compile flags: /Ogsy
_TEXT	ENDS
;	COMDAT ?sputc@?$basic_streambuf@GU?$char_traits@G@std@@@std@@QAEGG@Z
_TEXT	SEGMENT
__Ch$ = 8						; size = 2
?sputc@?$basic_streambuf@GU?$char_traits@G@std@@@std@@QAEGG@Z PROC NEAR ; std::basic_streambuf<unsigned short,std::char_traits<unsigned short> >::sputc, COMDAT
; _this$ = ecx

; 146  : 		return (pptr() != 0 && pptr() < epptr()
; 147  : 			? _Traits::to_int_type(*_Pninc() = _Ch)
; 148  : 			: overflow(_Traits::to_int_type(_Ch)));

  00000	8b 41 24	 mov	 eax, DWORD PTR [ecx+36]
  00003	83 38 00	 cmp	 DWORD PTR [eax], 0
  00006	74 29		 je	 SHORT $L40824
  00008	8b 51 34	 mov	 edx, DWORD PTR [ecx+52]
  0000b	8b 00		 mov	 eax, DWORD PTR [eax]
  0000d	8b 12		 mov	 edx, DWORD PTR [edx]
  0000f	8d 14 50	 lea	 edx, DWORD PTR [eax+edx*2]
  00012	3b c2		 cmp	 eax, edx
  00014	73 1b		 jae	 SHORT $L40824
  00016	8b 41 34	 mov	 eax, DWORD PTR [ecx+52]
  00019	ff 08		 dec	 DWORD PTR [eax]
  0001b	8b 49 24	 mov	 ecx, DWORD PTR [ecx+36]
  0001e	8b 01		 mov	 eax, DWORD PTR [ecx]
  00020	8d 50 02	 lea	 edx, DWORD PTR [eax+2]
  00023	89 11		 mov	 DWORD PTR [ecx], edx
  00025	8b 4c 24 04	 mov	 ecx, DWORD PTR __Ch$[esp-4]
  00029	66 89 08	 mov	 WORD PTR [eax], cx
  0002c	8b c1		 mov	 eax, ecx

; 149  : 		}

  0002e	c2 04 00	 ret	 4
$L40824:

; 146  : 		return (pptr() != 0 && pptr() < epptr()
; 147  : 			? _Traits::to_int_type(*_Pninc() = _Ch)
; 148  : 			: overflow(_Traits::to_int_type(_Ch)));

  00031	8b 01		 mov	 eax, DWORD PTR [ecx]
  00033	ff 60 04	 jmp	 DWORD PTR [eax+4]
?sputc@?$basic_streambuf@GU?$char_traits@G@std@@@std@@QAEGG@Z ENDP ; std::basic_streambuf<unsigned short,std::char_traits<unsigned short> >::sputc
; Function compile flags: /Ogsy
; File c:\program files (x86)\microsoft visual studio .net 2003\vc7\include\iosfwd
_TEXT	ENDS
;	COMDAT ?eof@?$char_traits@G@std@@SAGXZ
_TEXT	SEGMENT
?eof@?$char_traits@G@std@@SAGXZ PROC NEAR		; std::char_traits<unsigned short>::eof, COMDAT

; 309  : 		return (WEOF);

  00000	66 0d ff ff	 or	 ax, 65535		; 0000ffffH

; 310  : 		}

  00004	c3		 ret	 0
?eof@?$char_traits@G@std@@SAGXZ ENDP			; std::char_traits<unsigned short>::eof
; Function compile flags: /Ogsy
_TEXT	ENDS
;	COMDAT ?eq_int_type@?$char_traits@D@std@@SA_NABH0@Z
_TEXT	SEGMENT
?eq_int_type@?$char_traits@D@std@@SA_NABH0@Z PROC NEAR	; std::char_traits<char>::eq_int_type, COMDAT
; __Left$ = eax
; __Right$ = ecx

; 391  : 		return (_Left == _Right);

  00000	8b 00		 mov	 eax, DWORD PTR [eax]
  00002	2b 01		 sub	 eax, DWORD PTR [ecx]
  00004	f7 d8		 neg	 eax
  00006	1b c0		 sbb	 eax, eax
  00008	40		 inc	 eax

; 392  : 		}

  00009	c3		 ret	 0
?eq_int_type@?$char_traits@D@std@@SA_NABH0@Z ENDP	; std::char_traits<char>::eq_int_type
; Function compile flags: /Ogsy
_TEXT	ENDS
;	COMDAT ?to_int_type@?$char_traits@D@std@@SAHABD@Z
_TEXT	SEGMENT
?to_int_type@?$char_traits@D@std@@SAHABD@Z PROC NEAR	; std::char_traits<char>::to_int_type, COMDAT
; __Ch$ = eax

; 385  : 		return ((unsigned char)_Ch);

  00000	0f b6 00	 movzx	 eax, BYTE PTR [eax]

; 386  : 		}

  00003	c3		 ret	 0
?to_int_type@?$char_traits@D@std@@SAHABD@Z ENDP		; std::char_traits<char>::to_int_type
; Function compile flags: /Ogsy
; File c:\program files (x86)\microsoft visual studio .net 2003\vc7\include\streambuf
_TEXT	ENDS
;	COMDAT ?_Pninc@?$basic_streambuf@DU?$char_traits@D@std@@@std@@IAEPADXZ
_TEXT	SEGMENT
?_Pninc@?$basic_streambuf@DU?$char_traits@D@std@@@std@@IAEPADXZ PROC NEAR ; std::basic_streambuf<char,std::char_traits<char> >::_Pninc, COMDAT
; _this$ = ecx

; 245  : 		--*_IPcount;

  00000	8b 41 34	 mov	 eax, DWORD PTR [ecx+52]
  00003	ff 08		 dec	 DWORD PTR [eax]

; 246  : 		return ((*_IPnext)++);

  00005	8b 49 24	 mov	 ecx, DWORD PTR [ecx+36]
  00008	8b 01		 mov	 eax, DWORD PTR [ecx]
  0000a	8d 50 01	 lea	 edx, DWORD PTR [eax+1]
  0000d	89 11		 mov	 DWORD PTR [ecx], edx

; 247  : 		}

  0000f	c3		 ret	 0
?_Pninc@?$basic_streambuf@DU?$char_traits@D@std@@@std@@IAEPADXZ ENDP ; std::basic_streambuf<char,std::char_traits<char> >::_Pninc
; Function compile flags: /Ogsy
_TEXT	ENDS
;	COMDAT ?epptr@?$basic_streambuf@DU?$char_traits@D@std@@@std@@IBEPADXZ
_TEXT	SEGMENT
?epptr@?$basic_streambuf@DU?$char_traits@D@std@@@std@@IBEPADXZ PROC NEAR ; std::basic_streambuf<char,std::char_traits<char> >::epptr, COMDAT
; _this$ = eax

; 208  : 		return (*_IPnext + *_IPcount);

  00000	8b 48 34	 mov	 ecx, DWORD PTR [eax+52]
  00003	8b 50 24	 mov	 edx, DWORD PTR [eax+36]
  00006	8b 01		 mov	 eax, DWORD PTR [ecx]
  00008	03 02		 add	 eax, DWORD PTR [edx]

; 209  : 		}

  0000a	c3		 ret	 0
?epptr@?$basic_streambuf@DU?$char_traits@D@std@@@std@@IBEPADXZ ENDP ; std::basic_streambuf<char,std::char_traits<char> >::epptr
; Function compile flags: /Ogsy
_TEXT	ENDS
;	COMDAT ?pptr@?$basic_streambuf@DU?$char_traits@D@std@@@std@@IBEPADXZ
_TEXT	SEGMENT
?pptr@?$basic_streambuf@DU?$char_traits@D@std@@@std@@IBEPADXZ PROC NEAR ; std::basic_streambuf<char,std::char_traits<char> >::pptr, COMDAT
; _this$ = eax

; 185  : 		return (*_IPnext);

  00000	8b 40 24	 mov	 eax, DWORD PTR [eax+36]
  00003	8b 00		 mov	 eax, DWORD PTR [eax]

; 186  : 		}

  00005	c3		 ret	 0
?pptr@?$basic_streambuf@DU?$char_traits@D@std@@@std@@IBEPADXZ ENDP ; std::basic_streambuf<char,std::char_traits<char> >::pptr
; Function compile flags: /Ogsy
_TEXT	ENDS
;	COMDAT ?sputc@?$basic_streambuf@DU?$char_traits@D@std@@@std@@QAEHD@Z
_TEXT	SEGMENT
__Ch$ = 8						; size = 1
?sputc@?$basic_streambuf@DU?$char_traits@D@std@@@std@@QAEHD@Z PROC NEAR ; std::basic_streambuf<char,std::char_traits<char> >::sputc, COMDAT
; _this$ = ecx

; 146  : 		return (pptr() != 0 && pptr() < epptr()
; 147  : 			? _Traits::to_int_type(*_Pninc() = _Ch)
; 148  : 			: overflow(_Traits::to_int_type(_Ch)));

  00000	8b 41 24	 mov	 eax, DWORD PTR [ecx+36]
  00003	83 38 00	 cmp	 DWORD PTR [eax], 0
  00006	74 27		 je	 SHORT $L40870
  00008	8b 51 34	 mov	 edx, DWORD PTR [ecx+52]
  0000b	8b 00		 mov	 eax, DWORD PTR [eax]
  0000d	8b 12		 mov	 edx, DWORD PTR [edx]
  0000f	03 d0		 add	 edx, eax
  00011	3b c2		 cmp	 eax, edx
  00013	73 1a		 jae	 SHORT $L40870
  00015	8b 41 34	 mov	 eax, DWORD PTR [ecx+52]
  00018	ff 08		 dec	 DWORD PTR [eax]
  0001a	8b 49 24	 mov	 ecx, DWORD PTR [ecx+36]
  0001d	8b 01		 mov	 eax, DWORD PTR [ecx]
  0001f	8d 50 01	 lea	 edx, DWORD PTR [eax+1]
  00022	89 11		 mov	 DWORD PTR [ecx], edx
  00024	8a 4c 24 04	 mov	 cl, BYTE PTR __Ch$[esp-4]
  00028	88 08		 mov	 BYTE PTR [eax], cl
  0002a	0f b6 c1	 movzx	 eax, cl
  0002d	eb 0b		 jmp	 SHORT $L40872
$L40870:
  0002f	0f b6 54 24 04	 movzx	 edx, BYTE PTR __Ch$[esp-4]
  00034	8b 01		 mov	 eax, DWORD PTR [ecx]
  00036	52		 push	 edx
  00037	ff 50 04	 call	 DWORD PTR [eax+4]
$L40872:

; 149  : 		}

  0003a	c2 04 00	 ret	 4
?sputc@?$basic_streambuf@DU?$char_traits@D@std@@@std@@QAEHD@Z ENDP ; std::basic_streambuf<char,std::char_traits<char> >::sputc
; Function compile flags: /Ogsy
; File c:\program files (x86)\microsoft visual studio .net 2003\vc7\include\iosfwd
_TEXT	ENDS
;	COMDAT ?eof@?$char_traits@D@std@@SAHXZ
_TEXT	SEGMENT
?eof@?$char_traits@D@std@@SAHXZ PROC NEAR		; std::char_traits<char>::eof, COMDAT

; 396  : 		return (EOF);

  00000	83 c8 ff	 or	 eax, -1

; 397  : 		}

  00003	c3		 ret	 0
?eof@?$char_traits@D@std@@SAHXZ ENDP			; std::char_traits<char>::eof
; Function compile flags: /Ogsy
; File c:\program files (x86)\microsoft visual studio .net 2003\vc7\include\wchar.h
_TEXT	ENDS
;	COMDAT _wmemcpy
_TEXT	SEGMENT
_wmemcpy PROC NEAR					; COMDAT
; __S1$ = edx
; __S2$ = eax
; __N$ = ecx

; 792  :         {

  00000	56		 push	 esi
  00001	57		 push	 edi

; 793  :             return (wchar_t *)memcpy(_S1, _S2, _N*sizeof(wchar_t));

  00002	8b f0		 mov	 esi, eax
  00004	8b fa		 mov	 edi, edx
  00006	8b c7		 mov	 eax, edi
  00008	66 f3 a5	 rep movsw
  0000b	5f		 pop	 edi
  0000c	5e		 pop	 esi

; 794  :         }

  0000d	c3		 ret	 0
_wmemcpy ENDP
; Function compile flags: /Ogsy
; File c:\program files (x86)\microsoft visual studio .net 2003\vc7\include\iosfwd
_TEXT	ENDS
;	COMDAT ?copy@?$char_traits@G@std@@SAPAGPAGPBGI@Z
_TEXT	SEGMENT
?copy@?$char_traits@G@std@@SAPAGPAGPBGI@Z PROC NEAR	; std::char_traits<unsigned short>::copy, COMDAT
; __First1$ = edx
; __First2$ = eax
; __Count$ = ecx

; 270  : 		{	// copy [_First1, _First1 + _Count) to [_First2, ...)

  00000	56		 push	 esi
  00001	57		 push	 edi

; 271  : 		return (::wmemcpy(_First1, _First2, _Count));

  00002	8b f0		 mov	 esi, eax
  00004	8b fa		 mov	 edi, edx
  00006	8b c7		 mov	 eax, edi
  00008	66 f3 a5	 rep movsw
  0000b	5f		 pop	 edi
  0000c	5e		 pop	 esi

; 272  : 		}

  0000d	c3		 ret	 0
?copy@?$char_traits@G@std@@SAPAGPAGPBGI@Z ENDP		; std::char_traits<unsigned short>::copy
; Function compile flags: /Ogsy
; File c:\program files (x86)\microsoft visual studio .net 2003\vc7\include\xstring
_TEXT	ENDS
;	COMDAT ?_Myptr@?$basic_string@DU?$char_traits@D@std@@V?$allocator@D@2@@std@@QBEPBDXZ
_TEXT	SEGMENT
?_Myptr@?$basic_string@DU?$char_traits@D@std@@V?$allocator@D@2@@std@@QBEPBDXZ PROC NEAR ; std::basic_string<char,std::char_traits<char>,std::allocator<char> >::_Myptr, COMDAT
; _this$ = ecx

; 1537 : 		return (_BUF_SIZE <= _Myres ? _Bx._Ptr : _Bx._Buf);

  00000	83 79 18 10	 cmp	 DWORD PTR [ecx+24], 16	; 00000010H
  00004	72 04		 jb	 SHORT $L40908
  00006	8b 41 04	 mov	 eax, DWORD PTR [ecx+4]

; 1538 : 		}

  00009	c3		 ret	 0
$L40908:

; 1537 : 		return (_BUF_SIZE <= _Myres ? _Bx._Ptr : _Bx._Buf);

  0000a	8d 41 04	 lea	 eax, DWORD PTR [ecx+4]

; 1538 : 		}

  0000d	c3		 ret	 0
?_Myptr@?$basic_string@DU?$char_traits@D@std@@V?$allocator@D@2@@std@@QBEPBDXZ ENDP ; std::basic_string<char,std::char_traits<char>,std::allocator<char> >::_Myptr
; Function compile flags: /Ogsy
; File c:\program files (x86)\microsoft visual studio .net 2003\vc7\include\iosfwd
_TEXT	ENDS
;	COMDAT ?length@?$char_traits@G@std@@SAIPBG@Z
_TEXT	SEGMENT
__First$ = 8						; size = 4
?length@?$char_traits@G@std@@SAIPBG@Z PROC NEAR		; std::char_traits<unsigned short>::length, COMDAT

; 265  : 		return (::wcslen(_First));

  00000	e9 00 00 00 00	 jmp	 _wcslen
?length@?$char_traits@G@std@@SAIPBG@Z ENDP		; std::char_traits<unsigned short>::length
; Function compile flags: /Ogsy
; File c:\program files (x86)\microsoft visual studio .net 2003\vc7\include\wchar.h
_TEXT	ENDS
;	COMDAT _wmemmove
_TEXT	SEGMENT
__S1$ = 8						; size = 4
__S2$ = 12						; size = 4
_wmemmove PROC NEAR					; COMDAT
; __N$ = eax

; 797  :             return (wchar_t *)memmove(_S1, _S2, _N*sizeof(wchar_t));

  00000	03 c0		 add	 eax, eax
  00002	50		 push	 eax
  00003	ff 74 24 0c	 push	 DWORD PTR __S2$[esp]
  00007	ff 74 24 0c	 push	 DWORD PTR __S1$[esp+4]
  0000b	e8 00 00 00 00	 call	 _memmove
  00010	83 c4 0c	 add	 esp, 12			; 0000000cH

; 798  :         }

  00013	c3		 ret	 0
_wmemmove ENDP
; Function compile flags: /Ogsy
; File c:\program files (x86)\microsoft visual studio .net 2003\vc7\include\iosfwd
_TEXT	ENDS
;	COMDAT ?move@?$char_traits@G@std@@SAPAGPAGPBGI@Z
_TEXT	SEGMENT
__First1$ = 8						; size = 4
__First2$ = 12						; size = 4
?move@?$char_traits@G@std@@SAPAGPAGPBGI@Z PROC NEAR	; std::char_traits<unsigned short>::move, COMDAT
; __Count$ = eax

; 283  : 		return (::wmemmove(_First1, _First2, _Count));

  00000	03 c0		 add	 eax, eax
  00002	50		 push	 eax
  00003	ff 74 24 0c	 push	 DWORD PTR __First2$[esp]
  00007	ff 74 24 0c	 push	 DWORD PTR __First1$[esp+4]
  0000b	e8 00 00 00 00	 call	 _memmove
  00010	83 c4 0c	 add	 esp, 12			; 0000000cH

; 284  : 		}

  00013	c3		 ret	 0
?move@?$char_traits@G@std@@SAPAGPAGPBGI@Z ENDP		; std::char_traits<unsigned short>::move
; Function compile flags: /Ogsy
_TEXT	ENDS
;	COMDAT ?assign@?$char_traits@G@std@@SAXAAGABG@Z
_TEXT	SEGMENT
?assign@?$char_traits@G@std@@SAXAAGABG@Z PROC NEAR	; std::char_traits<unsigned short>::assign, COMDAT
; __Left$ = ecx
; __Right$ = eax

; 244  : 		_Left = _Right;

  00000	66 8b 00	 mov	 ax, WORD PTR [eax]
  00003	66 89 01	 mov	 WORD PTR [ecx], ax

; 245  : 		}

  00006	c3		 ret	 0
?assign@?$char_traits@G@std@@SAXAAGABG@Z ENDP		; std::char_traits<unsigned short>::assign
; Function compile flags: /Ogsy
; File c:\program files (x86)\microsoft visual studio .net 2003\vc7\include\xlocale
_TEXT	ENDS
;	COMDAT ??0id@locale@std@@QAE@I@Z
_TEXT	SEGMENT
__Val$ = 8						; size = 4
??0id@locale@std@@QAE@I@Z PROC NEAR			; std::locale::id::id, COMDAT
; _this$ = ecx

; 66   : 			{	// construct with specified stamp value

  00000	8b c1		 mov	 eax, ecx
  00002	8b 4c 24 04	 mov	 ecx, DWORD PTR __Val$[esp-4]
  00006	89 08		 mov	 DWORD PTR [eax], ecx

; 67   : 			}

  00008	c2 04 00	 ret	 4
??0id@locale@std@@QAE@I@Z ENDP				; std::locale::id::id
; Function compile flags: /Ogsy
; File c:\program files (x86)\microsoft visual studio .net 2003\vc7\include\iosfwd
_TEXT	ENDS
;	COMDAT ?length@?$char_traits@D@std@@SAIPBD@Z
_TEXT	SEGMENT
__First$ = 8						; size = 4
?length@?$char_traits@D@std@@SAIPBD@Z PROC NEAR		; std::char_traits<char>::length, COMDAT

; 352  : 		return (::strlen(_First));

  00000	8b 44 24 04	 mov	 eax, DWORD PTR __First$[esp-4]
  00004	8d 50 01	 lea	 edx, DWORD PTR [eax+1]
$L40932:
  00007	8a 08		 mov	 cl, BYTE PTR [eax]
  00009	40		 inc	 eax
  0000a	84 c9		 test	 cl, cl
  0000c	75 f9		 jne	 SHORT $L40932
  0000e	2b c2		 sub	 eax, edx

; 353  : 		}

  00010	c3		 ret	 0
?length@?$char_traits@D@std@@SAIPBD@Z ENDP		; std::char_traits<char>::length
; Function compile flags: /Ogsy
; File c:\program files (x86)\microsoft visual studio .net 2003\vc7\include\xlocale
_TEXT	ENDS
;	COMDAT ??Bid@locale@std@@QAEIXZ
_TEXT	SEGMENT
__Lock$5069 = -4					; size = 4
??Bid@locale@std@@QAEIXZ PROC NEAR			; std::locale::id::operator unsigned int, COMDAT
; _this$ = ecx

; 70   : 			{	// get stamp, with lazy allocation

  00000	55		 push	 ebp
  00001	8b ec		 mov	 ebp, esp
  00003	51		 push	 ecx
  00004	56		 push	 esi
  00005	8b f1		 mov	 esi, ecx

; 71   : 			if (_Id == 0)

  00007	83 3e 00	 cmp	 DWORD PTR [esi], 0
  0000a	75 24		 jne	 SHORT $L5068

; 72   : 				{	// still zero, allocate stamp
; 73   : 				_Lockit _Lock(_LOCK_LOCALE);

  0000c	6a 00		 push	 0
  0000e	8d 4d fc	 lea	 ecx, DWORD PTR __Lock$5069[ebp]
  00011	e8 00 00 00 00	 call	 ??0_Lockit@std@@QAE@H@Z	; std::_Lockit::_Lockit

; 74   : 				if (_Id == 0)

  00016	83 3e 00	 cmp	 DWORD PTR [esi], 0
  00019	75 0d		 jne	 SHORT $L5070

; 75   : 					_Id = ++_Id_cnt;

  0001b	ff 05 00 00 00
	00		 inc	 DWORD PTR ?_Id_cnt@id@locale@std@@0HA ; std::locale::id::_Id_cnt
  00021	a1 00 00 00 00	 mov	 eax, DWORD PTR ?_Id_cnt@id@locale@std@@0HA ; std::locale::id::_Id_cnt
  00026	89 06		 mov	 DWORD PTR [esi], eax
$L5070:

; 76   : 				}

  00028	8d 4d fc	 lea	 ecx, DWORD PTR __Lock$5069[ebp]
  0002b	e8 00 00 00 00	 call	 ??1_Lockit@std@@QAE@XZ	; std::_Lockit::~_Lockit
$L5068:

; 77   : 			return (_Id);

  00030	8b 06		 mov	 eax, DWORD PTR [esi]
  00032	5e		 pop	 esi

; 78   : 			}

  00033	c9		 leave
  00034	c3		 ret	 0
??Bid@locale@std@@QAEIXZ ENDP				; std::locale::id::operator unsigned int
; Function compile flags: /Ogsy
_TEXT	ENDS
;	COMDAT ?_Incref@facet@locale@std@@QAEXXZ
_TEXT	SEGMENT
__Lock$ = -4						; size = 4
?_Incref@facet@locale@std@@QAEXXZ PROC NEAR		; std::locale::facet::_Incref, COMDAT
; _this$ = ecx

; 103  : 			{	// safely increment the reference count

  00000	55		 push	 ebp
  00001	8b ec		 mov	 ebp, esp
  00003	51		 push	 ecx
  00004	56		 push	 esi
  00005	8b f1		 mov	 esi, ecx

; 104  : 			_Lockit _Lock(_LOCK_LOCALE);

  00007	6a 00		 push	 0
  00009	8d 4d fc	 lea	 ecx, DWORD PTR __Lock$[ebp]
  0000c	e8 00 00 00 00	 call	 ??0_Lockit@std@@QAE@H@Z	; std::_Lockit::_Lockit

; 105  : 
; 106  : 			if (_Refs < (size_t)(-1))

  00011	8b 46 04	 mov	 eax, DWORD PTR [esi+4]
  00014	83 f8 ff	 cmp	 eax, -1
  00017	73 04		 jae	 SHORT $L5077

; 107  : 				++_Refs;

  00019	40		 inc	 eax
  0001a	89 46 04	 mov	 DWORD PTR [esi+4], eax
$L5077:

; 108  : 			}

  0001d	8d 4d fc	 lea	 ecx, DWORD PTR __Lock$[ebp]
  00020	e8 00 00 00 00	 call	 ??1_Lockit@std@@QAE@XZ	; std::_Lockit::~_Lockit
  00025	5e		 pop	 esi
  00026	c9		 leave
  00027	c3		 ret	 0
?_Incref@facet@locale@std@@QAEXXZ ENDP			; std::locale::facet::_Incref
; Function compile flags: /Ogsy
_TEXT	ENDS
;	COMDAT ??_Gfacet@locale@std@@UAEPAXI@Z
_TEXT	SEGMENT
___flags$ = 8						; size = 4
??_Gfacet@locale@std@@UAEPAXI@Z PROC NEAR		; std::locale::facet::`scalar deleting destructor', COMDAT
; _this$ = ecx
  00000	f6 44 24 04 01	 test	 BYTE PTR ___flags$[esp-4], 1
  00005	56		 push	 esi
  00006	8b f1		 mov	 esi, ecx
  00008	c7 06 00 00 00
	00		 mov	 DWORD PTR [esi], OFFSET FLAT:??_7facet@locale@std@@6B@
  0000e	74 07		 je	 SHORT $L5112
  00010	56		 push	 esi
  00011	e8 00 00 00 00	 call	 ??3@YAXPAX@Z		; operator delete
  00016	59		 pop	 ecx
$L5112:
  00017	8b c6		 mov	 eax, esi
  00019	5e		 pop	 esi
  0001a	c2 04 00	 ret	 4
??_Gfacet@locale@std@@UAEPAXI@Z ENDP			; std::locale::facet::`scalar deleting destructor'
; Function compile flags: /Ogsy
_TEXT	ENDS
;	COMDAT ??0facet@locale@std@@IAE@I@Z
_TEXT	SEGMENT
__Initrefs$ = 8						; size = 4
??0facet@locale@std@@IAE@I@Z PROC NEAR			; std::locale::facet::facet, COMDAT
; _this$ = ecx

; 129  : 			{	// construct with initial reference count

  00000	8b c1		 mov	 eax, ecx
  00002	8b 4c 24 04	 mov	 ecx, DWORD PTR __Initrefs$[esp-4]
  00006	c7 00 00 00 00
	00		 mov	 DWORD PTR [eax], OFFSET FLAT:??_7facet@locale@std@@6B@
  0000c	89 48 04	 mov	 DWORD PTR [eax+4], ecx

; 130  : 			}

  0000f	c2 04 00	 ret	 4
??0facet@locale@std@@IAE@I@Z ENDP			; std::locale::facet::facet
; Function compile flags: /Ogsy
; File c:\program files (x86)\microsoft visual studio .net 2003\vc7\include\xlocinfo
_TEXT	ENDS
;	COMDAT ?_Getcvt@_Locinfo@std@@QBE?AU_Cvtvec@@XZ
_TEXT	SEGMENT
___$ReturnUdt$ = 8					; size = 4
?_Getcvt@_Locinfo@std@@QBE?AU_Cvtvec@@XZ PROC NEAR	; std::_Locinfo::_Getcvt, COMDAT
; _this$ = ecx

; 82   : 		return (::_Getcvt());

  00000	e8 00 00 00 00	 call	 __Getcvt
  00005	8b c8		 mov	 ecx, eax
  00007	8b 44 24 04	 mov	 eax, DWORD PTR ___$ReturnUdt$[esp-4]
  0000b	89 08		 mov	 DWORD PTR [eax], ecx
  0000d	89 50 04	 mov	 DWORD PTR [eax+4], edx

; 83   : 		}

  00010	c2 04 00	 ret	 4
?_Getcvt@_Locinfo@std@@QBE?AU_Cvtvec@@XZ ENDP		; std::_Locinfo::_Getcvt
; Function compile flags: /Ogsy
_TEXT	ENDS
;	COMDAT ?_Getlconv@_Locinfo@std@@QBEPBUlconv@@XZ
_TEXT	SEGMENT
?_Getlconv@_Locinfo@std@@QBEPBUlconv@@XZ PROC NEAR	; std::_Locinfo::_Getlconv, COMDAT
; _this$ = ecx

; 87   : 		return (localeconv());

  00000	e9 00 00 00 00	 jmp	 _localeconv
?_Getlconv@_Locinfo@std@@QBEPBUlconv@@XZ ENDP		; std::_Locinfo::_Getlconv
; Function compile flags: /Ogsy
; File c:\program files (x86)\microsoft visual studio .net 2003\vc7\include\xlocale
_TEXT	ENDS
;	COMDAT ??$_Maklocstr@G@std@@YAPAGPBDPAGABU_Cvtvec@@@Z
_TEXT	SEGMENT
__Mbst2$ = -16						; size = 4
__Mbst1$ = -12						; size = 4
__Ptrdest$ = -8						; size = 4
__Ptr1$ = -8						; size = 4
__Wc$ = -4						; size = 2
__Ptr$ = 8						; size = 4
___formal$ = 12						; size = 4
__Cvt$ = 16						; size = 4
??$_Maklocstr@G@std@@YAPAGPBDPAGABU_Cvtvec@@@Z PROC NEAR ; std::_Maklocstr<unsigned short>, COMDAT

; 464  : 	{	// convert C string to wchar_t sequence using _Cvtvec

  00000	55		 push	 ebp
  00001	8b ec		 mov	 ebp, esp
  00003	83 ec 10	 sub	 esp, 16			; 00000010H

; 465  : 	size_t _Count, _Count1;
; 466  : 	size_t _Wchars;
; 467  : 	const char *_Ptr1;
; 468  : 	int _Bytes;
; 469  : 	wchar_t _Wc;
; 470  : 	_Mbstinit(_Mbst1);
; 471  : 
; 472  : 	_Count1 = ::strlen(_Ptr) + 1;

  00006	8b 45 08	 mov	 eax, DWORD PTR __Ptr$[ebp]
  00009	53		 push	 ebx
  0000a	56		 push	 esi
  0000b	57		 push	 edi
  0000c	33 ff		 xor	 edi, edi
  0000e	89 7d f4	 mov	 DWORD PTR __Mbst1$[ebp], edi
  00011	8d 48 01	 lea	 ecx, DWORD PTR [eax+1]
$L40966:
  00014	8a 10		 mov	 dl, BYTE PTR [eax]
  00016	40		 inc	 eax
  00017	84 d2		 test	 dl, dl
  00019	75 f9		 jne	 SHORT $L40966
  0001b	2b c1		 sub	 eax, ecx
  0001d	8d 70 01	 lea	 esi, DWORD PTR [eax+1]

; 473  : 	for (_Count = _Count1, _Wchars = 0, _Ptr1 = _Ptr; 0 < _Count;
; 474  : 		_Count -= _Bytes, _Ptr1 += _Bytes, ++_Wchars)

  00020	3b f7		 cmp	 esi, edi
  00022	8b 45 08	 mov	 eax, DWORD PTR __Ptr$[ebp]
  00025	8b de		 mov	 ebx, esi
  00027	89 45 f8	 mov	 DWORD PTR __Ptr1$[ebp], eax
  0002a	76 25		 jbe	 SHORT $L40962
$L40967:

; 475  : 		if ((_Bytes = _Mbrtowc(&_Wc, _Ptr1, _Count, &_Mbst1, &_Cvt)) <= 0)

  0002c	ff 75 10	 push	 DWORD PTR __Cvt$[ebp]
  0002f	8d 45 f4	 lea	 eax, DWORD PTR __Mbst1$[ebp]
  00032	50		 push	 eax
  00033	53		 push	 ebx
  00034	ff 75 f8	 push	 DWORD PTR __Ptr1$[ebp]
  00037	8d 45 fc	 lea	 eax, DWORD PTR __Wc$[ebp]
  0003a	50		 push	 eax
  0003b	e8 00 00 00 00	 call	 __Mbrtowc
  00040	83 c4 14	 add	 esp, 20			; 00000014H
  00043	85 c0		 test	 eax, eax
  00045	7e 0a		 jle	 SHORT $L40962
  00047	01 45 f8	 add	 DWORD PTR __Ptr1$[ebp], eax
  0004a	2b d8		 sub	 ebx, eax
  0004c	47		 inc	 edi
  0004d	85 db		 test	 ebx, ebx
  0004f	77 db		 ja	 SHORT $L40967
$L40962:

; 476  : 			break;
; 477  : 	++_Wchars;	// count terminating nul

  00051	47		 inc	 edi

; 478  : 
; 479  : 	wchar_t *_Ptrdest = _NEW_CRT wchar_t[_Wchars];

  00052	8d 04 3f	 lea	 eax, DWORD PTR [edi+edi]
  00055	50		 push	 eax
  00056	e8 00 00 00 00	 call	 ??_U@YAPAXI@Z		; operator new[]

; 480  : 	wchar_t *_Ptrnext = _Ptrdest;
; 481  : 	_Mbstinit(_Mbst2);

  0005b	83 65 f0 00	 and	 DWORD PTR __Mbst2$[ebp], 0
  0005f	8b d8		 mov	 ebx, eax
  00061	59		 pop	 ecx
  00062	89 5d f8	 mov	 DWORD PTR __Ptrdest$[ebp], ebx
  00065	eb 1e		 jmp	 SHORT $L40969
$L5180:

; 484  : 		if ((_Bytes = _Mbrtowc(_Ptrnext, _Ptr, _Count1, &_Mbst2, &_Cvt)) <= 0)

  00067	ff 75 10	 push	 DWORD PTR __Cvt$[ebp]
  0006a	8d 45 f0	 lea	 eax, DWORD PTR __Mbst2$[ebp]
  0006d	50		 push	 eax
  0006e	56		 push	 esi
  0006f	ff 75 08	 push	 DWORD PTR __Ptr$[ebp]
  00072	53		 push	 ebx
  00073	e8 00 00 00 00	 call	 __Mbrtowc
  00078	83 c4 14	 add	 esp, 20			; 00000014H
  0007b	85 c0		 test	 eax, eax
  0007d	7e 0a		 jle	 SHORT $L40968
  0007f	01 45 08	 add	 DWORD PTR __Ptr$[ebp], eax
  00082	4f		 dec	 edi
  00083	43		 inc	 ebx
  00084	43		 inc	 ebx
$L40969:

; 482  : 	for (; 0 < _Wchars;
; 483  : 		_Count -= _Bytes, _Ptr += _Bytes, --_Wchars, ++_Ptrnext)

  00085	85 ff		 test	 edi, edi
  00087	77 de		 ja	 SHORT $L5180
$L40968:

; 485  : 			break;
; 486  : 	*_Ptrnext = L'\0';

  00089	66 83 23 00	 and	 WORD PTR [ebx], 0

; 487  : 	return (_Ptrdest);

  0008d	8b 45 f8	 mov	 eax, DWORD PTR __Ptrdest$[ebp]
  00090	5f		 pop	 edi
  00091	5e		 pop	 esi
  00092	5b		 pop	 ebx

; 488  : 	}

  00093	c9		 leave
  00094	c3		 ret	 0
??$_Maklocstr@G@std@@YAPAGPBDPAGABU_Cvtvec@@@Z ENDP	; std::_Maklocstr<unsigned short>
; Function compile flags: /Ogsy
; File c:\program files (x86)\microsoft visual studio .net 2003\vc7\include\xlocinfo
_TEXT	ENDS
;	COMDAT ?_Getfalse@_Locinfo@std@@QBEPBDXZ
_TEXT	SEGMENT
?_Getfalse@_Locinfo@std@@QBEPBDXZ PROC NEAR		; std::_Locinfo::_Getfalse, COMDAT
; _this$ = ecx

; 125  : 		return ("false");

  00000	b8 00 00 00 00	 mov	 eax, OFFSET FLAT:??_C@_05LAPONLG@false?$AA@

; 126  : 		}

  00005	c3		 ret	 0
?_Getfalse@_Locinfo@std@@QBEPBDXZ ENDP			; std::_Locinfo::_Getfalse
; Function compile flags: /Ogsy
_TEXT	ENDS
;	COMDAT ?_Gettrue@_Locinfo@std@@QBEPBDXZ
_TEXT	SEGMENT
?_Gettrue@_Locinfo@std@@QBEPBDXZ PROC NEAR		; std::_Locinfo::_Gettrue, COMDAT
; _this$ = ecx

; 130  : 		return ("true");

  00000	b8 00 00 00 00	 mov	 eax, OFFSET FLAT:??_C@_04LOAJBDKD@true?$AA@

; 131  : 		}

  00005	c3		 ret	 0
?_Gettrue@_Locinfo@std@@QBEPBDXZ ENDP			; std::_Locinfo::_Gettrue
; Function compile flags: /Ogsy
; File c:\program files (x86)\microsoft visual studio .net 2003\vc7\include\xlocale
_TEXT	ENDS
;	COMDAT ??$_Maklocstr@D@std@@YAPADPBDPADABU_Cvtvec@@@Z
_TEXT	SEGMENT
__Ptr$ = 8						; size = 4
___formal$ = 12						; size = 4
___formal$ = 16						; size = 4
??$_Maklocstr@D@std@@YAPADPBDPADABU_Cvtvec@@@Z PROC NEAR ; std::_Maklocstr<char>, COMDAT

; 452  : 	{	// convert C string to _Elem sequence using _Cvtvec

  00000	56		 push	 esi
  00001	57		 push	 edi

; 453  : 	size_t _Count = ::strlen(_Ptr) + 1;

  00002	8b 7c 24 0c	 mov	 edi, DWORD PTR __Ptr$[esp+4]
  00006	8b c7		 mov	 eax, edi
  00008	8d 48 01	 lea	 ecx, DWORD PTR [eax+1]
$L40981:
  0000b	8a 10		 mov	 dl, BYTE PTR [eax]
  0000d	40		 inc	 eax
  0000e	84 d2		 test	 dl, dl
  00010	75 f9		 jne	 SHORT $L40981
  00012	2b c1		 sub	 eax, ecx
  00014	8d 70 01	 lea	 esi, DWORD PTR [eax+1]

; 454  : 	_Elem *_Ptrdest = _NEW_CRT _Elem[_Count];

  00017	56		 push	 esi
  00018	e8 00 00 00 00	 call	 ??_U@YAPAXI@Z		; operator new[]

; 455  : 
; 456  : 	for (_Elem *_Ptrnext = _Ptrdest; 0 < _Count; --_Count, ++_Ptrnext, ++_Ptr)

  0001d	85 f6		 test	 esi, esi
  0001f	59		 pop	 ecx
  00020	8b c8		 mov	 ecx, eax
  00022	76 09		 jbe	 SHORT $L26502
$L26500:

; 457  : 		*_Ptrnext = (_Elem)(unsigned char)*_Ptr;

  00024	8a 17		 mov	 dl, BYTE PTR [edi]
  00026	88 11		 mov	 BYTE PTR [ecx], dl
  00028	41		 inc	 ecx
  00029	47		 inc	 edi
  0002a	4e		 dec	 esi
  0002b	75 f7		 jne	 SHORT $L26500
$L26502:
  0002d	5f		 pop	 edi
  0002e	5e		 pop	 esi

; 458  : 	return (_Ptrdest);
; 459  : 	}

  0002f	c3		 ret	 0
??$_Maklocstr@D@std@@YAPADPBDPADABU_Cvtvec@@@Z ENDP	; std::_Maklocstr<char>
; Function compile flags: /Ogsy
; File c:\program files (x86)\microsoft visual studio .net 2003\vc7\include\xlocnum
_TEXT	ENDS
;	COMDAT ?_Init@?$num_put@DV?$ostreambuf_iterator@DU?$char_traits@D@std@@@std@@@std@@IAEXABV_Locinfo@2@@Z
_TEXT	SEGMENT
__Lobj$ = 8						; size = 4
?_Init@?$num_put@DV?$ostreambuf_iterator@DU?$char_traits@D@std@@@std@@@std@@IAEXABV_Locinfo@2@@Z PROC NEAR ; std::num_put<char,std::ostreambuf_iterator<char,std::char_traits<char> > >::_Init, COMDAT
; _this$ = ecx

; 806  : 		{	// initialize from _Locinfo object

  00000	56		 push	 esi
  00001	8b f1		 mov	 esi, ecx

; 807  : 		_Cvt = _Lobj._Getcvt();

  00003	e8 00 00 00 00	 call	 __Getcvt
  00008	89 46 08	 mov	 DWORD PTR [esi+8], eax
  0000b	89 56 0c	 mov	 DWORD PTR [esi+12], edx
  0000e	5e		 pop	 esi

; 808  : 		}

  0000f	c2 04 00	 ret	 4
?_Init@?$num_put@DV?$ostreambuf_iterator@DU?$char_traits@D@std@@@std@@@std@@IAEXABV_Locinfo@2@@Z ENDP ; std::num_put<char,std::ostreambuf_iterator<char,std::char_traits<char> > >::_Init
; Function compile flags: /Ogsy
_TEXT	ENDS
;	COMDAT ?_Init@?$num_put@GV?$ostreambuf_iterator@GU?$char_traits@G@std@@@std@@@std@@IAEXABV_Locinfo@2@@Z
_TEXT	SEGMENT
__Lobj$ = 8						; size = 4
?_Init@?$num_put@GV?$ostreambuf_iterator@GU?$char_traits@G@std@@@std@@@std@@IAEXABV_Locinfo@2@@Z PROC NEAR ; std::num_put<unsigned short,std::ostreambuf_iterator<unsigned short,std::char_traits<unsigned short> > >::_Init, COMDAT
; _this$ = ecx

; 806  : 		{	// initialize from _Locinfo object

  00000	56		 push	 esi
  00001	8b f1		 mov	 esi, ecx

; 807  : 		_Cvt = _Lobj._Getcvt();

  00003	e8 00 00 00 00	 call	 __Getcvt
  00008	89 46 08	 mov	 DWORD PTR [esi+8], eax
  0000b	89 56 0c	 mov	 DWORD PTR [esi+12], edx
  0000e	5e		 pop	 esi

; 808  : 		}

  0000f	c2 04 00	 ret	 4
?_Init@?$num_put@GV?$ostreambuf_iterator@GU?$char_traits@G@std@@@std@@@std@@IAEXABV_Locinfo@2@@Z ENDP ; std::num_put<unsigned short,std::ostreambuf_iterator<unsigned short,std::char_traits<unsigned short> > >::_Init
_TEXT	ENDS
EXTRN	__EH_prolog:NEAR
EXTRN	__except_list:DWORD
EXTRN	___CxxFrameHandler:NEAR
;	COMDAT xdata$x
; File c:\program files (x86)\microsoft visual studio .net 2003\vc7\include\xlocinfo
xdata$x	SEGMENT
$T41029	DD	0ffffffffH
	DD	FLAT:$L41004
$T41025	DD	019930520H
	DD	01H
	DD	FLAT:$T41029
	DD	2 DUP(00H)
	DD	2 DUP(00H)
; Function compile flags: /Ogsy
; File c:\program files (x86)\microsoft visual studio .net 2003\vc7\include\xlocnum
xdata$x	ENDS
;	COMDAT ??0?$num_put@DV?$ostreambuf_iterator@DU?$char_traits@D@std@@@std@@@std@@QAE@I@Z
_TEXT	SEGMENT
$T41003 = -132						; size = 116
_this$ = -16						; size = 4
__$EHRec$ = -12						; size = 12
__Refs$ = 8						; size = 4
??0?$num_put@DV?$ostreambuf_iterator@DU?$char_traits@D@std@@@std@@@std@@QAE@I@Z PROC NEAR ; std::num_put<char,std::ostreambuf_iterator<char,std::char_traits<char> > >::num_put<char,std::ostreambuf_iterator<char,std::char_traits<char> > >, COMDAT
; _this$ = ecx

; 815  : 		{	// construct from current locale

  00000	b8 00 00 00 00	 mov	 eax, __ehhandler$??0?$num_put@DV?$ostreambuf_iterator@DU?$char_traits@D@std@@@std@@@std@@QAE@I@Z
  00005	e8 00 00 00 00	 call	 __EH_prolog
  0000a	83 ec 78	 sub	 esp, 120		; 00000078H
  0000d	8b 45 08	 mov	 eax, DWORD PTR __Refs$[ebp]
  00010	56		 push	 esi
  00011	8b f1		 mov	 esi, ecx
  00013	89 75 f0	 mov	 DWORD PTR _this$[ebp], esi
  00016	89 46 04	 mov	 DWORD PTR [esi+4], eax
  00019	83 65 fc 00	 and	 DWORD PTR __$EHRec$[ebp+8], 0

; 816  : 		_Init(_Locinfo());

  0001d	68 00 00 00 00	 push	 OFFSET FLAT:??_C@_01GFHCPBMG@C?$AA@
  00022	8d 8d 7c ff ff
	ff		 lea	 ecx, DWORD PTR $T41003[ebp]
  00028	c7 06 00 00 00
	00		 mov	 DWORD PTR [esi], OFFSET FLAT:??_7?$num_put@DV?$ostreambuf_iterator@DU?$char_traits@D@std@@@std@@@std@@6B@
  0002e	e8 00 00 00 00	 call	 ??0_Locinfo@std@@QAE@PBD@Z ; std::_Locinfo::_Locinfo
  00033	e8 00 00 00 00	 call	 __Getcvt
  00038	8d 8d 7c ff ff
	ff		 lea	 ecx, DWORD PTR $T41003[ebp]
  0003e	89 46 08	 mov	 DWORD PTR [esi+8], eax
  00041	89 56 0c	 mov	 DWORD PTR [esi+12], edx
  00044	e8 00 00 00 00	 call	 ??1_Locinfo@std@@QAE@XZ	; std::_Locinfo::~_Locinfo

; 817  : 		}

  00049	8b 4d f4	 mov	 ecx, DWORD PTR __$EHRec$[ebp]
  0004c	8b c6		 mov	 eax, esi
  0004e	5e		 pop	 esi
  0004f	64 89 0d 00 00
	00 00		 mov	 DWORD PTR fs:__except_list, ecx
  00056	c9		 leave
  00057	c2 04 00	 ret	 4
_TEXT	ENDS
;	COMDAT text$x
text$x	SEGMENT
$L41004:
  00000	8b 4d f0	 mov	 ecx, DWORD PTR _this$[ebp]
  00003	e9 00 00 00 00	 jmp	 ??1facet@locale@std@@UAE@XZ ; std::locale::facet::~facet
__ehhandler$??0?$num_put@DV?$ostreambuf_iterator@DU?$char_traits@D@std@@@std@@@std@@QAE@I@Z:
  00008	b8 00 00 00 00	 mov	 eax, OFFSET FLAT:$T41025
  0000d	e9 00 00 00 00	 jmp	 ___CxxFrameHandler
text$x	ENDS
??0?$num_put@DV?$ostreambuf_iterator@DU?$char_traits@D@std@@@std@@@std@@QAE@I@Z ENDP ; std::num_put<char,std::ostreambuf_iterator<char,std::char_traits<char> > >::num_put<char,std::ostreambuf_iterator<char,std::char_traits<char> > >
;	COMDAT xdata$x
; File c:\program files (x86)\microsoft visual studio .net 2003\vc7\include\xlocinfo
xdata$x	SEGMENT
$T41057	DD	0ffffffffH
	DD	FLAT:$L41036
$T41055	DD	019930520H
	DD	01H
	DD	FLAT:$T41057
	DD	2 DUP(00H)
	DD	2 DUP(00H)
; Function compile flags: /Ogsy
; File c:\program files (x86)\microsoft visual studio .net 2003\vc7\include\xlocnum
xdata$x	ENDS
;	COMDAT ??0?$num_put@GV?$ostreambuf_iterator@GU?$char_traits@G@std@@@std@@@std@@QAE@I@Z
_TEXT	SEGMENT
$T41035 = -132						; size = 116
_this$ = -16						; size = 4
__$EHRec$ = -12						; size = 12
__Refs$ = 8						; size = 4
??0?$num_put@GV?$ostreambuf_iterator@GU?$char_traits@G@std@@@std@@@std@@QAE@I@Z PROC NEAR ; std::num_put<unsigned short,std::ostreambuf_iterator<unsigned short,std::char_traits<unsigned short> > >::num_put<unsigned short,std::ostreambuf_iterator<unsigned short,std::char_traits<unsigned short> > >, COMDAT
; _this$ = ecx

; 815  : 		{	// construct from current locale

  00000	b8 00 00 00 00	 mov	 eax, __ehhandler$??0?$num_put@GV?$ostreambuf_iterator@GU?$char_traits@G@std@@@std@@@std@@QAE@I@Z
  00005	e8 00 00 00 00	 call	 __EH_prolog
  0000a	83 ec 78	 sub	 esp, 120		; 00000078H
  0000d	8b 45 08	 mov	 eax, DWORD PTR __Refs$[ebp]
  00010	56		 push	 esi
  00011	8b f1		 mov	 esi, ecx
  00013	89 75 f0	 mov	 DWORD PTR _this$[ebp], esi
  00016	89 46 04	 mov	 DWORD PTR [esi+4], eax
  00019	83 65 fc 00	 and	 DWORD PTR __$EHRec$[ebp+8], 0

; 816  : 		_Init(_Locinfo());

  0001d	68 00 00 00 00	 push	 OFFSET FLAT:??_C@_01GFHCPBMG@C?$AA@
  00022	8d 8d 7c ff ff
	ff		 lea	 ecx, DWORD PTR $T41035[ebp]
  00028	c7 06 00 00 00
	00		 mov	 DWORD PTR [esi], OFFSET FLAT:??_7?$num_put@GV?$ostreambuf_iterator@GU?$char_traits@G@std@@@std@@@std@@6B@
  0002e	e8 00 00 00 00	 call	 ??0_Locinfo@std@@QAE@PBD@Z ; std::_Locinfo::_Locinfo
  00033	e8 00 00 00 00	 call	 __Getcvt
  00038	8d 8d 7c ff ff
	ff		 lea	 ecx, DWORD PTR $T41035[ebp]
  0003e	89 46 08	 mov	 DWORD PTR [esi+8], eax
  00041	89 56 0c	 mov	 DWORD PTR [esi+12], edx
  00044	e8 00 00 00 00	 call	 ??1_Locinfo@std@@QAE@XZ	; std::_Locinfo::~_Locinfo

; 817  : 		}

  00049	8b 4d f4	 mov	 ecx, DWORD PTR __$EHRec$[ebp]
  0004c	8b c6		 mov	 eax, esi
  0004e	5e		 pop	 esi
  0004f	64 89 0d 00 00
	00 00		 mov	 DWORD PTR fs:__except_list, ecx
  00056	c9		 leave
  00057	c2 04 00	 ret	 4
_TEXT	ENDS
;	COMDAT text$x
text$x	SEGMENT
$L41036:
  00000	8b 4d f0	 mov	 ecx, DWORD PTR _this$[ebp]
  00003	e9 00 00 00 00	 jmp	 ??1facet@locale@std@@UAE@XZ ; std::locale::facet::~facet
__ehhandler$??0?$num_put@GV?$ostreambuf_iterator@GU?$char_traits@G@std@@@std@@@std@@QAE@I@Z:
  00008	b8 00 00 00 00	 mov	 eax, OFFSET FLAT:$T41055
  0000d	e9 00 00 00 00	 jmp	 ___CxxFrameHandler
text$x	ENDS
??0?$num_put@GV?$ostreambuf_iterator@GU?$char_traits@G@std@@@std@@@std@@QAE@I@Z ENDP ; std::num_put<unsigned short,std::ostreambuf_iterator<unsigned short,std::char_traits<unsigned short> > >::num_put<unsigned short,std::ostreambuf_iterator<unsigned short,std::char_traits<unsigned short> > >
;	COMDAT xdata$x
xdata$x	SEGMENT
$T41070	DD	0ffffffffH
	DD	FLAT:$L41066
$T41068	DD	019930520H
	DD	01H
	DD	FLAT:$T41070
	DD	2 DUP(00H)
	DD	2 DUP(00H)
; Function compile flags: /Ogsy
xdata$x	ENDS
;	COMDAT ?_Getcat@?$num_put@DV?$ostreambuf_iterator@DU?$char_traits@D@std@@@std@@@std@@SAIPAPBVfacet@locale@2@@Z
_TEXT	SEGMENT
__$EHRec$ = -12						; size = 12
$T41063 = 8						; size = 4
__Ppf$ = 8						; size = 4
?_Getcat@?$num_put@DV?$ostreambuf_iterator@DU?$char_traits@D@std@@@std@@@std@@SAIPAPBVfacet@locale@2@@Z PROC NEAR ; std::num_put<char,std::ostreambuf_iterator<char,std::char_traits<char> > >::_Getcat, COMDAT

; 791  : 		{	// return locale category mask and construct standard facet

  00000	b8 00 00 00 00	 mov	 eax, __ehhandler$?_Getcat@?$num_put@DV?$ostreambuf_iterator@DU?$char_traits@D@std@@@std@@@std@@SAIPAPBVfacet@locale@2@@Z
  00005	e8 00 00 00 00	 call	 __EH_prolog
  0000a	56		 push	 esi

; 792  : 		if (_Ppf != 0 && *_Ppf == 0)

  0000b	8b 75 08	 mov	 esi, DWORD PTR __Ppf$[ebp]
  0000e	85 f6		 test	 esi, esi
  00010	74 27		 je	 SHORT $L26403
  00012	83 3e 00	 cmp	 DWORD PTR [esi], 0
  00015	75 22		 jne	 SHORT $L26403

; 793  : 			*_Ppf = _NEW_CRT num_put<_Elem, _OutIt>;

  00017	6a 10		 push	 16			; 00000010H
  00019	e8 00 00 00 00	 call	 ??2@YAPAXI@Z		; operator new
  0001e	59		 pop	 ecx
  0001f	8b c8		 mov	 ecx, eax
  00021	89 4d 08	 mov	 DWORD PTR $T41063[ebp], ecx
  00024	83 65 fc 00	 and	 DWORD PTR __$EHRec$[ebp+8], 0
  00028	85 c9		 test	 ecx, ecx
  0002a	74 09		 je	 SHORT $L41064
  0002c	6a 00		 push	 0
  0002e	e8 00 00 00 00	 call	 ??0?$num_put@DV?$ostreambuf_iterator@DU?$char_traits@D@std@@@std@@@std@@QAE@I@Z ; std::num_put<char,std::ostreambuf_iterator<char,std::char_traits<char> > >::num_put<char,std::ostreambuf_iterator<char,std::char_traits<char> > >
  00033	eb 02		 jmp	 SHORT $L41065
$L41064:
  00035	33 c0		 xor	 eax, eax
$L41065:
  00037	89 06		 mov	 DWORD PTR [esi], eax
$L26403:

; 794  : 		return (_X_NUMERIC);
; 795  : 		}

  00039	8b 4d f4	 mov	 ecx, DWORD PTR __$EHRec$[ebp]
  0003c	6a 04		 push	 4
  0003e	58		 pop	 eax
  0003f	5e		 pop	 esi
  00040	64 89 0d 00 00
	00 00		 mov	 DWORD PTR fs:__except_list, ecx
  00047	c9		 leave
  00048	c3		 ret	 0
_TEXT	ENDS
;	COMDAT text$x
text$x	SEGMENT
$L41066:
  00000	ff 75 08	 push	 DWORD PTR $T41063[ebp]
  00003	e8 00 00 00 00	 call	 ??3@YAXPAX@Z		; operator delete
  00008	59		 pop	 ecx
  00009	c3		 ret	 0
__ehhandler$?_Getcat@?$num_put@DV?$ostreambuf_iterator@DU?$char_traits@D@std@@@std@@@std@@SAIPAPBVfacet@locale@2@@Z:
  0000a	b8 00 00 00 00	 mov	 eax, OFFSET FLAT:$T41068
  0000f	e9 00 00 00 00	 jmp	 ___CxxFrameHandler
text$x	ENDS
?_Getcat@?$num_put@DV?$ostreambuf_iterator@DU?$char_traits@D@std@@@std@@@std@@SAIPAPBVfacet@locale@2@@Z ENDP ; std::num_put<char,std::ostreambuf_iterator<char,std::char_traits<char> > >::_Getcat
;	COMDAT xdata$x
xdata$x	SEGMENT
$T41083	DD	0ffffffffH
	DD	FLAT:$L41079
$T41081	DD	019930520H
	DD	01H
	DD	FLAT:$T41083
	DD	2 DUP(00H)
	DD	2 DUP(00H)
; Function compile flags: /Ogsy
xdata$x	ENDS
;	COMDAT ?_Getcat@?$num_put@GV?$ostreambuf_iterator@GU?$char_traits@G@std@@@std@@@std@@SAIPAPBVfacet@locale@2@@Z
_TEXT	SEGMENT
__$EHRec$ = -12						; size = 12
$T41076 = 8						; size = 4
__Ppf$ = 8						; size = 4
?_Getcat@?$num_put@GV?$ostreambuf_iterator@GU?$char_traits@G@std@@@std@@@std@@SAIPAPBVfacet@locale@2@@Z PROC NEAR ; std::num_put<unsigned short,std::ostreambuf_iterator<unsigned short,std::char_traits<unsigned short> > >::_Getcat, COMDAT

; 791  : 		{	// return locale category mask and construct standard facet

  00000	b8 00 00 00 00	 mov	 eax, __ehhandler$?_Getcat@?$num_put@GV?$ostreambuf_iterator@GU?$char_traits@G@std@@@std@@@std@@SAIPAPBVfacet@locale@2@@Z
  00005	e8 00 00 00 00	 call	 __EH_prolog
  0000a	56		 push	 esi

; 792  : 		if (_Ppf != 0 && *_Ppf == 0)

  0000b	8b 75 08	 mov	 esi, DWORD PTR __Ppf$[ebp]
  0000e	85 f6		 test	 esi, esi
  00010	74 27		 je	 SHORT $L26397
  00012	83 3e 00	 cmp	 DWORD PTR [esi], 0
  00015	75 22		 jne	 SHORT $L26397

; 793  : 			*_Ppf = _NEW_CRT num_put<_Elem, _OutIt>;

  00017	6a 10		 push	 16			; 00000010H
  00019	e8 00 00 00 00	 call	 ??2@YAPAXI@Z		; operator new
  0001e	59		 pop	 ecx
  0001f	8b c8		 mov	 ecx, eax
  00021	89 4d 08	 mov	 DWORD PTR $T41076[ebp], ecx
  00024	83 65 fc 00	 and	 DWORD PTR __$EHRec$[ebp+8], 0
  00028	85 c9		 test	 ecx, ecx
  0002a	74 09		 je	 SHORT $L41077
  0002c	6a 00		 push	 0
  0002e	e8 00 00 00 00	 call	 ??0?$num_put@GV?$ostreambuf_iterator@GU?$char_traits@G@std@@@std@@@std@@QAE@I@Z ; std::num_put<unsigned short,std::ostreambuf_iterator<unsigned short,std::char_traits<unsigned short> > >::num_put<unsigned short,std::ostreambuf_iterator<unsigned short,std::char_traits<unsigned short> > >
  00033	eb 02		 jmp	 SHORT $L41078
$L41077:
  00035	33 c0		 xor	 eax, eax
$L41078:
  00037	89 06		 mov	 DWORD PTR [esi], eax
$L26397:

; 794  : 		return (_X_NUMERIC);
; 795  : 		}

  00039	8b 4d f4	 mov	 ecx, DWORD PTR __$EHRec$[ebp]
  0003c	6a 04		 push	 4
  0003e	58		 pop	 eax
  0003f	5e		 pop	 esi
  00040	64 89 0d 00 00
	00 00		 mov	 DWORD PTR fs:__except_list, ecx
  00047	c9		 leave
  00048	c3		 ret	 0
_TEXT	ENDS
;	COMDAT text$x
text$x	SEGMENT
$L41079:
  00000	ff 75 08	 push	 DWORD PTR $T41076[ebp]
  00003	e8 00 00 00 00	 call	 ??3@YAXPAX@Z		; operator delete
  00008	59		 pop	 ecx
  00009	c3		 ret	 0
__ehhandler$?_Getcat@?$num_put@GV?$ostreambuf_iterator@GU?$char_traits@G@std@@@std@@@std@@SAIPAPBVfacet@locale@2@@Z:
  0000a	b8 00 00 00 00	 mov	 eax, OFFSET FLAT:$T41081
  0000f	e9 00 00 00 00	 jmp	 ___CxxFrameHandler
text$x	ENDS
?_Getcat@?$num_put@GV?$ostreambuf_iterator@GU?$char_traits@G@std@@@std@@@std@@SAIPAPBVfacet@locale@2@@Z ENDP ; std::num_put<unsigned short,std::ostreambuf_iterator<unsigned short,std::char_traits<unsigned short> > >::_Getcat
; Function compile flags: /Ogsy
; File c:\program files (x86)\microsoft visual studio .net 2003\vc7\include\iomanip
;	COMDAT ??0?$_Fillobj@D@std@@QAE@D@Z
_TEXT	SEGMENT
??0?$_Fillobj@D@std@@QAE@D@Z PROC NEAR			; std::_Fillobj<char>::_Fillobj<char>, COMDAT
; _this$ = eax
; __Ch$ = ecx

; 17   : 		{	// construct from fill character

  00000	88 08		 mov	 BYTE PTR [eax], cl

; 18   : 		}

  00002	c3		 ret	 0
??0?$_Fillobj@D@std@@QAE@D@Z ENDP			; std::_Fillobj<char>::_Fillobj<char>
; Function compile flags: /Ogsy
; File c:\program files (x86)\microsoft visual studio .net 2003\vc7\include\streambuf
_TEXT	ENDS
;	COMDAT ?sputn@?$basic_streambuf@DU?$char_traits@D@std@@@std@@QAEHPBDH@Z
_TEXT	SEGMENT
__Ptr$ = 8						; size = 4
__Count$ = 12						; size = 4
?sputn@?$basic_streambuf@DU?$char_traits@D@std@@@std@@QAEHPBDH@Z PROC NEAR ; std::basic_streambuf<char,std::char_traits<char> >::sputn, COMDAT
; _this$ = ecx

; 153  : 		return (xsputn(_Ptr, _Count));

  00000	8b 01		 mov	 eax, DWORD PTR [ecx]
  00002	ff 60 1c	 jmp	 DWORD PTR [eax+28]
?sputn@?$basic_streambuf@DU?$char_traits@D@std@@@std@@QAEHPBDH@Z ENDP ; std::basic_streambuf<char,std::char_traits<char> >::sputn
; Function compile flags: /Ogsy
; File c:\program files (x86)\microsoft visual studio .net 2003\vc7\include\ios
_TEXT	ENDS
;	COMDAT ?fill@?$basic_ios@DU?$char_traits@D@std@@@std@@QAEDD@Z
_TEXT	SEGMENT
?fill@?$basic_ios@DU?$char_traits@D@std@@@std@@QAEDD@Z PROC NEAR ; std::basic_ios<char,std::char_traits<char> >::fill, COMDAT
; _this$ = ecx
; __Newfill$ = edx

; 107  : 		_Elem _Oldfill = _Fillch;

  00000	8a 41 30	 mov	 al, BYTE PTR [ecx+48]

; 108  : 		_Fillch = _Newfill;

  00003	88 51 30	 mov	 BYTE PTR [ecx+48], dl

; 109  : 		return (_Oldfill);
; 110  : 		}

  00006	c3		 ret	 0
?fill@?$basic_ios@DU?$char_traits@D@std@@@std@@QAEDD@Z ENDP ; std::basic_ios<char,std::char_traits<char> >::fill
; Function compile flags: /Ogsy
; File c:\program files (x86)\microsoft visual studio .net 2003\vc7\include\streambuf
_TEXT	ENDS
;	COMDAT ?sputn@?$basic_streambuf@GU?$char_traits@G@std@@@std@@QAEHPBGH@Z
_TEXT	SEGMENT
__Ptr$ = 8						; size = 4
__Count$ = 12						; size = 4
?sputn@?$basic_streambuf@GU?$char_traits@G@std@@@std@@QAEHPBGH@Z PROC NEAR ; std::basic_streambuf<unsigned short,std::char_traits<unsigned short> >::sputn, COMDAT
; _this$ = ecx

; 153  : 		return (xsputn(_Ptr, _Count));

  00000	8b 01		 mov	 eax, DWORD PTR [ecx]
  00002	ff 60 1c	 jmp	 DWORD PTR [eax+28]
?sputn@?$basic_streambuf@GU?$char_traits@G@std@@@std@@QAEHPBGH@Z ENDP ; std::basic_streambuf<unsigned short,std::char_traits<unsigned short> >::sputn
; Function compile flags: /Ogsy
; File c:\program files (x86)\microsoft visual studio .net 2003\vc7\include\xmemory
_TEXT	ENDS
;	COMDAT ??$_Allocate@G@std@@YAPAGIPAG@Z
_TEXT	SEGMENT
??$_Allocate@G@std@@YAPAGIPAG@Z PROC NEAR		; std::_Allocate<unsigned short>, COMDAT
; __Count$ = eax

; 34   : 	return ((_Ty _FARQ *)operator new(_Count * sizeof (_Ty)));

  00000	03 c0		 add	 eax, eax
  00002	50		 push	 eax
  00003	e8 00 00 00 00	 call	 ??2@YAPAXI@Z		; operator new
  00008	59		 pop	 ecx

; 35   : 	}

  00009	c3		 ret	 0
??$_Allocate@G@std@@YAPAGIPAG@Z ENDP			; std::_Allocate<unsigned short>
; Function compile flags: /Ogsy
; File c:\program files (x86)\microsoft visual studio .net 2003\vc7\include\xlocale
_TEXT	ENDS
;	COMDAT ??$_Maklocchr@D@std@@YADDPADABU_Cvtvec@@@Z
_TEXT	SEGMENT
__Byte$ = 8						; size = 1
___formal$ = 12						; size = 4
___formal$ = 16						; size = 4
??$_Maklocchr@D@std@@YADDPADABU_Cvtvec@@@Z PROC NEAR	; std::_Maklocchr<char>, COMDAT

; 431  : 	return ((_Elem)(unsigned char)_Byte);

  00000	8a 44 24 04	 mov	 al, BYTE PTR __Byte$[esp-4]

; 432  : 	}

  00004	c3		 ret	 0
??$_Maklocchr@D@std@@YADDPADABU_Cvtvec@@@Z ENDP		; std::_Maklocchr<char>
_TEXT	ENDS
EXTRN	__CxxThrowException@8:NEAR
;	COMDAT xdata$x
xdata$x	SEGMENT
$T41116	DD	0ffffffffH
	DD	FLAT:$L41111
$T41113	DD	019930520H
	DD	01H
	DD	FLAT:$T41116
	DD	2 DUP(00H)
	DD	2 DUP(00H)
; Function compile flags: /Ogsy
xdata$x	ENDS
;	COMDAT ??$use_facet@V?$num_put@DV?$ostreambuf_iterator@DU?$char_traits@D@std@@@std@@@std@@@std@@YAABV?$num_put@DV?$ostreambuf_iterator@DU?$char_traits@D@std@@@std@@@0@ABVlocale@0@@Z
_TEXT	SEGMENT
$T41108 = -32						; size = 12
__Lock$ = -20						; size = 4
__Psave$ = -16						; size = 4
__$EHRec$ = -12						; size = 12
__Loc$ = 8						; size = 4
??$use_facet@V?$num_put@DV?$ostreambuf_iterator@DU?$char_traits@D@std@@@std@@@std@@@std@@YAABV?$num_put@DV?$ostreambuf_iterator@DU?$char_traits@D@std@@@std@@@0@ABVlocale@0@@Z PROC NEAR ; std::use_facet<std::num_put<char,std::ostreambuf_iterator<char,std::char_traits<char> > > >, COMDAT

; 315  : 	{	// get facet reference from locale

  00000	b8 00 00 00 00	 mov	 eax, __ehhandler$??$use_facet@V?$num_put@DV?$ostreambuf_iterator@DU?$char_traits@D@std@@@std@@@std@@@std@@YAABV?$num_put@DV?$ostreambuf_iterator@DU?$char_traits@D@std@@@std@@@0@ABVlocale@0@@Z
  00005	e8 00 00 00 00	 call	 __EH_prolog
  0000a	83 ec 14	 sub	 esp, 20			; 00000014H
  0000d	56		 push	 esi
  0000e	57		 push	 edi

; 316  : 	_Lockit _Lock(_LOCK_LOCALE);	// the thread lock, make get atomic

  0000f	6a 00		 push	 0
  00011	8d 4d ec	 lea	 ecx, DWORD PTR __Lock$[ebp]
  00014	e8 00 00 00 00	 call	 ??0_Lockit@std@@QAE@H@Z	; std::_Lockit::_Lockit
  00019	83 65 fc 00	 and	 DWORD PTR __$EHRec$[ebp+8], 0

; 317  : 	const locale::facet *_Psave =
; 318  : 		_Facetptr<_Facet>::_Psave;	// static pointer to lazy facet

  0001d	8b 35 00 00 00
	00		 mov	 esi, DWORD PTR ?_Psave@?$_Facetptr@V?$num_put@DV?$ostreambuf_iterator@DU?$char_traits@D@std@@@std@@@std@@@std@@2PBVfacet@locale@2@B ; std::_Facetptr<std::num_put<char,std::ostreambuf_iterator<char,std::char_traits<char> > > >::_Psave

; 319  : 
; 320  : 	size_t _Id = _Facet::id;

  00023	b9 00 00 00 00	 mov	 ecx, OFFSET FLAT:?id@?$num_put@DV?$ostreambuf_iterator@DU?$char_traits@D@std@@@std@@@std@@2V0locale@2@A ; std::num_put<char,std::ostreambuf_iterator<char,std::char_traits<char> > >::id
  00028	89 75 f0	 mov	 DWORD PTR __Psave$[ebp], esi
  0002b	e8 00 00 00 00	 call	 ??Bid@locale@std@@QAEIXZ ; std::locale::id::operator unsigned int

; 321  : 	const locale::facet *_Pf = _Loc._Getfacet(_Id);

  00030	8b 4d 08	 mov	 ecx, DWORD PTR __Loc$[ebp]
  00033	50		 push	 eax
  00034	e8 00 00 00 00	 call	 ?_Getfacet@locale@std@@QBEPBVfacet@12@I@Z ; std::locale::_Getfacet
  00039	8b f8		 mov	 edi, eax

; 322  : 
; 323  : 	if (_Pf != 0)

  0003b	85 ff		 test	 edi, edi
  0003d	75 49		 jne	 SHORT $L26316

; 324  : 		;	// got facet from locale
; 325  : 	else if (_Psave != 0)

  0003f	85 f6		 test	 esi, esi
  00041	74 04		 je	 SHORT $L26310

; 326  : 		_Pf = _Psave;	// lazy facet already allocated

  00043	8b fe		 mov	 edi, esi

; 327  : 	else if (_Facet::_Getcat(&_Psave) == (size_t)(-1))

  00045	eb 41		 jmp	 SHORT $L26316
$L26310:
  00047	8d 45 f0	 lea	 eax, DWORD PTR __Psave$[ebp]
  0004a	50		 push	 eax
  0004b	e8 00 00 00 00	 call	 ?_Getcat@?$num_put@DV?$ostreambuf_iterator@DU?$char_traits@D@std@@@std@@@std@@SAIPAPBVfacet@locale@2@@Z ; std::num_put<char,std::ostreambuf_iterator<char,std::char_traits<char> > >::_Getcat
  00050	83 f8 ff	 cmp	 eax, -1
  00053	59		 pop	 ecx
  00054	75 1b		 jne	 SHORT $L26313

; 328  : 
; 329  :  #if _HAS_EXCEPTIONS
; 330  : 		throw bad_cast();	// lazy disallowed

  00056	68 00 00 00 00	 push	 OFFSET FLAT:??_C@_08EPJLHIJG@bad?5cast?$AA@
  0005b	8d 4d e0	 lea	 ecx, DWORD PTR $T41108[ebp]
  0005e	e8 00 00 00 00	 call	 ??0bad_cast@@QAE@PBD@Z	; bad_cast::bad_cast
  00063	68 00 00 00 00	 push	 OFFSET FLAT:__TI2?AVbad_cast@@
  00068	8d 45 e0	 lea	 eax, DWORD PTR $T41108[ebp]
  0006b	50		 push	 eax
  0006c	e8 00 00 00 00	 call	 __CxxThrowException@8
$L41117:
$L26313:

; 331  : 
; 332  :  #else /* _HAS_EXCEPTIONS */
; 333  : 		abort();	// lazy disallowed
; 334  :  #endif /* _HAS_EXCEPTIONS */
; 335  : 
; 336  : 	else
; 337  : 		{	// queue up lazy facet for destruction
; 338  : 		_Pf = _Psave;

  00071	8b 7d f0	 mov	 edi, DWORD PTR __Psave$[ebp]

; 339  : 		_Facetptr<_Facet>::_Psave = _Psave;
; 340  : 
; 341  : 		locale::facet *_Pfmod = (_Facet *)_Psave;
; 342  : 		_Pfmod->_Incref();

  00074	8b cf		 mov	 ecx, edi
  00076	89 3d 00 00 00
	00		 mov	 DWORD PTR ?_Psave@?$_Facetptr@V?$num_put@DV?$ostreambuf_iterator@DU?$char_traits@D@std@@@std@@@std@@@std@@2PBVfacet@locale@2@B, edi ; std::_Facetptr<std::num_put<char,std::ostreambuf_iterator<char,std::char_traits<char> > > >::_Psave
  0007c	e8 00 00 00 00	 call	 ?_Incref@facet@locale@std@@QAEXXZ ; std::locale::facet::_Incref

; 343  : 		_Pfmod->_Register();

  00081	8b cf		 mov	 ecx, edi
  00083	e8 00 00 00 00	 call	 ?_Register@facet@locale@std@@QAEXXZ ; std::locale::facet::_Register
$L26316:

; 344  : 		}
; 345  : 
; 346  : 	return ((const _Facet&)(*_Pf));	// should be dynamic_cast

  00088	83 4d fc ff	 or	 DWORD PTR __$EHRec$[ebp+8], -1
  0008c	8d 4d ec	 lea	 ecx, DWORD PTR __Lock$[ebp]
  0008f	e8 00 00 00 00	 call	 ??1_Lockit@std@@QAE@XZ	; std::_Lockit::~_Lockit

; 347  : 	}

  00094	8b 4d f4	 mov	 ecx, DWORD PTR __$EHRec$[ebp]
  00097	8b c7		 mov	 eax, edi
  00099	5f		 pop	 edi
  0009a	5e		 pop	 esi
  0009b	64 89 0d 00 00
	00 00		 mov	 DWORD PTR fs:__except_list, ecx
  000a2	c9		 leave
  000a3	c3		 ret	 0
$L41115:
_TEXT	ENDS
;	COMDAT text$x
text$x	SEGMENT
$L41111:
  00000	8d 4d ec	 lea	 ecx, DWORD PTR __Lock$[ebp]
  00003	e9 00 00 00 00	 jmp	 ??1_Lockit@std@@QAE@XZ	; std::_Lockit::~_Lockit
__ehhandler$??$use_facet@V?$num_put@DV?$ostreambuf_iterator@DU?$char_traits@D@std@@@std@@@std@@@std@@YAABV?$num_put@DV?$ostreambuf_iterator@DU?$char_traits@D@std@@@std@@@0@ABVlocale@0@@Z:
  00008	b8 00 00 00 00	 mov	 eax, OFFSET FLAT:$T41113
  0000d	e9 00 00 00 00	 jmp	 ___CxxFrameHandler
text$x	ENDS
??$use_facet@V?$num_put@DV?$ostreambuf_iterator@DU?$char_traits@D@std@@@std@@@std@@@std@@YAABV?$num_put@DV?$ostreambuf_iterator@DU?$char_traits@D@std@@@std@@@0@ABVlocale@0@@Z ENDP ; std::use_facet<std::num_put<char,std::ostreambuf_iterator<char,std::char_traits<char> > > >
;	COMDAT xdata$x
xdata$x	SEGMENT
$T41129	DD	0ffffffffH
	DD	FLAT:$L41124
$T41126	DD	019930520H
	DD	01H
	DD	FLAT:$T41129
	DD	2 DUP(00H)
	DD	2 DUP(00H)
; Function compile flags: /Ogsy
xdata$x	ENDS
;	COMDAT ??$use_facet@V?$num_put@GV?$ostreambuf_iterator@GU?$char_traits@G@std@@@std@@@std@@@std@@YAABV?$num_put@GV?$ostreambuf_iterator@GU?$char_traits@G@std@@@std@@@0@ABVlocale@0@@Z
_TEXT	SEGMENT
$T41122 = -32						; size = 12
__Lock$ = -20						; size = 4
__Psave$ = -16						; size = 4
__$EHRec$ = -12						; size = 12
__Loc$ = 8						; size = 4
??$use_facet@V?$num_put@GV?$ostreambuf_iterator@GU?$char_traits@G@std@@@std@@@std@@@std@@YAABV?$num_put@GV?$ostreambuf_iterator@GU?$char_traits@G@std@@@std@@@0@ABVlocale@0@@Z PROC NEAR ; std::use_facet<std::num_put<unsigned short,std::ostreambuf_iterator<unsigned short,std::char_traits<unsigned short> > > >, COMDAT

; 315  : 	{	// get facet reference from locale

  00000	b8 00 00 00 00	 mov	 eax, __ehhandler$??$use_facet@V?$num_put@GV?$ostreambuf_iterator@GU?$char_traits@G@std@@@std@@@std@@@std@@YAABV?$num_put@GV?$ostreambuf_iterator@GU?$char_traits@G@std@@@std@@@0@ABVlocale@0@@Z
  00005	e8 00 00 00 00	 call	 __EH_prolog
  0000a	83 ec 14	 sub	 esp, 20			; 00000014H
  0000d	56		 push	 esi
  0000e	57		 push	 edi

; 316  : 	_Lockit _Lock(_LOCK_LOCALE);	// the thread lock, make get atomic

  0000f	6a 00		 push	 0
  00011	8d 4d ec	 lea	 ecx, DWORD PTR __Lock$[ebp]
  00014	e8 00 00 00 00	 call	 ??0_Lockit@std@@QAE@H@Z	; std::_Lockit::_Lockit
  00019	83 65 fc 00	 and	 DWORD PTR __$EHRec$[ebp+8], 0

; 317  : 	const locale::facet *_Psave =
; 318  : 		_Facetptr<_Facet>::_Psave;	// static pointer to lazy facet

  0001d	8b 35 00 00 00
	00		 mov	 esi, DWORD PTR ?_Psave@?$_Facetptr@V?$num_put@GV?$ostreambuf_iterator@GU?$char_traits@G@std@@@std@@@std@@@std@@2PBVfacet@locale@2@B ; std::_Facetptr<std::num_put<unsigned short,std::ostreambuf_iterator<unsigned short,std::char_traits<unsigned short> > > >::_Psave

; 319  : 
; 320  : 	size_t _Id = _Facet::id;

  00023	b9 00 00 00 00	 mov	 ecx, OFFSET FLAT:?id@?$num_put@GV?$ostreambuf_iterator@GU?$char_traits@G@std@@@std@@@std@@2V0locale@2@A ; std::num_put<unsigned short,std::ostreambuf_iterator<unsigned short,std::char_traits<unsigned short> > >::id
  00028	89 75 f0	 mov	 DWORD PTR __Psave$[ebp], esi
  0002b	e8 00 00 00 00	 call	 ??Bid@locale@std@@QAEIXZ ; std::locale::id::operator unsigned int

; 321  : 	const locale::facet *_Pf = _Loc._Getfacet(_Id);

  00030	8b 4d 08	 mov	 ecx, DWORD PTR __Loc$[ebp]
  00033	50		 push	 eax
  00034	e8 00 00 00 00	 call	 ?_Getfacet@locale@std@@QBEPBVfacet@12@I@Z ; std::locale::_Getfacet
  00039	8b f8		 mov	 edi, eax

; 322  : 
; 323  : 	if (_Pf != 0)

  0003b	85 ff		 test	 edi, edi
  0003d	75 49		 jne	 SHORT $L26288

; 324  : 		;	// got facet from locale
; 325  : 	else if (_Psave != 0)

  0003f	85 f6		 test	 esi, esi
  00041	74 04		 je	 SHORT $L26282

; 326  : 		_Pf = _Psave;	// lazy facet already allocated

  00043	8b fe		 mov	 edi, esi

; 327  : 	else if (_Facet::_Getcat(&_Psave) == (size_t)(-1))

  00045	eb 41		 jmp	 SHORT $L26288
$L26282:
  00047	8d 45 f0	 lea	 eax, DWORD PTR __Psave$[ebp]
  0004a	50		 push	 eax
  0004b	e8 00 00 00 00	 call	 ?_Getcat@?$num_put@GV?$ostreambuf_iterator@GU?$char_traits@G@std@@@std@@@std@@SAIPAPBVfacet@locale@2@@Z ; std::num_put<unsigned short,std::ostreambuf_iterator<unsigned short,std::char_traits<unsigned short> > >::_Getcat
  00050	83 f8 ff	 cmp	 eax, -1
  00053	59		 pop	 ecx
  00054	75 1b		 jne	 SHORT $L26285

; 328  : 
; 329  :  #if _HAS_EXCEPTIONS
; 330  : 		throw bad_cast();	// lazy disallowed

  00056	68 00 00 00 00	 push	 OFFSET FLAT:??_C@_08EPJLHIJG@bad?5cast?$AA@
  0005b	8d 4d e0	 lea	 ecx, DWORD PTR $T41122[ebp]
  0005e	e8 00 00 00 00	 call	 ??0bad_cast@@QAE@PBD@Z	; bad_cast::bad_cast
  00063	68 00 00 00 00	 push	 OFFSET FLAT:__TI2?AVbad_cast@@
  00068	8d 45 e0	 lea	 eax, DWORD PTR $T41122[ebp]
  0006b	50		 push	 eax
  0006c	e8 00 00 00 00	 call	 __CxxThrowException@8
$L41130:
$L26285:

; 331  : 
; 332  :  #else /* _HAS_EXCEPTIONS */
; 333  : 		abort();	// lazy disallowed
; 334  :  #endif /* _HAS_EXCEPTIONS */
; 335  : 
; 336  : 	else
; 337  : 		{	// queue up lazy facet for destruction
; 338  : 		_Pf = _Psave;

  00071	8b 7d f0	 mov	 edi, DWORD PTR __Psave$[ebp]

; 339  : 		_Facetptr<_Facet>::_Psave = _Psave;
; 340  : 
; 341  : 		locale::facet *_Pfmod = (_Facet *)_Psave;
; 342  : 		_Pfmod->_Incref();

  00074	8b cf		 mov	 ecx, edi
  00076	89 3d 00 00 00
	00		 mov	 DWORD PTR ?_Psave@?$_Facetptr@V?$num_put@GV?$ostreambuf_iterator@GU?$char_traits@G@std@@@std@@@std@@@std@@2PBVfacet@locale@2@B, edi ; std::_Facetptr<std::num_put<unsigned short,std::ostreambuf_iterator<unsigned short,std::char_traits<unsigned short> > > >::_Psave
  0007c	e8 00 00 00 00	 call	 ?_Incref@facet@locale@std@@QAEXXZ ; std::locale::facet::_Incref

; 343  : 		_Pfmod->_Register();

  00081	8b cf		 mov	 ecx, edi
  00083	e8 00 00 00 00	 call	 ?_Register@facet@locale@std@@QAEXXZ ; std::locale::facet::_Register
$L26288:

; 344  : 		}
; 345  : 
; 346  : 	return ((const _Facet&)(*_Pf));	// should be dynamic_cast

  00088	83 4d fc ff	 or	 DWORD PTR __$EHRec$[ebp+8], -1
  0008c	8d 4d ec	 lea	 ecx, DWORD PTR __Lock$[ebp]
  0008f	e8 00 00 00 00	 call	 ??1_Lockit@std@@QAE@XZ	; std::_Lockit::~_Lockit

; 347  : 	}

  00094	8b 4d f4	 mov	 ecx, DWORD PTR __$EHRec$[ebp]
  00097	8b c7		 mov	 eax, edi
  00099	5f		 pop	 edi
  0009a	5e		 pop	 esi
  0009b	64 89 0d 00 00
	00 00		 mov	 DWORD PTR fs:__except_list, ecx
  000a2	c9		 leave
  000a3	c3		 ret	 0
$L41128:
_TEXT	ENDS
;	COMDAT text$x
text$x	SEGMENT
$L41124:
  00000	8d 4d ec	 lea	 ecx, DWORD PTR __Lock$[ebp]
  00003	e9 00 00 00 00	 jmp	 ??1_Lockit@std@@QAE@XZ	; std::_Lockit::~_Lockit
__ehhandler$??$use_facet@V?$num_put@GV?$ostreambuf_iterator@GU?$char_traits@G@std@@@std@@@std@@@std@@YAABV?$num_put@GV?$ostreambuf_iterator@GU?$char_traits@G@std@@@std@@@0@ABVlocale@0@@Z:
  00008	b8 00 00 00 00	 mov	 eax, OFFSET FLAT:$T41126
  0000d	e9 00 00 00 00	 jmp	 ___CxxFrameHandler
text$x	ENDS
??$use_facet@V?$num_put@GV?$ostreambuf_iterator@GU?$char_traits@G@std@@@std@@@std@@@std@@YAABV?$num_put@GV?$ostreambuf_iterator@GU?$char_traits@G@std@@@std@@@0@ABVlocale@0@@Z ENDP ; std::use_facet<std::num_put<unsigned short,std::ostreambuf_iterator<unsigned short,std::char_traits<unsigned short> > > >
; Function compile flags: /Ogsy
; File c:\program files (x86)\microsoft visual studio .net 2003\vc7\include\iomanip
;	COMDAT ??$?6DU?$char_traits@D@std@@H@std@@YAAAV?$basic_ostream@DU?$char_traits@D@std@@@0@AAV10@ABU?$_Smanip@H@0@@Z
_TEXT	SEGMENT
??$?6DU?$char_traits@D@std@@H@std@@YAAAV?$basic_ostream@DU?$char_traits@D@std@@@0@AAV10@ABU?$_Smanip@H@0@@Z PROC NEAR ; std::operator<<<char,std::char_traits<char>,int>, COMDAT
; __Ostr$ = esi
; __Manip$ = ecx

; 73   : 	(*_Manip._Pfun)(_Ostr, _Manip._Manarg);

  00000	85 f6		 test	 esi, esi
  00002	75 04		 jne	 SHORT $L41135
  00004	33 c0		 xor	 eax, eax
  00006	eb 07		 jmp	 SHORT $L41136
$L41135:
  00008	8b 06		 mov	 eax, DWORD PTR [esi]
  0000a	8b 40 04	 mov	 eax, DWORD PTR [eax+4]
  0000d	03 c6		 add	 eax, esi
$L41136:
  0000f	ff 71 04	 push	 DWORD PTR [ecx+4]
  00012	50		 push	 eax
  00013	ff 11		 call	 DWORD PTR [ecx]
  00015	59		 pop	 ecx
  00016	59		 pop	 ecx

; 74   : 	return (_Ostr);

  00017	8b c6		 mov	 eax, esi

; 75   : 	}

  00019	c3		 ret	 0
??$?6DU?$char_traits@D@std@@H@std@@YAAAV?$basic_ostream@DU?$char_traits@D@std@@@0@AAV10@ABU?$_Smanip@H@0@@Z ENDP ; std::operator<<<char,std::char_traits<char>,int>
; Function compile flags: /Ogsy
_TEXT	ENDS
;	COMDAT ??$?6DU?$char_traits@D@std@@@std@@YAAAV?$basic_ostream@DU?$char_traits@D@std@@@0@AAV10@ABU?$_Fillobj@D@0@@Z
_TEXT	SEGMENT
??$?6DU?$char_traits@D@std@@@std@@YAAAV?$basic_ostream@DU?$char_traits@D@std@@@0@AAV10@ABU?$_Fillobj@D@0@@Z PROC NEAR ; std::operator<<<char,std::char_traits<char> >, COMDAT
; __Ostr$ = eax
; __Manip$ = edx

; 44   : 	_Ostr.fill(_Manip._Fill);

  00000	8b 08		 mov	 ecx, DWORD PTR [eax]
  00002	8b 49 04	 mov	 ecx, DWORD PTR [ecx+4]
  00005	8a 12		 mov	 dl, BYTE PTR [edx]
  00007	88 54 01 30	 mov	 BYTE PTR [ecx+eax+48], dl

; 45   : 	return (_Ostr);
; 46   : 	}

  0000b	c3		 ret	 0
??$?6DU?$char_traits@D@std@@@std@@YAAAV?$basic_ostream@DU?$char_traits@D@std@@@0@AAV10@ABU?$_Fillobj@D@0@@Z ENDP ; std::operator<<<char,std::char_traits<char> >
; Function compile flags: /Ogsy
_TEXT	ENDS
;	COMDAT ??$setfill@D@std@@YA?AU?$_Fillobj@D@0@D@Z
_TEXT	SEGMENT
??$setfill@D@std@@YA?AU?$_Fillobj@D@0@D@Z PROC NEAR	; std::setfill<char>, COMDAT
; ___$ReturnUdt$ = eax
; __Ch$ = ecx

; 27   : 	return (_Fillobj<_Elem>(_Ch));

  00000	88 08		 mov	 BYTE PTR [eax], cl

; 28   : 	}

  00002	c3		 ret	 0
??$setfill@D@std@@YA?AU?$_Fillobj@D@0@D@Z ENDP		; std::setfill<char>
; Function compile flags: /Ogsy
; File c:\program files (x86)\microsoft visual studio .net 2003\vc7\include\xmemory
_TEXT	ENDS
;	COMDAT ?max_size@?$allocator@G@std@@QBEIXZ
_TEXT	SEGMENT
?max_size@?$allocator@G@std@@QBEIXZ PROC NEAR		; std::allocator<unsigned short>::max_size, COMDAT

; 157  : 		_SIZT _Count = (_SIZT)(-1) / sizeof (_Ty);
; 158  : 		return (0 < _Count ? _Count : 1);

  00000	b8 ff ff ff 7f	 mov	 eax, 2147483647		; 7fffffffH

; 159  : 		}

  00005	c3		 ret	 0
?max_size@?$allocator@G@std@@QBEIXZ ENDP		; std::allocator<unsigned short>::max_size
; Function compile flags: /Ogsy
_TEXT	ENDS
;	COMDAT ?allocate@?$allocator@G@std@@QAEPAGI@Z
_TEXT	SEGMENT
?allocate@?$allocator@G@std@@QAEPAGI@Z PROC NEAR	; std::allocator<unsigned short>::allocate, COMDAT
; __Count$ = eax

; 137  : 		return (_Allocate(_Count, (pointer)0));

  00000	03 c0		 add	 eax, eax
  00002	50		 push	 eax
  00003	e8 00 00 00 00	 call	 ??2@YAPAXI@Z		; operator new
  00008	59		 pop	 ecx

; 138  : 		}

  00009	c3		 ret	 0
?allocate@?$allocator@G@std@@QAEPAGI@Z ENDP		; std::allocator<unsigned short>::allocate
; Function compile flags: /Ogsy
; File c:\program files (x86)\microsoft visual studio .net 2003\vc7\include\xstring
_TEXT	ENDS
;	COMDAT ?max_size@?$basic_string@GU?$char_traits@G@std@@V?$allocator@G@2@@std@@QBEIXZ
_TEXT	SEGMENT
?max_size@?$basic_string@GU?$char_traits@G@std@@V?$allocator@G@2@@std@@QBEIXZ PROC NEAR ; std::basic_string<unsigned short,std::char_traits<unsigned short>,std::allocator<unsigned short> >::max_size, COMDAT

; 1114 : 		size_type _Num = _Mybase::_Alval.max_size();
; 1115 : 		return (_Num <= 1 ? 1 : _Num - 1);

  00000	b8 fe ff ff 7f	 mov	 eax, 2147483646		; 7ffffffeH

; 1116 : 		}

  00005	c3		 ret	 0
?max_size@?$basic_string@GU?$char_traits@G@std@@V?$allocator@G@2@@std@@QBEIXZ ENDP ; std::basic_string<unsigned short,std::char_traits<unsigned short>,std::allocator<unsigned short> >::max_size
; Function compile flags: /Ogsy
; File c:\program files (x86)\microsoft visual studio .net 2003\vc7\include\xmemory
_TEXT	ENDS
;	COMDAT ?deallocate@?$allocator@G@std@@QAEXPAGI@Z
_TEXT	SEGMENT
__Ptr$ = 8						; size = 4
?deallocate@?$allocator@G@std@@QAEXPAGI@Z PROC NEAR	; std::allocator<unsigned short>::deallocate, COMDAT

; 132  : 		operator delete(_Ptr);

  00000	ff 74 24 04	 push	 DWORD PTR __Ptr$[esp-4]
  00004	e8 00 00 00 00	 call	 ??3@YAXPAX@Z		; operator delete
  00009	59		 pop	 ecx

; 133  : 		}

  0000a	c2 04 00	 ret	 4
?deallocate@?$allocator@G@std@@QAEXPAGI@Z ENDP		; std::allocator<unsigned short>::deallocate
; Function compile flags: /Ogsy
_TEXT	ENDS
;	COMDAT ??0?$allocator@G@std@@QAE@ABV01@@Z
_TEXT	SEGMENT
??0?$allocator@G@std@@QAE@ABV01@@Z PROC NEAR		; std::allocator<unsigned short>::allocator<unsigned short>, COMDAT
; _this$ = eax

; 116  : 		{	// construct by copying (do nothing)
; 117  : 		}

  00000	c3		 ret	 0
??0?$allocator@G@std@@QAE@ABV01@@Z ENDP			; std::allocator<unsigned short>::allocator<unsigned short>
; Function compile flags: /Ogsy
; File c:\program files (x86)\microsoft visual studio .net 2003\vc7\include\xstring
_TEXT	ENDS
;	COMDAT ?_Myptr@?$basic_string@GU?$char_traits@G@std@@V?$allocator@G@2@@std@@QAEPAGXZ
_TEXT	SEGMENT
?_Myptr@?$basic_string@GU?$char_traits@G@std@@V?$allocator@G@2@@std@@QAEPAGXZ PROC NEAR ; std::basic_string<unsigned short,std::char_traits<unsigned short>,std::allocator<unsigned short> >::_Myptr, COMDAT
; _this$ = eax

; 1532 : 		return (_BUF_SIZE <= _Myres ? _Bx._Ptr : _Bx._Buf);

  00000	83 78 18 08	 cmp	 DWORD PTR [eax+24], 8
  00004	72 04		 jb	 SHORT $L41185
  00006	8b 40 04	 mov	 eax, DWORD PTR [eax+4]

; 1533 : 		}

  00009	c3		 ret	 0
$L41185:

; 1532 : 		return (_BUF_SIZE <= _Myres ? _Bx._Ptr : _Bx._Buf);

  0000a	83 c0 04	 add	 eax, 4

; 1533 : 		}

  0000d	c3		 ret	 0
?_Myptr@?$basic_string@GU?$char_traits@G@std@@V?$allocator@G@2@@std@@QAEPAGXZ ENDP ; std::basic_string<unsigned short,std::char_traits<unsigned short>,std::allocator<unsigned short> >::_Myptr
; Function compile flags: /Ogsy
_TEXT	ENDS
;	COMDAT ?_Eos@?$basic_string@GU?$char_traits@G@std@@V?$allocator@G@2@@std@@IAEXI@Z
_TEXT	SEGMENT
__Newsize$ = 8						; size = 4
?_Eos@?$basic_string@GU?$char_traits@G@std@@V?$allocator@G@2@@std@@IAEXI@Z PROC NEAR ; std::basic_string<unsigned short,std::char_traits<unsigned short>,std::allocator<unsigned short> >::_Eos, COMDAT
; _this$ = ecx

; 1475 : 		_Traits::assign(_Myptr()[_Mysize = _Newsize], _Elem());

  00000	83 79 18 08	 cmp	 DWORD PTR [ecx+24], 8
  00004	8b 44 24 04	 mov	 eax, DWORD PTR __Newsize$[esp-4]
  00008	89 41 14	 mov	 DWORD PTR [ecx+20], eax
  0000b	72 05		 jb	 SHORT $L41195
  0000d	8b 49 04	 mov	 ecx, DWORD PTR [ecx+4]
  00010	eb 03		 jmp	 SHORT $L41196
$L41195:
  00012	83 c1 04	 add	 ecx, 4
$L41196:
  00015	66 83 24 41 00	 and	 WORD PTR [ecx+eax*2], 0

; 1476 : 		}

  0001a	c2 04 00	 ret	 4
?_Eos@?$basic_string@GU?$char_traits@G@std@@V?$allocator@G@2@@std@@IAEXI@Z ENDP ; std::basic_string<unsigned short,std::char_traits<unsigned short>,std::allocator<unsigned short> >::_Eos
; Function compile flags: /Ogsy
_TEXT	ENDS
;	COMDAT ?erase@?$basic_string@GU?$char_traits@G@std@@V?$allocator@G@2@@std@@QAEAAV12@II@Z
_TEXT	SEGMENT
__Off$ = 8						; size = 4
__Count$ = 12						; size = 4
?erase@?$basic_string@GU?$char_traits@G@std@@V?$allocator@G@2@@std@@QAEAAV12@II@Z PROC NEAR ; std::basic_string<unsigned short,std::char_traits<unsigned short>,std::allocator<unsigned short> >::erase, COMDAT
; _this$ = ecx

; 792  : 		{	// erase elements [_Off, _Off + _Count)

  00000	55		 push	 ebp
  00001	8b ec		 mov	 ebp, esp
  00003	56		 push	 esi
  00004	57		 push	 edi

; 793  : 		if (_Mysize < _Off)

  00005	8b 7d 08	 mov	 edi, DWORD PTR __Off$[ebp]
  00008	8b f1		 mov	 esi, ecx
  0000a	39 7e 14	 cmp	 DWORD PTR [esi+20], edi
  0000d	73 05		 jae	 SHORT $L26136

; 794  : 			_String_base::_Xran();	// _Off off end

  0000f	e8 00 00 00 00	 call	 ?_Xran@_String_base@std@@QBEXXZ ; std::_String_base::_Xran
$L26136:

; 795  : 		if (_Mysize - _Off < _Count)

  00014	8b 46 14	 mov	 eax, DWORD PTR [esi+20]
  00017	2b c7		 sub	 eax, edi
  00019	3b 45 0c	 cmp	 eax, DWORD PTR __Count$[ebp]
  0001c	73 03		 jae	 SHORT $L26137

; 796  : 			_Count = _Mysize - _Off;	// trim _Count

  0001e	89 45 0c	 mov	 DWORD PTR __Count$[ebp], eax
$L26137:

; 797  : 		if (0 < _Count)

  00021	83 7d 0c 00	 cmp	 DWORD PTR __Count$[ebp], 0
  00025	76 42		 jbe	 SHORT $L26138
  00027	53		 push	 ebx

; 798  : 			{	// move elements down
; 799  : 			_Traits::move(_Myptr() + _Off, _Myptr() + _Off + _Count,
; 800  : 				_Mysize - _Off - _Count);

  00028	8b 5e 18	 mov	 ebx, DWORD PTR [esi+24]
  0002b	83 fb 08	 cmp	 ebx, 8
  0002e	8d 4e 04	 lea	 ecx, DWORD PTR [esi+4]
  00031	72 04		 jb	 SHORT $L41208
  00033	8b 11		 mov	 edx, DWORD PTR [ecx]
  00035	eb 02		 jmp	 SHORT $L41209
$L41208:
  00037	8b d1		 mov	 edx, ecx
$L41209:
  00039	83 fb 08	 cmp	 ebx, 8
  0003c	72 02		 jb	 SHORT $L41216
  0003e	8b 09		 mov	 ecx, DWORD PTR [ecx]
$L41216:
  00040	8b 5d 0c	 mov	 ebx, DWORD PTR __Count$[ebp]
  00043	2b c3		 sub	 eax, ebx
  00045	d1 e0		 shl	 eax, 1
  00047	50		 push	 eax
  00048	8d 04 1f	 lea	 eax, DWORD PTR [edi+ebx]
  0004b	8d 04 42	 lea	 eax, DWORD PTR [edx+eax*2]
  0004e	50		 push	 eax
  0004f	8d 04 79	 lea	 eax, DWORD PTR [ecx+edi*2]
  00052	50		 push	 eax
  00053	e8 00 00 00 00	 call	 _memmove

; 801  : 			size_type _Newsize = _Mysize - _Count;

  00058	8b 46 14	 mov	 eax, DWORD PTR [esi+20]
  0005b	83 c4 0c	 add	 esp, 12			; 0000000cH
  0005e	2b c3		 sub	 eax, ebx

; 802  : 			_Eos(_Newsize);

  00060	50		 push	 eax
  00061	8b ce		 mov	 ecx, esi
  00063	e8 00 00 00 00	 call	 ?_Eos@?$basic_string@GU?$char_traits@G@std@@V?$allocator@G@2@@std@@IAEXI@Z ; std::basic_string<unsigned short,std::char_traits<unsigned short>,std::allocator<unsigned short> >::_Eos
  00068	5b		 pop	 ebx
$L26138:
  00069	5f		 pop	 edi

; 803  : 			}
; 804  : 		return (*this);

  0006a	8b c6		 mov	 eax, esi
  0006c	5e		 pop	 esi

; 805  : 		}

  0006d	5d		 pop	 ebp
  0006e	c2 08 00	 ret	 8
?erase@?$basic_string@GU?$char_traits@G@std@@V?$allocator@G@2@@std@@QAEAAV12@II@Z ENDP ; std::basic_string<unsigned short,std::char_traits<unsigned short>,std::allocator<unsigned short> >::erase
; Function compile flags: /Ogsy
; File c:\program files (x86)\microsoft visual studio .net 2003\vc7\include\xlocnum
_TEXT	ENDS
;	COMDAT ?_Tidy@?$numpunct@D@std@@AAEXXZ
_TEXT	SEGMENT
?_Tidy@?$numpunct@D@std@@AAEXXZ PROC NEAR		; std::numpunct<char>::_Tidy, COMDAT
; _this$ = ecx

; 137  : 		{	// free all storage

  00000	56		 push	 esi
  00001	8b f1		 mov	 esi, ecx

; 138  : 		_DELETE_CRT_VEC((void *)_Grouping);

  00003	ff 76 08	 push	 DWORD PTR [esi+8]
  00006	e8 00 00 00 00	 call	 ??_V@YAXPAX@Z		; operator delete[]

; 139  : 		_DELETE_CRT_VEC((void *)_Falsename);

  0000b	ff 76 10	 push	 DWORD PTR [esi+16]
  0000e	e8 00 00 00 00	 call	 ??_V@YAXPAX@Z		; operator delete[]

; 140  : 		_DELETE_CRT_VEC((void *)_Truename);

  00013	ff 76 14	 push	 DWORD PTR [esi+20]
  00016	e8 00 00 00 00	 call	 ??_V@YAXPAX@Z		; operator delete[]
  0001b	83 c4 0c	 add	 esp, 12			; 0000000cH
  0001e	5e		 pop	 esi

; 141  : 		}

  0001f	c3		 ret	 0
?_Tidy@?$numpunct@D@std@@AAEXXZ ENDP			; std::numpunct<char>::_Tidy
; Function compile flags: /Ogsy
_TEXT	ENDS
;	COMDAT ?thousands_sep@?$numpunct@D@std@@QBEDXZ
_TEXT	SEGMENT
?thousands_sep@?$numpunct@D@std@@QBEDXZ PROC NEAR	; std::numpunct<char>::thousands_sep, COMDAT
; _this$ = ecx

; 44   : 		return (do_thousands_sep());

  00000	8b 01		 mov	 eax, DWORD PTR [ecx]
  00002	ff 60 08	 jmp	 DWORD PTR [eax+8]
?thousands_sep@?$numpunct@D@std@@QBEDXZ ENDP		; std::numpunct<char>::thousands_sep
; Function compile flags: /Ogsy
_TEXT	ENDS
;	COMDAT ?decimal_point@?$numpunct@D@std@@QBEDXZ
_TEXT	SEGMENT
?decimal_point@?$numpunct@D@std@@QBEDXZ PROC NEAR	; std::numpunct<char>::decimal_point, COMDAT
; _this$ = ecx

; 39   : 		return (do_decimal_point());

  00000	8b 01		 mov	 eax, DWORD PTR [ecx]
  00002	ff 60 04	 jmp	 DWORD PTR [eax+4]
?decimal_point@?$numpunct@D@std@@QBEDXZ ENDP		; std::numpunct<char>::decimal_point
; Function compile flags: /Ogsy
_TEXT	ENDS
;	COMDAT ?_Tidy@?$numpunct@G@std@@AAEXXZ
_TEXT	SEGMENT
?_Tidy@?$numpunct@G@std@@AAEXXZ PROC NEAR		; std::numpunct<unsigned short>::_Tidy, COMDAT
; _this$ = ecx

; 137  : 		{	// free all storage

  00000	56		 push	 esi
  00001	8b f1		 mov	 esi, ecx

; 138  : 		_DELETE_CRT_VEC((void *)_Grouping);

  00003	ff 76 08	 push	 DWORD PTR [esi+8]
  00006	e8 00 00 00 00	 call	 ??_V@YAXPAX@Z		; operator delete[]

; 139  : 		_DELETE_CRT_VEC((void *)_Falsename);

  0000b	ff 76 10	 push	 DWORD PTR [esi+16]
  0000e	e8 00 00 00 00	 call	 ??_V@YAXPAX@Z		; operator delete[]

; 140  : 		_DELETE_CRT_VEC((void *)_Truename);

  00013	ff 76 14	 push	 DWORD PTR [esi+20]
  00016	e8 00 00 00 00	 call	 ??_V@YAXPAX@Z		; operator delete[]
  0001b	83 c4 0c	 add	 esp, 12			; 0000000cH
  0001e	5e		 pop	 esi

; 141  : 		}

  0001f	c3		 ret	 0
?_Tidy@?$numpunct@G@std@@AAEXXZ ENDP			; std::numpunct<unsigned short>::_Tidy
; Function compile flags: /Ogsy
_TEXT	ENDS
;	COMDAT ?thousands_sep@?$numpunct@G@std@@QBEGXZ
_TEXT	SEGMENT
?thousands_sep@?$numpunct@G@std@@QBEGXZ PROC NEAR	; std::numpunct<unsigned short>::thousands_sep, COMDAT
; _this$ = ecx

; 44   : 		return (do_thousands_sep());

  00000	8b 01		 mov	 eax, DWORD PTR [ecx]
  00002	ff 60 08	 jmp	 DWORD PTR [eax+8]
?thousands_sep@?$numpunct@G@std@@QBEGXZ ENDP		; std::numpunct<unsigned short>::thousands_sep
; Function compile flags: /Ogsy
_TEXT	ENDS
;	COMDAT ?decimal_point@?$numpunct@G@std@@QBEGXZ
_TEXT	SEGMENT
?decimal_point@?$numpunct@G@std@@QBEGXZ PROC NEAR	; std::numpunct<unsigned short>::decimal_point, COMDAT
; _this$ = ecx

; 39   : 		return (do_decimal_point());

  00000	8b 01		 mov	 eax, DWORD PTR [ecx]
  00002	ff 60 04	 jmp	 DWORD PTR [eax+4]
?decimal_point@?$numpunct@G@std@@QBEGXZ ENDP		; std::numpunct<unsigned short>::decimal_point
; Function compile flags: /Ogsy
; File c:\program files (x86)\microsoft visual studio .net 2003\vc7\include\xmemory
_TEXT	ENDS
;	COMDAT ??0?$allocator@G@std@@QAE@XZ
_TEXT	SEGMENT
??0?$allocator@G@std@@QAE@XZ PROC NEAR			; std::allocator<unsigned short>::allocator<unsigned short>, COMDAT
; _this$ = eax

; 112  : 		{	// construct default allocator (do nothing)
; 113  : 		}

  00000	c3		 ret	 0
??0?$allocator@G@std@@QAE@XZ ENDP			; std::allocator<unsigned short>::allocator<unsigned short>
; Function compile flags: /Ogsy
; File c:\program files (x86)\microsoft visual studio .net 2003\vc7\include\xstring
_TEXT	ENDS
;	COMDAT ??0?$_String_val@GV?$allocator@G@std@@@std@@IAE@V?$allocator@G@1@@Z
_TEXT	SEGMENT
__Al$ = 8						; size = 1
??0?$_String_val@GV?$allocator@G@std@@@std@@IAE@V?$allocator@G@1@@Z PROC NEAR ; std::_String_val<unsigned short,std::allocator<unsigned short> >::_String_val<unsigned short,std::allocator<unsigned short> >, COMDAT
; _this$ = eax

; 35   : 		}

  00000	c2 04 00	 ret	 4
??0?$_String_val@GV?$allocator@G@std@@@std@@IAE@V?$allocator@G@1@@Z ENDP ; std::_String_val<unsigned short,std::allocator<unsigned short> >::_String_val<unsigned short,std::allocator<unsigned short> >
; Function compile flags: /Ogsy
_TEXT	ENDS
;	COMDAT ?_Myptr@?$basic_string@GU?$char_traits@G@std@@V?$allocator@G@2@@std@@QBEPBGXZ
_TEXT	SEGMENT
?_Myptr@?$basic_string@GU?$char_traits@G@std@@V?$allocator@G@2@@std@@QBEPBGXZ PROC NEAR ; std::basic_string<unsigned short,std::char_traits<unsigned short>,std::allocator<unsigned short> >::_Myptr, COMDAT
; _this$ = eax

; 1537 : 		return (_BUF_SIZE <= _Myres ? _Bx._Ptr : _Bx._Buf);

  00000	83 78 18 08	 cmp	 DWORD PTR [eax+24], 8
  00004	72 04		 jb	 SHORT $L41266
  00006	8b 40 04	 mov	 eax, DWORD PTR [eax+4]

; 1538 : 		}

  00009	c3		 ret	 0
$L41266:

; 1537 : 		return (_BUF_SIZE <= _Myres ? _Bx._Ptr : _Bx._Buf);

  0000a	83 c0 04	 add	 eax, 4

; 1538 : 		}

  0000d	c3		 ret	 0
?_Myptr@?$basic_string@GU?$char_traits@G@std@@V?$allocator@G@2@@std@@QBEPBGXZ ENDP ; std::basic_string<unsigned short,std::char_traits<unsigned short>,std::allocator<unsigned short> >::_Myptr
; Function compile flags: /Ogsy
_TEXT	ENDS
;	COMDAT ?_Tidy@?$basic_string@GU?$char_traits@G@std@@V?$allocator@G@2@@std@@IAEX_NI@Z
_TEXT	SEGMENT
__Built$ = 8						; size = 1
__Newsize$ = 12						; size = 4
?_Tidy@?$basic_string@GU?$char_traits@G@std@@V?$allocator@G@2@@std@@IAEX_NI@Z PROC NEAR ; std::basic_string<unsigned short,std::char_traits<unsigned short>,std::allocator<unsigned short> >::_Tidy, COMDAT
; _this$ = ecx

; 1510 : 		if (!_Built)

  00000	80 7c 24 04 00	 cmp	 BYTE PTR __Built$[esp-4], 0
  00005	53		 push	 ebx
  00006	8b d9		 mov	 ebx, ecx
  00008	74 23		 je	 SHORT $L41281

; 1511 : 			;
; 1512 : 		else if (_BUF_SIZE <= _Myres)

  0000a	83 7b 18 08	 cmp	 DWORD PTR [ebx+24], 8
  0000e	72 1d		 jb	 SHORT $L41281

; 1513 : 			{	// copy any leftovers to small buffer and deallocate
; 1514 : 			_Elem *_Ptr = _Bx._Ptr;
; 1515 : 			if (0 < _Newsize)

  00010	8b 4c 24 0c	 mov	 ecx, DWORD PTR __Newsize$[esp]
  00014	85 c9		 test	 ecx, ecx
  00016	57		 push	 edi
  00017	8d 7b 04	 lea	 edi, DWORD PTR [ebx+4]
  0001a	8b 07		 mov	 eax, DWORD PTR [edi]
  0001c	76 07		 jbe	 SHORT $L41275
  0001e	56		 push	 esi

; 1516 : 				_Traits::copy(_Bx._Buf, _Ptr, _Newsize);

  0001f	8b f0		 mov	 esi, eax
  00021	66 f3 a5	 rep movsw
  00024	5e		 pop	 esi
$L41275:

; 1517 : 			_Mybase::_Alval.deallocate(_Ptr, _Myres + 1);

  00025	50		 push	 eax
  00026	e8 00 00 00 00	 call	 ??3@YAXPAX@Z		; operator delete
  0002b	59		 pop	 ecx
  0002c	5f		 pop	 edi
$L41281:

; 1518 : 			}
; 1519 : 		_Myres = _BUF_SIZE - 1;
; 1520 : 		_Eos(_Newsize);

  0002d	ff 74 24 0c	 push	 DWORD PTR __Newsize$[esp]
  00031	8b cb		 mov	 ecx, ebx
  00033	c7 43 18 07 00
	00 00		 mov	 DWORD PTR [ebx+24], 7
  0003a	e8 00 00 00 00	 call	 ?_Eos@?$basic_string@GU?$char_traits@G@std@@V?$allocator@G@2@@std@@IAEXI@Z ; std::basic_string<unsigned short,std::char_traits<unsigned short>,std::allocator<unsigned short> >::_Eos
  0003f	5b		 pop	 ebx

; 1521 : 		}

  00040	c2 08 00	 ret	 8
?_Tidy@?$basic_string@GU?$char_traits@G@std@@V?$allocator@G@2@@std@@IAEX_NI@Z ENDP ; std::basic_string<unsigned short,std::char_traits<unsigned short>,std::allocator<unsigned short> >::_Tidy
; Function compile flags: /Ogsy
; File c:\program files (x86)\microsoft visual studio .net 2003\vc7\include\xutility
_TEXT	ENDS
;	COMDAT ??E?$ostreambuf_iterator@DU?$char_traits@D@std@@@std@@QAEAAV01@XZ
_TEXT	SEGMENT
??E?$ostreambuf_iterator@DU?$char_traits@D@std@@@std@@QAEAAV01@XZ PROC NEAR ; std::ostreambuf_iterator<char,std::char_traits<char> >::operator++, COMDAT
; _this$ = eax

; 995  : 		return (*this);
; 996  : 		}

  00000	c3		 ret	 0
??E?$ostreambuf_iterator@DU?$char_traits@D@std@@@std@@QAEAAV01@XZ ENDP ; std::ostreambuf_iterator<char,std::char_traits<char> >::operator++
; Function compile flags: /Ogsy
_TEXT	ENDS
;	COMDAT ??D?$ostreambuf_iterator@DU?$char_traits@D@std@@@std@@QAEAAV01@XZ
_TEXT	SEGMENT
??D?$ostreambuf_iterator@DU?$char_traits@D@std@@@std@@QAEAAV01@XZ PROC NEAR ; std::ostreambuf_iterator<char,std::char_traits<char> >::operator*, COMDAT
; _this$ = eax

; 990  : 		return (*this);
; 991  : 		}

  00000	c3		 ret	 0
??D?$ostreambuf_iterator@DU?$char_traits@D@std@@@std@@QAEAAV01@XZ ENDP ; std::ostreambuf_iterator<char,std::char_traits<char> >::operator*
; Function compile flags: /Ogsy
_TEXT	ENDS
;	COMDAT ??4?$ostreambuf_iterator@DU?$char_traits@D@std@@@std@@QAEAAV01@D@Z
_TEXT	SEGMENT
__Right$ = 8						; size = 1
??4?$ostreambuf_iterator@DU?$char_traits@D@std@@@std@@QAEAAV01@D@Z PROC NEAR ; std::ostreambuf_iterator<char,std::char_traits<char> >::operator=, COMDAT
; _this$ = ecx

; 980  : 		{	// store element and increment

  00000	56		 push	 esi
  00001	8b f1		 mov	 esi, ecx

; 981  : 		if (_Strbuf == 0
; 982  : 			|| traits_type::eq_int_type(_Traits::eof(),
; 983  : 				_Strbuf->sputc(_Right)))

  00003	8b 4e 04	 mov	 ecx, DWORD PTR [esi+4]
  00006	85 c9		 test	 ecx, ecx
  00008	74 0e		 je	 SHORT $L25947
  0000a	ff 74 24 08	 push	 DWORD PTR __Right$[esp]
  0000e	e8 00 00 00 00	 call	 ?sputc@?$basic_streambuf@DU?$char_traits@D@std@@@std@@QAEHD@Z ; std::basic_streambuf<char,std::char_traits<char> >::sputc
  00013	83 f8 ff	 cmp	 eax, -1
  00016	75 03		 jne	 SHORT $L25946
$L25947:

; 984  : 			_Failed = true;

  00018	c6 06 01	 mov	 BYTE PTR [esi], 1
$L25946:

; 985  : 		return (*this);

  0001b	8b c6		 mov	 eax, esi
  0001d	5e		 pop	 esi

; 986  : 		}

  0001e	c2 04 00	 ret	 4
??4?$ostreambuf_iterator@DU?$char_traits@D@std@@@std@@QAEAAV01@D@Z ENDP ; std::ostreambuf_iterator<char,std::char_traits<char> >::operator=
; Function compile flags: /Ogsy
; File c:\program files (x86)\microsoft visual studio .net 2003\vc7\include\xlocnum
_TEXT	ENDS
;	COMDAT ?_Putc@?$num_put@DV?$ostreambuf_iterator@DU?$char_traits@D@std@@@std@@@std@@ABA?AV?$ostreambuf_iterator@DU?$char_traits@D@std@@@2@V32@PBDI@Z
_TEXT	SEGMENT
__Dest$ = 8						; size = 8
?_Putc@?$num_put@DV?$ostreambuf_iterator@DU?$char_traits@D@std@@@std@@@std@@ABA?AV?$ostreambuf_iterator@DU?$char_traits@D@std@@@2@V32@PBDI@Z PROC NEAR ; std::num_put<char,std::ostreambuf_iterator<char,std::char_traits<char> > >::_Putc, COMDAT
; ___$ReturnUdt$ = ebx
; __Ptr$ = ecx
; __Count$ = eax

; 1250 : 		{	// put char sequence [_Ptr, _Ptr + _Count) to _Dest

  00000	56		 push	 esi
  00001	57		 push	 edi
  00002	8b f8		 mov	 edi, eax

; 1251 : 		for (; 0 < _Count; --_Count, ++_Dest, ++_Ptr)

  00004	85 ff		 test	 edi, edi
  00006	8b f1		 mov	 esi, ecx
  00008	76 12		 jbe	 SHORT $L25926
$L25924:

; 1252 : 			*_Dest = _MAKLOCCHR(_Elem, *_Ptr, _Cvt);

  0000a	33 c0		 xor	 eax, eax
  0000c	8a 06		 mov	 al, BYTE PTR [esi]
  0000e	8d 4c 24 0c	 lea	 ecx, DWORD PTR __Dest$[esp+4]
  00012	50		 push	 eax
  00013	e8 00 00 00 00	 call	 ??4?$ostreambuf_iterator@DU?$char_traits@D@std@@@std@@QAEAAV01@D@Z ; std::ostreambuf_iterator<char,std::char_traits<char> >::operator=
  00018	46		 inc	 esi
  00019	4f		 dec	 edi
  0001a	75 ee		 jne	 SHORT $L25924
$L25926:

; 1253 : 		return (_Dest);

  0001c	8b 44 24 0c	 mov	 eax, DWORD PTR __Dest$[esp+4]
  00020	89 03		 mov	 DWORD PTR [ebx], eax
  00022	8b 44 24 10	 mov	 eax, DWORD PTR __Dest$[esp+8]
  00026	5f		 pop	 edi
  00027	89 43 04	 mov	 DWORD PTR [ebx+4], eax
  0002a	8b c3		 mov	 eax, ebx
  0002c	5e		 pop	 esi

; 1254 : 		}

  0002d	c3		 ret	 0
?_Putc@?$num_put@DV?$ostreambuf_iterator@DU?$char_traits@D@std@@@std@@@std@@ABA?AV?$ostreambuf_iterator@DU?$char_traits@D@std@@@2@V32@PBDI@Z ENDP ; std::num_put<char,std::ostreambuf_iterator<char,std::char_traits<char> > >::_Putc
; Function compile flags: /Ogsy
; File c:\program files (x86)\microsoft visual studio .net 2003\vc7\include\xutility
_TEXT	ENDS
;	COMDAT ??E?$ostreambuf_iterator@GU?$char_traits@G@std@@@std@@QAEAAV01@XZ
_TEXT	SEGMENT
??E?$ostreambuf_iterator@GU?$char_traits@G@std@@@std@@QAEAAV01@XZ PROC NEAR ; std::ostreambuf_iterator<unsigned short,std::char_traits<unsigned short> >::operator++, COMDAT
; _this$ = eax

; 995  : 		return (*this);
; 996  : 		}

  00000	c3		 ret	 0
??E?$ostreambuf_iterator@GU?$char_traits@G@std@@@std@@QAEAAV01@XZ ENDP ; std::ostreambuf_iterator<unsigned short,std::char_traits<unsigned short> >::operator++
; Function compile flags: /Ogsy
_TEXT	ENDS
;	COMDAT ??D?$ostreambuf_iterator@GU?$char_traits@G@std@@@std@@QAEAAV01@XZ
_TEXT	SEGMENT
??D?$ostreambuf_iterator@GU?$char_traits@G@std@@@std@@QAEAAV01@XZ PROC NEAR ; std::ostreambuf_iterator<unsigned short,std::char_traits<unsigned short> >::operator*, COMDAT
; _this$ = eax

; 990  : 		return (*this);
; 991  : 		}

  00000	c3		 ret	 0
??D?$ostreambuf_iterator@GU?$char_traits@G@std@@@std@@QAEAAV01@XZ ENDP ; std::ostreambuf_iterator<unsigned short,std::char_traits<unsigned short> >::operator*
; Function compile flags: /Ogsy
_TEXT	ENDS
;	COMDAT ??4?$ostreambuf_iterator@GU?$char_traits@G@std@@@std@@QAEAAV01@G@Z
_TEXT	SEGMENT
__Right$ = 8						; size = 2
??4?$ostreambuf_iterator@GU?$char_traits@G@std@@@std@@QAEAAV01@G@Z PROC NEAR ; std::ostreambuf_iterator<unsigned short,std::char_traits<unsigned short> >::operator=, COMDAT
; _this$ = ecx

; 980  : 		{	// store element and increment

  00000	56		 push	 esi
  00001	8b f1		 mov	 esi, ecx

; 981  : 		if (_Strbuf == 0
; 982  : 			|| traits_type::eq_int_type(_Traits::eof(),
; 983  : 				_Strbuf->sputc(_Right)))

  00003	8b 4e 04	 mov	 ecx, DWORD PTR [esi+4]
  00006	85 c9		 test	 ecx, ecx
  00008	74 0f		 je	 SHORT $L25916
  0000a	ff 74 24 08	 push	 DWORD PTR __Right$[esp]
  0000e	e8 00 00 00 00	 call	 ?sputc@?$basic_streambuf@GU?$char_traits@G@std@@@std@@QAEGG@Z ; std::basic_streambuf<unsigned short,std::char_traits<unsigned short> >::sputc
  00013	66 3d ff ff	 cmp	 ax, 65535		; 0000ffffH
  00017	75 03		 jne	 SHORT $L25915
$L25916:

; 984  : 			_Failed = true;

  00019	c6 06 01	 mov	 BYTE PTR [esi], 1
$L25915:

; 985  : 		return (*this);

  0001c	8b c6		 mov	 eax, esi
  0001e	5e		 pop	 esi

; 986  : 		}

  0001f	c2 04 00	 ret	 4
??4?$ostreambuf_iterator@GU?$char_traits@G@std@@@std@@QAEAAV01@G@Z ENDP ; std::ostreambuf_iterator<unsigned short,std::char_traits<unsigned short> >::operator=
; Function compile flags: /Ogsy
; File c:\program files (x86)\microsoft visual studio .net 2003\vc7\include\xlocnum
_TEXT	ENDS
;	COMDAT ?_Putc@?$num_put@GV?$ostreambuf_iterator@GU?$char_traits@G@std@@@std@@@std@@ABA?AV?$ostreambuf_iterator@GU?$char_traits@G@std@@@2@V32@PBDI@Z
_TEXT	SEGMENT
___$ReturnUdt$ = 8					; size = 4
__Dest$ = 12						; size = 8
?_Putc@?$num_put@GV?$ostreambuf_iterator@GU?$char_traits@G@std@@@std@@@std@@ABA?AV?$ostreambuf_iterator@GU?$char_traits@G@std@@@2@V32@PBDI@Z PROC NEAR ; std::num_put<unsigned short,std::ostreambuf_iterator<unsigned short,std::char_traits<unsigned short> > >::_Putc, COMDAT
; _this$ = edx
; __Ptr$ = ecx
; __Count$ = eax

; 1250 : 		{	// put char sequence [_Ptr, _Ptr + _Count) to _Dest

  00000	53		 push	 ebx
  00001	8b d8		 mov	 ebx, eax

; 1251 : 		for (; 0 < _Count; --_Count, ++_Dest, ++_Ptr)

  00003	85 db		 test	 ebx, ebx
  00005	57		 push	 edi
  00006	8b f9		 mov	 edi, ecx
  00008	76 25		 jbe	 SHORT $L25895
  0000a	56		 push	 esi
  0000b	8b f2		 mov	 esi, edx
  0000d	83 c6 08	 add	 esi, 8
$L41343:

; 1252 : 			*_Dest = _MAKLOCCHR(_Elem, *_Ptr, _Cvt);

  00010	33 c0		 xor	 eax, eax
  00012	8a 07		 mov	 al, BYTE PTR [edi]
  00014	56		 push	 esi
  00015	6a 00		 push	 0
  00017	50		 push	 eax
  00018	e8 00 00 00 00	 call	 ??$_Maklocchr@G@std@@YAGDPAGABU_Cvtvec@@@Z ; std::_Maklocchr<unsigned short>
  0001d	83 c4 0c	 add	 esp, 12			; 0000000cH
  00020	8d 4c 24 14	 lea	 ecx, DWORD PTR __Dest$[esp+8]
  00024	50		 push	 eax
  00025	e8 00 00 00 00	 call	 ??4?$ostreambuf_iterator@GU?$char_traits@G@std@@@std@@QAEAAV01@G@Z ; std::ostreambuf_iterator<unsigned short,std::char_traits<unsigned short> >::operator=
  0002a	47		 inc	 edi
  0002b	4b		 dec	 ebx
  0002c	75 e2		 jne	 SHORT $L41343
  0002e	5e		 pop	 esi
$L25895:

; 1253 : 		return (_Dest);

  0002f	8b 4c 24 10	 mov	 ecx, DWORD PTR __Dest$[esp+4]
  00033	8b 44 24 0c	 mov	 eax, DWORD PTR ___$ReturnUdt$[esp+4]
  00037	89 08		 mov	 DWORD PTR [eax], ecx
  00039	8b 4c 24 14	 mov	 ecx, DWORD PTR __Dest$[esp+8]
  0003d	5f		 pop	 edi
  0003e	89 48 04	 mov	 DWORD PTR [eax+4], ecx
  00041	5b		 pop	 ebx

; 1254 : 		}

  00042	c3		 ret	 0
?_Putc@?$num_put@GV?$ostreambuf_iterator@GU?$char_traits@G@std@@@std@@@std@@ABA?AV?$ostreambuf_iterator@GU?$char_traits@G@std@@@2@V32@PBDI@Z ENDP ; std::num_put<unsigned short,std::ostreambuf_iterator<unsigned short,std::char_traits<unsigned short> > >::_Putc
; Function compile flags: /Ogsy
_TEXT	ENDS
;	COMDAT ?do_thousands_sep@?$numpunct@D@std@@MBEDXZ
_TEXT	SEGMENT
?do_thousands_sep@?$numpunct@D@std@@MBEDXZ PROC NEAR	; std::numpunct<char>::do_thousands_sep, COMDAT
; _this$ = ecx

; 117  : 		return (_Kseparator);

  00000	8a 41 0d	 mov	 al, BYTE PTR [ecx+13]

; 118  : 		}

  00003	c3		 ret	 0
?do_thousands_sep@?$numpunct@D@std@@MBEDXZ ENDP		; std::numpunct<char>::do_thousands_sep
; Function compile flags: /Ogsy
_TEXT	ENDS
;	COMDAT ?do_decimal_point@?$numpunct@D@std@@MBEDXZ
_TEXT	SEGMENT
?do_decimal_point@?$numpunct@D@std@@MBEDXZ PROC NEAR	; std::numpunct<char>::do_decimal_point, COMDAT
; _this$ = ecx

; 112  : 		return (_Dp);

  00000	8a 41 0c	 mov	 al, BYTE PTR [ecx+12]

; 113  : 		}

  00003	c3		 ret	 0
?do_decimal_point@?$numpunct@D@std@@MBEDXZ ENDP		; std::numpunct<char>::do_decimal_point
; Function compile flags: /Ogsy
_TEXT	ENDS
;	COMDAT ??1?$numpunct@D@std@@MAE@XZ
_TEXT	SEGMENT
??1?$numpunct@D@std@@MAE@XZ PROC NEAR			; std::numpunct<char>::~numpunct<char>, COMDAT
; _this$ = ecx

; 83   : 		{	// destroy the object

  00000	56		 push	 esi
  00001	8b f1		 mov	 esi, ecx
  00003	c7 06 00 00 00
	00		 mov	 DWORD PTR [esi], OFFSET FLAT:??_7?$numpunct@D@std@@6B@

; 84   : 		_Tidy();

  00009	e8 00 00 00 00	 call	 ?_Tidy@?$numpunct@D@std@@AAEXXZ ; std::numpunct<char>::_Tidy

; 85   : 		}

  0000e	c7 06 00 00 00
	00		 mov	 DWORD PTR [esi], OFFSET FLAT:??_7facet@locale@std@@6B@
  00014	5e		 pop	 esi
  00015	c3		 ret	 0
??1?$numpunct@D@std@@MAE@XZ ENDP			; std::numpunct<char>::~numpunct<char>
; Function compile flags: /Ogsy
_TEXT	ENDS
;	COMDAT ?do_thousands_sep@?$numpunct@G@std@@MBEGXZ
_TEXT	SEGMENT
?do_thousands_sep@?$numpunct@G@std@@MBEGXZ PROC NEAR	; std::numpunct<unsigned short>::do_thousands_sep, COMDAT
; _this$ = ecx

; 117  : 		return (_Kseparator);

  00000	66 8b 41 0e	 mov	 ax, WORD PTR [ecx+14]

; 118  : 		}

  00004	c3		 ret	 0
?do_thousands_sep@?$numpunct@G@std@@MBEGXZ ENDP		; std::numpunct<unsigned short>::do_thousands_sep
; Function compile flags: /Ogsy
_TEXT	ENDS
;	COMDAT ?do_decimal_point@?$numpunct@G@std@@MBEGXZ
_TEXT	SEGMENT
?do_decimal_point@?$numpunct@G@std@@MBEGXZ PROC NEAR	; std::numpunct<unsigned short>::do_decimal_point, COMDAT
; _this$ = ecx

; 112  : 		return (_Dp);

  00000	66 8b 41 0c	 mov	 ax, WORD PTR [ecx+12]

; 113  : 		}

  00004	c3		 ret	 0
?do_decimal_point@?$numpunct@G@std@@MBEGXZ ENDP		; std::numpunct<unsigned short>::do_decimal_point
; Function compile flags: /Ogsy
_TEXT	ENDS
;	COMDAT ??1?$numpunct@G@std@@MAE@XZ
_TEXT	SEGMENT
??1?$numpunct@G@std@@MAE@XZ PROC NEAR			; std::numpunct<unsigned short>::~numpunct<unsigned short>, COMDAT
; _this$ = ecx

; 83   : 		{	// destroy the object

  00000	56		 push	 esi
  00001	8b f1		 mov	 esi, ecx
  00003	c7 06 00 00 00
	00		 mov	 DWORD PTR [esi], OFFSET FLAT:??_7?$numpunct@G@std@@6B@

; 84   : 		_Tidy();

  00009	e8 00 00 00 00	 call	 ?_Tidy@?$numpunct@G@std@@AAEXXZ ; std::numpunct<unsigned short>::_Tidy

; 85   : 		}

  0000e	c7 06 00 00 00
	00		 mov	 DWORD PTR [esi], OFFSET FLAT:??_7facet@locale@std@@6B@
  00014	5e		 pop	 esi
  00015	c3		 ret	 0
??1?$numpunct@G@std@@MAE@XZ ENDP			; std::numpunct<unsigned short>::~numpunct<unsigned short>
; Function compile flags: /Ogsy
; File c:\program files (x86)\microsoft visual studio .net 2003\vc7\include\xstring
_TEXT	ENDS
;	COMDAT ?size@?$basic_string@GU?$char_traits@G@std@@V?$allocator@G@2@@std@@QBEIXZ
_TEXT	SEGMENT
?size@?$basic_string@GU?$char_traits@G@std@@V?$allocator@G@2@@std@@QBEIXZ PROC NEAR ; std::basic_string<unsigned short,std::char_traits<unsigned short>,std::allocator<unsigned short> >::size, COMDAT
; _this$ = eax

; 1109 : 		return (_Mysize);

  00000	8b 40 14	 mov	 eax, DWORD PTR [eax+20]

; 1110 : 		}

  00003	c3		 ret	 0
?size@?$basic_string@GU?$char_traits@G@std@@V?$allocator@G@2@@std@@QBEIXZ ENDP ; std::basic_string<unsigned short,std::char_traits<unsigned short>,std::allocator<unsigned short> >::size
; Function compile flags: /Ogsy
_TEXT	ENDS
;	COMDAT ?c_str@?$basic_string@GU?$char_traits@G@std@@V?$allocator@G@2@@std@@QBEPBGXZ
_TEXT	SEGMENT
?c_str@?$basic_string@GU?$char_traits@G@std@@V?$allocator@G@2@@std@@QBEPBGXZ PROC NEAR ; std::basic_string<unsigned short,std::char_traits<unsigned short>,std::allocator<unsigned short> >::c_str, COMDAT
; _this$ = eax

; 1094 : 		return (_Myptr());

  00000	83 78 18 08	 cmp	 DWORD PTR [eax+24], 8
  00004	72 04		 jb	 SHORT $L41380
  00006	8b 40 04	 mov	 eax, DWORD PTR [eax+4]

; 1095 : 		}

  00009	c3		 ret	 0

; 1094 : 		return (_Myptr());

$L41380:
  0000a	83 c0 04	 add	 eax, 4

; 1095 : 		}

  0000d	c3		 ret	 0
?c_str@?$basic_string@GU?$char_traits@G@std@@V?$allocator@G@2@@std@@QBEPBGXZ ENDP ; std::basic_string<unsigned short,std::char_traits<unsigned short>,std::allocator<unsigned short> >::c_str
; Function compile flags: /Ogsy
_TEXT	ENDS
;	COMDAT ??1?$basic_string@GU?$char_traits@G@std@@V?$allocator@G@2@@std@@QAE@XZ
_TEXT	SEGMENT
??1?$basic_string@GU?$char_traits@G@std@@V?$allocator@G@2@@std@@QAE@XZ PROC NEAR ; std::basic_string<unsigned short,std::char_traits<unsigned short>,std::allocator<unsigned short> >::~basic_string<unsigned short,std::char_traits<unsigned short>,std::allocator<unsigned short> >, COMDAT
; _this$ = ecx

; 457  : 		_Tidy(true);

  00000	6a 00		 push	 0
  00002	6a 01		 push	 1
  00004	e8 00 00 00 00	 call	 ?_Tidy@?$basic_string@GU?$char_traits@G@std@@V?$allocator@G@2@@std@@IAEX_NI@Z ; std::basic_string<unsigned short,std::char_traits<unsigned short>,std::allocator<unsigned short> >::_Tidy

; 458  : 		}

  00009	c3		 ret	 0
??1?$basic_string@GU?$char_traits@G@std@@V?$allocator@G@2@@std@@QAE@XZ ENDP ; std::basic_string<unsigned short,std::char_traits<unsigned short>,std::allocator<unsigned short> >::~basic_string<unsigned short,std::char_traits<unsigned short>,std::allocator<unsigned short> >
; Function compile flags: /Ogsy
_TEXT	ENDS
;	COMDAT ??0?$basic_string@GU?$char_traits@G@std@@V?$allocator@G@2@@std@@QAE@XZ
_TEXT	SEGMENT
??0?$basic_string@GU?$char_traits@G@std@@V?$allocator@G@2@@std@@QAE@XZ PROC NEAR ; std::basic_string<unsigned short,std::char_traits<unsigned short>,std::allocator<unsigned short> >::basic_string<unsigned short,std::char_traits<unsigned short>,std::allocator<unsigned short> >, COMDAT
; _this$ = ecx

; 311  : 		{	// construct empty string

  00000	56		 push	 esi
  00001	8b f1		 mov	 esi, ecx

; 312  : 		_Tidy();

  00003	6a 00		 push	 0
  00005	c7 46 18 07 00
	00 00		 mov	 DWORD PTR [esi+24], 7
  0000c	e8 00 00 00 00	 call	 ?_Eos@?$basic_string@GU?$char_traits@G@std@@V?$allocator@G@2@@std@@IAEXI@Z ; std::basic_string<unsigned short,std::char_traits<unsigned short>,std::allocator<unsigned short> >::_Eos

; 313  : 		}

  00011	8b c6		 mov	 eax, esi
  00013	5e		 pop	 esi
  00014	c3		 ret	 0
??0?$basic_string@GU?$char_traits@G@std@@V?$allocator@G@2@@std@@QAE@XZ ENDP ; std::basic_string<unsigned short,std::char_traits<unsigned short>,std::allocator<unsigned short> >::basic_string<unsigned short,std::char_traits<unsigned short>,std::allocator<unsigned short> >
; Function compile flags: /Ogsy
; File c:\program files (x86)\microsoft visual studio .net 2003\vc7\include\xlocnum
_TEXT	ENDS
;	COMDAT ?_Rep@?$num_put@DV?$ostreambuf_iterator@DU?$char_traits@D@std@@@std@@@std@@ABA?AV?$ostreambuf_iterator@DU?$char_traits@D@std@@@2@V32@DI@Z
_TEXT	SEGMENT
__Dest$ = 8						; size = 8
__Ch$ = 16						; size = 1
?_Rep@?$num_put@DV?$ostreambuf_iterator@DU?$char_traits@D@std@@@std@@@std@@ABA?AV?$ostreambuf_iterator@DU?$char_traits@D@std@@@2@V32@DI@Z PROC NEAR ; std::num_put<char,std::ostreambuf_iterator<char,std::char_traits<char> > >::_Rep, COMDAT
; ___$ReturnUdt$ = edi
; __Count$ = eax

; 1276 : 		{	// put _Count * _Ch to _Dest

  00000	56		 push	 esi
  00001	8b f0		 mov	 esi, eax

; 1277 : 		for (; 0 < _Count; --_Count, ++_Dest)

  00003	85 f6		 test	 esi, esi
  00005	76 10		 jbe	 SHORT $L25798
$L41432:

; 1278 : 			*_Dest = _Ch;

  00007	ff 74 24 10	 push	 DWORD PTR __Ch$[esp]
  0000b	8d 4c 24 0c	 lea	 ecx, DWORD PTR __Dest$[esp+4]
  0000f	e8 00 00 00 00	 call	 ??4?$ostreambuf_iterator@DU?$char_traits@D@std@@@std@@QAEAAV01@D@Z ; std::ostreambuf_iterator<char,std::char_traits<char> >::operator=
  00014	4e		 dec	 esi
  00015	75 f0		 jne	 SHORT $L41432
$L25798:

; 1279 : 		return (_Dest);

  00017	8b 44 24 08	 mov	 eax, DWORD PTR __Dest$[esp]
  0001b	89 07		 mov	 DWORD PTR [edi], eax
  0001d	8b 44 24 0c	 mov	 eax, DWORD PTR __Dest$[esp+4]
  00021	89 47 04	 mov	 DWORD PTR [edi+4], eax
  00024	8b c7		 mov	 eax, edi
  00026	5e		 pop	 esi

; 1280 : 		}

  00027	c3		 ret	 0
?_Rep@?$num_put@DV?$ostreambuf_iterator@DU?$char_traits@D@std@@@std@@@std@@ABA?AV?$ostreambuf_iterator@DU?$char_traits@D@std@@@2@V32@DI@Z ENDP ; std::num_put<char,std::ostreambuf_iterator<char,std::char_traits<char> > >::_Rep
; Function compile flags: /Ogsy
_TEXT	ENDS
;	COMDAT ?_Put@?$num_put@DV?$ostreambuf_iterator@DU?$char_traits@D@std@@@std@@@std@@ABA?AV?$ostreambuf_iterator@DU?$char_traits@D@std@@@2@V32@PBDI@Z
_TEXT	SEGMENT
__Dest$ = 8						; size = 8
?_Put@?$num_put@DV?$ostreambuf_iterator@DU?$char_traits@D@std@@@std@@@std@@ABA?AV?$ostreambuf_iterator@DU?$char_traits@D@std@@@2@V32@PBDI@Z PROC NEAR ; std::num_put<char,std::ostreambuf_iterator<char,std::char_traits<char> > >::_Put, COMDAT
; ___$ReturnUdt$ = ebx
; __Ptr$ = ecx
; __Count$ = eax

; 1242 : 		{	// put [_Ptr, _Ptr + _Count) to _Dest

  00000	56		 push	 esi
  00001	57		 push	 edi
  00002	8b f8		 mov	 edi, eax

; 1243 : 		for (; 0 < _Count; --_Count, ++_Dest, ++_Ptr)

  00004	85 ff		 test	 edi, edi
  00006	8b f1		 mov	 esi, ecx
  00008	76 12		 jbe	 SHORT $L25792
$L25790:

; 1244 : 			*_Dest = *_Ptr;

  0000a	33 c0		 xor	 eax, eax
  0000c	8a 06		 mov	 al, BYTE PTR [esi]
  0000e	8d 4c 24 0c	 lea	 ecx, DWORD PTR __Dest$[esp+4]
  00012	50		 push	 eax
  00013	e8 00 00 00 00	 call	 ??4?$ostreambuf_iterator@DU?$char_traits@D@std@@@std@@QAEAAV01@D@Z ; std::ostreambuf_iterator<char,std::char_traits<char> >::operator=
  00018	46		 inc	 esi
  00019	4f		 dec	 edi
  0001a	75 ee		 jne	 SHORT $L25790
$L25792:

; 1245 : 		return (_Dest);

  0001c	8b 44 24 0c	 mov	 eax, DWORD PTR __Dest$[esp+4]
  00020	89 03		 mov	 DWORD PTR [ebx], eax
  00022	8b 44 24 10	 mov	 eax, DWORD PTR __Dest$[esp+8]
  00026	5f		 pop	 edi
  00027	89 43 04	 mov	 DWORD PTR [ebx+4], eax
  0002a	8b c3		 mov	 eax, ebx
  0002c	5e		 pop	 esi

; 1246 : 		}

  0002d	c3		 ret	 0
?_Put@?$num_put@DV?$ostreambuf_iterator@DU?$char_traits@D@std@@@std@@@std@@ABA?AV?$ostreambuf_iterator@DU?$char_traits@D@std@@@2@V32@PBDI@Z ENDP ; std::num_put<char,std::ostreambuf_iterator<char,std::char_traits<char> > >::_Put
; Function compile flags: /Ogsy
_TEXT	ENDS
;	COMDAT ?_Ifmt@?$num_put@DV?$ostreambuf_iterator@DU?$char_traits@D@std@@@std@@@std@@ABAPADPADPBDH@Z
_TEXT	SEGMENT
_this$ = 8						; size = 4
__Fmt$ = 12						; size = 4
__Spec$ = 16						; size = 4
__Flags$ = 20						; size = 4
?_Ifmt@?$num_put@DV?$ostreambuf_iterator@DU?$char_traits@D@std@@@std@@@std@@ABAPADPADPBDH@Z PROC NEAR ; std::num_put<char,std::ostreambuf_iterator<char,std::char_traits<char> > >::_Ifmt, COMDAT

; 1166 : 		char *_Ptr = _Fmt;
; 1167 : 		*_Ptr++ = '%';

  00000	8b 44 24 08	 mov	 eax, DWORD PTR __Fmt$[esp-4]

; 1168 : 
; 1169 : 		if (_Flags & ios_base::showpos)

  00004	8b 54 24 10	 mov	 edx, DWORD PTR __Flags$[esp-4]
  00008	f6 c2 20	 test	 dl, 32			; 00000020H
  0000b	c6 00 25	 mov	 BYTE PTR [eax], 37	; 00000025H
  0000e	8d 48 01	 lea	 ecx, DWORD PTR [eax+1]
  00011	74 04		 je	 SHORT $L25754

; 1170 : 			*_Ptr++ = '+';

  00013	c6 01 2b	 mov	 BYTE PTR [ecx], 43	; 0000002bH
  00016	41		 inc	 ecx
$L25754:

; 1171 : 		if (_Flags & ios_base::showbase)

  00017	f6 c2 08	 test	 dl, 8
  0001a	74 04		 je	 SHORT $L25755

; 1172 : 			*_Ptr++ = '#';

  0001c	c6 01 23	 mov	 BYTE PTR [ecx], 35	; 00000023H
  0001f	41		 inc	 ecx
$L25755:
  00020	53		 push	 ebx
  00021	56		 push	 esi
  00022	57		 push	 edi

; 1173 : 		if (_Spec[0] != 'L')

  00023	8b 7c 24 18	 mov	 edi, DWORD PTR __Spec$[esp+8]
  00027	8a 1f		 mov	 bl, BYTE PTR [edi]
  00029	80 fb 4c	 cmp	 bl, 76			; 0000004cH
  0002c	74 04		 je	 SHORT $L25756

; 1174 : 			*_Ptr++ = _Spec[0];	// qualifier

  0002e	88 19		 mov	 BYTE PTR [ecx], bl

; 1175 : 		else

  00030	eb 0b		 jmp	 SHORT $L41457
$L25756:

; 1176 : 			{	/* change L to I64 */
; 1177 : 			*_Ptr++ = 'I';

  00032	c6 01 49	 mov	 BYTE PTR [ecx], 73	; 00000049H
  00035	41		 inc	 ecx

; 1178 : 			*_Ptr++ = '6';

  00036	c6 01 36	 mov	 BYTE PTR [ecx], 54	; 00000036H
  00039	41		 inc	 ecx

; 1179 : 			*_Ptr++ = '4';

  0003a	c6 01 34	 mov	 BYTE PTR [ecx], 52	; 00000034H
$L41457:

; 1180 : 			}
; 1181 : 
; 1182 : 		ios_base::fmtflags _Basefield = _Flags & ios_base::basefield;

  0003d	8b f2		 mov	 esi, edx
  0003f	81 e6 00 0e 00
	00		 and	 esi, 3584		; 00000e00H
  00045	41		 inc	 ecx

; 1183 : 		*_Ptr++ = _Basefield == ios_base::oct ? 'o'
; 1184 : 			: _Basefield != ios_base::hex ? _Spec[1]	// 'd' or 'u'
; 1185 : 			: _Flags & ios_base::uppercase ? 'X' : 'x';

  00046	81 fe 00 04 00
	00		 cmp	 esi, 1024		; 00000400H
  0004c	75 04		 jne	 SHORT $L41455
  0004e	b2 6f		 mov	 dl, 111			; 0000006fH
  00050	eb 18		 jmp	 SHORT $L41454
$L41455:
  00052	81 fe 00 08 00
	00		 cmp	 esi, 2048		; 00000800H
  00058	74 05		 je	 SHORT $L41453
  0005a	8a 57 01	 mov	 dl, BYTE PTR [edi+1]
  0005d	eb 0b		 jmp	 SHORT $L41454
$L41453:
  0005f	c0 e2 03	 shl	 dl, 3
  00062	f6 d2		 not	 dl
  00064	80 e2 20	 and	 dl, 32			; 00000020H
  00067	80 ca 58	 or	 dl, 88			; 00000058H
$L41454:
  0006a	5f		 pop	 edi
  0006b	5e		 pop	 esi
  0006c	88 11		 mov	 BYTE PTR [ecx], dl

; 1186 : 		*_Ptr = '\0';

  0006e	c6 41 01 00	 mov	 BYTE PTR [ecx+1], 0
  00072	5b		 pop	 ebx

; 1187 : 		return (_Fmt);
; 1188 : 		}

  00073	c3		 ret	 0
?_Ifmt@?$num_put@DV?$ostreambuf_iterator@DU?$char_traits@D@std@@@std@@@std@@ABAPADPADPBDH@Z ENDP ; std::num_put<char,std::ostreambuf_iterator<char,std::char_traits<char> > >::_Ifmt
; Function compile flags: /Ogsy
_TEXT	ENDS
;	COMDAT ?_Ffmt@?$num_put@DV?$ostreambuf_iterator@DU?$char_traits@D@std@@@std@@@std@@ABAPADPADDH@Z
_TEXT	SEGMENT
_this$ = 8						; size = 4
__Fmt$ = 12						; size = 4
__Spec$ = 16						; size = 1
__Flags$ = 20						; size = 4
?_Ffmt@?$num_put@DV?$ostreambuf_iterator@DU?$char_traits@D@std@@@std@@@std@@ABAPADPADDH@Z PROC NEAR ; std::num_put<char,std::ostreambuf_iterator<char,std::char_traits<char> > >::_Ffmt, COMDAT

; 1038 : 		char *_Ptr = _Fmt;
; 1039 : 		*_Ptr++ = '%';

  00000	8b 44 24 08	 mov	 eax, DWORD PTR __Fmt$[esp-4]

; 1040 : 
; 1041 : 		if (_Flags & ios_base::showpos)

  00004	8b 54 24 10	 mov	 edx, DWORD PTR __Flags$[esp-4]
  00008	f6 c2 20	 test	 dl, 32			; 00000020H
  0000b	c6 00 25	 mov	 BYTE PTR [eax], 37	; 00000025H
  0000e	8d 48 01	 lea	 ecx, DWORD PTR [eax+1]
  00011	74 04		 je	 SHORT $L25684

; 1042 : 			*_Ptr++ = '+';

  00013	c6 01 2b	 mov	 BYTE PTR [ecx], 43	; 0000002bH
  00016	41		 inc	 ecx
$L25684:

; 1043 : 		if (_Flags & ios_base::showpoint)

  00017	f6 c2 10	 test	 dl, 16			; 00000010H
  0001a	74 04		 je	 SHORT $L25685

; 1044 : 			*_Ptr++ = '#';

  0001c	c6 01 23	 mov	 BYTE PTR [ecx], 35	; 00000023H
  0001f	41		 inc	 ecx
$L25685:

; 1045 : 		*_Ptr++ = '.';

  00020	c6 01 2e	 mov	 BYTE PTR [ecx], 46	; 0000002eH
  00023	41		 inc	 ecx
  00024	53		 push	 ebx

; 1046 : 		*_Ptr++ = '*';	// for precision argument
; 1047 : 		if (_Spec != '\0')

  00025	8a 5c 24 10	 mov	 bl, BYTE PTR __Spec$[esp]
  00029	c6 01 2a	 mov	 BYTE PTR [ecx], 42	; 0000002aH
  0002c	41		 inc	 ecx
  0002d	84 db		 test	 bl, bl
  0002f	74 03		 je	 SHORT $L25686

; 1048 : 			*_Ptr++ = _Spec;	// 'L' qualifier for long double only

  00031	88 19		 mov	 BYTE PTR [ecx], bl
  00033	41		 inc	 ecx
$L25686:

; 1049 : 
; 1050 : 		ios_base::fmtflags _Ffl = _Flags & ios_base::floatfield;

  00034	81 e2 00 30 00
	00		 and	 edx, 12288		; 00003000H

; 1051 : 		*_Ptr++ = _Ffl == ios_base::fixed ? 'f'
; 1052 : 			: _Ffl == ios_base::scientific ? 'e' : 'g';	// specifier

  0003a	81 fa 00 20 00
	00		 cmp	 edx, 8192		; 00002000H
  00040	5b		 pop	 ebx
  00041	75 04		 jne	 SHORT $L41461
  00043	b2 66		 mov	 dl, 102			; 00000066H
  00045	eb 0d		 jmp	 SHORT $L41462
$L41461:
  00047	81 fa 00 10 00
	00		 cmp	 edx, 4096		; 00001000H
  0004d	0f 95 c2	 setne	 dl
  00050	8d 54 12 65	 lea	 edx, DWORD PTR [edx+edx+101]
$L41462:
  00054	88 11		 mov	 BYTE PTR [ecx], dl

; 1053 : 		*_Ptr = '\0';

  00056	c6 41 01 00	 mov	 BYTE PTR [ecx+1], 0

; 1054 : 		return (_Fmt);
; 1055 : 		}

  0005a	c3		 ret	 0
?_Ffmt@?$num_put@DV?$ostreambuf_iterator@DU?$char_traits@D@std@@@std@@@std@@ABAPADPADDH@Z ENDP ; std::num_put<char,std::ostreambuf_iterator<char,std::char_traits<char> > >::_Ffmt
; Function compile flags: /Ogsy
_TEXT	ENDS
;	COMDAT ?_Rep@?$num_put@GV?$ostreambuf_iterator@GU?$char_traits@G@std@@@std@@@std@@ABA?AV?$ostreambuf_iterator@GU?$char_traits@G@std@@@2@V32@GI@Z
_TEXT	SEGMENT
__Dest$ = 8						; size = 8
__Ch$ = 16						; size = 2
?_Rep@?$num_put@GV?$ostreambuf_iterator@GU?$char_traits@G@std@@@std@@@std@@ABA?AV?$ostreambuf_iterator@GU?$char_traits@G@std@@@2@V32@GI@Z PROC NEAR ; std::num_put<unsigned short,std::ostreambuf_iterator<unsigned short,std::char_traits<unsigned short> > >::_Rep, COMDAT
; ___$ReturnUdt$ = edi
; __Count$ = eax

; 1276 : 		{	// put _Count * _Ch to _Dest

  00000	56		 push	 esi
  00001	8b f0		 mov	 esi, eax

; 1277 : 		for (; 0 < _Count; --_Count, ++_Dest)

  00003	85 f6		 test	 esi, esi
  00005	76 10		 jbe	 SHORT $L25680
$L41467:

; 1278 : 			*_Dest = _Ch;

  00007	ff 74 24 10	 push	 DWORD PTR __Ch$[esp]
  0000b	8d 4c 24 0c	 lea	 ecx, DWORD PTR __Dest$[esp+4]
  0000f	e8 00 00 00 00	 call	 ??4?$ostreambuf_iterator@GU?$char_traits@G@std@@@std@@QAEAAV01@G@Z ; std::ostreambuf_iterator<unsigned short,std::char_traits<unsigned short> >::operator=
  00014	4e		 dec	 esi
  00015	75 f0		 jne	 SHORT $L41467
$L25680:

; 1279 : 		return (_Dest);

  00017	8b 44 24 08	 mov	 eax, DWORD PTR __Dest$[esp]
  0001b	89 07		 mov	 DWORD PTR [edi], eax
  0001d	8b 44 24 0c	 mov	 eax, DWORD PTR __Dest$[esp+4]
  00021	89 47 04	 mov	 DWORD PTR [edi+4], eax
  00024	8b c7		 mov	 eax, edi
  00026	5e		 pop	 esi

; 1280 : 		}

  00027	c3		 ret	 0
?_Rep@?$num_put@GV?$ostreambuf_iterator@GU?$char_traits@G@std@@@std@@@std@@ABA?AV?$ostreambuf_iterator@GU?$char_traits@G@std@@@2@V32@GI@Z ENDP ; std::num_put<unsigned short,std::ostreambuf_iterator<unsigned short,std::char_traits<unsigned short> > >::_Rep
; Function compile flags: /Ogsy
_TEXT	ENDS
;	COMDAT ?_Put@?$num_put@GV?$ostreambuf_iterator@GU?$char_traits@G@std@@@std@@@std@@ABA?AV?$ostreambuf_iterator@GU?$char_traits@G@std@@@2@V32@PBGI@Z
_TEXT	SEGMENT
__Dest$ = 8						; size = 8
?_Put@?$num_put@GV?$ostreambuf_iterator@GU?$char_traits@G@std@@@std@@@std@@ABA?AV?$ostreambuf_iterator@GU?$char_traits@G@std@@@2@V32@PBGI@Z PROC NEAR ; std::num_put<unsigned short,std::ostreambuf_iterator<unsigned short,std::char_traits<unsigned short> > >::_Put, COMDAT
; ___$ReturnUdt$ = ebx
; __Ptr$ = ecx
; __Count$ = eax

; 1242 : 		{	// put [_Ptr, _Ptr + _Count) to _Dest

  00000	56		 push	 esi
  00001	57		 push	 edi
  00002	8b f8		 mov	 edi, eax

; 1243 : 		for (; 0 < _Count; --_Count, ++_Dest, ++_Ptr)

  00004	85 ff		 test	 edi, edi
  00006	8b f1		 mov	 esi, ecx
  00008	76 14		 jbe	 SHORT $L25674
$L25672:

; 1244 : 			*_Dest = *_Ptr;

  0000a	33 c0		 xor	 eax, eax
  0000c	66 8b 06	 mov	 ax, WORD PTR [esi]
  0000f	8d 4c 24 0c	 lea	 ecx, DWORD PTR __Dest$[esp+4]
  00013	50		 push	 eax
  00014	e8 00 00 00 00	 call	 ??4?$ostreambuf_iterator@GU?$char_traits@G@std@@@std@@QAEAAV01@G@Z ; std::ostreambuf_iterator<unsigned short,std::char_traits<unsigned short> >::operator=
  00019	46		 inc	 esi
  0001a	46		 inc	 esi
  0001b	4f		 dec	 edi
  0001c	75 ec		 jne	 SHORT $L25672
$L25674:

; 1245 : 		return (_Dest);

  0001e	8b 44 24 0c	 mov	 eax, DWORD PTR __Dest$[esp+4]
  00022	89 03		 mov	 DWORD PTR [ebx], eax
  00024	8b 44 24 10	 mov	 eax, DWORD PTR __Dest$[esp+8]
  00028	5f		 pop	 edi
  00029	89 43 04	 mov	 DWORD PTR [ebx+4], eax
  0002c	8b c3		 mov	 eax, ebx
  0002e	5e		 pop	 esi

; 1246 : 		}

  0002f	c3		 ret	 0
?_Put@?$num_put@GV?$ostreambuf_iterator@GU?$char_traits@G@std@@@std@@@std@@ABA?AV?$ostreambuf_iterator@GU?$char_traits@G@std@@@2@V32@PBGI@Z ENDP ; std::num_put<unsigned short,std::ostreambuf_iterator<unsigned short,std::char_traits<unsigned short> > >::_Put
; Function compile flags: /Ogsy
_TEXT	ENDS
;	COMDAT ?_Ifmt@?$num_put@GV?$ostreambuf_iterator@GU?$char_traits@G@std@@@std@@@std@@ABAPADPADPBDH@Z
_TEXT	SEGMENT
_this$ = 8						; size = 4
__Fmt$ = 12						; size = 4
__Spec$ = 16						; size = 4
__Flags$ = 20						; size = 4
?_Ifmt@?$num_put@GV?$ostreambuf_iterator@GU?$char_traits@G@std@@@std@@@std@@ABAPADPADPBDH@Z PROC NEAR ; std::num_put<unsigned short,std::ostreambuf_iterator<unsigned short,std::char_traits<unsigned short> > >::_Ifmt, COMDAT

; 1166 : 		char *_Ptr = _Fmt;
; 1167 : 		*_Ptr++ = '%';

  00000	8b 44 24 08	 mov	 eax, DWORD PTR __Fmt$[esp-4]

; 1168 : 
; 1169 : 		if (_Flags & ios_base::showpos)

  00004	8b 54 24 10	 mov	 edx, DWORD PTR __Flags$[esp-4]
  00008	f6 c2 20	 test	 dl, 32			; 00000020H
  0000b	c6 00 25	 mov	 BYTE PTR [eax], 37	; 00000025H
  0000e	8d 48 01	 lea	 ecx, DWORD PTR [eax+1]
  00011	74 04		 je	 SHORT $L25636

; 1170 : 			*_Ptr++ = '+';

  00013	c6 01 2b	 mov	 BYTE PTR [ecx], 43	; 0000002bH
  00016	41		 inc	 ecx
$L25636:

; 1171 : 		if (_Flags & ios_base::showbase)

  00017	f6 c2 08	 test	 dl, 8
  0001a	74 04		 je	 SHORT $L25637

; 1172 : 			*_Ptr++ = '#';

  0001c	c6 01 23	 mov	 BYTE PTR [ecx], 35	; 00000023H
  0001f	41		 inc	 ecx
$L25637:
  00020	53		 push	 ebx
  00021	56		 push	 esi
  00022	57		 push	 edi

; 1173 : 		if (_Spec[0] != 'L')

  00023	8b 7c 24 18	 mov	 edi, DWORD PTR __Spec$[esp+8]
  00027	8a 1f		 mov	 bl, BYTE PTR [edi]
  00029	80 fb 4c	 cmp	 bl, 76			; 0000004cH
  0002c	74 04		 je	 SHORT $L25638

; 1174 : 			*_Ptr++ = _Spec[0];	// qualifier

  0002e	88 19		 mov	 BYTE PTR [ecx], bl

; 1175 : 		else

  00030	eb 0b		 jmp	 SHORT $L41492
$L25638:

; 1176 : 			{	/* change L to I64 */
; 1177 : 			*_Ptr++ = 'I';

  00032	c6 01 49	 mov	 BYTE PTR [ecx], 73	; 00000049H
  00035	41		 inc	 ecx

; 1178 : 			*_Ptr++ = '6';

  00036	c6 01 36	 mov	 BYTE PTR [ecx], 54	; 00000036H
  00039	41		 inc	 ecx

; 1179 : 			*_Ptr++ = '4';

  0003a	c6 01 34	 mov	 BYTE PTR [ecx], 52	; 00000034H
$L41492:

; 1180 : 			}
; 1181 : 
; 1182 : 		ios_base::fmtflags _Basefield = _Flags & ios_base::basefield;

  0003d	8b f2		 mov	 esi, edx
  0003f	81 e6 00 0e 00
	00		 and	 esi, 3584		; 00000e00H
  00045	41		 inc	 ecx

; 1183 : 		*_Ptr++ = _Basefield == ios_base::oct ? 'o'
; 1184 : 			: _Basefield != ios_base::hex ? _Spec[1]	// 'd' or 'u'
; 1185 : 			: _Flags & ios_base::uppercase ? 'X' : 'x';

  00046	81 fe 00 04 00
	00		 cmp	 esi, 1024		; 00000400H
  0004c	75 04		 jne	 SHORT $L41490
  0004e	b2 6f		 mov	 dl, 111			; 0000006fH
  00050	eb 18		 jmp	 SHORT $L41489
$L41490:
  00052	81 fe 00 08 00
	00		 cmp	 esi, 2048		; 00000800H
  00058	74 05		 je	 SHORT $L41488
  0005a	8a 57 01	 mov	 dl, BYTE PTR [edi+1]
  0005d	eb 0b		 jmp	 SHORT $L41489
$L41488:
  0005f	c0 e2 03	 shl	 dl, 3
  00062	f6 d2		 not	 dl
  00064	80 e2 20	 and	 dl, 32			; 00000020H
  00067	80 ca 58	 or	 dl, 88			; 00000058H
$L41489:
  0006a	5f		 pop	 edi
  0006b	5e		 pop	 esi
  0006c	88 11		 mov	 BYTE PTR [ecx], dl

; 1186 : 		*_Ptr = '\0';

  0006e	c6 41 01 00	 mov	 BYTE PTR [ecx+1], 0
  00072	5b		 pop	 ebx

; 1187 : 		return (_Fmt);
; 1188 : 		}

  00073	c3		 ret	 0
?_Ifmt@?$num_put@GV?$ostreambuf_iterator@GU?$char_traits@G@std@@@std@@@std@@ABAPADPADPBDH@Z ENDP ; std::num_put<unsigned short,std::ostreambuf_iterator<unsigned short,std::char_traits<unsigned short> > >::_Ifmt
; Function compile flags: /Ogsy
_TEXT	ENDS
;	COMDAT ?_Ffmt@?$num_put@GV?$ostreambuf_iterator@GU?$char_traits@G@std@@@std@@@std@@ABAPADPADDH@Z
_TEXT	SEGMENT
_this$ = 8						; size = 4
__Fmt$ = 12						; size = 4
__Spec$ = 16						; size = 1
__Flags$ = 20						; size = 4
?_Ffmt@?$num_put@GV?$ostreambuf_iterator@GU?$char_traits@G@std@@@std@@@std@@ABAPADPADDH@Z PROC NEAR ; std::num_put<unsigned short,std::ostreambuf_iterator<unsigned short,std::char_traits<unsigned short> > >::_Ffmt, COMDAT

; 1038 : 		char *_Ptr = _Fmt;
; 1039 : 		*_Ptr++ = '%';

  00000	8b 44 24 08	 mov	 eax, DWORD PTR __Fmt$[esp-4]

; 1040 : 
; 1041 : 		if (_Flags & ios_base::showpos)

  00004	8b 54 24 10	 mov	 edx, DWORD PTR __Flags$[esp-4]
  00008	f6 c2 20	 test	 dl, 32			; 00000020H
  0000b	c6 00 25	 mov	 BYTE PTR [eax], 37	; 00000025H
  0000e	8d 48 01	 lea	 ecx, DWORD PTR [eax+1]
  00011	74 04		 je	 SHORT $L25570

; 1042 : 			*_Ptr++ = '+';

  00013	c6 01 2b	 mov	 BYTE PTR [ecx], 43	; 0000002bH
  00016	41		 inc	 ecx
$L25570:

; 1043 : 		if (_Flags & ios_base::showpoint)

  00017	f6 c2 10	 test	 dl, 16			; 00000010H
  0001a	74 04		 je	 SHORT $L25571

; 1044 : 			*_Ptr++ = '#';

  0001c	c6 01 23	 mov	 BYTE PTR [ecx], 35	; 00000023H
  0001f	41		 inc	 ecx
$L25571:

; 1045 : 		*_Ptr++ = '.';

  00020	c6 01 2e	 mov	 BYTE PTR [ecx], 46	; 0000002eH
  00023	41		 inc	 ecx
  00024	53		 push	 ebx

; 1046 : 		*_Ptr++ = '*';	// for precision argument
; 1047 : 		if (_Spec != '\0')

  00025	8a 5c 24 10	 mov	 bl, BYTE PTR __Spec$[esp]
  00029	c6 01 2a	 mov	 BYTE PTR [ecx], 42	; 0000002aH
  0002c	41		 inc	 ecx
  0002d	84 db		 test	 bl, bl
  0002f	74 03		 je	 SHORT $L25572

; 1048 : 			*_Ptr++ = _Spec;	// 'L' qualifier for long double only

  00031	88 19		 mov	 BYTE PTR [ecx], bl
  00033	41		 inc	 ecx
$L25572:

; 1049 : 
; 1050 : 		ios_base::fmtflags _Ffl = _Flags & ios_base::floatfield;

  00034	81 e2 00 30 00
	00		 and	 edx, 12288		; 00003000H

; 1051 : 		*_Ptr++ = _Ffl == ios_base::fixed ? 'f'
; 1052 : 			: _Ffl == ios_base::scientific ? 'e' : 'g';	// specifier

  0003a	81 fa 00 20 00
	00		 cmp	 edx, 8192		; 00002000H
  00040	5b		 pop	 ebx
  00041	75 04		 jne	 SHORT $L41496
  00043	b2 66		 mov	 dl, 102			; 00000066H
  00045	eb 0d		 jmp	 SHORT $L41497
$L41496:
  00047	81 fa 00 10 00
	00		 cmp	 edx, 4096		; 00001000H
  0004d	0f 95 c2	 setne	 dl
  00050	8d 54 12 65	 lea	 edx, DWORD PTR [edx+edx+101]
$L41497:
  00054	88 11		 mov	 BYTE PTR [ecx], dl

; 1053 : 		*_Ptr = '\0';

  00056	c6 41 01 00	 mov	 BYTE PTR [ecx+1], 0

; 1054 : 		return (_Fmt);
; 1055 : 		}

  0005a	c3		 ret	 0
?_Ffmt@?$num_put@GV?$ostreambuf_iterator@GU?$char_traits@G@std@@@std@@@std@@ABAPADPADDH@Z ENDP ; std::num_put<unsigned short,std::ostreambuf_iterator<unsigned short,std::char_traits<unsigned short> > >::_Ffmt
; Function compile flags: /Ogsy
; File c:\program files (x86)\microsoft visual studio .net 2003\vc7\include\xutility
_TEXT	ENDS
;	COMDAT ?failed@?$ostreambuf_iterator@DU?$char_traits@D@std@@@std@@QBE_NXZ
_TEXT	SEGMENT
?failed@?$ostreambuf_iterator@DU?$char_traits@D@std@@@std@@QBE_NXZ PROC NEAR ; std::ostreambuf_iterator<char,std::char_traits<char> >::failed, COMDAT
; _this$ = eax

; 1005 : 		return (_Failed);

  00000	8a 00		 mov	 al, BYTE PTR [eax]

; 1006 : 		}

  00002	c3		 ret	 0
?failed@?$ostreambuf_iterator@DU?$char_traits@D@std@@@std@@QBE_NXZ ENDP ; std::ostreambuf_iterator<char,std::char_traits<char> >::failed
; Function compile flags: /Ogsy
_TEXT	ENDS
;	COMDAT ??0?$ostreambuf_iterator@DU?$char_traits@D@std@@@std@@QAE@PAV?$basic_streambuf@DU?$char_traits@D@std@@@1@@Z
_TEXT	SEGMENT
??0?$ostreambuf_iterator@DU?$char_traits@D@std@@@std@@QAE@PAV?$basic_streambuf@DU?$char_traits@D@std@@@1@@Z PROC NEAR ; std::ostreambuf_iterator<char,std::char_traits<char> >::ostreambuf_iterator<char,std::char_traits<char> >, COMDAT
; _this$ = eax
; __Sb$ = ecx

; 971  : 		{	// construct from stream buffer _Sb

  00000	c6 00 00	 mov	 BYTE PTR [eax], 0
  00003	89 48 04	 mov	 DWORD PTR [eax+4], ecx

; 972  : 		}

  00006	c3		 ret	 0
??0?$ostreambuf_iterator@DU?$char_traits@D@std@@@std@@QAE@PAV?$basic_streambuf@DU?$char_traits@D@std@@@1@@Z ENDP ; std::ostreambuf_iterator<char,std::char_traits<char> >::ostreambuf_iterator<char,std::char_traits<char> >
; Function compile flags: /Ogsy
; File c:\program files (x86)\microsoft visual studio .net 2003\vc7\include\xlocnum
_TEXT	ENDS
;	COMDAT ?put@?$num_put@DV?$ostreambuf_iterator@DU?$char_traits@D@std@@@std@@@std@@QBE?AV?$ostreambuf_iterator@DU?$char_traits@D@std@@@2@V32@AAVios_base@2@DK@Z
_TEXT	SEGMENT
___$ReturnUdt$ = 8					; size = 4
__Dest$ = 12						; size = 8
__Iosbase$ = 20						; size = 4
__Fill$ = 24						; size = 1
__Val$ = 28						; size = 4
?put@?$num_put@DV?$ostreambuf_iterator@DU?$char_traits@D@std@@@std@@@std@@QBE?AV?$ostreambuf_iterator@DU?$char_traits@D@std@@@2@V32@AAVios_base@2@DK@Z PROC NEAR ; std::num_put<char,std::ostreambuf_iterator<char,std::char_traits<char> > >::put, COMDAT
; _this$ = ecx

; 842  : 		{	// put formatted unsigned long to _Dest

  00000	55		 push	 ebp
  00001	8b ec		 mov	 ebp, esp

; 843  : 		return (do_put(_Dest, _Iosbase, _Fill, _Val));

  00003	ff 75 1c	 push	 DWORD PTR __Val$[ebp]
  00006	8b 01		 mov	 eax, DWORD PTR [ecx]
  00008	ff 75 18	 push	 DWORD PTR __Fill$[ebp]
  0000b	ff 75 14	 push	 DWORD PTR __Iosbase$[ebp]
  0000e	ff 75 10	 push	 DWORD PTR __Dest$[ebp+4]
  00011	ff 75 0c	 push	 DWORD PTR __Dest$[ebp]
  00014	ff 75 08	 push	 DWORD PTR ___$ReturnUdt$[ebp]
  00017	ff 50 18	 call	 DWORD PTR [eax+24]
  0001a	8b 45 08	 mov	 eax, DWORD PTR ___$ReturnUdt$[ebp]

; 844  : 		}

  0001d	5d		 pop	 ebp
  0001e	c2 18 00	 ret	 24			; 00000018H
?put@?$num_put@DV?$ostreambuf_iterator@DU?$char_traits@D@std@@@std@@@std@@QBE?AV?$ostreambuf_iterator@DU?$char_traits@D@std@@@2@V32@AAVios_base@2@DK@Z ENDP ; std::num_put<char,std::ostreambuf_iterator<char,std::char_traits<char> > >::put
; Function compile flags: /Ogsy
_TEXT	ENDS
;	COMDAT ??1?$num_put@DV?$ostreambuf_iterator@DU?$char_traits@D@std@@@std@@@std@@MAE@XZ
_TEXT	SEGMENT
??1?$num_put@DV?$ostreambuf_iterator@DU?$char_traits@D@std@@@std@@@std@@MAE@XZ PROC NEAR ; std::num_put<char,std::ostreambuf_iterator<char,std::char_traits<char> > >::~num_put<char,std::ostreambuf_iterator<char,std::char_traits<char> > >, COMDAT
; _this$ = ecx

; 802  : 		}

  00000	c7 01 00 00 00
	00		 mov	 DWORD PTR [ecx], OFFSET FLAT:??_7facet@locale@std@@6B@
  00006	c3		 ret	 0
??1?$num_put@DV?$ostreambuf_iterator@DU?$char_traits@D@std@@@std@@@std@@MAE@XZ ENDP ; std::num_put<char,std::ostreambuf_iterator<char,std::char_traits<char> > >::~num_put<char,std::ostreambuf_iterator<char,std::char_traits<char> > >
; Function compile flags: /Ogsy
; File c:\program files (x86)\microsoft visual studio .net 2003\vc7\include\xutility
_TEXT	ENDS
;	COMDAT ?failed@?$ostreambuf_iterator@GU?$char_traits@G@std@@@std@@QBE_NXZ
_TEXT	SEGMENT
?failed@?$ostreambuf_iterator@GU?$char_traits@G@std@@@std@@QBE_NXZ PROC NEAR ; std::ostreambuf_iterator<unsigned short,std::char_traits<unsigned short> >::failed, COMDAT
; _this$ = eax

; 1005 : 		return (_Failed);

  00000	8a 00		 mov	 al, BYTE PTR [eax]

; 1006 : 		}

  00002	c3		 ret	 0
?failed@?$ostreambuf_iterator@GU?$char_traits@G@std@@@std@@QBE_NXZ ENDP ; std::ostreambuf_iterator<unsigned short,std::char_traits<unsigned short> >::failed
; Function compile flags: /Ogsy
_TEXT	ENDS
;	COMDAT ??0?$ostreambuf_iterator@GU?$char_traits@G@std@@@std@@QAE@PAV?$basic_streambuf@GU?$char_traits@G@std@@@1@@Z
_TEXT	SEGMENT
??0?$ostreambuf_iterator@GU?$char_traits@G@std@@@std@@QAE@PAV?$basic_streambuf@GU?$char_traits@G@std@@@1@@Z PROC NEAR ; std::ostreambuf_iterator<unsigned short,std::char_traits<unsigned short> >::ostreambuf_iterator<unsigned short,std::char_traits<unsigned short> >, COMDAT
; _this$ = eax
; __Sb$ = ecx

; 971  : 		{	// construct from stream buffer _Sb

  00000	c6 00 00	 mov	 BYTE PTR [eax], 0
  00003	89 48 04	 mov	 DWORD PTR [eax+4], ecx

; 972  : 		}

  00006	c3		 ret	 0
??0?$ostreambuf_iterator@GU?$char_traits@G@std@@@std@@QAE@PAV?$basic_streambuf@GU?$char_traits@G@std@@@1@@Z ENDP ; std::ostreambuf_iterator<unsigned short,std::char_traits<unsigned short> >::ostreambuf_iterator<unsigned short,std::char_traits<unsigned short> >
; Function compile flags: /Ogsy
; File c:\program files (x86)\microsoft visual studio .net 2003\vc7\include\xlocnum
_TEXT	ENDS
;	COMDAT ?put@?$num_put@GV?$ostreambuf_iterator@GU?$char_traits@G@std@@@std@@@std@@QBE?AV?$ostreambuf_iterator@GU?$char_traits@G@std@@@2@V32@AAVios_base@2@GJ@Z
_TEXT	SEGMENT
___$ReturnUdt$ = 8					; size = 4
__Dest$ = 12						; size = 8
__Iosbase$ = 20						; size = 4
__Fill$ = 24						; size = 2
__Val$ = 28						; size = 4
?put@?$num_put@GV?$ostreambuf_iterator@GU?$char_traits@G@std@@@std@@@std@@QBE?AV?$ostreambuf_iterator@GU?$char_traits@G@std@@@2@V32@AAVios_base@2@GJ@Z PROC NEAR ; std::num_put<unsigned short,std::ostreambuf_iterator<unsigned short,std::char_traits<unsigned short> > >::put, COMDAT
; _this$ = ecx

; 836  : 		{	// put formatted long to _Dest

  00000	55		 push	 ebp
  00001	8b ec		 mov	 ebp, esp

; 837  : 		return (do_put(_Dest, _Iosbase, _Fill, _Val));

  00003	ff 75 1c	 push	 DWORD PTR __Val$[ebp]
  00006	8b 01		 mov	 eax, DWORD PTR [ecx]
  00008	ff 75 18	 push	 DWORD PTR __Fill$[ebp]
  0000b	ff 75 14	 push	 DWORD PTR __Iosbase$[ebp]
  0000e	ff 75 10	 push	 DWORD PTR __Dest$[ebp+4]
  00011	ff 75 0c	 push	 DWORD PTR __Dest$[ebp]
  00014	ff 75 08	 push	 DWORD PTR ___$ReturnUdt$[ebp]
  00017	ff 50 1c	 call	 DWORD PTR [eax+28]
  0001a	8b 45 08	 mov	 eax, DWORD PTR ___$ReturnUdt$[ebp]

; 838  : 		}

  0001d	5d		 pop	 ebp
  0001e	c2 18 00	 ret	 24			; 00000018H
?put@?$num_put@GV?$ostreambuf_iterator@GU?$char_traits@G@std@@@std@@@std@@QBE?AV?$ostreambuf_iterator@GU?$char_traits@G@std@@@2@V32@AAVios_base@2@GJ@Z ENDP ; std::num_put<unsigned short,std::ostreambuf_iterator<unsigned short,std::char_traits<unsigned short> > >::put
; Function compile flags: /Ogsy
_TEXT	ENDS
;	COMDAT ??1?$num_put@GV?$ostreambuf_iterator@GU?$char_traits@G@std@@@std@@@std@@MAE@XZ
_TEXT	SEGMENT
??1?$num_put@GV?$ostreambuf_iterator@GU?$char_traits@G@std@@@std@@@std@@MAE@XZ PROC NEAR ; std::num_put<unsigned short,std::ostreambuf_iterator<unsigned short,std::char_traits<unsigned short> > >::~num_put<unsigned short,std::ostreambuf_iterator<unsigned short,std::char_traits<unsigned short> > >, COMDAT
; _this$ = ecx

; 802  : 		}

  00000	c7 01 00 00 00
	00		 mov	 DWORD PTR [ecx], OFFSET FLAT:??_7facet@locale@std@@6B@
  00006	c3		 ret	 0
??1?$num_put@GV?$ostreambuf_iterator@GU?$char_traits@G@std@@@std@@@std@@MAE@XZ ENDP ; std::num_put<unsigned short,std::ostreambuf_iterator<unsigned short,std::char_traits<unsigned short> > >::~num_put<unsigned short,std::ostreambuf_iterator<unsigned short,std::char_traits<unsigned short> > >
; Function compile flags: /Ogsy
; File c:\program files (x86)\microsoft visual studio .net 2003\vc7\include\ios
_TEXT	ENDS
;	COMDAT ?fill@?$basic_ios@DU?$char_traits@D@std@@@std@@QBEDXZ
_TEXT	SEGMENT
?fill@?$basic_ios@DU?$char_traits@D@std@@@std@@QBEDXZ PROC NEAR ; std::basic_ios<char,std::char_traits<char> >::fill, COMDAT
; _this$ = eax

; 102  : 		return (_Fillch);

  00000	8a 40 30	 mov	 al, BYTE PTR [eax+48]

; 103  : 		}

  00003	c3		 ret	 0
?fill@?$basic_ios@DU?$char_traits@D@std@@@std@@QBEDXZ ENDP ; std::basic_ios<char,std::char_traits<char> >::fill
; Function compile flags: /Ogsy
; File c:\program files (x86)\microsoft visual studio .net 2003\vc7\include\ostream
_TEXT	ENDS
;	COMDAT ??6?$basic_ostream@DU?$char_traits@D@std@@@std@@QAEAAV01@P6AAAV01@AAV01@@Z@Z
_TEXT	SEGMENT
_this$ = 8						; size = 4
__Pfn$ = 12						; size = 4
??6?$basic_ostream@DU?$char_traits@D@std@@@std@@QAEAAV01@P6AAAV01@AAV01@@Z@Z PROC NEAR ; std::basic_ostream<char,std::char_traits<char> >::operator<<, COMDAT

; 139  : 		return ((*_Pfn)(*this));

  00000	ff 74 24 04	 push	 DWORD PTR _this$[esp-4]
  00004	ff 54 24 0c	 call	 DWORD PTR __Pfn$[esp]
  00008	59		 pop	 ecx

; 140  : 		}

  00009	c2 08 00	 ret	 8
??6?$basic_ostream@DU?$char_traits@D@std@@@std@@QAEAAV01@P6AAAV01@AAV01@@Z@Z ENDP ; std::basic_ostream<char,std::char_traits<char> >::operator<<
; Function compile flags: /Ogsy
_TEXT	ENDS
;	COMDAT ??6?$basic_ostream@GU?$char_traits@G@std@@@std@@QAEAAV01@P6AAAV01@AAV01@@Z@Z
_TEXT	SEGMENT
_this$ = 8						; size = 4
__Pfn$ = 12						; size = 4
??6?$basic_ostream@GU?$char_traits@G@std@@@std@@QAEAAV01@P6AAAV01@AAV01@@Z@Z PROC NEAR ; std::basic_ostream<unsigned short,std::char_traits<unsigned short> >::operator<<, COMDAT

; 139  : 		return ((*_Pfn)(*this));

  00000	ff 74 24 04	 push	 DWORD PTR _this$[esp-4]
  00004	ff 54 24 0c	 call	 DWORD PTR __Pfn$[esp]
  00008	59		 pop	 ecx

; 140  : 		}

  00009	c2 08 00	 ret	 8
??6?$basic_ostream@GU?$char_traits@G@std@@@std@@QAEAAV01@P6AAAV01@AAV01@@Z@Z ENDP ; std::basic_ostream<unsigned short,std::char_traits<unsigned short> >::operator<<
_TEXT	ENDS
PUBLIC	?nsc_exit@@YAXH@Z				; nsc_exit
; Function compile flags: /Ogsy
; File f:\nes\nsdl\src\nsc\nsc.cpp
_TEXT	SEGMENT
$T41540 = -4						; size = 4
?nsc_exit@@YAXH@Z PROC NEAR				; nsc_exit
; _no$ = eax

; 55   : {

  00000	55		 push	 ebp
  00001	8b ec		 mov	 ebp, esp
  00003	51		 push	 ecx

; 56   : 	throw no;

