; Listing generated by Microsoft (R) Optimizing Compiler Version 13.10.3077 

	TITLE	.\nsc.cpp
	.386P
include listing.inc
if @Version gt 510
.model FLAT
else
;	COMDAT ??_C@_00CNPNBAHC@?$AA@
CONST	SEGMENT DWORD USE32 PUBLIC 'CONST'
CONST	ENDS
;	COMDAT ??_C@_1NK@KENGHJLD@?$AAM?$AAM?$AAL?$AA?5?$AAC?$AAo?$AAm?$AAp?$AAi?$AAl?$AAe?$AAr?$AA?5?$AAf?$AAo?$AAr?$AA?5?$AAN?$AAE?$AAS@
CONST	SEGMENT DWORD USE32 PUBLIC 'CONST'
CONST	ENDS
;	COMDAT ??_C@_1HK@PLEACAAO@?$AA?9?$AA?9?$AA?9?$AA?9?$AA?9?$AA?9?$AA?9?$AA?9?$AA?9?$AA?9?$AA?9?$AA?9?$AA?9?$AA?9?$AA?9?$AA?9?$AA?9?$AA?9?$AA?9?$AA?9@
CONST	SEGMENT DWORD USE32 PUBLIC 'CONST'
CONST	ENDS
;	COMDAT ??_C@_1DC@NFNOFJGE@?$AA?$CK?$AAO?$AAb?$AAj?$AAe?$AAc?$AAt?$AA?5?$AAc?$AAr?$AAe?$AAa?$AAt?$AAi?$AAn?$AAg?$AA?5?$AAp?$AAr?$AAo@
CONST	SEGMENT DWORD USE32 PUBLIC 'CONST'
CONST	ENDS
;	COMDAT ??_C@_1CI@BGPJBPBK@?$AA?$DN?$AA?$DN?$AA?$DN?$AA?$DN?$AA?5?$AA?$FL?$AA?5?$AAM?$AAu?$AAs?$AAi?$AAc?$AA?5?$AA?$FN?$AA?5?$AA?$DN?$AA?$DN?$AA?$DN?$AA?$DN?$AA?$AA@
CONST	SEGMENT DWORD USE32 PUBLIC 'CONST'
CONST	ENDS
;	COMDAT ??_C@_1EE@BGEBAFOM@?$AA?$CK?$AAO?$AAp?$AAt?$AAi?$AAm?$AAi?$AAz?$AAe?$AA?5?$AA?$CG?$AA?5?$AAT?$AAi?$AAc?$AAk?$AA?5?$AAc?$AAo?$AAu@
CONST	SEGMENT DWORD USE32 PUBLIC 'CONST'
CONST	ENDS
;	COMDAT ??_C@_1DI@JGLJCCJP@?$AA?$CK?$AAA?$AAd?$AAd?$AAr?$AAe?$AAs?$AAs?$AA?5?$AAs?$AAe?$AAt?$AAt?$AAl?$AAe?$AAm?$AAe?$AAn?$AAt?$AA?5@
CONST	SEGMENT DWORD USE32 PUBLIC 'CONST'
CONST	ENDS
;	COMDAT ??_C@_07FBHPMLEN@?5?$FLByte?$FN?$AA@
CONST	SEGMENT DWORD USE32 PUBLIC 'CONST'
CONST	ENDS
;	COMDAT ??_C@_0BA@DKKDKJML@?5?5Music?5Size?5?$DN?5?$AA@
CONST	SEGMENT DWORD USE32 PUBLIC 'CONST'
CONST	ENDS
;	COMDAT ??_C@_0BA@IEMDIJBO@?5?5DPCM?5Size?5?5?$DN?5?$AA@
CONST	SEGMENT DWORD USE32 PUBLIC 'CONST'
CONST	ENDS
;	COMDAT ??_C@_1BA@BJOMPAID@?$AAE?$AAr?$AAr?$AAo?$AAr?$AA?$CB?$AA?3?$AA?$AA@
CONST	SEGMENT DWORD USE32 PUBLIC 'CONST'
CONST	ENDS
;	COMDAT ??_C@_02EAOCLKAK@ld?$AA@
CONST	SEGMENT DWORD USE32 PUBLIC 'CONST'
CONST	ENDS
;	COMDAT ??_C@_02BDDLJJBK@lu?$AA@
CONST	SEGMENT DWORD USE32 PUBLIC 'CONST'
CONST	ENDS
;	COMDAT ??_C@_02HIKPPMOK@Ld?$AA@
CONST	SEGMENT DWORD USE32 PUBLIC 'CONST'
CONST	ENDS
;	COMDAT ??_C@_02CLHGNPPK@Lu?$AA@
CONST	SEGMENT DWORD USE32 PUBLIC 'CONST'
CONST	ENDS
;	COMDAT ??_C@_02BBAHNLBA@?$CFp?$AA@
CONST	SEGMENT DWORD USE32 PUBLIC 'CONST'
CONST	ENDS
;	COMDAT ??_C@_01DDCIFGEA@E?$AA@
CONST	SEGMENT DWORD USE32 PUBLIC 'CONST'
CONST	ENDS
;	COMDAT ??_C@_01KGKMHCOC@e?$AA@
CONST	SEGMENT DWORD USE32 PUBLIC 'CONST'
CONST	ENDS
text$yc	SEGMENT PARA USE32 PUBLIC 'CODE'
text$yc	ENDS
CRT$XCA	SEGMENT DWORD USE32 PUBLIC 'DATA'
CRT$XCA	ENDS
CRT$XCU	SEGMENT DWORD USE32 PUBLIC 'DATA'
CRT$XCU	ENDS
CRT$XCL	SEGMENT DWORD USE32 PUBLIC 'DATA'
CRT$XCL	ENDS
CRT$XCC	SEGMENT DWORD USE32 PUBLIC 'DATA'
CRT$XCC	ENDS
CRT$XCZ	SEGMENT DWORD USE32 PUBLIC 'DATA'
CRT$XCZ	ENDS
xdata$x	SEGMENT DWORD USE32 PUBLIC 'CONST'
xdata$x	ENDS
;	COMDAT ??_GMMLfile@@QAEPAXI@Z
_TEXT	SEGMENT PARA USE32 PUBLIC 'CODE'
_TEXT	ENDS
;	COMDAT ??_GOPSW@@QAEPAXI@Z
_TEXT	SEGMENT PARA USE32 PUBLIC 'CODE'
_TEXT	ENDS
;	COMDAT ??6?$basic_ostream@GU?$char_traits@G@std@@@std@@QAEAAV01@P6AAAV01@AAV01@@Z@Z
_TEXT	SEGMENT PARA USE32 PUBLIC 'CODE'
_TEXT	ENDS
;	COMDAT ??6?$basic_ostream@GU?$char_traits@G@std@@@std@@QAEAAV01@H@Z
_TEXT	SEGMENT PARA USE32 PUBLIC 'CODE'
_TEXT	ENDS
;	COMDAT ??6?$basic_ostream@DU?$char_traits@D@std@@@std@@QAEAAV01@P6AAAV01@AAV01@@Z@Z
_TEXT	SEGMENT PARA USE32 PUBLIC 'CODE'
_TEXT	ENDS
;	COMDAT ??6?$basic_ostream@DU?$char_traits@D@std@@@std@@QAEAAV01@I@Z
_TEXT	SEGMENT PARA USE32 PUBLIC 'CODE'
_TEXT	ENDS
;	COMDAT ?fill@?$basic_ios@DU?$char_traits@D@std@@@std@@QBEDXZ
_TEXT	SEGMENT PARA USE32 PUBLIC 'CODE'
_TEXT	ENDS
;	COMDAT ??1?$num_put@GV?$ostreambuf_iterator@GU?$char_traits@G@std@@@std@@@std@@MAE@XZ
_TEXT	SEGMENT PARA USE32 PUBLIC 'CODE'
_TEXT	ENDS
;	COMDAT ?put@?$num_put@GV?$ostreambuf_iterator@GU?$char_traits@G@std@@@std@@@std@@QBE?AV?$ostreambuf_iterator@GU?$char_traits@G@std@@@2@V32@AAVios_base@2@GJ@Z
_TEXT	SEGMENT PARA USE32 PUBLIC 'CODE'
_TEXT	ENDS
;	COMDAT ?do_put@?$num_put@GV?$ostreambuf_iterator@GU?$char_traits@G@std@@@std@@@std@@MBE?AV?$ostreambuf_iterator@GU?$char_traits@G@std@@@2@V32@AAVios_base@2@G_N@Z
_TEXT	SEGMENT PARA USE32 PUBLIC 'CODE'
_TEXT	ENDS
;	COMDAT ?do_put@?$num_put@GV?$ostreambuf_iterator@GU?$char_traits@G@std@@@std@@@std@@MBE?AV?$ostreambuf_iterator@GU?$char_traits@G@std@@@2@V32@AAVios_base@2@GJ@Z
_TEXT	SEGMENT PARA USE32 PUBLIC 'CODE'
_TEXT	ENDS
;	COMDAT ?do_put@?$num_put@GV?$ostreambuf_iterator@GU?$char_traits@G@std@@@std@@@std@@MBE?AV?$ostreambuf_iterator@GU?$char_traits@G@std@@@2@V32@AAVios_base@2@GK@Z
_TEXT	SEGMENT PARA USE32 PUBLIC 'CODE'
_TEXT	ENDS
;	COMDAT ?do_put@?$num_put@GV?$ostreambuf_iterator@GU?$char_traits@G@std@@@std@@@std@@MBE?AV?$ostreambuf_iterator@GU?$char_traits@G@std@@@2@V32@AAVios_base@2@G_J@Z
_TEXT	SEGMENT PARA USE32 PUBLIC 'CODE'
_TEXT	ENDS
;	COMDAT ?do_put@?$num_put@GV?$ostreambuf_iterator@GU?$char_traits@G@std@@@std@@@std@@MBE?AV?$ostreambuf_iterator@GU?$char_traits@G@std@@@2@V32@AAVios_base@2@G_K@Z
_TEXT	SEGMENT PARA USE32 PUBLIC 'CODE'
_TEXT	ENDS
;	COMDAT ?do_put@?$num_put@GV?$ostreambuf_iterator@GU?$char_traits@G@std@@@std@@@std@@MBE?AV?$ostreambuf_iterator@GU?$char_traits@G@std@@@2@V32@AAVios_base@2@GN@Z
_TEXT	SEGMENT PARA USE32 PUBLIC 'CODE'
_TEXT	ENDS
;	COMDAT ?do_put@?$num_put@GV?$ostreambuf_iterator@GU?$char_traits@G@std@@@std@@@std@@MBE?AV?$ostreambuf_iterator@GU?$char_traits@G@std@@@2@V32@AAVios_base@2@GO@Z
_TEXT	SEGMENT PARA USE32 PUBLIC 'CODE'
_TEXT	ENDS
;	COMDAT ?do_put@?$num_put@GV?$ostreambuf_iterator@GU?$char_traits@G@std@@@std@@@std@@MBE?AV?$ostreambuf_iterator@GU?$char_traits@G@std@@@2@V32@AAVios_base@2@GPBX@Z
_TEXT	SEGMENT PARA USE32 PUBLIC 'CODE'
_TEXT	ENDS
;	COMDAT ??0?$ostreambuf_iterator@GU?$char_traits@G@std@@@std@@QAE@PAV?$basic_streambuf@GU?$char_traits@G@std@@@1@@Z
_TEXT	SEGMENT PARA USE32 PUBLIC 'CODE'
_TEXT	ENDS
;	COMDAT ?failed@?$ostreambuf_iterator@GU?$char_traits@G@std@@@std@@QBE_NXZ
_TEXT	SEGMENT PARA USE32 PUBLIC 'CODE'
_TEXT	ENDS
;	COMDAT ??1?$num_put@DV?$ostreambuf_iterator@DU?$char_traits@D@std@@@std@@@std@@MAE@XZ
_TEXT	SEGMENT PARA USE32 PUBLIC 'CODE'
_TEXT	ENDS
;	COMDAT ?put@?$num_put@DV?$ostreambuf_iterator@DU?$char_traits@D@std@@@std@@@std@@QBE?AV?$ostreambuf_iterator@DU?$char_traits@D@std@@@2@V32@AAVios_base@2@DK@Z
_TEXT	SEGMENT PARA USE32 PUBLIC 'CODE'
_TEXT	ENDS
;	COMDAT ?do_put@?$num_put@DV?$ostreambuf_iterator@DU?$char_traits@D@std@@@std@@@std@@MBE?AV?$ostreambuf_iterator@DU?$char_traits@D@std@@@2@V32@AAVios_base@2@D_N@Z
_TEXT	SEGMENT PARA USE32 PUBLIC 'CODE'
_TEXT	ENDS
;	COMDAT ?do_put@?$num_put@DV?$ostreambuf_iterator@DU?$char_traits@D@std@@@std@@@std@@MBE?AV?$ostreambuf_iterator@DU?$char_traits@D@std@@@2@V32@AAVios_base@2@DJ@Z
_TEXT	SEGMENT PARA USE32 PUBLIC 'CODE'
_TEXT	ENDS
;	COMDAT ?do_put@?$num_put@DV?$ostreambuf_iterator@DU?$char_traits@D@std@@@std@@@std@@MBE?AV?$ostreambuf_iterator@DU?$char_traits@D@std@@@2@V32@AAVios_base@2@DK@Z
_TEXT	SEGMENT PARA USE32 PUBLIC 'CODE'
_TEXT	ENDS
;	COMDAT ?do_put@?$num_put@DV?$ostreambuf_iterator@DU?$char_traits@D@std@@@std@@@std@@MBE?AV?$ostreambuf_iterator@DU?$char_traits@D@std@@@2@V32@AAVios_base@2@D_J@Z
_TEXT	SEGMENT PARA USE32 PUBLIC 'CODE'
_TEXT	ENDS
;	COMDAT ?do_put@?$num_put@DV?$ostreambuf_iterator@DU?$char_traits@D@std@@@std@@@std@@MBE?AV?$ostreambuf_iterator@DU?$char_traits@D@std@@@2@V32@AAVios_base@2@D_K@Z
_TEXT	SEGMENT PARA USE32 PUBLIC 'CODE'
_TEXT	ENDS
;	COMDAT ?do_put@?$num_put@DV?$ostreambuf_iterator@DU?$char_traits@D@std@@@std@@@std@@MBE?AV?$ostreambuf_iterator@DU?$char_traits@D@std@@@2@V32@AAVios_base@2@DN@Z
_TEXT	SEGMENT PARA USE32 PUBLIC 'CODE'
_TEXT	ENDS
;	COMDAT ?do_put@?$num_put@DV?$ostreambuf_iterator@DU?$char_traits@D@std@@@std@@@std@@MBE?AV?$ostreambuf_iterator@DU?$char_traits@D@std@@@2@V32@AAVios_base@2@DO@Z
_TEXT	SEGMENT PARA USE32 PUBLIC 'CODE'
_TEXT	ENDS
;	COMDAT ?do_put@?$num_put@DV?$ostreambuf_iterator@DU?$char_traits@D@std@@@std@@@std@@MBE?AV?$ostreambuf_iterator@DU?$char_traits@D@std@@@2@V32@AAVios_base@2@DPBX@Z
_TEXT	SEGMENT PARA USE32 PUBLIC 'CODE'
_TEXT	ENDS
;	COMDAT ??0?$ostreambuf_iterator@DU?$char_traits@D@std@@@std@@QAE@PAV?$basic_streambuf@DU?$char_traits@D@std@@@1@@Z
_TEXT	SEGMENT PARA USE32 PUBLIC 'CODE'
_TEXT	ENDS
;	COMDAT ?failed@?$ostreambuf_iterator@DU?$char_traits@D@std@@@std@@QBE_NXZ
_TEXT	SEGMENT PARA USE32 PUBLIC 'CODE'
_TEXT	ENDS
;	COMDAT ??_G?$num_put@GV?$ostreambuf_iterator@GU?$char_traits@G@std@@@std@@@std@@MAEPAXI@Z
_TEXT	SEGMENT PARA USE32 PUBLIC 'CODE'
_TEXT	ENDS
;	COMDAT ??_G?$num_put@DV?$ostreambuf_iterator@DU?$char_traits@D@std@@@std@@@std@@MAEPAXI@Z
_TEXT	SEGMENT PARA USE32 PUBLIC 'CODE'
_TEXT	ENDS
;	COMDAT ?assign@?$basic_string@DU?$char_traits@D@std@@V?$allocator@D@2@@std@@QAEAAV12@ABV12@@Z
_TEXT	SEGMENT PARA USE32 PUBLIC 'CODE'
_TEXT	ENDS
;	COMDAT ?_Ffmt@?$num_put@GV?$ostreambuf_iterator@GU?$char_traits@G@std@@@std@@@std@@ABAPADPADDH@Z
_TEXT	SEGMENT PARA USE32 PUBLIC 'CODE'
_TEXT	ENDS
;	COMDAT ?_Fput@?$num_put@GV?$ostreambuf_iterator@GU?$char_traits@G@std@@@std@@@std@@ABA?AV?$ostreambuf_iterator@GU?$char_traits@G@std@@@2@V32@AAVios_base@2@GPBDIIII@Z
_TEXT	SEGMENT PARA USE32 PUBLIC 'CODE'
_TEXT	ENDS
;	COMDAT ?_Ifmt@?$num_put@GV?$ostreambuf_iterator@GU?$char_traits@G@std@@@std@@@std@@ABAPADPADPBDH@Z
_TEXT	SEGMENT PARA USE32 PUBLIC 'CODE'
_TEXT	ENDS
;	COMDAT ?_Iput@?$num_put@GV?$ostreambuf_iterator@GU?$char_traits@G@std@@@std@@@std@@ABA?AV?$ostreambuf_iterator@GU?$char_traits@G@std@@@2@V32@AAVios_base@2@GPADI@Z
_TEXT	SEGMENT PARA USE32 PUBLIC 'CODE'
_TEXT	ENDS
;	COMDAT ?_Put@?$num_put@GV?$ostreambuf_iterator@GU?$char_traits@G@std@@@std@@@std@@ABA?AV?$ostreambuf_iterator@GU?$char_traits@G@std@@@2@V32@PBGI@Z
_TEXT	SEGMENT PARA USE32 PUBLIC 'CODE'
_TEXT	ENDS
;	COMDAT ?_Rep@?$num_put@GV?$ostreambuf_iterator@GU?$char_traits@G@std@@@std@@@std@@ABA?AV?$ostreambuf_iterator@GU?$char_traits@G@std@@@2@V32@GI@Z
_TEXT	SEGMENT PARA USE32 PUBLIC 'CODE'
_TEXT	ENDS
;	COMDAT ?_Ffmt@?$num_put@DV?$ostreambuf_iterator@DU?$char_traits@D@std@@@std@@@std@@ABAPADPADDH@Z
_TEXT	SEGMENT PARA USE32 PUBLIC 'CODE'
_TEXT	ENDS
;	COMDAT ?_Fput@?$num_put@DV?$ostreambuf_iterator@DU?$char_traits@D@std@@@std@@@std@@ABA?AV?$ostreambuf_iterator@DU?$char_traits@D@std@@@2@V32@AAVios_base@2@DPBDIIII@Z
_TEXT	SEGMENT PARA USE32 PUBLIC 'CODE'
_TEXT	ENDS
;	COMDAT ?_Ifmt@?$num_put@DV?$ostreambuf_iterator@DU?$char_traits@D@std@@@std@@@std@@ABAPADPADPBDH@Z
_TEXT	SEGMENT PARA USE32 PUBLIC 'CODE'
_TEXT	ENDS
;	COMDAT ?_Iput@?$num_put@DV?$ostreambuf_iterator@DU?$char_traits@D@std@@@std@@@std@@ABA?AV?$ostreambuf_iterator@DU?$char_traits@D@std@@@2@V32@AAVios_base@2@DPADI@Z
_TEXT	SEGMENT PARA USE32 PUBLIC 'CODE'
_TEXT	ENDS
;	COMDAT ?_Put@?$num_put@DV?$ostreambuf_iterator@DU?$char_traits@D@std@@@std@@@std@@ABA?AV?$ostreambuf_iterator@DU?$char_traits@D@std@@@2@V32@PBDI@Z
_TEXT	SEGMENT PARA USE32 PUBLIC 'CODE'
_TEXT	ENDS
;	COMDAT ?_Rep@?$num_put@DV?$ostreambuf_iterator@DU?$char_traits@D@std@@@std@@@std@@ABA?AV?$ostreambuf_iterator@DU?$char_traits@D@std@@@2@V32@DI@Z
_TEXT	SEGMENT PARA USE32 PUBLIC 'CODE'
_TEXT	ENDS
;	COMDAT ??0?$basic_string@GU?$char_traits@G@std@@V?$allocator@G@2@@std@@QAE@XZ
_TEXT	SEGMENT PARA USE32 PUBLIC 'CODE'
_TEXT	ENDS
;	COMDAT ??1?$basic_string@GU?$char_traits@G@std@@V?$allocator@G@2@@std@@QAE@XZ
_TEXT	SEGMENT PARA USE32 PUBLIC 'CODE'
_TEXT	ENDS
;	COMDAT ?assign@?$basic_string@GU?$char_traits@G@std@@V?$allocator@G@2@@std@@QAEAAV12@ABV12@@Z
_TEXT	SEGMENT PARA USE32 PUBLIC 'CODE'
_TEXT	ENDS
;	COMDAT ?c_str@?$basic_string@GU?$char_traits@G@std@@V?$allocator@G@2@@std@@QBEPBGXZ
_TEXT	SEGMENT PARA USE32 PUBLIC 'CODE'
_TEXT	ENDS
;	COMDAT ?size@?$basic_string@GU?$char_traits@G@std@@V?$allocator@G@2@@std@@QBEIXZ
_TEXT	SEGMENT PARA USE32 PUBLIC 'CODE'
_TEXT	ENDS
;	COMDAT ?falsename@?$numpunct@G@std@@QBE?AV?$basic_string@GU?$char_traits@G@std@@V?$allocator@G@2@@2@XZ
_TEXT	SEGMENT PARA USE32 PUBLIC 'CODE'
_TEXT	ENDS
;	COMDAT ?truename@?$numpunct@G@std@@QBE?AV?$basic_string@GU?$char_traits@G@std@@V?$allocator@G@2@@2@XZ
_TEXT	SEGMENT PARA USE32 PUBLIC 'CODE'
_TEXT	ENDS
;	COMDAT ??1?$numpunct@G@std@@MAE@XZ
_TEXT	SEGMENT PARA USE32 PUBLIC 'CODE'
_TEXT	ENDS
;	COMDAT ?do_decimal_point@?$numpunct@G@std@@MBEGXZ
_TEXT	SEGMENT PARA USE32 PUBLIC 'CODE'
_TEXT	ENDS
;	COMDAT ?do_thousands_sep@?$numpunct@G@std@@MBEGXZ
_TEXT	SEGMENT PARA USE32 PUBLIC 'CODE'
_TEXT	ENDS
;	COMDAT ?do_grouping@?$numpunct@G@std@@MBE?AV?$basic_string@DU?$char_traits@D@std@@V?$allocator@D@2@@2@XZ
_TEXT	SEGMENT PARA USE32 PUBLIC 'CODE'
_TEXT	ENDS
;	COMDAT ?do_falsename@?$numpunct@G@std@@MBE?AV?$basic_string@GU?$char_traits@G@std@@V?$allocator@G@2@@2@XZ
_TEXT	SEGMENT PARA USE32 PUBLIC 'CODE'
_TEXT	ENDS
;	COMDAT ?do_truename@?$numpunct@G@std@@MBE?AV?$basic_string@GU?$char_traits@G@std@@V?$allocator@G@2@@2@XZ
_TEXT	SEGMENT PARA USE32 PUBLIC 'CODE'
_TEXT	ENDS
;	COMDAT ?falsename@?$numpunct@D@std@@QBE?AV?$basic_string@DU?$char_traits@D@std@@V?$allocator@D@2@@2@XZ
_TEXT	SEGMENT PARA USE32 PUBLIC 'CODE'
_TEXT	ENDS
;	COMDAT ?truename@?$numpunct@D@std@@QBE?AV?$basic_string@DU?$char_traits@D@std@@V?$allocator@D@2@@2@XZ
_TEXT	SEGMENT PARA USE32 PUBLIC 'CODE'
_TEXT	ENDS
;	COMDAT ??1?$numpunct@D@std@@MAE@XZ
_TEXT	SEGMENT PARA USE32 PUBLIC 'CODE'
_TEXT	ENDS
;	COMDAT ?do_decimal_point@?$numpunct@D@std@@MBEDXZ
_TEXT	SEGMENT PARA USE32 PUBLIC 'CODE'
_TEXT	ENDS
;	COMDAT ?do_thousands_sep@?$numpunct@D@std@@MBEDXZ
_TEXT	SEGMENT PARA USE32 PUBLIC 'CODE'
_TEXT	ENDS
;	COMDAT ?do_grouping@?$numpunct@D@std@@MBE?AV?$basic_string@DU?$char_traits@D@std@@V?$allocator@D@2@@2@XZ
_TEXT	SEGMENT PARA USE32 PUBLIC 'CODE'
_TEXT	ENDS
;	COMDAT ?do_falsename@?$numpunct@D@std@@MBE?AV?$basic_string@DU?$char_traits@D@std@@V?$allocator@D@2@@2@XZ
_TEXT	SEGMENT PARA USE32 PUBLIC 'CODE'
_TEXT	ENDS
;	COMDAT ?do_truename@?$numpunct@D@std@@MBE?AV?$basic_string@DU?$char_traits@D@std@@V?$allocator@D@2@@2@XZ
_TEXT	SEGMENT PARA USE32 PUBLIC 'CODE'
_TEXT	ENDS
;	COMDAT ??_G?$numpunct@G@std@@MAEPAXI@Z
_TEXT	SEGMENT PARA USE32 PUBLIC 'CODE'
_TEXT	ENDS
;	COMDAT ??_G?$numpunct@D@std@@MAEPAXI@Z
_TEXT	SEGMENT PARA USE32 PUBLIC 'CODE'
_TEXT	ENDS
;	COMDAT ??0?$basic_string@DU?$char_traits@D@std@@V?$allocator@D@2@@std@@QAE@PBD@Z
_TEXT	SEGMENT PARA USE32 PUBLIC 'CODE'
_TEXT	ENDS
;	COMDAT ?append@?$basic_string@DU?$char_traits@D@std@@V?$allocator@D@2@@std@@QAEAAV12@PBDI@Z
_TEXT	SEGMENT PARA USE32 PUBLIC 'CODE'
_TEXT	ENDS
;	COMDAT ?insert@?$basic_string@DU?$char_traits@D@std@@V?$allocator@D@2@@std@@QAEAAV12@IID@Z
_TEXT	SEGMENT PARA USE32 PUBLIC 'CODE'
_TEXT	ENDS
;	COMDAT ?_Putc@?$num_put@GV?$ostreambuf_iterator@GU?$char_traits@G@std@@@std@@@std@@ABA?AV?$ostreambuf_iterator@GU?$char_traits@G@std@@@2@V32@PBDI@Z
_TEXT	SEGMENT PARA USE32 PUBLIC 'CODE'
_TEXT	ENDS
;	COMDAT ?_Putgrouped@?$num_put@GV?$ostreambuf_iterator@GU?$char_traits@G@std@@@std@@@std@@ABA?AV?$ostreambuf_iterator@GU?$char_traits@G@std@@@2@V32@PBDIG@Z
_TEXT	SEGMENT PARA USE32 PUBLIC 'CODE'
_TEXT	ENDS
;	COMDAT ??4?$ostreambuf_iterator@GU?$char_traits@G@std@@@std@@QAEAAV01@G@Z
_TEXT	SEGMENT PARA USE32 PUBLIC 'CODE'
_TEXT	ENDS
;	COMDAT ??D?$ostreambuf_iterator@GU?$char_traits@G@std@@@std@@QAEAAV01@XZ
_TEXT	SEGMENT PARA USE32 PUBLIC 'CODE'
_TEXT	ENDS
;	COMDAT ??E?$ostreambuf_iterator@GU?$char_traits@G@std@@@std@@QAEAAV01@XZ
_TEXT	SEGMENT PARA USE32 PUBLIC 'CODE'
_TEXT	ENDS
;	COMDAT ?_Putc@?$num_put@DV?$ostreambuf_iterator@DU?$char_traits@D@std@@@std@@@std@@ABA?AV?$ostreambuf_iterator@DU?$char_traits@D@std@@@2@V32@PBDI@Z
_TEXT	SEGMENT PARA USE32 PUBLIC 'CODE'
_TEXT	ENDS
;	COMDAT ?_Putgrouped@?$num_put@DV?$ostreambuf_iterator@DU?$char_traits@D@std@@@std@@@std@@ABA?AV?$ostreambuf_iterator@DU?$char_traits@D@std@@@2@V32@PBDID@Z
_TEXT	SEGMENT PARA USE32 PUBLIC 'CODE'
_TEXT	ENDS
;	COMDAT ??4?$ostreambuf_iterator@DU?$char_traits@D@std@@@std@@QAEAAV01@D@Z
_TEXT	SEGMENT PARA USE32 PUBLIC 'CODE'
_TEXT	ENDS
;	COMDAT ??D?$ostreambuf_iterator@DU?$char_traits@D@std@@@std@@QAEAAV01@XZ
_TEXT	SEGMENT PARA USE32 PUBLIC 'CODE'
_TEXT	ENDS
;	COMDAT ??E?$ostreambuf_iterator@DU?$char_traits@D@std@@@std@@QAEAAV01@XZ
_TEXT	SEGMENT PARA USE32 PUBLIC 'CODE'
_TEXT	ENDS
;	COMDAT ??0?$basic_string@GU?$char_traits@G@std@@V?$allocator@G@2@@std@@QAE@PBG@Z
_TEXT	SEGMENT PARA USE32 PUBLIC 'CODE'
_TEXT	ENDS
;	COMDAT ?assign@?$basic_string@GU?$char_traits@G@std@@V?$allocator@G@2@@std@@QAEAAV12@ABV12@II@Z
_TEXT	SEGMENT PARA USE32 PUBLIC 'CODE'
_TEXT	ENDS
;	COMDAT ?_Tidy@?$basic_string@GU?$char_traits@G@std@@V?$allocator@G@2@@std@@IAEX_NI@Z
_TEXT	SEGMENT PARA USE32 PUBLIC 'CODE'
_TEXT	ENDS
;	COMDAT ?_Myptr@?$basic_string@GU?$char_traits@G@std@@V?$allocator@G@2@@std@@QBEPBGXZ
_TEXT	SEGMENT PARA USE32 PUBLIC 'CODE'
_TEXT	ENDS
;	COMDAT ??0?$_String_val@GV?$allocator@G@std@@@std@@IAE@V?$allocator@G@1@@Z
_TEXT	SEGMENT PARA USE32 PUBLIC 'CODE'
_TEXT	ENDS
;	COMDAT ??0?$allocator@G@std@@QAE@XZ
_TEXT	SEGMENT PARA USE32 PUBLIC 'CODE'
_TEXT	ENDS
;	COMDAT ?decimal_point@?$numpunct@G@std@@QBEGXZ
_TEXT	SEGMENT PARA USE32 PUBLIC 'CODE'
_TEXT	ENDS
;	COMDAT ?thousands_sep@?$numpunct@G@std@@QBEGXZ
_TEXT	SEGMENT PARA USE32 PUBLIC 'CODE'
_TEXT	ENDS
;	COMDAT ?grouping@?$numpunct@G@std@@QBE?AV?$basic_string@DU?$char_traits@D@std@@V?$allocator@D@2@@2@XZ
_TEXT	SEGMENT PARA USE32 PUBLIC 'CODE'
_TEXT	ENDS
;	COMDAT ?_Tidy@?$numpunct@G@std@@AAEXXZ
_TEXT	SEGMENT PARA USE32 PUBLIC 'CODE'
_TEXT	ENDS
;	COMDAT ?decimal_point@?$numpunct@D@std@@QBEDXZ
_TEXT	SEGMENT PARA USE32 PUBLIC 'CODE'
_TEXT	ENDS
;	COMDAT ?thousands_sep@?$numpunct@D@std@@QBEDXZ
_TEXT	SEGMENT PARA USE32 PUBLIC 'CODE'
_TEXT	ENDS
;	COMDAT ?grouping@?$numpunct@D@std@@QBE?AV?$basic_string@DU?$char_traits@D@std@@V?$allocator@D@2@@2@XZ
_TEXT	SEGMENT PARA USE32 PUBLIC 'CODE'
_TEXT	ENDS
;	COMDAT ?_Tidy@?$numpunct@D@std@@AAEXXZ
_TEXT	SEGMENT PARA USE32 PUBLIC 'CODE'
_TEXT	ENDS
;	COMDAT ?append@?$basic_string@DU?$char_traits@D@std@@V?$allocator@D@2@@std@@QAEAAV12@ABV12@II@Z
_TEXT	SEGMENT PARA USE32 PUBLIC 'CODE'
_TEXT	ENDS
;	COMDAT ?assign@?$basic_string@GU?$char_traits@G@std@@V?$allocator@G@2@@std@@QAEAAV12@PBG@Z
_TEXT	SEGMENT PARA USE32 PUBLIC 'CODE'
_TEXT	ENDS
;	COMDAT ?erase@?$basic_string@GU?$char_traits@G@std@@V?$allocator@G@2@@std@@QAEAAV12@II@Z
_TEXT	SEGMENT PARA USE32 PUBLIC 'CODE'
_TEXT	ENDS
;	COMDAT ?_Eos@?$basic_string@GU?$char_traits@G@std@@V?$allocator@G@2@@std@@IAEXI@Z
_TEXT	SEGMENT PARA USE32 PUBLIC 'CODE'
_TEXT	ENDS
;	COMDAT ?_Grow@?$basic_string@GU?$char_traits@G@std@@V?$allocator@G@2@@std@@IAE_NI_N@Z
_TEXT	SEGMENT PARA USE32 PUBLIC 'CODE'
_TEXT	ENDS
;	COMDAT ?_Myptr@?$basic_string@GU?$char_traits@G@std@@V?$allocator@G@2@@std@@QAEPAGXZ
_TEXT	SEGMENT PARA USE32 PUBLIC 'CODE'
_TEXT	ENDS
;	COMDAT ??0?$allocator@G@std@@QAE@ABV01@@Z
_TEXT	SEGMENT PARA USE32 PUBLIC 'CODE'
_TEXT	ENDS
;	COMDAT ?deallocate@?$allocator@G@std@@QAEXPAGI@Z
_TEXT	SEGMENT PARA USE32 PUBLIC 'CODE'
_TEXT	ENDS
;	COMDAT ?assign@?$basic_string@GU?$char_traits@G@std@@V?$allocator@G@2@@std@@QAEAAV12@PBGI@Z
_TEXT	SEGMENT PARA USE32 PUBLIC 'CODE'
_TEXT	ENDS
;	COMDAT ?max_size@?$basic_string@GU?$char_traits@G@std@@V?$allocator@G@2@@std@@QBEIXZ
_TEXT	SEGMENT PARA USE32 PUBLIC 'CODE'
_TEXT	ENDS
;	COMDAT ?_Copy@?$basic_string@GU?$char_traits@G@std@@V?$allocator@G@2@@std@@IAEXII@Z
_TEXT	SEGMENT PARA USE32 PUBLIC 'CODE'
_TEXT	ENDS
;	COMDAT ?_Inside@?$basic_string@GU?$char_traits@G@std@@V?$allocator@G@2@@std@@IAE_NPBG@Z
_TEXT	SEGMENT PARA USE32 PUBLIC 'CODE'
_TEXT	ENDS
;	COMDAT ?allocate@?$allocator@G@std@@QAEPAGI@Z
_TEXT	SEGMENT PARA USE32 PUBLIC 'CODE'
_TEXT	ENDS
;	COMDAT ?max_size@?$allocator@G@std@@QBEIXZ
_TEXT	SEGMENT PARA USE32 PUBLIC 'CODE'
_TEXT	ENDS
;	COMDAT _$E1
text$yc	SEGMENT PARA USE32 PUBLIC 'CODE'
text$yc	ENDS
;	COMDAT ??$?6GU?$char_traits@G@std@@@std@@YAAAV?$basic_ostream@GU?$char_traits@G@std@@@0@AAV10@PBG@Z
_TEXT	SEGMENT PARA USE32 PUBLIC 'CODE'
_TEXT	ENDS
;	COMDAT ??$?6U?$char_traits@D@std@@@std@@YAAAV?$basic_ostream@DU?$char_traits@D@std@@@0@AAV10@PBD@Z
_TEXT	SEGMENT PARA USE32 PUBLIC 'CODE'
_TEXT	ENDS
;	COMDAT ??$setfill@D@std@@YA?AU?$_Fillobj@D@0@D@Z
_TEXT	SEGMENT PARA USE32 PUBLIC 'CODE'
_TEXT	ENDS
;	COMDAT ??$?6DU?$char_traits@D@std@@@std@@YAAAV?$basic_ostream@DU?$char_traits@D@std@@@0@AAV10@ABU?$_Fillobj@D@0@@Z
_TEXT	SEGMENT PARA USE32 PUBLIC 'CODE'
_TEXT	ENDS
;	COMDAT ??$?6DU?$char_traits@D@std@@H@std@@YAAAV?$basic_ostream@DU?$char_traits@D@std@@@0@AAV10@ABU?$_Smanip@H@0@@Z
_TEXT	SEGMENT PARA USE32 PUBLIC 'CODE'
_TEXT	ENDS
;	COMDAT ??$use_facet@V?$num_put@GV?$ostreambuf_iterator@GU?$char_traits@G@std@@@std@@@std@@@std@@YAABV?$num_put@GV?$ostreambuf_iterator@GU?$char_traits@G@std@@@std@@@0@ABVlocale@0@@Z
_TEXT	SEGMENT PARA USE32 PUBLIC 'CODE'
_TEXT	ENDS
;	COMDAT ??$use_facet@V?$num_put@DV?$ostreambuf_iterator@DU?$char_traits@D@std@@@std@@@std@@@std@@YAABV?$num_put@DV?$ostreambuf_iterator@DU?$char_traits@D@std@@@std@@@0@ABVlocale@0@@Z
_TEXT	SEGMENT PARA USE32 PUBLIC 'CODE'
_TEXT	ENDS
;	COMDAT ??$use_facet@V?$numpunct@G@std@@@std@@YAABV?$numpunct@G@0@ABVlocale@0@@Z
_TEXT	SEGMENT PARA USE32 PUBLIC 'CODE'
_TEXT	ENDS
;	COMDAT ??$use_facet@V?$numpunct@D@std@@@std@@YAABV?$numpunct@D@0@ABVlocale@0@@Z
_TEXT	SEGMENT PARA USE32 PUBLIC 'CODE'
_TEXT	ENDS
;	COMDAT ??$_Maklocchr@D@std@@YADDPADABU_Cvtvec@@@Z
_TEXT	SEGMENT PARA USE32 PUBLIC 'CODE'
_TEXT	ENDS
;	COMDAT ??$_Allocate@G@std@@YAPAGIPAG@Z
_TEXT	SEGMENT PARA USE32 PUBLIC 'CODE'
_TEXT	ENDS
;	COMDAT ?sputn@?$basic_streambuf@GU?$char_traits@G@std@@@std@@QAEHPBGH@Z
_TEXT	SEGMENT PARA USE32 PUBLIC 'CODE'
_TEXT	ENDS
;	COMDAT ?fill@?$basic_ios@DU?$char_traits@D@std@@@std@@QAEDD@Z
_TEXT	SEGMENT PARA USE32 PUBLIC 'CODE'
_TEXT	ENDS
;	COMDAT ?sputn@?$basic_streambuf@DU?$char_traits@D@std@@@std@@QAEHPBDH@Z
_TEXT	SEGMENT PARA USE32 PUBLIC 'CODE'
_TEXT	ENDS
;	COMDAT ??0?$_Fillobj@D@std@@QAE@D@Z
_TEXT	SEGMENT PARA USE32 PUBLIC 'CODE'
_TEXT	ENDS
;	COMDAT ?_Getcat@?$num_put@GV?$ostreambuf_iterator@GU?$char_traits@G@std@@@std@@@std@@SAIPAPBVfacet@locale@2@@Z
_TEXT	SEGMENT PARA USE32 PUBLIC 'CODE'
_TEXT	ENDS
;	COMDAT ?_Getcat@?$num_put@DV?$ostreambuf_iterator@DU?$char_traits@D@std@@@std@@@std@@SAIPAPBVfacet@locale@2@@Z
_TEXT	SEGMENT PARA USE32 PUBLIC 'CODE'
_TEXT	ENDS
;	COMDAT ?_Getcat@?$numpunct@G@std@@SAIPAPBVfacet@locale@2@@Z
_TEXT	SEGMENT PARA USE32 PUBLIC 'CODE'
_TEXT	ENDS
;	COMDAT ?_Getcat@?$numpunct@D@std@@SAIPAPBVfacet@locale@2@@Z
_TEXT	SEGMENT PARA USE32 PUBLIC 'CODE'
_TEXT	ENDS
;	COMDAT ??0?$num_put@GV?$ostreambuf_iterator@GU?$char_traits@G@std@@@std@@@std@@QAE@I@Z
_TEXT	SEGMENT PARA USE32 PUBLIC 'CODE'
_TEXT	ENDS
;	COMDAT ??0?$num_put@DV?$ostreambuf_iterator@DU?$char_traits@D@std@@@std@@@std@@QAE@I@Z
_TEXT	SEGMENT PARA USE32 PUBLIC 'CODE'
_TEXT	ENDS
;	COMDAT ??0?$numpunct@G@std@@QAE@I@Z
_TEXT	SEGMENT PARA USE32 PUBLIC 'CODE'
_TEXT	ENDS
;	COMDAT ??0?$numpunct@D@std@@QAE@I@Z
_TEXT	SEGMENT PARA USE32 PUBLIC 'CODE'
_TEXT	ENDS
;	COMDAT ?_Init@?$num_put@GV?$ostreambuf_iterator@GU?$char_traits@G@std@@@std@@@std@@IAEXABV_Locinfo@2@@Z
_TEXT	SEGMENT PARA USE32 PUBLIC 'CODE'
_TEXT	ENDS
;	COMDAT ?_Init@?$num_put@DV?$ostreambuf_iterator@DU?$char_traits@D@std@@@std@@@std@@IAEXABV_Locinfo@2@@Z
_TEXT	SEGMENT PARA USE32 PUBLIC 'CODE'
_TEXT	ENDS
;	COMDAT ?_Init@?$numpunct@G@std@@IAEXABV_Locinfo@2@@Z
_TEXT	SEGMENT PARA USE32 PUBLIC 'CODE'
_TEXT	ENDS
;	COMDAT ?_Init@?$numpunct@D@std@@IAEXABV_Locinfo@2@@Z
_TEXT	SEGMENT PARA USE32 PUBLIC 'CODE'
_TEXT	ENDS
;	COMDAT _$E3
text$yc	SEGMENT PARA USE32 PUBLIC 'CODE'
text$yc	ENDS
;	COMDAT _$E5
text$yc	SEGMENT PARA USE32 PUBLIC 'CODE'
text$yc	ENDS
;	COMDAT _$E7
text$yc	SEGMENT PARA USE32 PUBLIC 'CODE'
text$yc	ENDS
;	COMDAT _$E9
text$yc	SEGMENT PARA USE32 PUBLIC 'CODE'
text$yc	ENDS
;	COMDAT ??$_Maklocstr@D@std@@YAPADPBDPADABU_Cvtvec@@@Z
_TEXT	SEGMENT PARA USE32 PUBLIC 'CODE'
_TEXT	ENDS
;	COMDAT ?id@?$numpunct@D@std@@2V0locale@2@A
_BSS	SEGMENT DWORD USE32 PUBLIC 'BSS'
_BSS	ENDS
;	COMDAT CRT$XCU
CRT$XCU	SEGMENT DWORD USE32 PUBLIC 'DATA'
CRT$XCU	ENDS
;	COMDAT ?id@?$numpunct@G@std@@2V0locale@2@A
_BSS	SEGMENT DWORD USE32 PUBLIC 'BSS'
_BSS	ENDS
;	COMDAT CRT$XCU
CRT$XCU	SEGMENT DWORD USE32 PUBLIC 'DATA'
CRT$XCU	ENDS
;	COMDAT ?id@?$num_put@DV?$ostreambuf_iterator@DU?$char_traits@D@std@@@std@@@std@@2V0locale@2@A
_BSS	SEGMENT DWORD USE32 PUBLIC 'BSS'
_BSS	ENDS
;	COMDAT CRT$XCU
CRT$XCU	SEGMENT DWORD USE32 PUBLIC 'DATA'
CRT$XCU	ENDS
;	COMDAT ?id@?$num_put@GV?$ostreambuf_iterator@GU?$char_traits@G@std@@@std@@@std@@2V0locale@2@A
_BSS	SEGMENT DWORD USE32 PUBLIC 'BSS'
_BSS	ENDS
;	COMDAT CRT$XCU
CRT$XCU	SEGMENT DWORD USE32 PUBLIC 'DATA'
CRT$XCU	ENDS
;	COMDAT ?_Gettrue@_Locinfo@std@@QBEPBDXZ
_TEXT	SEGMENT PARA USE32 PUBLIC 'CODE'
_TEXT	ENDS
;	COMDAT ??_C@_04LOAJBDKD@true?$AA@
CONST	SEGMENT DWORD USE32 PUBLIC 'CONST'
CONST	ENDS
;	COMDAT ?_Getfalse@_Locinfo@std@@QBEPBDXZ
_TEXT	SEGMENT PARA USE32 PUBLIC 'CODE'
_TEXT	ENDS
;	COMDAT ??_C@_05LAPONLG@false?$AA@
CONST	SEGMENT DWORD USE32 PUBLIC 'CONST'
CONST	ENDS
;	COMDAT ??$_Maklocstr@G@std@@YAPAGPBDPAGABU_Cvtvec@@@Z
_TEXT	SEGMENT PARA USE32 PUBLIC 'CODE'
_TEXT	ENDS
;	COMDAT ?_Getlconv@_Locinfo@std@@QBEPBUlconv@@XZ
_TEXT	SEGMENT PARA USE32 PUBLIC 'CODE'
_TEXT	ENDS
;	COMDAT ?_Getcvt@_Locinfo@std@@QBE?AU_Cvtvec@@XZ
_TEXT	SEGMENT PARA USE32 PUBLIC 'CODE'
_TEXT	ENDS
;	COMDAT ??0facet@locale@std@@IAE@I@Z
_TEXT	SEGMENT PARA USE32 PUBLIC 'CODE'
_TEXT	ENDS
;	COMDAT ??_7facet@locale@std@@6B@
CONST	SEGMENT DWORD USE32 PUBLIC 'CONST'
CONST	ENDS
;	COMDAT ??_Gfacet@locale@std@@UAEPAXI@Z
_TEXT	SEGMENT PARA USE32 PUBLIC 'CODE'
_TEXT	ENDS
;	COMDAT ?_Psave@?$_Facetptr@V?$numpunct@D@std@@@std@@2PBVfacet@locale@2@B
_DATA	SEGMENT DWORD USE32 PUBLIC 'DATA'
_DATA	ENDS
;	COMDAT ?_Psave@?$_Facetptr@V?$numpunct@G@std@@@std@@2PBVfacet@locale@2@B
_DATA	SEGMENT DWORD USE32 PUBLIC 'DATA'
_DATA	ENDS
;	COMDAT ?_Psave@?$_Facetptr@V?$num_put@DV?$ostreambuf_iterator@DU?$char_traits@D@std@@@std@@@std@@@std@@2PBVfacet@locale@2@B
_DATA	SEGMENT DWORD USE32 PUBLIC 'DATA'
_DATA	ENDS
;	COMDAT ?_Incref@facet@locale@std@@QAEXXZ
_TEXT	SEGMENT PARA USE32 PUBLIC 'CODE'
_TEXT	ENDS
;	COMDAT __TI2?AVbad_cast@@
xdata$x	SEGMENT DWORD USE32 PUBLIC 'CONST'
xdata$x	ENDS
;	COMDAT __CTA2?AVbad_cast@@
xdata$x	SEGMENT DWORD USE32 PUBLIC 'CONST'
xdata$x	ENDS
;	COMDAT __CT??_R0?AVbad_cast@@@8??0bad_cast@@QAE@ABV0@@Z12
xdata$x	SEGMENT DWORD USE32 PUBLIC 'CONST'
xdata$x	ENDS
;	COMDAT ??_R0?AVbad_cast@@@8
_DATA	SEGMENT DWORD USE32 PUBLIC 'DATA'
_DATA	ENDS
;	COMDAT __CT??_R0?AVexception@@@8??0exception@@QAE@ABV0@@Z12
xdata$x	SEGMENT DWORD USE32 PUBLIC 'CONST'
xdata$x	ENDS
;	COMDAT ??_R0?AVexception@@@8
_DATA	SEGMENT DWORD USE32 PUBLIC 'DATA'
_DATA	ENDS
;	COMDAT ??_C@_08EPJLHIJG@bad?5cast?$AA@
CONST	SEGMENT DWORD USE32 PUBLIC 'CONST'
CONST	ENDS
;	COMDAT ??Bid@locale@std@@QAEIXZ
_TEXT	SEGMENT PARA USE32 PUBLIC 'CODE'
_TEXT	ENDS
;	COMDAT ?_Psave@?$_Facetptr@V?$num_put@GV?$ostreambuf_iterator@GU?$char_traits@G@std@@@std@@@std@@@std@@2PBVfacet@locale@2@B
_DATA	SEGMENT DWORD USE32 PUBLIC 'DATA'
_DATA	ENDS
;	COMDAT ?length@?$char_traits@D@std@@SAIPBD@Z
_TEXT	SEGMENT PARA USE32 PUBLIC 'CODE'
_TEXT	ENDS
;	COMDAT ?id@?$codecvt@DDH@std@@2V0locale@2@A
_BSS	SEGMENT DWORD USE32 PUBLIC 'BSS'
_BSS	ENDS
;	COMDAT CRT$XCU
CRT$XCU	SEGMENT DWORD USE32 PUBLIC 'DATA'
CRT$XCU	ENDS
;	COMDAT ??0id@locale@std@@QAE@I@Z
_TEXT	SEGMENT PARA USE32 PUBLIC 'CODE'
_TEXT	ENDS
;	COMDAT ?assign@?$char_traits@G@std@@SAXAAGABG@Z
_TEXT	SEGMENT PARA USE32 PUBLIC 'CODE'
_TEXT	ENDS
;	COMDAT ?move@?$char_traits@G@std@@SAPAGPAGPBGI@Z
_TEXT	SEGMENT PARA USE32 PUBLIC 'CODE'
_TEXT	ENDS
;	COMDAT _wmemmove
_TEXT	SEGMENT PARA USE32 PUBLIC 'CODE'
_TEXT	ENDS
;	COMDAT ?length@?$char_traits@G@std@@SAIPBG@Z
_TEXT	SEGMENT PARA USE32 PUBLIC 'CODE'
_TEXT	ENDS
;	COMDAT ?_Myptr@?$basic_string@DU?$char_traits@D@std@@V?$allocator@D@2@@std@@QBEPBDXZ
_TEXT	SEGMENT PARA USE32 PUBLIC 'CODE'
_TEXT	ENDS
;	COMDAT ?copy@?$char_traits@G@std@@SAPAGPAGPBGI@Z
_TEXT	SEGMENT PARA USE32 PUBLIC 'CODE'
_TEXT	ENDS
;	COMDAT _wmemcpy
_TEXT	SEGMENT PARA USE32 PUBLIC 'CODE'
_TEXT	ENDS
;	COMDAT ?eof@?$char_traits@D@std@@SAHXZ
_TEXT	SEGMENT PARA USE32 PUBLIC 'CODE'
_TEXT	ENDS
;	COMDAT ?sputc@?$basic_streambuf@DU?$char_traits@D@std@@@std@@QAEHD@Z
_TEXT	SEGMENT PARA USE32 PUBLIC 'CODE'
_TEXT	ENDS
;	COMDAT ?pptr@?$basic_streambuf@DU?$char_traits@D@std@@@std@@IBEPADXZ
_TEXT	SEGMENT PARA USE32 PUBLIC 'CODE'
_TEXT	ENDS
;	COMDAT ?epptr@?$basic_streambuf@DU?$char_traits@D@std@@@std@@IBEPADXZ
_TEXT	SEGMENT PARA USE32 PUBLIC 'CODE'
_TEXT	ENDS
;	COMDAT ?_Pninc@?$basic_streambuf@DU?$char_traits@D@std@@@std@@IAEPADXZ
_TEXT	SEGMENT PARA USE32 PUBLIC 'CODE'
_TEXT	ENDS
;	COMDAT ?to_int_type@?$char_traits@D@std@@SAHABD@Z
_TEXT	SEGMENT PARA USE32 PUBLIC 'CODE'
_TEXT	ENDS
;	COMDAT ?eq_int_type@?$char_traits@D@std@@SA_NABH0@Z
_TEXT	SEGMENT PARA USE32 PUBLIC 'CODE'
_TEXT	ENDS
;	COMDAT ?eof@?$char_traits@G@std@@SAGXZ
_TEXT	SEGMENT PARA USE32 PUBLIC 'CODE'
_TEXT	ENDS
;	COMDAT ?sputc@?$basic_streambuf@GU?$char_traits@G@std@@@std@@QAEGG@Z
_TEXT	SEGMENT PARA USE32 PUBLIC 'CODE'
_TEXT	ENDS
;	COMDAT ?pptr@?$basic_streambuf@GU?$char_traits@G@std@@@std@@IBEPAGXZ
_TEXT	SEGMENT PARA USE32 PUBLIC 'CODE'
_TEXT	ENDS
;	COMDAT ?epptr@?$basic_streambuf@GU?$char_traits@G@std@@@std@@IBEPAGXZ
_TEXT	SEGMENT PARA USE32 PUBLIC 'CODE'
_TEXT	ENDS
;	COMDAT ?_Pninc@?$basic_streambuf@GU?$char_traits@G@std@@@std@@IAEPAGXZ
_TEXT	SEGMENT PARA USE32 PUBLIC 'CODE'
_TEXT	ENDS
;	COMDAT ?to_int_type@?$char_traits@G@std@@SAGABG@Z
_TEXT	SEGMENT PARA USE32 PUBLIC 'CODE'
_TEXT	ENDS
;	COMDAT ?eq_int_type@?$char_traits@G@std@@SA_NABG0@Z
_TEXT	SEGMENT PARA USE32 PUBLIC 'CODE'
_TEXT	ENDS
;	COMDAT ?assign@?$char_traits@D@std@@SAPADPADID@Z
_TEXT	SEGMENT PARA USE32 PUBLIC 'CODE'
_TEXT	ENDS
;	COMDAT ?move@?$char_traits@D@std@@SAPADPADPBDI@Z
_TEXT	SEGMENT PARA USE32 PUBLIC 'CODE'
_TEXT	ENDS
;	COMDAT ?_Eos@?$basic_string@DU?$char_traits@D@std@@V?$allocator@D@2@@std@@IAEXI@Z
_TEXT	SEGMENT PARA USE32 PUBLIC 'CODE'
_TEXT	ENDS
;	COMDAT ?assign@?$char_traits@D@std@@SAXAADABD@Z
_TEXT	SEGMENT PARA USE32 PUBLIC 'CODE'
_TEXT	ENDS
;	COMDAT ?copy@?$char_traits@D@std@@SAPADPADPBDI@Z
_TEXT	SEGMENT PARA USE32 PUBLIC 'CODE'
_TEXT	ENDS
;	COMDAT ?_Grow@?$basic_string@DU?$char_traits@D@std@@V?$allocator@D@2@@std@@IAE_NI_N@Z
_TEXT	SEGMENT PARA USE32 PUBLIC 'CODE'
_TEXT	ENDS
;	COMDAT ?max_size@?$basic_string@DU?$char_traits@D@std@@V?$allocator@D@2@@std@@QBEIXZ
_TEXT	SEGMENT PARA USE32 PUBLIC 'CODE'
_TEXT	ENDS
;	COMDAT ?max_size@?$allocator@D@std@@QBEIXZ
_TEXT	SEGMENT PARA USE32 PUBLIC 'CODE'
_TEXT	ENDS
;	COMDAT ?_Copy@?$basic_string@DU?$char_traits@D@std@@V?$allocator@D@2@@std@@IAEXII@Z
_TEXT	SEGMENT PARA USE32 PUBLIC 'CODE'
_TEXT	ENDS
;	COMDAT ?allocate@?$allocator@D@std@@QAEPADI@Z
_TEXT	SEGMENT PARA USE32 PUBLIC 'CODE'
_TEXT	ENDS
;	COMDAT ??$_Allocate@D@std@@YAPADIPAD@Z
_TEXT	SEGMENT PARA USE32 PUBLIC 'CODE'
_TEXT	ENDS
;	COMDAT ?_Myptr@?$basic_string@DU?$char_traits@D@std@@V?$allocator@D@2@@std@@QAEPADXZ
_TEXT	SEGMENT PARA USE32 PUBLIC 'CODE'
_TEXT	ENDS
;	COMDAT ?_Inside@?$basic_string@DU?$char_traits@D@std@@V?$allocator@D@2@@std@@IAE_NPBD@Z
_TEXT	SEGMENT PARA USE32 PUBLIC 'CODE'
_TEXT	ENDS
;	COMDAT ?assign@?$basic_string@DU?$char_traits@D@std@@V?$allocator@D@2@@std@@QAEAAV12@PBD@Z
_TEXT	SEGMENT PARA USE32 PUBLIC 'CODE'
_TEXT	ENDS
;	COMDAT ?assign@?$basic_string@DU?$char_traits@D@std@@V?$allocator@D@2@@std@@QAEAAV12@PBDI@Z
_TEXT	SEGMENT PARA USE32 PUBLIC 'CODE'
_TEXT	ENDS
;	COMDAT ?_Tidy@?$basic_string@DU?$char_traits@D@std@@V?$allocator@D@2@@std@@IAEX_NI@Z
_TEXT	SEGMENT PARA USE32 PUBLIC 'CODE'
_TEXT	ENDS
;	COMDAT ?deallocate@?$allocator@D@std@@QAEXPADI@Z
_TEXT	SEGMENT PARA USE32 PUBLIC 'CODE'
_TEXT	ENDS
;	COMDAT ??0?$allocator@D@std@@QAE@XZ
_TEXT	SEGMENT PARA USE32 PUBLIC 'CODE'
_TEXT	ENDS
;	COMDAT ??0?$_String_val@DV?$allocator@D@std@@@std@@IAE@V?$allocator@D@1@@Z
_TEXT	SEGMENT PARA USE32 PUBLIC 'CODE'
_TEXT	ENDS
;	COMDAT ??0?$allocator@D@std@@QAE@ABV01@@Z
_TEXT	SEGMENT PARA USE32 PUBLIC 'CODE'
_TEXT	ENDS
;	COMDAT ??_7?$numpunct@D@std@@6B@
CONST	SEGMENT DWORD USE32 PUBLIC 'CONST'
CONST	ENDS
;	COMDAT ??_7?$numpunct@G@std@@6B@
CONST	SEGMENT DWORD USE32 PUBLIC 'CONST'
CONST	ENDS
;	COMDAT ?npos@?$basic_string@GU?$char_traits@G@std@@V?$allocator@G@2@@std@@2IB
CONST	SEGMENT DWORD USE32 PUBLIC 'CONST'
CONST	ENDS
;	COMDAT ??A?$basic_string@DU?$char_traits@D@std@@V?$allocator@D@2@@std@@QAEAADI@Z
_TEXT	SEGMENT PARA USE32 PUBLIC 'CODE'
_TEXT	ENDS
;	COMDAT ?append@?$basic_string@DU?$char_traits@D@std@@V?$allocator@D@2@@std@@QAEAAV12@ID@Z
_TEXT	SEGMENT PARA USE32 PUBLIC 'CODE'
_TEXT	ENDS
;	COMDAT ?npos@?$basic_string@DU?$char_traits@D@std@@V?$allocator@D@2@@std@@2IB
CONST	SEGMENT DWORD USE32 PUBLIC 'CONST'
CONST	ENDS
;	COMDAT ??$_Maklocchr@G@std@@YAGDPAGABU_Cvtvec@@@Z
_TEXT	SEGMENT PARA USE32 PUBLIC 'CODE'
_TEXT	ENDS
;	COMDAT ?assign@?$basic_string@DU?$char_traits@D@std@@V?$allocator@D@2@@std@@QAEAAV12@ABV12@II@Z
_TEXT	SEGMENT PARA USE32 PUBLIC 'CODE'
_TEXT	ENDS
;	COMDAT ?erase@?$basic_string@DU?$char_traits@D@std@@V?$allocator@D@2@@std@@QAEAAV12@II@Z
_TEXT	SEGMENT PARA USE32 PUBLIC 'CODE'
_TEXT	ENDS
;	COMDAT ?size@?$basic_string@DU?$char_traits@D@std@@V?$allocator@D@2@@std@@QBEIXZ
_TEXT	SEGMENT PARA USE32 PUBLIC 'CODE'
_TEXT	ENDS
;	COMDAT ??0?$basic_string@DU?$char_traits@D@std@@V?$allocator@D@2@@std@@QAE@XZ
_TEXT	SEGMENT PARA USE32 PUBLIC 'CODE'
_TEXT	ENDS
;	COMDAT ??_7?$num_put@DV?$ostreambuf_iterator@DU?$char_traits@D@std@@@std@@@std@@6B@
CONST	SEGMENT DWORD USE32 PUBLIC 'CONST'
CONST	ENDS
;	COMDAT ?precision@ios_base@std@@QBEHXZ
_TEXT	SEGMENT PARA USE32 PUBLIC 'CODE'
_TEXT	ENDS
;	COMDAT ?width@ios_base@std@@QAEHH@Z
_TEXT	SEGMENT PARA USE32 PUBLIC 'CODE'
_TEXT	ENDS
;	COMDAT ?width@ios_base@std@@QBEHXZ
_TEXT	SEGMENT PARA USE32 PUBLIC 'CODE'
_TEXT	ENDS
;	COMDAT ??1facet@locale@std@@UAE@XZ
_TEXT	SEGMENT PARA USE32 PUBLIC 'CODE'
_TEXT	ENDS
;	COMDAT ??_7?$num_put@GV?$ostreambuf_iterator@GU?$char_traits@G@std@@@std@@@std@@6B@
CONST	SEGMENT DWORD USE32 PUBLIC 'CONST'
CONST	ENDS
;	COMDAT ??_C@_01GFHCPBMG@C?$AA@
CONST	SEGMENT DWORD USE32 PUBLIC 'CONST'
CONST	ENDS
;	COMDAT ?setstate@?$basic_ios@DU?$char_traits@D@std@@@std@@QAEXH_N@Z
_TEXT	SEGMENT PARA USE32 PUBLIC 'CODE'
_TEXT	ENDS
;	COMDAT ?clear@?$basic_ios@DU?$char_traits@D@std@@@std@@QAEXH_N@Z
_TEXT	SEGMENT PARA USE32 PUBLIC 'CODE'
_TEXT	ENDS
;	COMDAT ?rdstate@ios_base@std@@QBEHXZ
_TEXT	SEGMENT PARA USE32 PUBLIC 'CODE'
_TEXT	ENDS
;	COMDAT ?rdbuf@?$basic_ios@DU?$char_traits@D@std@@@std@@QBEPAV?$basic_streambuf@DU?$char_traits@D@std@@@2@XZ
_TEXT	SEGMENT PARA USE32 PUBLIC 'CODE'
_TEXT	ENDS
;	COMDAT ??Bsentry@?$basic_ostream@DU?$char_traits@D@std@@@std@@QBE_NXZ
_TEXT	SEGMENT PARA USE32 PUBLIC 'CODE'
_TEXT	ENDS
;	COMDAT ??1sentry@?$basic_ostream@DU?$char_traits@D@std@@@std@@QAE@XZ
_TEXT	SEGMENT PARA USE32 PUBLIC 'CODE'
_TEXT	ENDS
;	COMDAT ??1_Sentry_base@?$basic_ostream@DU?$char_traits@D@std@@@std@@QAE@XZ
_TEXT	SEGMENT PARA USE32 PUBLIC 'CODE'
_TEXT	ENDS
;	COMDAT ?_Unlock@?$basic_streambuf@DU?$char_traits@D@std@@@std@@QAEXXZ
_TEXT	SEGMENT PARA USE32 PUBLIC 'CODE'
_TEXT	ENDS
;	COMDAT ?_Osfx@?$basic_ostream@DU?$char_traits@D@std@@@std@@QAEXXZ
_TEXT	SEGMENT PARA USE32 PUBLIC 'CODE'
_TEXT	ENDS
;	COMDAT ?flush@?$basic_ostream@DU?$char_traits@D@std@@@std@@QAEAAV12@XZ
_TEXT	SEGMENT PARA USE32 PUBLIC 'CODE'
_TEXT	ENDS
;	COMDAT ?fail@ios_base@std@@QBE_NXZ
_TEXT	SEGMENT PARA USE32 PUBLIC 'CODE'
_TEXT	ENDS
;	COMDAT ?pubsync@?$basic_streambuf@DU?$char_traits@D@std@@@std@@QAEHXZ
_TEXT	SEGMENT PARA USE32 PUBLIC 'CODE'
_TEXT	ENDS
;	COMDAT ??0sentry@?$basic_ostream@DU?$char_traits@D@std@@@std@@QAE@AAV12@@Z
_TEXT	SEGMENT PARA USE32 PUBLIC 'CODE'
_TEXT	ENDS
;	COMDAT ??0_Sentry_base@?$basic_ostream@DU?$char_traits@D@std@@@std@@QAE@AAV12@@Z
_TEXT	SEGMENT PARA USE32 PUBLIC 'CODE'
_TEXT	ENDS
;	COMDAT ?_Lock@?$basic_streambuf@DU?$char_traits@D@std@@@std@@QAEXXZ
_TEXT	SEGMENT PARA USE32 PUBLIC 'CODE'
_TEXT	ENDS
;	COMDAT ?tie@?$basic_ios@DU?$char_traits@D@std@@@std@@QBEPAV?$basic_ostream@DU?$char_traits@D@std@@@2@XZ
_TEXT	SEGMENT PARA USE32 PUBLIC 'CODE'
_TEXT	ENDS
;	COMDAT ?good@ios_base@std@@QBE_NXZ
_TEXT	SEGMENT PARA USE32 PUBLIC 'CODE'
_TEXT	ENDS
;	COMDAT ?setstate@?$basic_ios@GU?$char_traits@G@std@@@std@@QAEXH_N@Z
_TEXT	SEGMENT PARA USE32 PUBLIC 'CODE'
_TEXT	ENDS
;	COMDAT ?clear@?$basic_ios@GU?$char_traits@G@std@@@std@@QAEXH_N@Z
_TEXT	SEGMENT PARA USE32 PUBLIC 'CODE'
_TEXT	ENDS
;	COMDAT ?rdbuf@?$basic_ios@GU?$char_traits@G@std@@@std@@QBEPAV?$basic_streambuf@GU?$char_traits@G@std@@@2@XZ
_TEXT	SEGMENT PARA USE32 PUBLIC 'CODE'
_TEXT	ENDS
;	COMDAT ?fill@?$basic_ios@GU?$char_traits@G@std@@@std@@QBEGXZ
_TEXT	SEGMENT PARA USE32 PUBLIC 'CODE'
_TEXT	ENDS
;	COMDAT ?flags@ios_base@std@@QBEHXZ
_TEXT	SEGMENT PARA USE32 PUBLIC 'CODE'
_TEXT	ENDS
;	COMDAT ?getloc@ios_base@std@@QBE?AVlocale@2@XZ
_TEXT	SEGMENT PARA USE32 PUBLIC 'CODE'
_TEXT	ENDS
;	COMDAT ??0locale@std@@QAE@ABV01@@Z
_TEXT	SEGMENT PARA USE32 PUBLIC 'CODE'
_TEXT	ENDS
;	COMDAT ??Bsentry@?$basic_ostream@GU?$char_traits@G@std@@@std@@QBE_NXZ
_TEXT	SEGMENT PARA USE32 PUBLIC 'CODE'
_TEXT	ENDS
;	COMDAT ??1sentry@?$basic_ostream@GU?$char_traits@G@std@@@std@@QAE@XZ
_TEXT	SEGMENT PARA USE32 PUBLIC 'CODE'
_TEXT	ENDS
;	COMDAT ??1_Sentry_base@?$basic_ostream@GU?$char_traits@G@std@@@std@@QAE@XZ
_TEXT	SEGMENT PARA USE32 PUBLIC 'CODE'
_TEXT	ENDS
;	COMDAT ?_Unlock@?$basic_streambuf@GU?$char_traits@G@std@@@std@@QAEXXZ
_TEXT	SEGMENT PARA USE32 PUBLIC 'CODE'
_TEXT	ENDS
;	COMDAT ?_Osfx@?$basic_ostream@GU?$char_traits@G@std@@@std@@QAEXXZ
_TEXT	SEGMENT PARA USE32 PUBLIC 'CODE'
_TEXT	ENDS
;	COMDAT ?flush@?$basic_ostream@GU?$char_traits@G@std@@@std@@QAEAAV12@XZ
_TEXT	SEGMENT PARA USE32 PUBLIC 'CODE'
_TEXT	ENDS
;	COMDAT ?pubsync@?$basic_streambuf@GU?$char_traits@G@std@@@std@@QAEHXZ
_TEXT	SEGMENT PARA USE32 PUBLIC 'CODE'
_TEXT	ENDS
;	COMDAT ??0sentry@?$basic_ostream@GU?$char_traits@G@std@@@std@@QAE@AAV12@@Z
_TEXT	SEGMENT PARA USE32 PUBLIC 'CODE'
_TEXT	ENDS
;	COMDAT ??0_Sentry_base@?$basic_ostream@GU?$char_traits@G@std@@@std@@QAE@AAV12@@Z
_TEXT	SEGMENT PARA USE32 PUBLIC 'CODE'
_TEXT	ENDS
;	COMDAT ?_Lock@?$basic_streambuf@GU?$char_traits@G@std@@@std@@QAEXXZ
_TEXT	SEGMENT PARA USE32 PUBLIC 'CODE'
_TEXT	ENDS
;	COMDAT ?tie@?$basic_ios@GU?$char_traits@G@std@@@std@@QBEPAV?$basic_ostream@GU?$char_traits@G@std@@@2@XZ
_TEXT	SEGMENT PARA USE32 PUBLIC 'CODE'
_TEXT	ENDS
;	COMDAT ?endl@std@@YAAAV?$basic_ostream@DU?$char_traits@D@std@@@1@AAV21@@Z
_TEXT	SEGMENT PARA USE32 PUBLIC 'CODE'
_TEXT	ENDS
;	COMDAT ?put@?$basic_ostream@DU?$char_traits@D@std@@@std@@QAEAAV12@D@Z
_TEXT	SEGMENT PARA USE32 PUBLIC 'CODE'
_TEXT	ENDS
;	COMDAT ??1?$basic_string@DU?$char_traits@D@std@@V?$allocator@D@2@@std@@QAE@XZ
_TEXT	SEGMENT PARA USE32 PUBLIC 'CODE'
_TEXT	ENDS
;	COMDAT ??0?$basic_string@DU?$char_traits@D@std@@V?$allocator@D@2@@std@@QAE@ABV01@@Z
_TEXT	SEGMENT PARA USE32 PUBLIC 'CODE'
_TEXT	ENDS
;	COMDAT ?c_str@?$basic_string@DU?$char_traits@D@std@@V?$allocator@D@2@@std@@QBEPBDXZ
_TEXT	SEGMENT PARA USE32 PUBLIC 'CODE'
_TEXT	ENDS
;	COMDAT ?endl@std@@YAAAV?$basic_ostream@GU?$char_traits@G@std@@@1@AAV21@@Z
_TEXT	SEGMENT PARA USE32 PUBLIC 'CODE'
_TEXT	ENDS
;	COMDAT ?put@?$basic_ostream@GU?$char_traits@G@std@@@std@@QAEAAV12@G@Z
_TEXT	SEGMENT PARA USE32 PUBLIC 'CODE'
_TEXT	ENDS
;	COMDAT ??1locale@std@@QAE@XZ
_TEXT	SEGMENT PARA USE32 PUBLIC 'CODE'
_TEXT	ENDS
;	COMDAT ?_Decref@facet@locale@std@@QAEPAV123@XZ
_TEXT	SEGMENT PARA USE32 PUBLIC 'CODE'
_TEXT	ENDS
;	COMDAT __CTA1H
xdata$x	SEGMENT DWORD USE32 PUBLIC 'CONST'
xdata$x	ENDS
;	COMDAT __CT??_R0H@84
xdata$x	SEGMENT DWORD USE32 PUBLIC 'CONST'
xdata$x	ENDS
;	COMDAT ??_R0H@8
_DATA	SEGMENT DWORD USE32 PUBLIC 'DATA'
_DATA	ENDS
;	COMDAT __TI1H
xdata$x	SEGMENT DWORD USE32 PUBLIC 'CONST'
xdata$x	ENDS
sxdata	SEGMENT DWORD USE32 'SXDATA'
sxdata	ENDS
FLAT	GROUP _DATA, CONST, _BSS, CRT$XCU, CRT$XCU, CRT$XCU, CRT$XCU, CRT$XCU
	ASSUME	CS: FLAT, DS: FLAT, SS: FLAT
endif

INCLUDELIB LIBCMT
INCLUDELIB OLDNAMES

PUBLIC	??_C@_00CNPNBAHC@?$AA@				; `string'
PUBLIC	??_C@_1NK@KENGHJLD@?$AAM?$AAM?$AAL?$AA?5?$AAC?$AAo?$AAm?$AAp?$AAi?$AAl?$AAe?$AAr?$AA?5?$AAf?$AAo?$AAr?$AA?5?$AAN?$AAE?$AAS@ ; `string'
PUBLIC	??_C@_1HK@PLEACAAO@?$AA?9?$AA?9?$AA?9?$AA?9?$AA?9?$AA?9?$AA?9?$AA?9?$AA?9?$AA?9?$AA?9?$AA?9?$AA?9?$AA?9?$AA?9?$AA?9?$AA?9?$AA?9?$AA?9?$AA?9@ ; `string'
PUBLIC	??_C@_1DC@NFNOFJGE@?$AA?$CK?$AAO?$AAb?$AAj?$AAe?$AAc?$AAt?$AA?5?$AAc?$AAr?$AAe?$AAa?$AAt?$AAi?$AAn?$AAg?$AA?5?$AAp?$AAr?$AAo@ ; `string'
PUBLIC	??_C@_1CI@BGPJBPBK@?$AA?$DN?$AA?$DN?$AA?$DN?$AA?$DN?$AA?5?$AA?$FL?$AA?5?$AAM?$AAu?$AAs?$AAi?$AAc?$AA?5?$AA?$FN?$AA?5?$AA?$DN?$AA?$DN?$AA?$DN?$AA?$DN?$AA?$AA@ ; `string'
PUBLIC	??_C@_1EE@BGEBAFOM@?$AA?$CK?$AAO?$AAp?$AAt?$AAi?$AAm?$AAi?$AAz?$AAe?$AA?5?$AA?$CG?$AA?5?$AAT?$AAi?$AAc?$AAk?$AA?5?$AAc?$AAo?$AAu@ ; `string'
PUBLIC	??_C@_1DI@JGLJCCJP@?$AA?$CK?$AAA?$AAd?$AAd?$AAr?$AAe?$AAs?$AAs?$AA?5?$AAs?$AAe?$AAt?$AAt?$AAl?$AAe?$AAm?$AAe?$AAn?$AAt?$AA?5@ ; `string'
PUBLIC	??_C@_07FBHPMLEN@?5?$FLByte?$FN?$AA@		; `string'
PUBLIC	??_C@_0BA@DKKDKJML@?5?5Music?5Size?5?$DN?5?$AA@	; `string'
PUBLIC	??_C@_0BA@IEMDIJBO@?5?5DPCM?5Size?5?5?$DN?5?$AA@ ; `string'
PUBLIC	??_C@_1BA@BJOMPAID@?$AAE?$AAr?$AAr?$AAo?$AAr?$AA?$CB?$AA?3?$AA?$AA@ ; `string'
PUBLIC	??_C@_02EAOCLKAK@ld?$AA@			; `string'
PUBLIC	??_C@_02BDDLJJBK@lu?$AA@			; `string'
PUBLIC	??_C@_02HIKPPMOK@Ld?$AA@			; `string'
PUBLIC	??_C@_02CLHGNPPK@Lu?$AA@			; `string'
PUBLIC	??_C@_02BBAHNLBA@?$CFp?$AA@			; `string'
PUBLIC	??_C@_01DDCIFGEA@E?$AA@				; `string'
PUBLIC	??_C@_01KGKMHCOC@e?$AA@				; `string'
PUBLIC	??_GMMLfile@@QAEPAXI@Z				; MMLfile::`scalar deleting destructor'
PUBLIC	??_GOPSW@@QAEPAXI@Z				; OPSW::`scalar deleting destructor'
PUBLIC	??6?$basic_ostream@GU?$char_traits@G@std@@@std@@QAEAAV01@P6AAAV01@AAV01@@Z@Z ; std::basic_ostream<unsigned short,std::char_traits<unsigned short> >::operator<<
PUBLIC	??6?$basic_ostream@GU?$char_traits@G@std@@@std@@QAEAAV01@H@Z ; std::basic_ostream<unsigned short,std::char_traits<unsigned short> >::operator<<
PUBLIC	??6?$basic_ostream@DU?$char_traits@D@std@@@std@@QAEAAV01@P6AAAV01@AAV01@@Z@Z ; std::basic_ostream<char,std::char_traits<char> >::operator<<
PUBLIC	??6?$basic_ostream@DU?$char_traits@D@std@@@std@@QAEAAV01@I@Z ; std::basic_ostream<char,std::char_traits<char> >::operator<<
PUBLIC	?fill@?$basic_ios@DU?$char_traits@D@std@@@std@@QBEDXZ ; std::basic_ios<char,std::char_traits<char> >::fill
PUBLIC	??1?$num_put@GV?$ostreambuf_iterator@GU?$char_traits@G@std@@@std@@@std@@MAE@XZ ; std::num_put<unsigned short,std::ostreambuf_iterator<unsigned short,std::char_traits<unsigned short> > >::~num_put<unsigned short,std::ostreambuf_iterator<unsigned short,std::char_traits<unsigned short> > >
PUBLIC	?put@?$num_put@GV?$ostreambuf_iterator@GU?$char_traits@G@std@@@std@@@std@@QBE?AV?$ostreambuf_iterator@GU?$char_traits@G@std@@@2@V32@AAVios_base@2@GJ@Z ; std::num_put<unsigned short,std::ostreambuf_iterator<unsigned short,std::char_traits<unsigned short> > >::put
PUBLIC	?do_put@?$num_put@GV?$ostreambuf_iterator@GU?$char_traits@G@std@@@std@@@std@@MBE?AV?$ostreambuf_iterator@GU?$char_traits@G@std@@@2@V32@AAVios_base@2@G_N@Z ; std::num_put<unsigned short,std::ostreambuf_iterator<unsigned short,std::char_traits<unsigned short> > >::do_put
PUBLIC	?do_put@?$num_put@GV?$ostreambuf_iterator@GU?$char_traits@G@std@@@std@@@std@@MBE?AV?$ostreambuf_iterator@GU?$char_traits@G@std@@@2@V32@AAVios_base@2@GJ@Z ; std::num_put<unsigned short,std::ostreambuf_iterator<unsigned short,std::char_traits<unsigned short> > >::do_put
PUBLIC	?do_put@?$num_put@GV?$ostreambuf_iterator@GU?$char_traits@G@std@@@std@@@std@@MBE?AV?$ostreambuf_iterator@GU?$char_traits@G@std@@@2@V32@AAVios_base@2@GK@Z ; std::num_put<unsigned short,std::ostreambuf_iterator<unsigned short,std::char_traits<unsigned short> > >::do_put
PUBLIC	?do_put@?$num_put@GV?$ostreambuf_iterator@GU?$char_traits@G@std@@@std@@@std@@MBE?AV?$ostreambuf_iterator@GU?$char_traits@G@std@@@2@V32@AAVios_base@2@G_J@Z ; std::num_put<unsigned short,std::ostreambuf_iterator<unsigned short,std::char_traits<unsigned short> > >::do_put
PUBLIC	?do_put@?$num_put@GV?$ostreambuf_iterator@GU?$char_traits@G@std@@@std@@@std@@MBE?AV?$ostreambuf_iterator@GU?$char_traits@G@std@@@2@V32@AAVios_base@2@G_K@Z ; std::num_put<unsigned short,std::ostreambuf_iterator<unsigned short,std::char_traits<unsigned short> > >::do_put
PUBLIC	?do_put@?$num_put@GV?$ostreambuf_iterator@GU?$char_traits@G@std@@@std@@@std@@MBE?AV?$ostreambuf_iterator@GU?$char_traits@G@std@@@2@V32@AAVios_base@2@GN@Z ; std::num_put<unsigned short,std::ostreambuf_iterator<unsigned short,std::char_traits<unsigned short> > >::do_put
PUBLIC	?do_put@?$num_put@GV?$ostreambuf_iterator@GU?$char_traits@G@std@@@std@@@std@@MBE?AV?$ostreambuf_iterator@GU?$char_traits@G@std@@@2@V32@AAVios_base@2@GO@Z ; std::num_put<unsigned short,std::ostreambuf_iterator<unsigned short,std::char_traits<unsigned short> > >::do_put
PUBLIC	?do_put@?$num_put@GV?$ostreambuf_iterator@GU?$char_traits@G@std@@@std@@@std@@MBE?AV?$ostreambuf_iterator@GU?$char_traits@G@std@@@2@V32@AAVios_base@2@GPBX@Z ; std::num_put<unsigned short,std::ostreambuf_iterator<unsigned short,std::char_traits<unsigned short> > >::do_put
PUBLIC	??0?$ostreambuf_iterator@GU?$char_traits@G@std@@@std@@QAE@PAV?$basic_streambuf@GU?$char_traits@G@std@@@1@@Z ; std::ostreambuf_iterator<unsigned short,std::char_traits<unsigned short> >::ostreambuf_iterator<unsigned short,std::char_traits<unsigned short> >
PUBLIC	?failed@?$ostreambuf_iterator@GU?$char_traits@G@std@@@std@@QBE_NXZ ; std::ostreambuf_iterator<unsigned short,std::char_traits<unsigned short> >::failed
PUBLIC	??1?$num_put@DV?$ostreambuf_iterator@DU?$char_traits@D@std@@@std@@@std@@MAE@XZ ; std::num_put<char,std::ostreambuf_iterator<char,std::char_traits<char> > >::~num_put<char,std::ostreambuf_iterator<char,std::char_traits<char> > >
PUBLIC	?put@?$num_put@DV?$ostreambuf_iterator@DU?$char_traits@D@std@@@std@@@std@@QBE?AV?$ostreambuf_iterator@DU?$char_traits@D@std@@@2@V32@AAVios_base@2@DK@Z ; std::num_put<char,std::ostreambuf_iterator<char,std::char_traits<char> > >::put
PUBLIC	?do_put@?$num_put@DV?$ostreambuf_iterator@DU?$char_traits@D@std@@@std@@@std@@MBE?AV?$ostreambuf_iterator@DU?$char_traits@D@std@@@2@V32@AAVios_base@2@D_N@Z ; std::num_put<char,std::ostreambuf_iterator<char,std::char_traits<char> > >::do_put
PUBLIC	?do_put@?$num_put@DV?$ostreambuf_iterator@DU?$char_traits@D@std@@@std@@@std@@MBE?AV?$ostreambuf_iterator@DU?$char_traits@D@std@@@2@V32@AAVios_base@2@DJ@Z ; std::num_put<char,std::ostreambuf_iterator<char,std::char_traits<char> > >::do_put
PUBLIC	?do_put@?$num_put@DV?$ostreambuf_iterator@DU?$char_traits@D@std@@@std@@@std@@MBE?AV?$ostreambuf_iterator@DU?$char_traits@D@std@@@2@V32@AAVios_base@2@DK@Z ; std::num_put<char,std::ostreambuf_iterator<char,std::char_traits<char> > >::do_put
PUBLIC	?do_put@?$num_put@DV?$ostreambuf_iterator@DU?$char_traits@D@std@@@std@@@std@@MBE?AV?$ostreambuf_iterator@DU?$char_traits@D@std@@@2@V32@AAVios_base@2@D_J@Z ; std::num_put<char,std::ostreambuf_iterator<char,std::char_traits<char> > >::do_put
PUBLIC	?do_put@?$num_put@DV?$ostreambuf_iterator@DU?$char_traits@D@std@@@std@@@std@@MBE?AV?$ostreambuf_iterator@DU?$char_traits@D@std@@@2@V32@AAVios_base@2@D_K@Z ; std::num_put<char,std::ostreambuf_iterator<char,std::char_traits<char> > >::do_put
PUBLIC	?do_put@?$num_put@DV?$ostreambuf_iterator@DU?$char_traits@D@std@@@std@@@std@@MBE?AV?$ostreambuf_iterator@DU?$char_traits@D@std@@@2@V32@AAVios_base@2@DN@Z ; std::num_put<char,std::ostreambuf_iterator<char,std::char_traits<char> > >::do_put
PUBLIC	?do_put@?$num_put@DV?$ostreambuf_iterator@DU?$char_traits@D@std@@@std@@@std@@MBE?AV?$ostreambuf_iterator@DU?$char_traits@D@std@@@2@V32@AAVios_base@2@DO@Z ; std::num_put<char,std::ostreambuf_iterator<char,std::char_traits<char> > >::do_put
PUBLIC	?do_put@?$num_put@DV?$ostreambuf_iterator@DU?$char_traits@D@std@@@std@@@std@@MBE?AV?$ostreambuf_iterator@DU?$char_traits@D@std@@@2@V32@AAVios_base@2@DPBX@Z ; std::num_put<char,std::ostreambuf_iterator<char,std::char_traits<char> > >::do_put
PUBLIC	??0?$ostreambuf_iterator@DU?$char_traits@D@std@@@std@@QAE@PAV?$basic_streambuf@DU?$char_traits@D@std@@@1@@Z ; std::ostreambuf_iterator<char,std::char_traits<char> >::ostreambuf_iterator<char,std::char_traits<char> >
PUBLIC	?failed@?$ostreambuf_iterator@DU?$char_traits@D@std@@@std@@QBE_NXZ ; std::ostreambuf_iterator<char,std::char_traits<char> >::failed
PUBLIC	??_G?$num_put@GV?$ostreambuf_iterator@GU?$char_traits@G@std@@@std@@@std@@MAEPAXI@Z ; std::num_put<unsigned short,std::ostreambuf_iterator<unsigned short,std::char_traits<unsigned short> > >::`scalar deleting destructor'
PUBLIC	??_G?$num_put@DV?$ostreambuf_iterator@DU?$char_traits@D@std@@@std@@@std@@MAEPAXI@Z ; std::num_put<char,std::ostreambuf_iterator<char,std::char_traits<char> > >::`scalar deleting destructor'
PUBLIC	?assign@?$basic_string@DU?$char_traits@D@std@@V?$allocator@D@2@@std@@QAEAAV12@ABV12@@Z ; std::basic_string<char,std::char_traits<char>,std::allocator<char> >::assign
PUBLIC	?_Ffmt@?$num_put@GV?$ostreambuf_iterator@GU?$char_traits@G@std@@@std@@@std@@ABAPADPADDH@Z ; std::num_put<unsigned short,std::ostreambuf_iterator<unsigned short,std::char_traits<unsigned short> > >::_Ffmt
PUBLIC	?_Fput@?$num_put@GV?$ostreambuf_iterator@GU?$char_traits@G@std@@@std@@@std@@ABA?AV?$ostreambuf_iterator@GU?$char_traits@G@std@@@2@V32@AAVios_base@2@GPBDIIII@Z ; std::num_put<unsigned short,std::ostreambuf_iterator<unsigned short,std::char_traits<unsigned short> > >::_Fput
PUBLIC	?_Ifmt@?$num_put@GV?$ostreambuf_iterator@GU?$char_traits@G@std@@@std@@@std@@ABAPADPADPBDH@Z ; std::num_put<unsigned short,std::ostreambuf_iterator<unsigned short,std::char_traits<unsigned short> > >::_Ifmt
PUBLIC	?_Iput@?$num_put@GV?$ostreambuf_iterator@GU?$char_traits@G@std@@@std@@@std@@ABA?AV?$ostreambuf_iterator@GU?$char_traits@G@std@@@2@V32@AAVios_base@2@GPADI@Z ; std::num_put<unsigned short,std::ostreambuf_iterator<unsigned short,std::char_traits<unsigned short> > >::_Iput
PUBLIC	?_Put@?$num_put@GV?$ostreambuf_iterator@GU?$char_traits@G@std@@@std@@@std@@ABA?AV?$ostreambuf_iterator@GU?$char_traits@G@std@@@2@V32@PBGI@Z ; std::num_put<unsigned short,std::ostreambuf_iterator<unsigned short,std::char_traits<unsigned short> > >::_Put
PUBLIC	?_Rep@?$num_put@GV?$ostreambuf_iterator@GU?$char_traits@G@std@@@std@@@std@@ABA?AV?$ostreambuf_iterator@GU?$char_traits@G@std@@@2@V32@GI@Z ; std::num_put<unsigned short,std::ostreambuf_iterator<unsigned short,std::char_traits<unsigned short> > >::_Rep
PUBLIC	?_Ffmt@?$num_put@DV?$ostreambuf_iterator@DU?$char_traits@D@std@@@std@@@std@@ABAPADPADDH@Z ; std::num_put<char,std::ostreambuf_iterator<char,std::char_traits<char> > >::_Ffmt
PUBLIC	?_Fput@?$num_put@DV?$ostreambuf_iterator@DU?$char_traits@D@std@@@std@@@std@@ABA?AV?$ostreambuf_iterator@DU?$char_traits@D@std@@@2@V32@AAVios_base@2@DPBDIIII@Z ; std::num_put<char,std::ostreambuf_iterator<char,std::char_traits<char> > >::_Fput
PUBLIC	?_Ifmt@?$num_put@DV?$ostreambuf_iterator@DU?$char_traits@D@std@@@std@@@std@@ABAPADPADPBDH@Z ; std::num_put<char,std::ostreambuf_iterator<char,std::char_traits<char> > >::_Ifmt
PUBLIC	?_Iput@?$num_put@DV?$ostreambuf_iterator@DU?$char_traits@D@std@@@std@@@std@@ABA?AV?$ostreambuf_iterator@DU?$char_traits@D@std@@@2@V32@AAVios_base@2@DPADI@Z ; std::num_put<char,std::ostreambuf_iterator<char,std::char_traits<char> > >::_Iput
PUBLIC	?_Put@?$num_put@DV?$ostreambuf_iterator@DU?$char_traits@D@std@@@std@@@std@@ABA?AV?$ostreambuf_iterator@DU?$char_traits@D@std@@@2@V32@PBDI@Z ; std::num_put<char,std::ostreambuf_iterator<char,std::char_traits<char> > >::_Put
PUBLIC	?_Rep@?$num_put@DV?$ostreambuf_iterator@DU?$char_traits@D@std@@@std@@@std@@ABA?AV?$ostreambuf_iterator@DU?$char_traits@D@std@@@2@V32@DI@Z ; std::num_put<char,std::ostreambuf_iterator<char,std::char_traits<char> > >::_Rep
PUBLIC	??0?$basic_string@GU?$char_traits@G@std@@V?$allocator@G@2@@std@@QAE@XZ ; std::basic_string<unsigned short,std::char_traits<unsigned short>,std::allocator<unsigned short> >::basic_string<unsigned short,std::char_traits<unsigned short>,std::allocator<unsigned short> >
PUBLIC	??1?$basic_string@GU?$char_traits@G@std@@V?$allocator@G@2@@std@@QAE@XZ ; std::basic_string<unsigned short,std::char_traits<unsigned short>,std::allocator<unsigned short> >::~basic_string<unsigned short,std::char_traits<unsigned short>,std::allocator<unsigned short> >
PUBLIC	?assign@?$basic_string@GU?$char_traits@G@std@@V?$allocator@G@2@@std@@QAEAAV12@ABV12@@Z ; std::basic_string<unsigned short,std::char_traits<unsigned short>,std::allocator<unsigned short> >::assign
PUBLIC	?c_str@?$basic_string@GU?$char_traits@G@std@@V?$allocator@G@2@@std@@QBEPBGXZ ; std::basic_string<unsigned short,std::char_traits<unsigned short>,std::allocator<unsigned short> >::c_str
PUBLIC	?size@?$basic_string@GU?$char_traits@G@std@@V?$allocator@G@2@@std@@QBEIXZ ; std::basic_string<unsigned short,std::char_traits<unsigned short>,std::allocator<unsigned short> >::size
PUBLIC	?falsename@?$numpunct@G@std@@QBE?AV?$basic_string@GU?$char_traits@G@std@@V?$allocator@G@2@@2@XZ ; std::numpunct<unsigned short>::falsename
PUBLIC	?truename@?$numpunct@G@std@@QBE?AV?$basic_string@GU?$char_traits@G@std@@V?$allocator@G@2@@2@XZ ; std::numpunct<unsigned short>::truename
PUBLIC	??1?$numpunct@G@std@@MAE@XZ			; std::numpunct<unsigned short>::~numpunct<unsigned short>
PUBLIC	?do_decimal_point@?$numpunct@G@std@@MBEGXZ	; std::numpunct<unsigned short>::do_decimal_point
PUBLIC	?do_thousands_sep@?$numpunct@G@std@@MBEGXZ	; std::numpunct<unsigned short>::do_thousands_sep
PUBLIC	?do_grouping@?$numpunct@G@std@@MBE?AV?$basic_string@DU?$char_traits@D@std@@V?$allocator@D@2@@2@XZ ; std::numpunct<unsigned short>::do_grouping
PUBLIC	?do_falsename@?$numpunct@G@std@@MBE?AV?$basic_string@GU?$char_traits@G@std@@V?$allocator@G@2@@2@XZ ; std::numpunct<unsigned short>::do_falsename
PUBLIC	?do_truename@?$numpunct@G@std@@MBE?AV?$basic_string@GU?$char_traits@G@std@@V?$allocator@G@2@@2@XZ ; std::numpunct<unsigned short>::do_truename
PUBLIC	?falsename@?$numpunct@D@std@@QBE?AV?$basic_string@DU?$char_traits@D@std@@V?$allocator@D@2@@2@XZ ; std::numpunct<char>::falsename
PUBLIC	?truename@?$numpunct@D@std@@QBE?AV?$basic_string@DU?$char_traits@D@std@@V?$allocator@D@2@@2@XZ ; std::numpunct<char>::truename
PUBLIC	??1?$numpunct@D@std@@MAE@XZ			; std::numpunct<char>::~numpunct<char>
PUBLIC	?do_decimal_point@?$numpunct@D@std@@MBEDXZ	; std::numpunct<char>::do_decimal_point
PUBLIC	?do_thousands_sep@?$numpunct@D@std@@MBEDXZ	; std::numpunct<char>::do_thousands_sep
PUBLIC	?do_grouping@?$numpunct@D@std@@MBE?AV?$basic_string@DU?$char_traits@D@std@@V?$allocator@D@2@@2@XZ ; std::numpunct<char>::do_grouping
PUBLIC	?do_falsename@?$numpunct@D@std@@MBE?AV?$basic_string@DU?$char_traits@D@std@@V?$allocator@D@2@@2@XZ ; std::numpunct<char>::do_falsename
PUBLIC	?do_truename@?$numpunct@D@std@@MBE?AV?$basic_string@DU?$char_traits@D@std@@V?$allocator@D@2@@2@XZ ; std::numpunct<char>::do_truename
PUBLIC	??_G?$numpunct@G@std@@MAEPAXI@Z			; std::numpunct<unsigned short>::`scalar deleting destructor'
PUBLIC	??_G?$numpunct@D@std@@MAEPAXI@Z			; std::numpunct<char>::`scalar deleting destructor'
PUBLIC	??0?$basic_string@DU?$char_traits@D@std@@V?$allocator@D@2@@std@@QAE@PBD@Z ; std::basic_string<char,std::char_traits<char>,std::allocator<char> >::basic_string<char,std::char_traits<char>,std::allocator<char> >
PUBLIC	?append@?$basic_string@DU?$char_traits@D@std@@V?$allocator@D@2@@std@@QAEAAV12@PBDI@Z ; std::basic_string<char,std::char_traits<char>,std::allocator<char> >::append
PUBLIC	?insert@?$basic_string@DU?$char_traits@D@std@@V?$allocator@D@2@@std@@QAEAAV12@IID@Z ; std::basic_string<char,std::char_traits<char>,std::allocator<char> >::insert
PUBLIC	?_Putc@?$num_put@GV?$ostreambuf_iterator@GU?$char_traits@G@std@@@std@@@std@@ABA?AV?$ostreambuf_iterator@GU?$char_traits@G@std@@@2@V32@PBDI@Z ; std::num_put<unsigned short,std::ostreambuf_iterator<unsigned short,std::char_traits<unsigned short> > >::_Putc
PUBLIC	?_Putgrouped@?$num_put@GV?$ostreambuf_iterator@GU?$char_traits@G@std@@@std@@@std@@ABA?AV?$ostreambuf_iterator@GU?$char_traits@G@std@@@2@V32@PBDIG@Z ; std::num_put<unsigned short,std::ostreambuf_iterator<unsigned short,std::char_traits<unsigned short> > >::_Putgrouped
PUBLIC	??4?$ostreambuf_iterator@GU?$char_traits@G@std@@@std@@QAEAAV01@G@Z ; std::ostreambuf_iterator<unsigned short,std::char_traits<unsigned short> >::operator=
PUBLIC	??D?$ostreambuf_iterator@GU?$char_traits@G@std@@@std@@QAEAAV01@XZ ; std::ostreambuf_iterator<unsigned short,std::char_traits<unsigned short> >::operator*
PUBLIC	??E?$ostreambuf_iterator@GU?$char_traits@G@std@@@std@@QAEAAV01@XZ ; std::ostreambuf_iterator<unsigned short,std::char_traits<unsigned short> >::operator++
PUBLIC	?_Putc@?$num_put@DV?$ostreambuf_iterator@DU?$char_traits@D@std@@@std@@@std@@ABA?AV?$ostreambuf_iterator@DU?$char_traits@D@std@@@2@V32@PBDI@Z ; std::num_put<char,std::ostreambuf_iterator<char,std::char_traits<char> > >::_Putc
PUBLIC	?_Putgrouped@?$num_put@DV?$ostreambuf_iterator@DU?$char_traits@D@std@@@std@@@std@@ABA?AV?$ostreambuf_iterator@DU?$char_traits@D@std@@@2@V32@PBDID@Z ; std::num_put<char,std::ostreambuf_iterator<char,std::char_traits<char> > >::_Putgrouped
PUBLIC	??4?$ostreambuf_iterator@DU?$char_traits@D@std@@@std@@QAEAAV01@D@Z ; std::ostreambuf_iterator<char,std::char_traits<char> >::operator=
PUBLIC	??D?$ostreambuf_iterator@DU?$char_traits@D@std@@@std@@QAEAAV01@XZ ; std::ostreambuf_iterator<char,std::char_traits<char> >::operator*
PUBLIC	??E?$ostreambuf_iterator@DU?$char_traits@D@std@@@std@@QAEAAV01@XZ ; std::ostreambuf_iterator<char,std::char_traits<char> >::operator++
PUBLIC	??0?$basic_string@GU?$char_traits@G@std@@V?$allocator@G@2@@std@@QAE@PBG@Z ; std::basic_string<unsigned short,std::char_traits<unsigned short>,std::allocator<unsigned short> >::basic_string<unsigned short,std::char_traits<unsigned short>,std::allocator<unsigned short> >
PUBLIC	?assign@?$basic_string@GU?$char_traits@G@std@@V?$allocator@G@2@@std@@QAEAAV12@ABV12@II@Z ; std::basic_string<unsigned short,std::char_traits<unsigned short>,std::allocator<unsigned short> >::assign
PUBLIC	?_Tidy@?$basic_string@GU?$char_traits@G@std@@V?$allocator@G@2@@std@@IAEX_NI@Z ; std::basic_string<unsigned short,std::char_traits<unsigned short>,std::allocator<unsigned short> >::_Tidy
PUBLIC	?_Myptr@?$basic_string@GU?$char_traits@G@std@@V?$allocator@G@2@@std@@QBEPBGXZ ; std::basic_string<unsigned short,std::char_traits<unsigned short>,std::allocator<unsigned short> >::_Myptr
PUBLIC	??0?$_String_val@GV?$allocator@G@std@@@std@@IAE@V?$allocator@G@1@@Z ; std::_String_val<unsigned short,std::allocator<unsigned short> >::_String_val<unsigned short,std::allocator<unsigned short> >
PUBLIC	??0?$allocator@G@std@@QAE@XZ			; std::allocator<unsigned short>::allocator<unsigned short>
PUBLIC	?decimal_point@?$numpunct@G@std@@QBEGXZ		; std::numpunct<unsigned short>::decimal_point
PUBLIC	?thousands_sep@?$numpunct@G@std@@QBEGXZ		; std::numpunct<unsigned short>::thousands_sep
PUBLIC	?grouping@?$numpunct@G@std@@QBE?AV?$basic_string@DU?$char_traits@D@std@@V?$allocator@D@2@@2@XZ ; std::numpunct<unsigned short>::grouping
PUBLIC	?_Tidy@?$numpunct@G@std@@AAEXXZ			; std::numpunct<unsigned short>::_Tidy
PUBLIC	?decimal_point@?$numpunct@D@std@@QBEDXZ		; std::numpunct<char>::decimal_point
PUBLIC	?thousands_sep@?$numpunct@D@std@@QBEDXZ		; std::numpunct<char>::thousands_sep
PUBLIC	?grouping@?$numpunct@D@std@@QBE?AV?$basic_string@DU?$char_traits@D@std@@V?$allocator@D@2@@2@XZ ; std::numpunct<char>::grouping
PUBLIC	?_Tidy@?$numpunct@D@std@@AAEXXZ			; std::numpunct<char>::_Tidy
PUBLIC	?append@?$basic_string@DU?$char_traits@D@std@@V?$allocator@D@2@@std@@QAEAAV12@ABV12@II@Z ; std::basic_string<char,std::char_traits<char>,std::allocator<char> >::append
PUBLIC	?assign@?$basic_string@GU?$char_traits@G@std@@V?$allocator@G@2@@std@@QAEAAV12@PBG@Z ; std::basic_string<unsigned short,std::char_traits<unsigned short>,std::allocator<unsigned short> >::assign
PUBLIC	?erase@?$basic_string@GU?$char_traits@G@std@@V?$allocator@G@2@@std@@QAEAAV12@II@Z ; std::basic_string<unsigned short,std::char_traits<unsigned short>,std::allocator<unsigned short> >::erase
PUBLIC	?_Eos@?$basic_string@GU?$char_traits@G@std@@V?$allocator@G@2@@std@@IAEXI@Z ; std::basic_string<unsigned short,std::char_traits<unsigned short>,std::allocator<unsigned short> >::_Eos
PUBLIC	?_Grow@?$basic_string@GU?$char_traits@G@std@@V?$allocator@G@2@@std@@IAE_NI_N@Z ; std::basic_string<unsigned short,std::char_traits<unsigned short>,std::allocator<unsigned short> >::_Grow
PUBLIC	?_Myptr@?$basic_string@GU?$char_traits@G@std@@V?$allocator@G@2@@std@@QAEPAGXZ ; std::basic_string<unsigned short,std::char_traits<unsigned short>,std::allocator<unsigned short> >::_Myptr
PUBLIC	??0?$allocator@G@std@@QAE@ABV01@@Z		; std::allocator<unsigned short>::allocator<unsigned short>
PUBLIC	?deallocate@?$allocator@G@std@@QAEXPAGI@Z	; std::allocator<unsigned short>::deallocate
PUBLIC	?assign@?$basic_string@GU?$char_traits@G@std@@V?$allocator@G@2@@std@@QAEAAV12@PBGI@Z ; std::basic_string<unsigned short,std::char_traits<unsigned short>,std::allocator<unsigned short> >::assign
PUBLIC	?max_size@?$basic_string@GU?$char_traits@G@std@@V?$allocator@G@2@@std@@QBEIXZ ; std::basic_string<unsigned short,std::char_traits<unsigned short>,std::allocator<unsigned short> >::max_size
PUBLIC	?_Copy@?$basic_string@GU?$char_traits@G@std@@V?$allocator@G@2@@std@@IAEXII@Z ; std::basic_string<unsigned short,std::char_traits<unsigned short>,std::allocator<unsigned short> >::_Copy
PUBLIC	?_Inside@?$basic_string@GU?$char_traits@G@std@@V?$allocator@G@2@@std@@IAE_NPBG@Z ; std::basic_string<unsigned short,std::char_traits<unsigned short>,std::allocator<unsigned short> >::_Inside
PUBLIC	?allocate@?$allocator@G@std@@QAEPAGI@Z		; std::allocator<unsigned short>::allocate
PUBLIC	?max_size@?$allocator@G@std@@QBEIXZ		; std::allocator<unsigned short>::max_size
PUBLIC	??$?6GU?$char_traits@G@std@@@std@@YAAAV?$basic_ostream@GU?$char_traits@G@std@@@0@AAV10@PBG@Z ; std::operator<<<unsigned short,std::char_traits<unsigned short> >
PUBLIC	??$?6U?$char_traits@D@std@@@std@@YAAAV?$basic_ostream@DU?$char_traits@D@std@@@0@AAV10@PBD@Z ; std::operator<<<std::char_traits<char> >
PUBLIC	??$setfill@D@std@@YA?AU?$_Fillobj@D@0@D@Z	; std::setfill<char>
PUBLIC	??$?6DU?$char_traits@D@std@@@std@@YAAAV?$basic_ostream@DU?$char_traits@D@std@@@0@AAV10@ABU?$_Fillobj@D@0@@Z ; std::operator<<<char,std::char_traits<char> >
PUBLIC	??$?6DU?$char_traits@D@std@@H@std@@YAAAV?$basic_ostream@DU?$char_traits@D@std@@@0@AAV10@ABU?$_Smanip@H@0@@Z ; std::operator<<<char,std::char_traits<char>,int>
PUBLIC	??$use_facet@V?$num_put@GV?$ostreambuf_iterator@GU?$char_traits@G@std@@@std@@@std@@@std@@YAABV?$num_put@GV?$ostreambuf_iterator@GU?$char_traits@G@std@@@std@@@0@ABVlocale@0@@Z ; std::use_facet<std::num_put<unsigned short,std::ostreambuf_iterator<unsigned short,std::char_traits<unsigned short> > > >
PUBLIC	??$use_facet@V?$num_put@DV?$ostreambuf_iterator@DU?$char_traits@D@std@@@std@@@std@@@std@@YAABV?$num_put@DV?$ostreambuf_iterator@DU?$char_traits@D@std@@@std@@@0@ABVlocale@0@@Z ; std::use_facet<std::num_put<char,std::ostreambuf_iterator<char,std::char_traits<char> > > >
PUBLIC	??$use_facet@V?$numpunct@G@std@@@std@@YAABV?$numpunct@G@0@ABVlocale@0@@Z ; std::use_facet<std::numpunct<unsigned short> >
PUBLIC	??$use_facet@V?$numpunct@D@std@@@std@@YAABV?$numpunct@D@0@ABVlocale@0@@Z ; std::use_facet<std::numpunct<char> >
PUBLIC	??$_Maklocchr@D@std@@YADDPADABU_Cvtvec@@@Z	; std::_Maklocchr<char>
PUBLIC	??$_Allocate@G@std@@YAPAGIPAG@Z			; std::_Allocate<unsigned short>
PUBLIC	?sputn@?$basic_streambuf@GU?$char_traits@G@std@@@std@@QAEHPBGH@Z ; std::basic_streambuf<unsigned short,std::char_traits<unsigned short> >::sputn
PUBLIC	?fill@?$basic_ios@DU?$char_traits@D@std@@@std@@QAEDD@Z ; std::basic_ios<char,std::char_traits<char> >::fill
PUBLIC	?sputn@?$basic_streambuf@DU?$char_traits@D@std@@@std@@QAEHPBDH@Z ; std::basic_streambuf<char,std::char_traits<char> >::sputn
PUBLIC	??0?$_Fillobj@D@std@@QAE@D@Z			; std::_Fillobj<char>::_Fillobj<char>
PUBLIC	?_Getcat@?$num_put@GV?$ostreambuf_iterator@GU?$char_traits@G@std@@@std@@@std@@SAIPAPBVfacet@locale@2@@Z ; std::num_put<unsigned short,std::ostreambuf_iterator<unsigned short,std::char_traits<unsigned short> > >::_Getcat
PUBLIC	?_Getcat@?$num_put@DV?$ostreambuf_iterator@DU?$char_traits@D@std@@@std@@@std@@SAIPAPBVfacet@locale@2@@Z ; std::num_put<char,std::ostreambuf_iterator<char,std::char_traits<char> > >::_Getcat
PUBLIC	?_Getcat@?$numpunct@G@std@@SAIPAPBVfacet@locale@2@@Z ; std::numpunct<unsigned short>::_Getcat
PUBLIC	?_Getcat@?$numpunct@D@std@@SAIPAPBVfacet@locale@2@@Z ; std::numpunct<char>::_Getcat
PUBLIC	??0?$num_put@GV?$ostreambuf_iterator@GU?$char_traits@G@std@@@std@@@std@@QAE@I@Z ; std::num_put<unsigned short,std::ostreambuf_iterator<unsigned short,std::char_traits<unsigned short> > >::num_put<unsigned short,std::ostreambuf_iterator<unsigned short,std::char_traits<unsigned short> > >
PUBLIC	??0?$num_put@DV?$ostreambuf_iterator@DU?$char_traits@D@std@@@std@@@std@@QAE@I@Z ; std::num_put<char,std::ostreambuf_iterator<char,std::char_traits<char> > >::num_put<char,std::ostreambuf_iterator<char,std::char_traits<char> > >
PUBLIC	??0?$numpunct@G@std@@QAE@I@Z			; std::numpunct<unsigned short>::numpunct<unsigned short>
PUBLIC	??0?$numpunct@D@std@@QAE@I@Z			; std::numpunct<char>::numpunct<char>
PUBLIC	?_Init@?$num_put@GV?$ostreambuf_iterator@GU?$char_traits@G@std@@@std@@@std@@IAEXABV_Locinfo@2@@Z ; std::num_put<unsigned short,std::ostreambuf_iterator<unsigned short,std::char_traits<unsigned short> > >::_Init
PUBLIC	?_Init@?$num_put@DV?$ostreambuf_iterator@DU?$char_traits@D@std@@@std@@@std@@IAEXABV_Locinfo@2@@Z ; std::num_put<char,std::ostreambuf_iterator<char,std::char_traits<char> > >::_Init
PUBLIC	?_Init@?$numpunct@G@std@@IAEXABV_Locinfo@2@@Z	; std::numpunct<unsigned short>::_Init
PUBLIC	?_Init@?$numpunct@D@std@@IAEXABV_Locinfo@2@@Z	; std::numpunct<char>::_Init
PUBLIC	??$_Maklocstr@D@std@@YAPADPBDPADABU_Cvtvec@@@Z	; std::_Maklocstr<char>
PUBLIC	?_Gettrue@_Locinfo@std@@QBEPBDXZ		; std::_Locinfo::_Gettrue
PUBLIC	??_C@_04LOAJBDKD@true?$AA@			; `string'
PUBLIC	?_Getfalse@_Locinfo@std@@QBEPBDXZ		; std::_Locinfo::_Getfalse
PUBLIC	??_C@_05LAPONLG@false?$AA@			; `string'
PUBLIC	??$_Maklocstr@G@std@@YAPAGPBDPAGABU_Cvtvec@@@Z	; std::_Maklocstr<unsigned short>
PUBLIC	?_Getlconv@_Locinfo@std@@QBEPBUlconv@@XZ	; std::_Locinfo::_Getlconv
PUBLIC	?_Getcvt@_Locinfo@std@@QBE?AU_Cvtvec@@XZ	; std::_Locinfo::_Getcvt
PUBLIC	??0facet@locale@std@@IAE@I@Z			; std::locale::facet::facet
PUBLIC	??_7facet@locale@std@@6B@			; std::locale::facet::`vftable'
PUBLIC	??_Gfacet@locale@std@@UAEPAXI@Z			; std::locale::facet::`scalar deleting destructor'
PUBLIC	?_Psave@?$_Facetptr@V?$numpunct@D@std@@@std@@2PBVfacet@locale@2@B ; std::_Facetptr<std::numpunct<char> >::_Psave
PUBLIC	?_Psave@?$_Facetptr@V?$numpunct@G@std@@@std@@2PBVfacet@locale@2@B ; std::_Facetptr<std::numpunct<unsigned short> >::_Psave
PUBLIC	?_Psave@?$_Facetptr@V?$num_put@DV?$ostreambuf_iterator@DU?$char_traits@D@std@@@std@@@std@@@std@@2PBVfacet@locale@2@B ; std::_Facetptr<std::num_put<char,std::ostreambuf_iterator<char,std::char_traits<char> > > >::_Psave
PUBLIC	?_Incref@facet@locale@std@@QAEXXZ		; std::locale::facet::_Incref
PUBLIC	__TI2?AVbad_cast@@
PUBLIC	__CTA2?AVbad_cast@@
PUBLIC	__CT??_R0?AVbad_cast@@@8??0bad_cast@@QAE@ABV0@@Z12
PUBLIC	??_R0?AVbad_cast@@@8				; bad_cast `RTTI Type Descriptor'
PUBLIC	__CT??_R0?AVexception@@@8??0exception@@QAE@ABV0@@Z12
PUBLIC	??_R0?AVexception@@@8				; exception `RTTI Type Descriptor'
PUBLIC	??_C@_08EPJLHIJG@bad?5cast?$AA@			; `string'
PUBLIC	??Bid@locale@std@@QAEIXZ			; std::locale::id::operator unsigned int
PUBLIC	?_Psave@?$_Facetptr@V?$num_put@GV?$ostreambuf_iterator@GU?$char_traits@G@std@@@std@@@std@@@std@@2PBVfacet@locale@2@B ; std::_Facetptr<std::num_put<unsigned short,std::ostreambuf_iterator<unsigned short,std::char_traits<unsigned short> > > >::_Psave
PUBLIC	?length@?$char_traits@D@std@@SAIPBD@Z		; std::char_traits<char>::length
PUBLIC	??0id@locale@std@@QAE@I@Z			; std::locale::id::id
PUBLIC	?assign@?$char_traits@G@std@@SAXAAGABG@Z	; std::char_traits<unsigned short>::assign
PUBLIC	?move@?$char_traits@G@std@@SAPAGPAGPBGI@Z	; std::char_traits<unsigned short>::move
PUBLIC	_wmemmove
PUBLIC	?length@?$char_traits@G@std@@SAIPBG@Z		; std::char_traits<unsigned short>::length
PUBLIC	?_Myptr@?$basic_string@DU?$char_traits@D@std@@V?$allocator@D@2@@std@@QBEPBDXZ ; std::basic_string<char,std::char_traits<char>,std::allocator<char> >::_Myptr
PUBLIC	?copy@?$char_traits@G@std@@SAPAGPAGPBGI@Z	; std::char_traits<unsigned short>::copy
PUBLIC	_wmemcpy
PUBLIC	?eof@?$char_traits@D@std@@SAHXZ			; std::char_traits<char>::eof
PUBLIC	?sputc@?$basic_streambuf@DU?$char_traits@D@std@@@std@@QAEHD@Z ; std::basic_streambuf<char,std::char_traits<char> >::sputc
PUBLIC	?pptr@?$basic_streambuf@DU?$char_traits@D@std@@@std@@IBEPADXZ ; std::basic_streambuf<char,std::char_traits<char> >::pptr
PUBLIC	?epptr@?$basic_streambuf@DU?$char_traits@D@std@@@std@@IBEPADXZ ; std::basic_streambuf<char,std::char_traits<char> >::epptr
PUBLIC	?_Pninc@?$basic_streambuf@DU?$char_traits@D@std@@@std@@IAEPADXZ ; std::basic_streambuf<char,std::char_traits<char> >::_Pninc
PUBLIC	?to_int_type@?$char_traits@D@std@@SAHABD@Z	; std::char_traits<char>::to_int_type
PUBLIC	?eq_int_type@?$char_traits@D@std@@SA_NABH0@Z	; std::char_traits<char>::eq_int_type
PUBLIC	?eof@?$char_traits@G@std@@SAGXZ			; std::char_traits<unsigned short>::eof
PUBLIC	?sputc@?$basic_streambuf@GU?$char_traits@G@std@@@std@@QAEGG@Z ; std::basic_streambuf<unsigned short,std::char_traits<unsigned short> >::sputc
PUBLIC	?pptr@?$basic_streambuf@GU?$char_traits@G@std@@@std@@IBEPAGXZ ; std::basic_streambuf<unsigned short,std::char_traits<unsigned short> >::pptr
PUBLIC	?epptr@?$basic_streambuf@GU?$char_traits@G@std@@@std@@IBEPAGXZ ; std::basic_streambuf<unsigned short,std::char_traits<unsigned short> >::epptr
PUBLIC	?_Pninc@?$basic_streambuf@GU?$char_traits@G@std@@@std@@IAEPAGXZ ; std::basic_streambuf<unsigned short,std::char_traits<unsigned short> >::_Pninc
PUBLIC	?to_int_type@?$char_traits@G@std@@SAGABG@Z	; std::char_traits<unsigned short>::to_int_type
PUBLIC	?eq_int_type@?$char_traits@G@std@@SA_NABG0@Z	; std::char_traits<unsigned short>::eq_int_type
PUBLIC	?assign@?$char_traits@D@std@@SAPADPADID@Z	; std::char_traits<char>::assign
PUBLIC	?move@?$char_traits@D@std@@SAPADPADPBDI@Z	; std::char_traits<char>::move
PUBLIC	?_Eos@?$basic_string@DU?$char_traits@D@std@@V?$allocator@D@2@@std@@IAEXI@Z ; std::basic_string<char,std::char_traits<char>,std::allocator<char> >::_Eos
PUBLIC	?assign@?$char_traits@D@std@@SAXAADABD@Z	; std::char_traits<char>::assign
PUBLIC	?copy@?$char_traits@D@std@@SAPADPADPBDI@Z	; std::char_traits<char>::copy
PUBLIC	?_Grow@?$basic_string@DU?$char_traits@D@std@@V?$allocator@D@2@@std@@IAE_NI_N@Z ; std::basic_string<char,std::char_traits<char>,std::allocator<char> >::_Grow
PUBLIC	?max_size@?$basic_string@DU?$char_traits@D@std@@V?$allocator@D@2@@std@@QBEIXZ ; std::basic_string<char,std::char_traits<char>,std::allocator<char> >::max_size
PUBLIC	?max_size@?$allocator@D@std@@QBEIXZ		; std::allocator<char>::max_size
PUBLIC	?_Copy@?$basic_string@DU?$char_traits@D@std@@V?$allocator@D@2@@std@@IAEXII@Z ; std::basic_string<char,std::char_traits<char>,std::allocator<char> >::_Copy
PUBLIC	?allocate@?$allocator@D@std@@QAEPADI@Z		; std::allocator<char>::allocate
PUBLIC	??$_Allocate@D@std@@YAPADIPAD@Z			; std::_Allocate<char>
PUBLIC	?_Myptr@?$basic_string@DU?$char_traits@D@std@@V?$allocator@D@2@@std@@QAEPADXZ ; std::basic_string<char,std::char_traits<char>,std::allocator<char> >::_Myptr
PUBLIC	?_Inside@?$basic_string@DU?$char_traits@D@std@@V?$allocator@D@2@@std@@IAE_NPBD@Z ; std::basic_string<char,std::char_traits<char>,std::allocator<char> >::_Inside
PUBLIC	?assign@?$basic_string@DU?$char_traits@D@std@@V?$allocator@D@2@@std@@QAEAAV12@PBD@Z ; std::basic_string<char,std::char_traits<char>,std::allocator<char> >::assign
PUBLIC	?assign@?$basic_string@DU?$char_traits@D@std@@V?$allocator@D@2@@std@@QAEAAV12@PBDI@Z ; std::basic_string<char,std::char_traits<char>,std::allocator<char> >::assign
PUBLIC	?_Tidy@?$basic_string@DU?$char_traits@D@std@@V?$allocator@D@2@@std@@IAEX_NI@Z ; std::basic_string<char,std::char_traits<char>,std::allocator<char> >::_Tidy
PUBLIC	?deallocate@?$allocator@D@std@@QAEXPADI@Z	; std::allocator<char>::deallocate
PUBLIC	??0?$allocator@D@std@@QAE@XZ			; std::allocator<char>::allocator<char>
PUBLIC	??0?$_String_val@DV?$allocator@D@std@@@std@@IAE@V?$allocator@D@1@@Z ; std::_String_val<char,std::allocator<char> >::_String_val<char,std::allocator<char> >
PUBLIC	??0?$allocator@D@std@@QAE@ABV01@@Z		; std::allocator<char>::allocator<char>
PUBLIC	??_7?$numpunct@D@std@@6B@			; std::numpunct<char>::`vftable'
PUBLIC	??_7?$numpunct@G@std@@6B@			; std::numpunct<unsigned short>::`vftable'
PUBLIC	?npos@?$basic_string@GU?$char_traits@G@std@@V?$allocator@G@2@@std@@2IB ; std::basic_string<unsigned short,std::char_traits<unsigned short>,std::allocator<unsigned short> >::npos
PUBLIC	??A?$basic_string@DU?$char_traits@D@std@@V?$allocator@D@2@@std@@QAEAADI@Z ; std::basic_string<char,std::char_traits<char>,std::allocator<char> >::operator[]
PUBLIC	?append@?$basic_string@DU?$char_traits@D@std@@V?$allocator@D@2@@std@@QAEAAV12@ID@Z ; std::basic_string<char,std::char_traits<char>,std::allocator<char> >::append
PUBLIC	?npos@?$basic_string@DU?$char_traits@D@std@@V?$allocator@D@2@@std@@2IB ; std::basic_string<char,std::char_traits<char>,std::allocator<char> >::npos
PUBLIC	??$_Maklocchr@G@std@@YAGDPAGABU_Cvtvec@@@Z	; std::_Maklocchr<unsigned short>
PUBLIC	?assign@?$basic_string@DU?$char_traits@D@std@@V?$allocator@D@2@@std@@QAEAAV12@ABV12@II@Z ; std::basic_string<char,std::char_traits<char>,std::allocator<char> >::assign
PUBLIC	?erase@?$basic_string@DU?$char_traits@D@std@@V?$allocator@D@2@@std@@QAEAAV12@II@Z ; std::basic_string<char,std::char_traits<char>,std::allocator<char> >::erase
PUBLIC	?size@?$basic_string@DU?$char_traits@D@std@@V?$allocator@D@2@@std@@QBEIXZ ; std::basic_string<char,std::char_traits<char>,std::allocator<char> >::size
PUBLIC	??0?$basic_string@DU?$char_traits@D@std@@V?$allocator@D@2@@std@@QAE@XZ ; std::basic_string<char,std::char_traits<char>,std::allocator<char> >::basic_string<char,std::char_traits<char>,std::allocator<char> >
PUBLIC	??_7?$num_put@DV?$ostreambuf_iterator@DU?$char_traits@D@std@@@std@@@std@@6B@ ; std::num_put<char,std::ostreambuf_iterator<char,std::char_traits<char> > >::`vftable'
PUBLIC	?precision@ios_base@std@@QBEHXZ			; std::ios_base::precision
PUBLIC	?width@ios_base@std@@QAEHH@Z			; std::ios_base::width
PUBLIC	?width@ios_base@std@@QBEHXZ			; std::ios_base::width
PUBLIC	??1facet@locale@std@@UAE@XZ			; std::locale::facet::~facet
PUBLIC	??_7?$num_put@GV?$ostreambuf_iterator@GU?$char_traits@G@std@@@std@@@std@@6B@ ; std::num_put<unsigned short,std::ostreambuf_iterator<unsigned short,std::char_traits<unsigned short> > >::`vftable'
PUBLIC	??_C@_01GFHCPBMG@C?$AA@				; `string'
PUBLIC	?setstate@?$basic_ios@DU?$char_traits@D@std@@@std@@QAEXH_N@Z ; std::basic_ios<char,std::char_traits<char> >::setstate
PUBLIC	?clear@?$basic_ios@DU?$char_traits@D@std@@@std@@QAEXH_N@Z ; std::basic_ios<char,std::char_traits<char> >::clear
PUBLIC	?rdstate@ios_base@std@@QBEHXZ			; std::ios_base::rdstate
PUBLIC	?rdbuf@?$basic_ios@DU?$char_traits@D@std@@@std@@QBEPAV?$basic_streambuf@DU?$char_traits@D@std@@@2@XZ ; std::basic_ios<char,std::char_traits<char> >::rdbuf
PUBLIC	??Bsentry@?$basic_ostream@DU?$char_traits@D@std@@@std@@QBE_NXZ ; std::basic_ostream<char,std::char_traits<char> >::sentry::operator bool
PUBLIC	??1sentry@?$basic_ostream@DU?$char_traits@D@std@@@std@@QAE@XZ ; std::basic_ostream<char,std::char_traits<char> >::sentry::~sentry
PUBLIC	??1_Sentry_base@?$basic_ostream@DU?$char_traits@D@std@@@std@@QAE@XZ ; std::basic_ostream<char,std::char_traits<char> >::_Sentry_base::~_Sentry_base
PUBLIC	?_Unlock@?$basic_streambuf@DU?$char_traits@D@std@@@std@@QAEXXZ ; std::basic_streambuf<char,std::char_traits<char> >::_Unlock
PUBLIC	?_Osfx@?$basic_ostream@DU?$char_traits@D@std@@@std@@QAEXXZ ; std::basic_ostream<char,std::char_traits<char> >::_Osfx
PUBLIC	?flush@?$basic_ostream@DU?$char_traits@D@std@@@std@@QAEAAV12@XZ ; std::basic_ostream<char,std::char_traits<char> >::flush
PUBLIC	?fail@ios_base@std@@QBE_NXZ			; std::ios_base::fail
PUBLIC	?pubsync@?$basic_streambuf@DU?$char_traits@D@std@@@std@@QAEHXZ ; std::basic_streambuf<char,std::char_traits<char> >::pubsync
PUBLIC	??0sentry@?$basic_ostream@DU?$char_traits@D@std@@@std@@QAE@AAV12@@Z ; std::basic_ostream<char,std::char_traits<char> >::sentry::sentry
PUBLIC	??0_Sentry_base@?$basic_ostream@DU?$char_traits@D@std@@@std@@QAE@AAV12@@Z ; std::basic_ostream<char,std::char_traits<char> >::_Sentry_base::_Sentry_base
PUBLIC	?_Lock@?$basic_streambuf@DU?$char_traits@D@std@@@std@@QAEXXZ ; std::basic_streambuf<char,std::char_traits<char> >::_Lock
PUBLIC	?tie@?$basic_ios@DU?$char_traits@D@std@@@std@@QBEPAV?$basic_ostream@DU?$char_traits@D@std@@@2@XZ ; std::basic_ios<char,std::char_traits<char> >::tie
PUBLIC	?good@ios_base@std@@QBE_NXZ			; std::ios_base::good
PUBLIC	?setstate@?$basic_ios@GU?$char_traits@G@std@@@std@@QAEXH_N@Z ; std::basic_ios<unsigned short,std::char_traits<unsigned short> >::setstate
PUBLIC	?clear@?$basic_ios@GU?$char_traits@G@std@@@std@@QAEXH_N@Z ; std::basic_ios<unsigned short,std::char_traits<unsigned short> >::clear
PUBLIC	?rdbuf@?$basic_ios@GU?$char_traits@G@std@@@std@@QBEPAV?$basic_streambuf@GU?$char_traits@G@std@@@2@XZ ; std::basic_ios<unsigned short,std::char_traits<unsigned short> >::rdbuf
PUBLIC	?fill@?$basic_ios@GU?$char_traits@G@std@@@std@@QBEGXZ ; std::basic_ios<unsigned short,std::char_traits<unsigned short> >::fill
PUBLIC	?flags@ios_base@std@@QBEHXZ			; std::ios_base::flags
PUBLIC	?getloc@ios_base@std@@QBE?AVlocale@2@XZ		; std::ios_base::getloc
PUBLIC	??0locale@std@@QAE@ABV01@@Z			; std::locale::locale
PUBLIC	??Bsentry@?$basic_ostream@GU?$char_traits@G@std@@@std@@QBE_NXZ ; std::basic_ostream<unsigned short,std::char_traits<unsigned short> >::sentry::operator bool
PUBLIC	??1sentry@?$basic_ostream@GU?$char_traits@G@std@@@std@@QAE@XZ ; std::basic_ostream<unsigned short,std::char_traits<unsigned short> >::sentry::~sentry
PUBLIC	??1_Sentry_base@?$basic_ostream@GU?$char_traits@G@std@@@std@@QAE@XZ ; std::basic_ostream<unsigned short,std::char_traits<unsigned short> >::_Sentry_base::~_Sentry_base
PUBLIC	?_Unlock@?$basic_streambuf@GU?$char_traits@G@std@@@std@@QAEXXZ ; std::basic_streambuf<unsigned short,std::char_traits<unsigned short> >::_Unlock
PUBLIC	?_Osfx@?$basic_ostream@GU?$char_traits@G@std@@@std@@QAEXXZ ; std::basic_ostream<unsigned short,std::char_traits<unsigned short> >::_Osfx
PUBLIC	?flush@?$basic_ostream@GU?$char_traits@G@std@@@std@@QAEAAV12@XZ ; std::basic_ostream<unsigned short,std::char_traits<unsigned short> >::flush
PUBLIC	?pubsync@?$basic_streambuf@GU?$char_traits@G@std@@@std@@QAEHXZ ; std::basic_streambuf<unsigned short,std::char_traits<unsigned short> >::pubsync
PUBLIC	??0sentry@?$basic_ostream@GU?$char_traits@G@std@@@std@@QAE@AAV12@@Z ; std::basic_ostream<unsigned short,std::char_traits<unsigned short> >::sentry::sentry
PUBLIC	??0_Sentry_base@?$basic_ostream@GU?$char_traits@G@std@@@std@@QAE@AAV12@@Z ; std::basic_ostream<unsigned short,std::char_traits<unsigned short> >::_Sentry_base::_Sentry_base
PUBLIC	?_Lock@?$basic_streambuf@GU?$char_traits@G@std@@@std@@QAEXXZ ; std::basic_streambuf<unsigned short,std::char_traits<unsigned short> >::_Lock
PUBLIC	?tie@?$basic_ios@GU?$char_traits@G@std@@@std@@QBEPAV?$basic_ostream@GU?$char_traits@G@std@@@2@XZ ; std::basic_ios<unsigned short,std::char_traits<unsigned short> >::tie
PUBLIC	?endl@std@@YAAAV?$basic_ostream@DU?$char_traits@D@std@@@1@AAV21@@Z ; std::endl
PUBLIC	?put@?$basic_ostream@DU?$char_traits@D@std@@@std@@QAEAAV12@D@Z ; std::basic_ostream<char,std::char_traits<char> >::put
PUBLIC	??1?$basic_string@DU?$char_traits@D@std@@V?$allocator@D@2@@std@@QAE@XZ ; std::basic_string<char,std::char_traits<char>,std::allocator<char> >::~basic_string<char,std::char_traits<char>,std::allocator<char> >
PUBLIC	??0?$basic_string@DU?$char_traits@D@std@@V?$allocator@D@2@@std@@QAE@ABV01@@Z ; std::basic_string<char,std::char_traits<char>,std::allocator<char> >::basic_string<char,std::char_traits<char>,std::allocator<char> >
PUBLIC	?c_str@?$basic_string@DU?$char_traits@D@std@@V?$allocator@D@2@@std@@QBEPBDXZ ; std::basic_string<char,std::char_traits<char>,std::allocator<char> >::c_str
PUBLIC	?endl@std@@YAAAV?$basic_ostream@GU?$char_traits@G@std@@@1@AAV21@@Z ; std::endl
PUBLIC	?put@?$basic_ostream@GU?$char_traits@G@std@@@std@@QAEAAV12@G@Z ; std::basic_ostream<unsigned short,std::char_traits<unsigned short> >::put
PUBLIC	??1locale@std@@QAE@XZ				; std::locale::~locale
PUBLIC	?_Decref@facet@locale@std@@QAEPAV123@XZ		; std::locale::facet::_Decref
PUBLIC	__CTA1H
PUBLIC	__CT??_R0H@84
PUBLIC	??_R0H@8					; int `RTTI Type Descriptor'
PUBLIC	__TI1H
PUBLIC	?cOptionSW@@3PAVOPSW@@A				; cOptionSW
EXTRN	??_E?$num_put@GV?$ostreambuf_iterator@GU?$char_traits@G@std@@@std@@@std@@MAEPAXI@Z:NEAR ; std::num_put<unsigned short,std::ostreambuf_iterator<unsigned short,std::char_traits<unsigned short> > >::`vector deleting destructor'
EXTRN	??_E?$num_put@DV?$ostreambuf_iterator@DU?$char_traits@D@std@@@std@@@std@@MAEPAXI@Z:NEAR ; std::num_put<char,std::ostreambuf_iterator<char,std::char_traits<char> > >::`vector deleting destructor'
EXTRN	??_E?$numpunct@G@std@@MAEPAXI@Z:NEAR		; std::numpunct<unsigned short>::`vector deleting destructor'
EXTRN	??_E?$numpunct@D@std@@MAEPAXI@Z:NEAR		; std::numpunct<char>::`vector deleting destructor'
EXTRN	??_U@YAPAXI@Z:NEAR				; operator new[]
EXTRN	__Mbrtowc:NEAR
EXTRN	__Getcvt:NEAR
EXTRN	??_Efacet@locale@std@@UAEPAXI@Z:NEAR		; std::locale::facet::`vector deleting destructor'
EXTRN	?_Register@facet@locale@std@@QAEXXZ:NEAR	; std::locale::facet::_Register
EXTRN	??1bad_cast@@UAE@XZ:NEAR			; bad_cast::~bad_cast
EXTRN	??0bad_cast@@QAE@ABV0@@Z:NEAR			; bad_cast::bad_cast
EXTRN	??0exception@@QAE@ABV0@@Z:NEAR			; exception::exception
EXTRN	??0bad_cast@@QAE@PBD@Z:NEAR			; bad_cast::bad_cast
EXTRN	?_Getfacet@locale@std@@QBEPBVfacet@12@I@Z:NEAR	; std::locale::_Getfacet
EXTRN	?_Id_cnt@id@locale@std@@0HA:DWORD		; std::locale::id::_Id_cnt
EXTRN	??1_Lockit@std@@QAE@XZ:NEAR			; std::_Lockit::~_Lockit
EXTRN	??0_Lockit@std@@QAE@H@Z:NEAR			; std::_Lockit::_Lockit
EXTRN	_wcslen:NEAR
EXTRN	??_V@YAXPAX@Z:NEAR				; operator delete[]
EXTRN	?_Xran@_String_base@std@@QBEXXZ:NEAR		; std::_String_base::_Xran
EXTRN	?_Xlen@_String_base@std@@QBEXXZ:NEAR		; std::_String_base::_Xlen
EXTRN	_memmove:NEAR
EXTRN	_strcspn:NEAR
EXTRN	_memchr:NEAR
EXTRN	_localeconv:NEAR
EXTRN	_sprintf:NEAR
EXTRN	??1_Locinfo@std@@QAE@XZ:NEAR			; std::_Locinfo::~_Locinfo
EXTRN	??0_Locinfo@std@@QAE@PBD@Z:NEAR			; std::_Locinfo::_Locinfo
EXTRN	?clear@ios_base@std@@QAEXH_N@Z:NEAR		; std::ios_base::clear
EXTRN	?_Unlock@_Mutex@std@@QAEXXZ:NEAR		; std::_Mutex::_Unlock
EXTRN	?uncaught_exception@std@@YA_NXZ:NEAR		; std::uncaught_exception
EXTRN	?_Lock@_Mutex@std@@QAEXXZ:NEAR			; std::_Mutex::_Lock
EXTRN	?cout@std@@3V?$basic_ostream@DU?$char_traits@D@std@@@1@A:BYTE ; std::cout
EXTRN	?setw@std@@YA?AU?$_Smanip@H@1@H@Z:NEAR		; std::setw
EXTRN	??3@YAXPAX@Z:NEAR				; operator delete
EXTRN	??2@YAPAXI@Z:NEAR				; operator new
EXTRN	?wcout@std@@3V?$basic_ostream@GU?$char_traits@G@std@@@1@A:BYTE ; std::wcout
EXTRN	??0locale@std@@QAE@PBDH@Z:NEAR			; std::locale::locale
EXTRN	?global@locale@std@@SA?AV12@ABV12@@Z:NEAR	; std::locale::global
EXTRN	??_7type_info@@6B@:DWORD			; type_info::`vftable'
;	COMDAT ?_Psave@?$_Facetptr@V?$numpunct@D@std@@@std@@2PBVfacet@locale@2@B
_BSS	SEGMENT
?_Psave@?$_Facetptr@V?$numpunct@D@std@@@std@@2PBVfacet@locale@2@B DD 01H DUP (?) ; std::_Facetptr<std::numpunct<char> >::_Psave
_BSS	ENDS
;	COMDAT ?_Psave@?$_Facetptr@V?$numpunct@G@std@@@std@@2PBVfacet@locale@2@B
_BSS	SEGMENT
?_Psave@?$_Facetptr@V?$numpunct@G@std@@@std@@2PBVfacet@locale@2@B DD 01H DUP (?) ; std::_Facetptr<std::numpunct<unsigned short> >::_Psave
_BSS	ENDS
;	COMDAT ?_Psave@?$_Facetptr@V?$num_put@DV?$ostreambuf_iterator@DU?$char_traits@D@std@@@std@@@std@@@std@@2PBVfacet@locale@2@B
_BSS	SEGMENT
?_Psave@?$_Facetptr@V?$num_put@DV?$ostreambuf_iterator@DU?$char_traits@D@std@@@std@@@std@@@std@@2PBVfacet@locale@2@B DD 01H DUP (?) ; std::_Facetptr<std::num_put<char,std::ostreambuf_iterator<char,std::char_traits<char> > > >::_Psave
_BSS	ENDS
;	COMDAT ?_Psave@?$_Facetptr@V?$num_put@GV?$ostreambuf_iterator@GU?$char_traits@G@std@@@std@@@std@@@std@@2PBVfacet@locale@2@B
_BSS	SEGMENT
?_Psave@?$_Facetptr@V?$num_put@GV?$ostreambuf_iterator@GU?$char_traits@G@std@@@std@@@std@@@std@@2PBVfacet@locale@2@B DD 01H DUP (?) ; std::_Facetptr<std::num_put<unsigned short,std::ostreambuf_iterator<unsigned short,std::char_traits<unsigned short> > > >::_Psave
?cOptionSW@@3PAVOPSW@@A DD 01H DUP (?)			; cOptionSW
;	COMDAT ??_R0H@8
_DATA	SEGMENT
??_R0H@8 DD	FLAT:??_7type_info@@6B@			; int `RTTI Type Descriptor'
	DD	00H
	DB	'.H', 00H
_DATA	ENDS
;	COMDAT __CT??_R0H@84
xdata$x	SEGMENT
__CT??_R0H@84 DD 01H
	DD	FLAT:??_R0H@8
	DD	00H
	DD	0ffffffffH
	ORG $+4
	DD	04H
	DD	00H
xdata$x	ENDS
;	COMDAT __CTA1H
xdata$x	SEGMENT
__CTA1H	DD	01H
	DD	FLAT:__CT??_R0H@84
xdata$x	ENDS
;	COMDAT __TI1H
xdata$x	SEGMENT
__TI1H	DD	00H
	DD	00H
	DD	00H
	DD	FLAT:__CTA1H
xdata$x	ENDS
;	COMDAT ??_C@_00CNPNBAHC@?$AA@
CONST	SEGMENT
??_C@_00CNPNBAHC@?$AA@ DB 00H				; `string'
CONST	ENDS
;	COMDAT ??_C@_1NK@KENGHJLD@?$AAM?$AAM?$AAL?$AA?5?$AAC?$AAo?$AAm?$AAp?$AAi?$AAl?$AAe?$AAr?$AA?5?$AAf?$AAo?$AAr?$AA?5?$AAN?$AAE?$AAS@
CONST	SEGMENT
??_C@_1NK@KENGHJLD@?$AAM?$AAM?$AAL?$AA?5?$AAC?$AAo?$AAm?$AAp?$AAi?$AAl?$AAe?$AAr?$AA?5?$AAf?$AAo?$AAr?$AA?5?$AAN?$AAE?$AAS@ DB 'M'
	DB	00H, 'M', 00H, 'L', 00H, ' ', 00H, 'C', 00H, 'o', 00H, 'm', 00H
	DB	'p', 00H, 'i', 00H, 'l', 00H, 'e', 00H, 'r', 00H, ' ', 00H, 'f'
	DB	00H, 'o', 00H, 'r', 00H, ' ', 00H, 'N', 00H, 'E', 00H, 'S', 00H
	DB	' ', 00H, 'S', 00H, 'o', 00H, 'u', 00H, 'n', 00H, 'd', 00H, ' '
	DB	00H, 'D', 00H, 'r', 00H, 'i', 00H, 'v', 00H, 'e', 00H, 'r', 00H
	DB	' ', 00H, '&', 00H, ' ', 00H, 'L', 00H, 'i', 00H, 'b', 00H, 'r'
	DB	00H, 'a', 00H, 'r', 00H, 'y', 00H, ' ', 00H, '(', 00H, 'N', 00H
	DB	'S', 00H, 'D', 00H, '.', 00H, 'L', 00H, 'i', 00H, 'b', 00H, ')'
	DB	00H, 0aH, 00H, ' ', 00H, ' ', 00H, ' ', 00H, ' ', 00H, 'V', 00H
	DB	'e', 00H, 'r', 00H, 's', 00H, 'i', 00H, 'o', 00H, 'n', 00H, ' '
	DB	00H, '1', 00H, '.', 00H, '2', 00H, '8', 00H, 0aH, 00H, ' ', 00H
	DB	' ', 00H, ' ', 00H, ' ', 00H, ' ', 00H, ' ', 00H, ' ', 00H, ' '
	DB	00H, 'C', 00H, 'o', 00H, 'p', 00H, 'y', 00H, 'r', 00H, 'i', 00H
	DB	'g', 00H, 'h', 00H, 't', 00H, ' ', 00H, '(', 00H, 'c', 00H, ')'
	DB	00H, ' ', 00H, '2', 00H, '0', 00H, '1', 00H, '2', 00H, '-', 00H
	DB	'2', 00H, '0', 00H, '1', 00H, '8', 00H, ' ', 00H, 'S', 00H, '.'
	DB	00H, 'W', 00H, '.', 00H, 0aH, 00H, 00H, 00H	; `string'
CONST	ENDS
;	COMDAT ??_C@_1HK@PLEACAAO@?$AA?9?$AA?9?$AA?9?$AA?9?$AA?9?$AA?9?$AA?9?$AA?9?$AA?9?$AA?9?$AA?9?$AA?9?$AA?9?$AA?9?$AA?9?$AA?9?$AA?9?$AA?9?$AA?9?$AA?9@
CONST	SEGMENT
??_C@_1HK@PLEACAAO@?$AA?9?$AA?9?$AA?9?$AA?9?$AA?9?$AA?9?$AA?9?$AA?9?$AA?9?$AA?9?$AA?9?$AA?9?$AA?9?$AA?9?$AA?9?$AA?9?$AA?9?$AA?9?$AA?9?$AA?9@ DB '-'
	DB	00H, '-', 00H, '-', 00H, '-', 00H, '-', 00H, '-', 00H, '-', 00H
	DB	'-', 00H, '-', 00H, '-', 00H, '-', 00H, '-', 00H, '-', 00H, '-'
	DB	00H, '-', 00H, '-', 00H, '-', 00H, '-', 00H, '-', 00H, '-', 00H
	DB	'-', 00H, '-', 00H, '-', 00H, '-', 00H, '-', 00H, '-', 00H, '-'
	DB	00H, '-', 00H, '-', 00H, '-', 00H, '-', 00H, '-', 00H, '-', 00H
	DB	'-', 00H, '-', 00H, '-', 00H, '-', 00H, '-', 00H, '-', 00H, '-'
	DB	00H, '-', 00H, '-', 00H, '-', 00H, '-', 00H, '-', 00H, '-', 00H
	DB	'-', 00H, '-', 00H, '-', 00H, '-', 00H, '-', 00H, '-', 00H, '-'
	DB	00H, '-', 00H, '-', 00H, '-', 00H, '-', 00H, '-', 00H, '-', 00H
	DB	'-', 00H, 00H, 00H				; `string'
CONST	ENDS
;	COMDAT ??_C@_1DC@NFNOFJGE@?$AA?$CK?$AAO?$AAb?$AAj?$AAe?$AAc?$AAt?$AA?5?$AAc?$AAr?$AAe?$AAa?$AAt?$AAi?$AAn?$AAg?$AA?5?$AAp?$AAr?$AAo@
CONST	SEGMENT
??_C@_1DC@NFNOFJGE@?$AA?$CK?$AAO?$AAb?$AAj?$AAe?$AAc?$AAt?$AA?5?$AAc?$AAr?$AAe?$AAa?$AAt?$AAi?$AAn?$AAg?$AA?5?$AAp?$AAr?$AAo@ DB '*'
	DB	00H, 'O', 00H, 'b', 00H, 'j', 00H, 'e', 00H, 'c', 00H, 't', 00H
	DB	' ', 00H, 'c', 00H, 'r', 00H, 'e', 00H, 'a', 00H, 't', 00H, 'i'
	DB	00H, 'n', 00H, 'g', 00H, ' ', 00H, 'p', 00H, 'r', 00H, 'o', 00H
	DB	'c', 00H, 'e', 00H, 's', 00H, 's', 00H, 00H, 00H ; `string'
CONST	ENDS
;	COMDAT ??_C@_1CI@BGPJBPBK@?$AA?$DN?$AA?$DN?$AA?$DN?$AA?$DN?$AA?5?$AA?$FL?$AA?5?$AAM?$AAu?$AAs?$AAi?$AAc?$AA?5?$AA?$FN?$AA?5?$AA?$DN?$AA?$DN?$AA?$DN?$AA?$DN?$AA?$AA@
CONST	SEGMENT
??_C@_1CI@BGPJBPBK@?$AA?$DN?$AA?$DN?$AA?$DN?$AA?$DN?$AA?5?$AA?$FL?$AA?5?$AAM?$AAu?$AAs?$AAi?$AAc?$AA?5?$AA?$FN?$AA?5?$AA?$DN?$AA?$DN?$AA?$DN?$AA?$DN?$AA?$AA@ DB '='
	DB	00H, '=', 00H, '=', 00H, '=', 00H, ' ', 00H, '[', 00H, ' ', 00H
	DB	'M', 00H, 'u', 00H, 's', 00H, 'i', 00H, 'c', 00H, ' ', 00H, ']'
	DB	00H, ' ', 00H, '=', 00H, '=', 00H, '=', 00H, '=', 00H, 00H, 00H ; `string'
CONST	ENDS
;	COMDAT ??_C@_1EE@BGEBAFOM@?$AA?$CK?$AAO?$AAp?$AAt?$AAi?$AAm?$AAi?$AAz?$AAe?$AA?5?$AA?$CG?$AA?5?$AAT?$AAi?$AAc?$AAk?$AA?5?$AAc?$AAo?$AAu@
CONST	SEGMENT
??_C@_1EE@BGEBAFOM@?$AA?$CK?$AAO?$AAp?$AAt?$AAi?$AAm?$AAi?$AAz?$AAe?$AA?5?$AA?$CG?$AA?5?$AAT?$AAi?$AAc?$AAk?$AA?5?$AAc?$AAo?$AAu@ DB '*'
	DB	00H, 'O', 00H, 'p', 00H, 't', 00H, 'i', 00H, 'm', 00H, 'i', 00H
	DB	'z', 00H, 'e', 00H, ' ', 00H, '&', 00H, ' ', 00H, 'T', 00H, 'i'
	DB	00H, 'c', 00H, 'k', 00H, ' ', 00H, 'c', 00H, 'o', 00H, 'u', 00H
	DB	'n', 00H, 't', 00H, 'i', 00H, 'n', 00H, 'g', 00H, ' ', 00H, 'p'
	DB	00H, 'r', 00H, 'o', 00H, 'c', 00H, 'e', 00H, 's', 00H, 's', 00H
	DB	00H, 00H					; `string'
CONST	ENDS
;	COMDAT ??_C@_1DI@JGLJCCJP@?$AA?$CK?$AAA?$AAd?$AAd?$AAr?$AAe?$AAs?$AAs?$AA?5?$AAs?$AAe?$AAt?$AAt?$AAl?$AAe?$AAm?$AAe?$AAn?$AAt?$AA?5@
CONST	SEGMENT
??_C@_1DI@JGLJCCJP@?$AA?$CK?$AAA?$AAd?$AAd?$AAr?$AAe?$AAs?$AAs?$AA?5?$AAs?$AAe?$AAt?$AAt?$AAl?$AAe?$AAm?$AAe?$AAn?$AAt?$AA?5@ DB '*'
	DB	00H, 'A', 00H, 'd', 00H, 'd', 00H, 'r', 00H, 'e', 00H, 's', 00H
	DB	's', 00H, ' ', 00H, 's', 00H, 'e', 00H, 't', 00H, 't', 00H, 'l'
	DB	00H, 'e', 00H, 'm', 00H, 'e', 00H, 'n', 00H, 't', 00H, ' ', 00H
	DB	'p', 00H, 'r', 00H, 'o', 00H, 'c', 00H, 'e', 00H, 's', 00H, 's'
	DB	00H, 00H, 00H				; `string'
CONST	ENDS
;	COMDAT ??_C@_07FBHPMLEN@?5?$FLByte?$FN?$AA@
CONST	SEGMENT
??_C@_07FBHPMLEN@?5?$FLByte?$FN?$AA@ DB ' [Byte]', 00H	; `string'
CONST	ENDS
;	COMDAT ??_C@_0BA@DKKDKJML@?5?5Music?5Size?5?$DN?5?$AA@
CONST	SEGMENT
??_C@_0BA@DKKDKJML@?5?5Music?5Size?5?$DN?5?$AA@ DB '  Music Size = ', 00H ; `string'
CONST	ENDS
;	COMDAT ??_C@_0BA@IEMDIJBO@?5?5DPCM?5Size?5?5?$DN?5?$AA@
CONST	SEGMENT
??_C@_0BA@IEMDIJBO@?5?5DPCM?5Size?5?5?$DN?5?$AA@ DB '  DPCM Size  = ', 00H ; `string'
CONST	ENDS
;	COMDAT ??_C@_1BA@BJOMPAID@?$AAE?$AAr?$AAr?$AAo?$AAr?$AA?$CB?$AA?3?$AA?$AA@
CONST	SEGMENT
??_C@_1BA@BJOMPAID@?$AAE?$AAr?$AAr?$AAo?$AAr?$AA?$CB?$AA?3?$AA?$AA@ DB 'E'
	DB	00H, 'r', 00H, 'r', 00H, 'o', 00H, 'r', 00H, '!', 00H, ':', 00H
	DB	00H, 00H					; `string'
CONST	ENDS
;	COMDAT ??_C@_02EAOCLKAK@ld?$AA@
CONST	SEGMENT
??_C@_02EAOCLKAK@ld?$AA@ DB 'ld', 00H			; `string'
CONST	ENDS
;	COMDAT ??_C@_02BDDLJJBK@lu?$AA@
CONST	SEGMENT
??_C@_02BDDLJJBK@lu?$AA@ DB 'lu', 00H			; `string'
CONST	ENDS
;	COMDAT ??_C@_02HIKPPMOK@Ld?$AA@
CONST	SEGMENT
??_C@_02HIKPPMOK@Ld?$AA@ DB 'Ld', 00H			; `string'
CONST	ENDS
;	COMDAT ??_C@_02CLHGNPPK@Lu?$AA@
CONST	SEGMENT
??_C@_02CLHGNPPK@Lu?$AA@ DB 'Lu', 00H			; `string'
CONST	ENDS
;	COMDAT ??_C@_02BBAHNLBA@?$CFp?$AA@
CONST	SEGMENT
??_C@_02BBAHNLBA@?$CFp?$AA@ DB '%p', 00H		; `string'
CONST	ENDS
;	COMDAT ??_C@_01DDCIFGEA@E?$AA@
CONST	SEGMENT
??_C@_01DDCIFGEA@E?$AA@ DB 'E', 00H			; `string'
CONST	ENDS
;	COMDAT ??_C@_01KGKMHCOC@e?$AA@
CONST	SEGMENT
??_C@_01KGKMHCOC@e?$AA@ DB 'e', 00H			; `string'
CONST	ENDS
;	COMDAT ?npos@?$basic_string@GU?$char_traits@G@std@@V?$allocator@G@2@@std@@2IB
CONST	SEGMENT
?npos@?$basic_string@GU?$char_traits@G@std@@V?$allocator@G@2@@std@@2IB DD 0ffffffffH ; std::basic_string<unsigned short,std::char_traits<unsigned short>,std::allocator<unsigned short> >::npos
CONST	ENDS
;	COMDAT ??_7?$numpunct@D@std@@6B@
CONST	SEGMENT
??_7?$numpunct@D@std@@6B@ DD FLAT:??_E?$numpunct@D@std@@MAEPAXI@Z ; std::numpunct<char>::`vftable'
	DD	FLAT:?do_decimal_point@?$numpunct@D@std@@MBEDXZ
	DD	FLAT:?do_thousands_sep@?$numpunct@D@std@@MBEDXZ
	DD	FLAT:?do_grouping@?$numpunct@D@std@@MBE?AV?$basic_string@DU?$char_traits@D@std@@V?$allocator@D@2@@2@XZ
	DD	FLAT:?do_falsename@?$numpunct@D@std@@MBE?AV?$basic_string@DU?$char_traits@D@std@@V?$allocator@D@2@@2@XZ
	DD	FLAT:?do_truename@?$numpunct@D@std@@MBE?AV?$basic_string@DU?$char_traits@D@std@@V?$allocator@D@2@@2@XZ
CONST	ENDS
;	COMDAT ??_7?$numpunct@G@std@@6B@
CONST	SEGMENT
??_7?$numpunct@G@std@@6B@ DD FLAT:??_E?$numpunct@G@std@@MAEPAXI@Z ; std::numpunct<unsigned short>::`vftable'
	DD	FLAT:?do_decimal_point@?$numpunct@G@std@@MBEGXZ
	DD	FLAT:?do_thousands_sep@?$numpunct@G@std@@MBEGXZ
	DD	FLAT:?do_grouping@?$numpunct@G@std@@MBE?AV?$basic_string@DU?$char_traits@D@std@@V?$allocator@D@2@@2@XZ
	DD	FLAT:?do_falsename@?$numpunct@G@std@@MBE?AV?$basic_string@GU?$char_traits@G@std@@V?$allocator@G@2@@2@XZ
	DD	FLAT:?do_truename@?$numpunct@G@std@@MBE?AV?$basic_string@GU?$char_traits@G@std@@V?$allocator@G@2@@2@XZ
CONST	ENDS
;	COMDAT ??_7?$num_put@DV?$ostreambuf_iterator@DU?$char_traits@D@std@@@std@@@std@@6B@
CONST	SEGMENT
??_7?$num_put@DV?$ostreambuf_iterator@DU?$char_traits@D@std@@@std@@@std@@6B@ DD FLAT:??_E?$num_put@DV?$ostreambuf_iterator@DU?$char_traits@D@std@@@std@@@std@@MAEPAXI@Z ; std::num_put<char,std::ostreambuf_iterator<char,std::char_traits<char> > >::`vftable'
	DD	FLAT:?do_put@?$num_put@DV?$ostreambuf_iterator@DU?$char_traits@D@std@@@std@@@std@@MBE?AV?$ostreambuf_iterator@DU?$char_traits@D@std@@@2@V32@AAVios_base@2@DPBX@Z
	DD	FLAT:?do_put@?$num_put@DV?$ostreambuf_iterator@DU?$char_traits@D@std@@@std@@@std@@MBE?AV?$ostreambuf_iterator@DU?$char_traits@D@std@@@2@V32@AAVios_base@2@DO@Z
	DD	FLAT:?do_put@?$num_put@DV?$ostreambuf_iterator@DU?$char_traits@D@std@@@std@@@std@@MBE?AV?$ostreambuf_iterator@DU?$char_traits@D@std@@@2@V32@AAVios_base@2@DN@Z
	DD	FLAT:?do_put@?$num_put@DV?$ostreambuf_iterator@DU?$char_traits@D@std@@@std@@@std@@MBE?AV?$ostreambuf_iterator@DU?$char_traits@D@std@@@2@V32@AAVios_base@2@D_K@Z
	DD	FLAT:?do_put@?$num_put@DV?$ostreambuf_iterator@DU?$char_traits@D@std@@@std@@@std@@MBE?AV?$ostreambuf_iterator@DU?$char_traits@D@std@@@2@V32@AAVios_base@2@D_J@Z
	DD	FLAT:?do_put@?$num_put@DV?$ostreambuf_iterator@DU?$char_traits@D@std@@@std@@@std@@MBE?AV?$ostreambuf_iterator@DU?$char_traits@D@std@@@2@V32@AAVios_base@2@DK@Z
	DD	FLAT:?do_put@?$num_put@DV?$ostreambuf_iterator@DU?$char_traits@D@std@@@std@@@std@@MBE?AV?$ostreambuf_iterator@DU?$char_traits@D@std@@@2@V32@AAVios_base@2@DJ@Z
	DD	FLAT:?do_put@?$num_put@DV?$ostreambuf_iterator@DU?$char_traits@D@std@@@std@@@std@@MBE?AV?$ostreambuf_iterator@DU?$char_traits@D@std@@@2@V32@AAVios_base@2@D_N@Z
CONST	ENDS
;	COMDAT ??_7?$num_put@GV?$ostreambuf_iterator@GU?$char_traits@G@std@@@std@@@std@@6B@
CONST	SEGMENT
??_7?$num_put@GV?$ostreambuf_iterator@GU?$char_traits@G@std@@@std@@@std@@6B@ DD FLAT:??_E?$num_put@GV?$ostreambuf_iterator@GU?$char_traits@G@std@@@std@@@std@@MAEPAXI@Z ; std::num_put<unsigned short,std::ostreambuf_iterator<unsigned short,std::char_traits<unsigned short> > >::`vftable'
	DD	FLAT:?do_put@?$num_put@GV?$ostreambuf_iterator@GU?$char_traits@G@std@@@std@@@std@@MBE?AV?$ostreambuf_iterator@GU?$char_traits@G@std@@@2@V32@AAVios_base@2@GPBX@Z
	DD	FLAT:?do_put@?$num_put@GV?$ostreambuf_iterator@GU?$char_traits@G@std@@@std@@@std@@MBE?AV?$ostreambuf_iterator@GU?$char_traits@G@std@@@2@V32@AAVios_base@2@GO@Z
	DD	FLAT:?do_put@?$num_put@GV?$ostreambuf_iterator@GU?$char_traits@G@std@@@std@@@std@@MBE?AV?$ostreambuf_iterator@GU?$char_traits@G@std@@@2@V32@AAVios_base@2@GN@Z
	DD	FLAT:?do_put@?$num_put@GV?$ostreambuf_iterator@GU?$char_traits@G@std@@@std@@@std@@MBE?AV?$ostreambuf_iterator@GU?$char_traits@G@std@@@2@V32@AAVios_base@2@G_K@Z
	DD	FLAT:?do_put@?$num_put@GV?$ostreambuf_iterator@GU?$char_traits@G@std@@@std@@@std@@MBE?AV?$ostreambuf_iterator@GU?$char_traits@G@std@@@2@V32@AAVios_base@2@G_J@Z
	DD	FLAT:?do_put@?$num_put@GV?$ostreambuf_iterator@GU?$char_traits@G@std@@@std@@@std@@MBE?AV?$ostreambuf_iterator@GU?$char_traits@G@std@@@2@V32@AAVios_base@2@GK@Z
	DD	FLAT:?do_put@?$num_put@GV?$ostreambuf_iterator@GU?$char_traits@G@std@@@std@@@std@@MBE?AV?$ostreambuf_iterator@GU?$char_traits@G@std@@@2@V32@AAVios_base@2@GJ@Z
	DD	FLAT:?do_put@?$num_put@GV?$ostreambuf_iterator@GU?$char_traits@G@std@@@std@@@std@@MBE?AV?$ostreambuf_iterator@GU?$char_traits@G@std@@@2@V32@AAVios_base@2@G_N@Z
CONST	ENDS
;	COMDAT ??_C@_05LAPONLG@false?$AA@
CONST	SEGMENT
??_C@_05LAPONLG@false?$AA@ DB 'false', 00H		; `string'
CONST	ENDS
;	COMDAT ??_C@_04LOAJBDKD@true?$AA@
CONST	SEGMENT
??_C@_04LOAJBDKD@true?$AA@ DB 'true', 00H		; `string'
CONST	ENDS
;	COMDAT ??_C@_01GFHCPBMG@C?$AA@
CONST	SEGMENT
??_C@_01GFHCPBMG@C?$AA@ DB 'C', 00H			; `string'
CONST	ENDS
;	COMDAT ?npos@?$basic_string@DU?$char_traits@D@std@@V?$allocator@D@2@@std@@2IB
CONST	SEGMENT
?npos@?$basic_string@DU?$char_traits@D@std@@V?$allocator@D@2@@std@@2IB DD 0ffffffffH ; std::basic_string<char,std::char_traits<char>,std::allocator<char> >::npos
CONST	ENDS
;	COMDAT ??_C@_08EPJLHIJG@bad?5cast?$AA@
CONST	SEGMENT
??_C@_08EPJLHIJG@bad?5cast?$AA@ DB 'bad cast', 00H	; `string'
CONST	ENDS
;	COMDAT ??_R0?AVbad_cast@@@8
_DATA	SEGMENT
??_R0?AVbad_cast@@@8 DD FLAT:??_7type_info@@6B@		; bad_cast `RTTI Type Descriptor'
	DD	00H
	DB	'.?AVbad_cast@@', 00H
_DATA	ENDS
;	COMDAT ??_R0?AVexception@@@8
_DATA	SEGMENT
??_R0?AVexception@@@8 DD FLAT:??_7type_info@@6B@	; exception `RTTI Type Descriptor'
	DD	00H
	DB	'.?AVexception@@', 00H
_DATA	ENDS
;	COMDAT __CT??_R0?AVbad_cast@@@8??0bad_cast@@QAE@ABV0@@Z12
xdata$x	SEGMENT
__CT??_R0?AVbad_cast@@@8??0bad_cast@@QAE@ABV0@@Z12 DD 00H
	DD	FLAT:??_R0?AVbad_cast@@@8
	DD	00H
	DD	0ffffffffH
	ORG $+4
	DD	0cH
	DD	FLAT:??0bad_cast@@QAE@ABV0@@Z
xdata$x	ENDS
;	COMDAT __CT??_R0?AVexception@@@8??0exception@@QAE@ABV0@@Z12
xdata$x	SEGMENT
__CT??_R0?AVexception@@@8??0exception@@QAE@ABV0@@Z12 DD 00H
	DD	FLAT:??_R0?AVexception@@@8
	DD	00H
	DD	0ffffffffH
	ORG $+4
	DD	0cH
	DD	FLAT:??0exception@@QAE@ABV0@@Z
xdata$x	ENDS
;	COMDAT __CTA2?AVbad_cast@@
xdata$x	SEGMENT
__CTA2?AVbad_cast@@ DD 02H
	DD	FLAT:__CT??_R0?AVbad_cast@@@8??0bad_cast@@QAE@ABV0@@Z12
	DD	FLAT:__CT??_R0?AVexception@@@8??0exception@@QAE@ABV0@@Z12
xdata$x	ENDS
;	COMDAT __TI2?AVbad_cast@@
xdata$x	SEGMENT
__TI2?AVbad_cast@@ DD 00H
	DD	FLAT:??1bad_cast@@UAE@XZ
	DD	00H
	DD	FLAT:__CTA2?AVbad_cast@@
xdata$x	ENDS
;	COMDAT ??_7facet@locale@std@@6B@
CONST	SEGMENT
??_7facet@locale@std@@6B@ DD FLAT:??_Efacet@locale@std@@UAEPAXI@Z ; std::locale::facet::`vftable'
; Function compile flags: /Ogsy
; File c:\program files (x86)\microsoft visual studio .net 2003\vc7\include\xlocale
;	COMDAT ?_Decref@facet@locale@std@@QAEPAV123@XZ
_TEXT	SEGMENT
__Lock$ = -4						; size = 4
?_Decref@facet@locale@std@@QAEPAV123@XZ PROC NEAR	; std::locale::facet::_Decref, COMDAT
; _this$ = ecx

; 111  : 			{	// safely decrement the reference count, return this when dead

  00000	55		 push	 ebp
  00001	8b ec		 mov	 ebp, esp
  00003	51		 push	 ecx
  00004	56		 push	 esi
  00005	57		 push	 edi
  00006	8b f9		 mov	 edi, ecx

; 112  : 			_Lockit _Lock(_LOCK_LOCALE);

  00008	6a 00		 push	 0
  0000a	8d 4d fc	 lea	 ecx, DWORD PTR __Lock$[ebp]
  0000d	e8 00 00 00 00	 call	 ??0_Lockit@std@@QAE@H@Z	; std::_Lockit::_Lockit

; 113  : 
; 114  : 			if (0 < _Refs && _Refs < (size_t)(-1))

  00012	8b 47 04	 mov	 eax, DWORD PTR [edi+4]
  00015	85 c0		 test	 eax, eax
  00017	76 09		 jbe	 SHORT $L5082
  00019	83 f8 ff	 cmp	 eax, -1
  0001c	73 04		 jae	 SHORT $L5082

; 115  : 				--_Refs;

  0001e	48		 dec	 eax
  0001f	89 47 04	 mov	 DWORD PTR [edi+4], eax
$L5082:

; 116  : 			return (_Refs == 0 ? this : 0);

  00022	8b 77 04	 mov	 esi, DWORD PTR [edi+4]
  00025	f7 de		 neg	 esi
  00027	1b f6		 sbb	 esi, esi
  00029	f7 d6		 not	 esi
  0002b	8d 4d fc	 lea	 ecx, DWORD PTR __Lock$[ebp]
  0002e	23 f7		 and	 esi, edi
  00030	e8 00 00 00 00	 call	 ??1_Lockit@std@@QAE@XZ	; std::_Lockit::~_Lockit
  00035	5f		 pop	 edi
  00036	8b c6		 mov	 eax, esi
  00038	5e		 pop	 esi

; 117  : 			}

  00039	c9		 leave
  0003a	c3		 ret	 0
?_Decref@facet@locale@std@@QAEPAV123@XZ ENDP		; std::locale::facet::_Decref
; Function compile flags: /Ogsy
_TEXT	ENDS
;	COMDAT ??1locale@std@@QAE@XZ
_TEXT	SEGMENT
??1locale@std@@QAE@XZ PROC NEAR				; std::locale::~locale, COMDAT
; _this$ = ecx

; 246  : 		if (_Ptr != 0)

  00000	8b 09		 mov	 ecx, DWORD PTR [ecx]
  00002	85 c9		 test	 ecx, ecx
  00004	74 11		 je	 SHORT $L40649

; 247  : 			_DELETE_CRT(_Ptr->_Decref());

  00006	e8 00 00 00 00	 call	 ?_Decref@facet@locale@std@@QAEPAV123@XZ ; std::locale::facet::_Decref
  0000b	85 c0		 test	 eax, eax
  0000d	74 08		 je	 SHORT $L40649
  0000f	8b 10		 mov	 edx, DWORD PTR [eax]
  00011	6a 01		 push	 1
  00013	8b c8		 mov	 ecx, eax
  00015	ff 12		 call	 DWORD PTR [edx]
$L40649:

; 248  : 		}

  00017	c3		 ret	 0
??1locale@std@@QAE@XZ ENDP				; std::locale::~locale
; Function compile flags: /Ogsy
; File c:\program files (x86)\microsoft visual studio .net 2003\vc7\include\ios
_TEXT	ENDS
;	COMDAT ?tie@?$basic_ios@GU?$char_traits@G@std@@@std@@QBEPAV?$basic_ostream@GU?$char_traits@G@std@@@2@XZ
_TEXT	SEGMENT
?tie@?$basic_ios@GU?$char_traits@G@std@@@std@@QBEPAV?$basic_ostream@GU?$char_traits@G@std@@@2@XZ PROC NEAR ; std::basic_ios<unsigned short,std::char_traits<unsigned short> >::tie, COMDAT
; _this$ = eax

; 69   : 		return (_Tiestr);

  00000	8b 40 2c	 mov	 eax, DWORD PTR [eax+44]

; 70   : 		}

  00003	c3		 ret	 0
?tie@?$basic_ios@GU?$char_traits@G@std@@@std@@QBEPAV?$basic_ostream@GU?$char_traits@G@std@@@2@XZ ENDP ; std::basic_ios<unsigned short,std::char_traits<unsigned short> >::tie
; Function compile flags: /Ogsy
; File c:\program files (x86)\microsoft visual studio .net 2003\vc7\include\streambuf
_TEXT	ENDS
;	COMDAT ?_Lock@?$basic_streambuf@GU?$char_traits@G@std@@@std@@QAEXXZ
_TEXT	SEGMENT
?_Lock@?$basic_streambuf@GU?$char_traits@G@std@@@std@@QAEXXZ PROC NEAR ; std::basic_streambuf<unsigned short,std::char_traits<unsigned short> >::_Lock, COMDAT
; _this$ = ecx

; 158  : 		_Mylock._Lock();

  00000	83 c1 04	 add	 ecx, 4
  00003	e9 00 00 00 00	 jmp	 ?_Lock@_Mutex@std@@QAEXXZ ; std::_Mutex::_Lock
?_Lock@?$basic_streambuf@GU?$char_traits@G@std@@@std@@QAEXXZ ENDP ; std::basic_streambuf<unsigned short,std::char_traits<unsigned short> >::_Lock
; Function compile flags: /Ogsy
_TEXT	ENDS
;	COMDAT ?pubsync@?$basic_streambuf@GU?$char_traits@G@std@@@std@@QAEHXZ
_TEXT	SEGMENT
?pubsync@?$basic_streambuf@GU?$char_traits@G@std@@@std@@QAEHXZ PROC NEAR ; std::basic_streambuf<unsigned short,std::char_traits<unsigned short> >::pubsync, COMDAT
; _this$ = ecx

; 96   : 		return (sync());

  00000	8b 01		 mov	 eax, DWORD PTR [ecx]
  00002	ff 60 2c	 jmp	 DWORD PTR [eax+44]
?pubsync@?$basic_streambuf@GU?$char_traits@G@std@@@std@@QAEHXZ ENDP ; std::basic_streambuf<unsigned short,std::char_traits<unsigned short> >::pubsync
; Function compile flags: /Ogsy
_TEXT	ENDS
;	COMDAT ?_Unlock@?$basic_streambuf@GU?$char_traits@G@std@@@std@@QAEXXZ
_TEXT	SEGMENT
?_Unlock@?$basic_streambuf@GU?$char_traits@G@std@@@std@@QAEXXZ PROC NEAR ; std::basic_streambuf<unsigned short,std::char_traits<unsigned short> >::_Unlock, COMDAT
; _this$ = ecx

; 163  : 		_Mylock._Unlock();

  00000	83 c1 04	 add	 ecx, 4
  00003	e9 00 00 00 00	 jmp	 ?_Unlock@_Mutex@std@@QAEXXZ ; std::_Mutex::_Unlock
?_Unlock@?$basic_streambuf@GU?$char_traits@G@std@@@std@@QAEXXZ ENDP ; std::basic_streambuf<unsigned short,std::char_traits<unsigned short> >::_Unlock
; Function compile flags: /Ogsy
; File c:\program files (x86)\microsoft visual studio .net 2003\vc7\include\ostream
_TEXT	ENDS
;	COMDAT ??Bsentry@?$basic_ostream@GU?$char_traits@G@std@@@std@@QBE_NXZ
_TEXT	SEGMENT
??Bsentry@?$basic_ostream@GU?$char_traits@G@std@@@std@@QBE_NXZ PROC NEAR ; std::basic_ostream<unsigned short,std::char_traits<unsigned short> >::sentry::operator bool, COMDAT
; _this$ = eax

; 109  : 			return (_Ok);

  00000	8a 40 04	 mov	 al, BYTE PTR [eax+4]

; 110  : 			}

  00003	c3		 ret	 0
??Bsentry@?$basic_ostream@GU?$char_traits@G@std@@@std@@QBE_NXZ ENDP ; std::basic_ostream<unsigned short,std::char_traits<unsigned short> >::sentry::operator bool
; Function compile flags: /Ogsy
; File c:\program files (x86)\microsoft visual studio .net 2003\vc7\include\xiosbase
_TEXT	ENDS
;	COMDAT ?flags@ios_base@std@@QBEHXZ
_TEXT	SEGMENT
?flags@ios_base@std@@QBEHXZ PROC NEAR			; std::ios_base::flags, COMDAT
; _this$ = eax

; 325  : 		return (_Fmtfl);

  00000	8b 40 10	 mov	 eax, DWORD PTR [eax+16]

; 326  : 		}

  00003	c3		 ret	 0
?flags@ios_base@std@@QBEHXZ ENDP			; std::ios_base::flags
; Function compile flags: /Ogsy
; File c:\program files (x86)\microsoft visual studio .net 2003\vc7\include\ios
_TEXT	ENDS
;	COMDAT ?fill@?$basic_ios@GU?$char_traits@G@std@@@std@@QBEGXZ
_TEXT	SEGMENT
?fill@?$basic_ios@GU?$char_traits@G@std@@@std@@QBEGXZ PROC NEAR ; std::basic_ios<unsigned short,std::char_traits<unsigned short> >::fill, COMDAT
; _this$ = eax

; 102  : 		return (_Fillch);

  00000	66 8b 40 30	 mov	 ax, WORD PTR [eax+48]

; 103  : 		}

  00004	c3		 ret	 0
?fill@?$basic_ios@GU?$char_traits@G@std@@@std@@QBEGXZ ENDP ; std::basic_ios<unsigned short,std::char_traits<unsigned short> >::fill
; Function compile flags: /Ogsy
_TEXT	ENDS
;	COMDAT ?rdbuf@?$basic_ios@GU?$char_traits@G@std@@@std@@QBEPAV?$basic_streambuf@GU?$char_traits@G@std@@@2@XZ
_TEXT	SEGMENT
?rdbuf@?$basic_ios@GU?$char_traits@G@std@@@std@@QBEPAV?$basic_streambuf@GU?$char_traits@G@std@@@2@XZ PROC NEAR ; std::basic_ios<unsigned short,std::char_traits<unsigned short> >::rdbuf, COMDAT
; _this$ = ecx

; 81   : 		return (_Mystrbuf);

  00000	8b 41 28	 mov	 eax, DWORD PTR [ecx+40]

; 82   : 		}

  00003	c3		 ret	 0
?rdbuf@?$basic_ios@GU?$char_traits@G@std@@@std@@QBEPAV?$basic_streambuf@GU?$char_traits@G@std@@@2@XZ ENDP ; std::basic_ios<unsigned short,std::char_traits<unsigned short> >::rdbuf
; Function compile flags: /Ogsy
_TEXT	ENDS
;	COMDAT ?clear@?$basic_ios@GU?$char_traits@G@std@@@std@@QAEXH_N@Z
_TEXT	SEGMENT
__State$ = 8						; size = 4
__Except$ = 12						; size = 1
?clear@?$basic_ios@GU?$char_traits@G@std@@@std@@QAEXH_N@Z PROC NEAR ; std::basic_ios<unsigned short,std::char_traits<unsigned short> >::clear, COMDAT
; _this$ = ecx

; 39   : 		ios_base::clear((iostate)(_Mystrbuf == 0
; 40   : 			? (int)_State | (int)badbit : (int)_State), _Except);

  00000	83 79 28 00	 cmp	 DWORD PTR [ecx+40], 0
  00004	8b 44 24 04	 mov	 eax, DWORD PTR __State$[esp-4]
  00008	75 03		 jne	 SHORT $L40680
  0000a	83 c8 04	 or	 eax, 4
$L40680:
  0000d	ff 74 24 08	 push	 DWORD PTR __Except$[esp-4]
  00011	50		 push	 eax
  00012	e8 00 00 00 00	 call	 ?clear@ios_base@std@@QAEXH_N@Z ; std::ios_base::clear

; 41   : 		}

  00017	c2 08 00	 ret	 8
?clear@?$basic_ios@GU?$char_traits@G@std@@@std@@QAEXH_N@Z ENDP ; std::basic_ios<unsigned short,std::char_traits<unsigned short> >::clear
; Function compile flags: /Ogsy
_TEXT	ENDS
;	COMDAT ?tie@?$basic_ios@DU?$char_traits@D@std@@@std@@QBEPAV?$basic_ostream@DU?$char_traits@D@std@@@2@XZ
_TEXT	SEGMENT
?tie@?$basic_ios@DU?$char_traits@D@std@@@std@@QBEPAV?$basic_ostream@DU?$char_traits@D@std@@@2@XZ PROC NEAR ; std::basic_ios<char,std::char_traits<char> >::tie, COMDAT
; _this$ = eax

; 69   : 		return (_Tiestr);

  00000	8b 40 2c	 mov	 eax, DWORD PTR [eax+44]

; 70   : 		}

  00003	c3		 ret	 0
?tie@?$basic_ios@DU?$char_traits@D@std@@@std@@QBEPAV?$basic_ostream@DU?$char_traits@D@std@@@2@XZ ENDP ; std::basic_ios<char,std::char_traits<char> >::tie
; Function compile flags: /Ogsy
; File c:\program files (x86)\microsoft visual studio .net 2003\vc7\include\streambuf
_TEXT	ENDS
;	COMDAT ?_Lock@?$basic_streambuf@DU?$char_traits@D@std@@@std@@QAEXXZ
_TEXT	SEGMENT
?_Lock@?$basic_streambuf@DU?$char_traits@D@std@@@std@@QAEXXZ PROC NEAR ; std::basic_streambuf<char,std::char_traits<char> >::_Lock, COMDAT
; _this$ = ecx

; 158  : 		_Mylock._Lock();

  00000	83 c1 04	 add	 ecx, 4
  00003	e9 00 00 00 00	 jmp	 ?_Lock@_Mutex@std@@QAEXXZ ; std::_Mutex::_Lock
?_Lock@?$basic_streambuf@DU?$char_traits@D@std@@@std@@QAEXXZ ENDP ; std::basic_streambuf<char,std::char_traits<char> >::_Lock
; Function compile flags: /Ogsy
_TEXT	ENDS
;	COMDAT ?pubsync@?$basic_streambuf@DU?$char_traits@D@std@@@std@@QAEHXZ
_TEXT	SEGMENT
?pubsync@?$basic_streambuf@DU?$char_traits@D@std@@@std@@QAEHXZ PROC NEAR ; std::basic_streambuf<char,std::char_traits<char> >::pubsync, COMDAT
; _this$ = ecx

; 96   : 		return (sync());

  00000	8b 01		 mov	 eax, DWORD PTR [ecx]
  00002	ff 60 2c	 jmp	 DWORD PTR [eax+44]
?pubsync@?$basic_streambuf@DU?$char_traits@D@std@@@std@@QAEHXZ ENDP ; std::basic_streambuf<char,std::char_traits<char> >::pubsync
; Function compile flags: /Ogsy
_TEXT	ENDS
;	COMDAT ?_Unlock@?$basic_streambuf@DU?$char_traits@D@std@@@std@@QAEXXZ
_TEXT	SEGMENT
?_Unlock@?$basic_streambuf@DU?$char_traits@D@std@@@std@@QAEXXZ PROC NEAR ; std::basic_streambuf<char,std::char_traits<char> >::_Unlock, COMDAT
; _this$ = ecx

; 163  : 		_Mylock._Unlock();

  00000	83 c1 04	 add	 ecx, 4
  00003	e9 00 00 00 00	 jmp	 ?_Unlock@_Mutex@std@@QAEXXZ ; std::_Mutex::_Unlock
?_Unlock@?$basic_streambuf@DU?$char_traits@D@std@@@std@@QAEXXZ ENDP ; std::basic_streambuf<char,std::char_traits<char> >::_Unlock
; Function compile flags: /Ogsy
; File c:\program files (x86)\microsoft visual studio .net 2003\vc7\include\ostream
_TEXT	ENDS
;	COMDAT ??Bsentry@?$basic_ostream@DU?$char_traits@D@std@@@std@@QBE_NXZ
_TEXT	SEGMENT
??Bsentry@?$basic_ostream@DU?$char_traits@D@std@@@std@@QBE_NXZ PROC NEAR ; std::basic_ostream<char,std::char_traits<char> >::sentry::operator bool, COMDAT
; _this$ = eax

; 109  : 			return (_Ok);

  00000	8a 40 04	 mov	 al, BYTE PTR [eax+4]

; 110  : 			}

  00003	c3		 ret	 0
??Bsentry@?$basic_ostream@DU?$char_traits@D@std@@@std@@QBE_NXZ ENDP ; std::basic_ostream<char,std::char_traits<char> >::sentry::operator bool
; Function compile flags: /Ogsy
; File c:\program files (x86)\microsoft visual studio .net 2003\vc7\include\ios
_TEXT	ENDS
;	COMDAT ?rdbuf@?$basic_ios@DU?$char_traits@D@std@@@std@@QBEPAV?$basic_streambuf@DU?$char_traits@D@std@@@2@XZ
_TEXT	SEGMENT
?rdbuf@?$basic_ios@DU?$char_traits@D@std@@@std@@QBEPAV?$basic_streambuf@DU?$char_traits@D@std@@@2@XZ PROC NEAR ; std::basic_ios<char,std::char_traits<char> >::rdbuf, COMDAT
; _this$ = eax

; 81   : 		return (_Mystrbuf);

  00000	8b 40 28	 mov	 eax, DWORD PTR [eax+40]

; 82   : 		}

  00003	c3		 ret	 0
?rdbuf@?$basic_ios@DU?$char_traits@D@std@@@std@@QBEPAV?$basic_streambuf@DU?$char_traits@D@std@@@2@XZ ENDP ; std::basic_ios<char,std::char_traits<char> >::rdbuf
; Function compile flags: /Ogsy
; File c:\program files (x86)\microsoft visual studio .net 2003\vc7\include\xiosbase
_TEXT	ENDS
;	COMDAT ?rdstate@ios_base@std@@QBEHXZ
_TEXT	SEGMENT
?rdstate@ios_base@std@@QBEHXZ PROC NEAR			; std::ios_base::rdstate, COMDAT
; _this$ = ecx

; 266  : 		return (_Mystate);

  00000	8b 41 08	 mov	 eax, DWORD PTR [ecx+8]

; 267  : 		}

  00003	c3		 ret	 0
?rdstate@ios_base@std@@QBEHXZ ENDP			; std::ios_base::rdstate
; Function compile flags: /Ogsy
; File c:\program files (x86)\microsoft visual studio .net 2003\vc7\include\ios
_TEXT	ENDS
;	COMDAT ?clear@?$basic_ios@DU?$char_traits@D@std@@@std@@QAEXH_N@Z
_TEXT	SEGMENT
__State$ = 8						; size = 4
__Except$ = 12						; size = 1
?clear@?$basic_ios@DU?$char_traits@D@std@@@std@@QAEXH_N@Z PROC NEAR ; std::basic_ios<char,std::char_traits<char> >::clear, COMDAT
; _this$ = ecx

; 39   : 		ios_base::clear((iostate)(_Mystrbuf == 0
; 40   : 			? (int)_State | (int)badbit : (int)_State), _Except);

  00000	83 79 28 00	 cmp	 DWORD PTR [ecx+40], 0
  00004	8b 44 24 04	 mov	 eax, DWORD PTR __State$[esp-4]
  00008	75 03		 jne	 SHORT $L40707
  0000a	83 c8 04	 or	 eax, 4
$L40707:
  0000d	ff 74 24 08	 push	 DWORD PTR __Except$[esp-4]
  00011	50		 push	 eax
  00012	e8 00 00 00 00	 call	 ?clear@ios_base@std@@QAEXH_N@Z ; std::ios_base::clear

; 41   : 		}

  00017	c2 08 00	 ret	 8
?clear@?$basic_ios@DU?$char_traits@D@std@@@std@@QAEXH_N@Z ENDP ; std::basic_ios<char,std::char_traits<char> >::clear
; Function compile flags: /Ogsy
_TEXT	ENDS
;	COMDAT ?setstate@?$basic_ios@DU?$char_traits@D@std@@@std@@QAEXH_N@Z
_TEXT	SEGMENT
__State$ = 8						; size = 4
__Except$ = 12						; size = 1
?setstate@?$basic_ios@DU?$char_traits@D@std@@@std@@QAEXH_N@Z PROC NEAR ; std::basic_ios<char,std::char_traits<char> >::setstate, COMDAT
; _this$ = ecx

; 50   : 		if (_State != goodbit)

  00000	83 7c 24 04 00	 cmp	 DWORD PTR __State$[esp-4], 0
  00005	74 11		 je	 SHORT $L22950

; 51   : 			clear((iostate)((int)rdstate() | (int)_State), _Except);

  00007	8b 41 08	 mov	 eax, DWORD PTR [ecx+8]
  0000a	ff 74 24 08	 push	 DWORD PTR __Except$[esp-4]
  0000e	0b 44 24 08	 or	 eax, DWORD PTR __State$[esp]
  00012	50		 push	 eax
  00013	e8 00 00 00 00	 call	 ?clear@?$basic_ios@DU?$char_traits@D@std@@@std@@QAEXH_N@Z ; std::basic_ios<char,std::char_traits<char> >::clear
$L22950:

; 52   : 		}

  00018	c2 08 00	 ret	 8
?setstate@?$basic_ios@DU?$char_traits@D@std@@@std@@QAEXH_N@Z ENDP ; std::basic_ios<char,std::char_traits<char> >::setstate
; Function compile flags: /Ogsy
; File c:\program files (x86)\microsoft visual studio .net 2003\vc7\include\xlocale
_TEXT	ENDS
;	COMDAT ??1facet@locale@std@@UAE@XZ
_TEXT	SEGMENT
??1facet@locale@std@@UAE@XZ PROC NEAR			; std::locale::facet::~facet, COMDAT
; _this$ = ecx

; 123  : 			{	// destroy the object

  00000	c7 01 00 00 00
	00		 mov	 DWORD PTR [ecx], OFFSET FLAT:??_7facet@locale@std@@6B@

; 124  : 			}

  00006	c3		 ret	 0
??1facet@locale@std@@UAE@XZ ENDP			; std::locale::facet::~facet
; Function compile flags: /Ogsy
; File c:\program files (x86)\microsoft visual studio .net 2003\vc7\include\xiosbase
_TEXT	ENDS
;	COMDAT ?width@ios_base@std@@QBEHXZ
_TEXT	SEGMENT
?width@ios_base@std@@QBEHXZ PROC NEAR			; std::ios_base::width, COMDAT
; _this$ = eax

; 370  : 		return (_Wide);

  00000	8b 40 18	 mov	 eax, DWORD PTR [eax+24]

; 371  : 		}

  00003	c3		 ret	 0
?width@ios_base@std@@QBEHXZ ENDP			; std::ios_base::width
; Function compile flags: /Ogsy
_TEXT	ENDS
;	COMDAT ?width@ios_base@std@@QAEHH@Z
_TEXT	SEGMENT
__Newwidth$ = 8						; size = 4
?width@ios_base@std@@QAEHH@Z PROC NEAR			; std::ios_base::width, COMDAT
; _this$ = ecx

; 375  : 		streamsize _Oldwidth = _Wide;
; 376  : 		_Wide = _Newwidth;

  00000	8b 54 24 04	 mov	 edx, DWORD PTR __Newwidth$[esp-4]
  00004	8b 41 18	 mov	 eax, DWORD PTR [ecx+24]
  00007	89 51 18	 mov	 DWORD PTR [ecx+24], edx

; 377  : 		return (_Oldwidth);
; 378  : 		}

  0000a	c2 04 00	 ret	 4
?width@ios_base@std@@QAEHH@Z ENDP			; std::ios_base::width
; Function compile flags: /Ogsy
_TEXT	ENDS
;	COMDAT ?precision@ios_base@std@@QBEHXZ
_TEXT	SEGMENT
?precision@ios_base@std@@QBEHXZ PROC NEAR		; std::ios_base::precision, COMDAT
; _this$ = eax

; 358  : 		return (_Prec);

  00000	8b 40 14	 mov	 eax, DWORD PTR [eax+20]

; 359  : 		}

  00003	c3		 ret	 0
?precision@ios_base@std@@QBEHXZ ENDP			; std::ios_base::precision
; Function compile flags: /Ogsy
; File c:\program files (x86)\microsoft visual studio .net 2003\vc7\include\xstring
_TEXT	ENDS
;	COMDAT ?size@?$basic_string@DU?$char_traits@D@std@@V?$allocator@D@2@@std@@QBEIXZ
_TEXT	SEGMENT
?size@?$basic_string@DU?$char_traits@D@std@@V?$allocator@D@2@@std@@QBEIXZ PROC NEAR ; std::basic_string<char,std::char_traits<char>,std::allocator<char> >::size, COMDAT
; _this$ = ecx

; 1109 : 		return (_Mysize);

  00000	8b 41 14	 mov	 eax, DWORD PTR [ecx+20]

; 1110 : 		}

  00003	c3		 ret	 0
?size@?$basic_string@DU?$char_traits@D@std@@V?$allocator@D@2@@std@@QBEIXZ ENDP ; std::basic_string<char,std::char_traits<char>,std::allocator<char> >::size
; Function compile flags: /Ogsy
; File c:\program files (x86)\microsoft visual studio .net 2003\vc7\include\xlocale
_TEXT	ENDS
;	COMDAT ??$_Maklocchr@G@std@@YAGDPAGABU_Cvtvec@@@Z
_TEXT	SEGMENT
__Mbst1$ = -8						; size = 4
__Wc$ = -4						; size = 2
__Byte$ = 8						; size = 1
___formal$ = 12						; size = 4
__Cvt$ = 16						; size = 4
??$_Maklocchr@G@std@@YAGDPAGABU_Cvtvec@@@Z PROC NEAR	; std::_Maklocchr<unsigned short>, COMDAT

; 437  : 	{	// convert char to wchar_t using _Cvtvec

  00000	55		 push	 ebp
  00001	8b ec		 mov	 ebp, esp
  00003	51		 push	 ecx
  00004	51		 push	 ecx

; 438  : 	wchar_t _Wc = L'\0';
; 439  : 	_Mbstinit(_Mbst1);
; 440  : 	_Mbrtowc(&_Wc, &_Byte, 1, &_Mbst1, &_Cvt);

  00005	ff 75 10	 push	 DWORD PTR __Cvt$[ebp]
  00008	83 65 fc 00	 and	 DWORD PTR __Wc$[ebp], 0
  0000c	83 65 f8 00	 and	 DWORD PTR __Mbst1$[ebp], 0
  00010	8d 45 f8	 lea	 eax, DWORD PTR __Mbst1$[ebp]
  00013	50		 push	 eax
  00014	6a 01		 push	 1
  00016	8d 45 08	 lea	 eax, DWORD PTR __Byte$[ebp]
  00019	50		 push	 eax
  0001a	8d 45 fc	 lea	 eax, DWORD PTR __Wc$[ebp]
  0001d	50		 push	 eax
  0001e	e8 00 00 00 00	 call	 __Mbrtowc

; 441  : 	return (_Wc);

  00023	66 8b 45 fc	 mov	 ax, WORD PTR __Wc$[ebp]
  00027	83 c4 14	 add	 esp, 20			; 00000014H

; 442  : 	}

  0002a	c9		 leave
  0002b	c3		 ret	 0
??$_Maklocchr@G@std@@YAGDPAGABU_Cvtvec@@@Z ENDP		; std::_Maklocchr<unsigned short>
; Function compile flags: /Ogsy
; File c:\program files (x86)\microsoft visual studio .net 2003\vc7\include\xmemory
_TEXT	ENDS
;	COMDAT ??0?$allocator@D@std@@QAE@ABV01@@Z
_TEXT	SEGMENT
___formal$ = 8						; size = 4
??0?$allocator@D@std@@QAE@ABV01@@Z PROC NEAR		; std::allocator<char>::allocator<char>, COMDAT
; _this$ = ecx

; 115  : 	allocator(const allocator<_Ty>&)

  00000	8b c1		 mov	 eax, ecx

; 116  : 		{	// construct by copying (do nothing)
; 117  : 		}

  00002	c2 04 00	 ret	 4
??0?$allocator@D@std@@QAE@ABV01@@Z ENDP			; std::allocator<char>::allocator<char>
; Function compile flags: /Ogsy
; File c:\program files (x86)\microsoft visual studio .net 2003\vc7\include\xstring
_TEXT	ENDS
;	COMDAT ??0?$_String_val@DV?$allocator@D@std@@@std@@IAE@V?$allocator@D@1@@Z
_TEXT	SEGMENT
__Al$ = 8						; size = 1
??0?$_String_val@DV?$allocator@D@std@@@std@@IAE@V?$allocator@D@1@@Z PROC NEAR ; std::_String_val<char,std::allocator<char> >::_String_val<char,std::allocator<char> >, COMDAT
; _this$ = ecx

; 34   : 		{	// construct allocator from _Al

  00000	8b c1		 mov	 eax, ecx

; 35   : 		}

  00002	c2 04 00	 ret	 4
??0?$_String_val@DV?$allocator@D@std@@@std@@IAE@V?$allocator@D@1@@Z ENDP ; std::_String_val<char,std::allocator<char> >::_String_val<char,std::allocator<char> >
; Function compile flags: /Ogsy
; File c:\program files (x86)\microsoft visual studio .net 2003\vc7\include\xmemory
_TEXT	ENDS
;	COMDAT ??0?$allocator@D@std@@QAE@XZ
_TEXT	SEGMENT
??0?$allocator@D@std@@QAE@XZ PROC NEAR			; std::allocator<char>::allocator<char>, COMDAT
; _this$ = ecx

; 111  : 	allocator()

  00000	8b c1		 mov	 eax, ecx

; 112  : 		{	// construct default allocator (do nothing)
; 113  : 		}

  00002	c3		 ret	 0
??0?$allocator@D@std@@QAE@XZ ENDP			; std::allocator<char>::allocator<char>
; Function compile flags: /Ogsy
_TEXT	ENDS
;	COMDAT ?deallocate@?$allocator@D@std@@QAEXPADI@Z
_TEXT	SEGMENT
__Ptr$ = 8						; size = 4
___formal$ = 12						; size = 4
?deallocate@?$allocator@D@std@@QAEXPADI@Z PROC NEAR	; std::allocator<char>::deallocate, COMDAT
; _this$ = ecx

; 132  : 		operator delete(_Ptr);

  00000	ff 74 24 04	 push	 DWORD PTR __Ptr$[esp-4]
  00004	e8 00 00 00 00	 call	 ??3@YAXPAX@Z		; operator delete
  00009	59		 pop	 ecx

; 133  : 		}

  0000a	c2 08 00	 ret	 8
?deallocate@?$allocator@D@std@@QAEXPADI@Z ENDP		; std::allocator<char>::deallocate
; Function compile flags: /Ogsy
; File c:\program files (x86)\microsoft visual studio .net 2003\vc7\include\xstring
_TEXT	ENDS
;	COMDAT ?_Myptr@?$basic_string@DU?$char_traits@D@std@@V?$allocator@D@2@@std@@QAEPADXZ
_TEXT	SEGMENT
?_Myptr@?$basic_string@DU?$char_traits@D@std@@V?$allocator@D@2@@std@@QAEPADXZ PROC NEAR ; std::basic_string<char,std::char_traits<char>,std::allocator<char> >::_Myptr, COMDAT
; _this$ = ecx

; 1532 : 		return (_BUF_SIZE <= _Myres ? _Bx._Ptr : _Bx._Buf);

  00000	83 79 18 10	 cmp	 DWORD PTR [ecx+24], 16	; 00000010H
  00004	72 04		 jb	 SHORT $L40750
  00006	8b 41 04	 mov	 eax, DWORD PTR [ecx+4]

; 1533 : 		}

  00009	c3		 ret	 0
$L40750:

; 1532 : 		return (_BUF_SIZE <= _Myres ? _Bx._Ptr : _Bx._Buf);

  0000a	8d 41 04	 lea	 eax, DWORD PTR [ecx+4]

; 1533 : 		}

  0000d	c3		 ret	 0
?_Myptr@?$basic_string@DU?$char_traits@D@std@@V?$allocator@D@2@@std@@QAEPADXZ ENDP ; std::basic_string<char,std::char_traits<char>,std::allocator<char> >::_Myptr
; Function compile flags: /Ogsy
; File c:\program files (x86)\microsoft visual studio .net 2003\vc7\include\xmemory
_TEXT	ENDS
;	COMDAT ??$_Allocate@D@std@@YAPADIPAD@Z
_TEXT	SEGMENT
__Count$ = 8						; size = 4
___formal$ = 12						; size = 4
??$_Allocate@D@std@@YAPADIPAD@Z PROC NEAR		; std::_Allocate<char>, COMDAT

; 34   : 	return ((_Ty _FARQ *)operator new(_Count * sizeof (_Ty)));

  00000	ff 74 24 04	 push	 DWORD PTR __Count$[esp-4]
  00004	e8 00 00 00 00	 call	 ??2@YAPAXI@Z		; operator new
  00009	59		 pop	 ecx

; 35   : 	}

  0000a	c3		 ret	 0
??$_Allocate@D@std@@YAPADIPAD@Z ENDP			; std::_Allocate<char>
; Function compile flags: /Ogsy
_TEXT	ENDS
;	COMDAT ?allocate@?$allocator@D@std@@QAEPADI@Z
_TEXT	SEGMENT
__Count$ = 8						; size = 4
?allocate@?$allocator@D@std@@QAEPADI@Z PROC NEAR	; std::allocator<char>::allocate, COMDAT
; _this$ = ecx

; 137  : 		return (_Allocate(_Count, (pointer)0));

  00000	ff 74 24 04	 push	 DWORD PTR __Count$[esp-4]
  00004	e8 00 00 00 00	 call	 ??2@YAPAXI@Z		; operator new
  00009	59		 pop	 ecx

; 138  : 		}

  0000a	c2 04 00	 ret	 4
?allocate@?$allocator@D@std@@QAEPADI@Z ENDP		; std::allocator<char>::allocate
; Function compile flags: /Ogsy
_TEXT	ENDS
;	COMDAT ?max_size@?$allocator@D@std@@QBEIXZ
_TEXT	SEGMENT
?max_size@?$allocator@D@std@@QBEIXZ PROC NEAR		; std::allocator<char>::max_size, COMDAT
; _this$ = ecx

; 157  : 		_SIZT _Count = (_SIZT)(-1) / sizeof (_Ty);
; 158  : 		return (0 < _Count ? _Count : 1);

  00000	83 c8 ff	 or	 eax, -1

; 159  : 		}

  00003	c3		 ret	 0
?max_size@?$allocator@D@std@@QBEIXZ ENDP		; std::allocator<char>::max_size
; Function compile flags: /Ogsy
; File c:\program files (x86)\microsoft visual studio .net 2003\vc7\include\xstring
_TEXT	ENDS
;	COMDAT ?max_size@?$basic_string@DU?$char_traits@D@std@@V?$allocator@D@2@@std@@QBEIXZ
_TEXT	SEGMENT
?max_size@?$basic_string@DU?$char_traits@D@std@@V?$allocator@D@2@@std@@QBEIXZ PROC NEAR ; std::basic_string<char,std::char_traits<char>,std::allocator<char> >::max_size, COMDAT
; _this$ = ecx

; 1114 : 		size_type _Num = _Mybase::_Alval.max_size();
; 1115 : 		return (_Num <= 1 ? 1 : _Num - 1);

  00000	6a fe		 push	 -2			; fffffffeH
  00002	58		 pop	 eax

; 1116 : 		}

  00003	c3		 ret	 0
?max_size@?$basic_string@DU?$char_traits@D@std@@V?$allocator@D@2@@std@@QBEIXZ ENDP ; std::basic_string<char,std::char_traits<char>,std::allocator<char> >::max_size
; Function compile flags: /Ogsy
; File c:\program files (x86)\microsoft visual studio .net 2003\vc7\include\iosfwd
_TEXT	ENDS
;	COMDAT ?copy@?$char_traits@D@std@@SAPADPADPBDI@Z
_TEXT	SEGMENT
__First1$ = 8						; size = 4
__First2$ = 12						; size = 4
__Count$ = 16						; size = 4
?copy@?$char_traits@D@std@@SAPADPADPBDI@Z PROC NEAR	; std::char_traits<char>::copy, COMDAT

; 358  : 		return ((_Elem *)::memcpy(_First1, _First2, _Count));

  00000	8b 4c 24 0c	 mov	 ecx, DWORD PTR __Count$[esp-4]
  00004	56		 push	 esi
  00005	8b 74 24 0c	 mov	 esi, DWORD PTR __First2$[esp]
  00009	57		 push	 edi
  0000a	8b 7c 24 0c	 mov	 edi, DWORD PTR __First1$[esp+4]
  0000e	8b c1		 mov	 eax, ecx
  00010	8b d7		 mov	 edx, edi
  00012	c1 e9 02	 shr	 ecx, 2
  00015	f3 a5		 rep movsd
  00017	8b c8		 mov	 ecx, eax
  00019	83 e1 03	 and	 ecx, 3
  0001c	f3 a4		 rep movsb
  0001e	5f		 pop	 edi
  0001f	8b c2		 mov	 eax, edx
  00021	5e		 pop	 esi

; 359  : 		}

  00022	c3		 ret	 0
?copy@?$char_traits@D@std@@SAPADPADPBDI@Z ENDP		; std::char_traits<char>::copy
; Function compile flags: /Ogsy
_TEXT	ENDS
;	COMDAT ?assign@?$char_traits@D@std@@SAXAADABD@Z
_TEXT	SEGMENT
__Left$ = 8						; size = 4
__Right$ = 12						; size = 4
?assign@?$char_traits@D@std@@SAXAADABD@Z PROC NEAR	; std::char_traits<char>::assign, COMDAT

; 331  : 		_Left = _Right;

  00000	8b 44 24 08	 mov	 eax, DWORD PTR __Right$[esp-4]
  00004	8a 00		 mov	 al, BYTE PTR [eax]
  00006	8b 4c 24 04	 mov	 ecx, DWORD PTR __Left$[esp-4]
  0000a	88 01		 mov	 BYTE PTR [ecx], al

; 332  : 		}

  0000c	c3		 ret	 0
?assign@?$char_traits@D@std@@SAXAADABD@Z ENDP		; std::char_traits<char>::assign
; Function compile flags: /Ogsy
; File c:\program files (x86)\microsoft visual studio .net 2003\vc7\include\xstring
_TEXT	ENDS
;	COMDAT ?_Eos@?$basic_string@DU?$char_traits@D@std@@V?$allocator@D@2@@std@@IAEXI@Z
_TEXT	SEGMENT
__Newsize$ = 8						; size = 4
?_Eos@?$basic_string@DU?$char_traits@D@std@@V?$allocator@D@2@@std@@IAEXI@Z PROC NEAR ; std::basic_string<char,std::char_traits<char>,std::allocator<char> >::_Eos, COMDAT
; _this$ = ecx

; 1475 : 		_Traits::assign(_Myptr()[_Mysize = _Newsize], _Elem());

  00000	83 79 18 10	 cmp	 DWORD PTR [ecx+24], 16	; 00000010H
  00004	8b 44 24 04	 mov	 eax, DWORD PTR __Newsize$[esp-4]
  00008	89 41 14	 mov	 DWORD PTR [ecx+20], eax
  0000b	72 05		 jb	 SHORT $L40794
  0000d	8b 49 04	 mov	 ecx, DWORD PTR [ecx+4]
  00010	eb 03		 jmp	 SHORT $L40795
$L40794:
  00012	83 c1 04	 add	 ecx, 4
$L40795:
  00015	c6 04 01 00	 mov	 BYTE PTR [ecx+eax], 0

; 1476 : 		}

  00019	c2 04 00	 ret	 4
?_Eos@?$basic_string@DU?$char_traits@D@std@@V?$allocator@D@2@@std@@IAEXI@Z ENDP ; std::basic_string<char,std::char_traits<char>,std::allocator<char> >::_Eos
; Function compile flags: /Ogsy
; File c:\program files (x86)\microsoft visual studio .net 2003\vc7\include\iosfwd
_TEXT	ENDS
;	COMDAT ?move@?$char_traits@D@std@@SAPADPADPBDI@Z
_TEXT	SEGMENT
__First1$ = 8						; size = 4
__First2$ = 12						; size = 4
__Count$ = 16						; size = 4
?move@?$char_traits@D@std@@SAPADPADPBDI@Z PROC NEAR	; std::char_traits<char>::move, COMDAT

; 370  : 		return ((_Elem *)::memmove(_First1, _First2, _Count));

  00000	e9 00 00 00 00	 jmp	 _memmove
?move@?$char_traits@D@std@@SAPADPADPBDI@Z ENDP		; std::char_traits<char>::move
; Function compile flags: /Ogsy
_TEXT	ENDS
;	COMDAT ?assign@?$char_traits@D@std@@SAPADPADID@Z
_TEXT	SEGMENT
__First$ = 8						; size = 4
__Count$ = 12						; size = 4
__Ch$ = 16						; size = 1
?assign@?$char_traits@D@std@@SAPADPADID@Z PROC NEAR	; std::char_traits<char>::assign, COMDAT

; 375  : 		return ((_Elem *)::memset(_First, _Ch, _Count));

  00000	0f be 44 24 0c	 movsx	 eax, BYTE PTR __Ch$[esp-4]
  00005	8b 4c 24 08	 mov	 ecx, DWORD PTR __Count$[esp-4]
  00009	53		 push	 ebx
  0000a	8a d8		 mov	 bl, al
  0000c	8a fb		 mov	 bh, bl
  0000e	56		 push	 esi
  0000f	57		 push	 edi
  00010	8b 7c 24 10	 mov	 edi, DWORD PTR __First$[esp+8]
  00014	8b d1		 mov	 edx, ecx
  00016	8b f7		 mov	 esi, edi
  00018	c1 e9 02	 shr	 ecx, 2
  0001b	8b c3		 mov	 eax, ebx
  0001d	c1 e0 10	 shl	 eax, 16			; 00000010H
  00020	66 8b c3	 mov	 ax, bx
  00023	f3 ab		 rep stosd
  00025	8b ca		 mov	 ecx, edx
  00027	83 e1 03	 and	 ecx, 3
  0002a	f3 aa		 rep stosb
  0002c	5f		 pop	 edi
  0002d	8b c6		 mov	 eax, esi
  0002f	5e		 pop	 esi
  00030	5b		 pop	 ebx

; 376  : 		}

  00031	c3		 ret	 0
?assign@?$char_traits@D@std@@SAPADPADID@Z ENDP		; std::char_traits<char>::assign
; Function compile flags: /Ogsy
_TEXT	ENDS
;	COMDAT ?eq_int_type@?$char_traits@G@std@@SA_NABG0@Z
_TEXT	SEGMENT
?eq_int_type@?$char_traits@G@std@@SA_NABG0@Z PROC NEAR	; std::char_traits<unsigned short>::eq_int_type, COMDAT
; __Left$ = eax
; __Right$ = ecx

; 304  : 		return (_Left == _Right);

  00000	66 8b 00	 mov	 ax, WORD PTR [eax]
  00003	66 2b 01	 sub	 ax, WORD PTR [ecx]
  00006	66 f7 d8	 neg	 ax
  00009	1b c0		 sbb	 eax, eax
  0000b	40		 inc	 eax

; 305  : 		}

  0000c	c3		 ret	 0
?eq_int_type@?$char_traits@G@std@@SA_NABG0@Z ENDP	; std::char_traits<unsigned short>::eq_int_type
; Function compile flags: /Ogsy
_TEXT	ENDS
;	COMDAT ?to_int_type@?$char_traits@G@std@@SAGABG@Z
_TEXT	SEGMENT
?to_int_type@?$char_traits@G@std@@SAGABG@Z PROC NEAR	; std::char_traits<unsigned short>::to_int_type, COMDAT
; __Ch$ = eax

; 298  : 		return (_Ch);

  00000	66 8b 00	 mov	 ax, WORD PTR [eax]

; 299  : 		}

  00003	c3		 ret	 0
?to_int_type@?$char_traits@G@std@@SAGABG@Z ENDP		; std::char_traits<unsigned short>::to_int_type
; Function compile flags: /Ogsy
; File c:\program files (x86)\microsoft visual studio .net 2003\vc7\include\streambuf
_TEXT	ENDS
;	COMDAT ?_Pninc@?$basic_streambuf@GU?$char_traits@G@std@@@std@@IAEPAGXZ
_TEXT	SEGMENT
?_Pninc@?$basic_streambuf@GU?$char_traits@G@std@@@std@@IAEPAGXZ PROC NEAR ; std::basic_streambuf<unsigned short,std::char_traits<unsigned short> >::_Pninc, COMDAT
; _this$ = ecx

; 245  : 		--*_IPcount;

  00000	8b 41 34	 mov	 eax, DWORD PTR [ecx+52]
  00003	ff 08		 dec	 DWORD PTR [eax]

; 246  : 		return ((*_IPnext)++);

  00005	8b 49 24	 mov	 ecx, DWORD PTR [ecx+36]
  00008	8b 01		 mov	 eax, DWORD PTR [ecx]
  0000a	8d 50 02	 lea	 edx, DWORD PTR [eax+2]
  0000d	89 11		 mov	 DWORD PTR [ecx], edx

; 247  : 		}

  0000f	c3		 ret	 0
?_Pninc@?$basic_streambuf@GU?$char_traits@G@std@@@std@@IAEPAGXZ ENDP ; std::basic_streambuf<unsigned short,std::char_traits<unsigned short> >::_Pninc
; Function compile flags: /Ogsy
_TEXT	ENDS
;	COMDAT ?epptr@?$basic_streambuf@GU?$char_traits@G@std@@@std@@IBEPAGXZ
_TEXT	SEGMENT
?epptr@?$basic_streambuf@GU?$char_traits@G@std@@@std@@IBEPAGXZ PROC NEAR ; std::basic_streambuf<unsigned short,std::char_traits<unsigned short> >::epptr, COMDAT
; _this$ = eax

; 208  : 		return (*_IPnext + *_IPcount);

  00000	8b 48 34	 mov	 ecx, DWORD PTR [eax+52]
  00003	8b 40 24	 mov	 eax, DWORD PTR [eax+36]
  00006	8b 09		 mov	 ecx, DWORD PTR [ecx]
  00008	8b 00		 mov	 eax, DWORD PTR [eax]
  0000a	8d 04 48	 lea	 eax, DWORD PTR [eax+ecx*2]

; 209  : 		}

  0000d	c3		 ret	 0
?epptr@?$basic_streambuf@GU?$char_traits@G@std@@@std@@IBEPAGXZ ENDP ; std::basic_streambuf<unsigned short,std::char_traits<unsigned short> >::epptr
; Function compile flags: /Ogsy
_TEXT	ENDS
;	COMDAT ?pptr@?$basic_streambuf@GU?$char_traits@G@std@@@std@@IBEPAGXZ
_TEXT	SEGMENT
?pptr@?$basic_streambuf@GU?$char_traits@G@std@@@std@@IBEPAGXZ PROC NEAR ; std::basic_streambuf<unsigned short,std::char_traits<unsigned short> >::pptr, COMDAT
; _this$ = eax

; 185  : 		return (*_IPnext);

  00000	8b 40 24	 mov	 eax, DWORD PTR [eax+36]
  00003	8b 00		 mov	 eax, DWORD PTR [eax]

; 186  : 		}

  00005	c3		 ret	 0
?pptr@?$basic_streambuf@GU?$char_traits@G@std@@@std@@IBEPAGXZ ENDP ; std::basic_streambuf<unsigned short,std::char_traits<unsigned short> >::pptr
; Function compile flags: /Ogsy
_TEXT	ENDS
;	COMDAT ?sputc@?$basic_streambuf@GU?$char_traits@G@std@@@std@@QAEGG@Z
_TEXT	SEGMENT
__Ch$ = 8						; size = 2
?sputc@?$basic_streambuf@GU?$char_traits@G@std@@@std@@QAEGG@Z PROC NEAR ; std::basic_streambuf<unsigned short,std::char_traits<unsigned short> >::sputc, COMDAT
; _this$ = ecx

; 146  : 		return (pptr() != 0 && pptr() < epptr()
; 147  : 			? _Traits::to_int_type(*_Pninc() = _Ch)
; 148  : 			: overflow(_Traits::to_int_type(_Ch)));

  00000	8b 41 24	 mov	 eax, DWORD PTR [ecx+36]
  00003	83 38 00	 cmp	 DWORD PTR [eax], 0
  00006	74 29		 je	 SHORT $L40824
  00008	8b 51 34	 mov	 edx, DWORD PTR [ecx+52]
  0000b	8b 00		 mov	 eax, DWORD PTR [eax]
  0000d	8b 12		 mov	 edx, DWORD PTR [edx]
  0000f	8d 14 50	 lea	 edx, DWORD PTR [eax+edx*2]
  00012	3b c2		 cmp	 eax, edx
  00014	73 1b		 jae	 SHORT $L40824
  00016	8b 41 34	 mov	 eax, DWORD PTR [ecx+52]
  00019	ff 08		 dec	 DWORD PTR [eax]
  0001b	8b 49 24	 mov	 ecx, DWORD PTR [ecx+36]
  0001e	8b 01		 mov	 eax, DWORD PTR [ecx]
  00020	8d 50 02	 lea	 edx, DWORD PTR [eax+2]
  00023	89 11		 mov	 DWORD PTR [ecx], edx
  00025	8b 4c 24 04	 mov	 ecx, DWORD PTR __Ch$[esp-4]
  00029	66 89 08	 mov	 WORD PTR [eax], cx
  0002c	8b c1		 mov	 eax, ecx

; 149  : 		}

  0002e	c2 04 00	 ret	 4
$L40824:

; 146  : 		return (pptr() != 0 && pptr() < epptr()
; 147  : 			? _Traits::to_int_type(*_Pninc() = _Ch)
; 148  : 			: overflow(_Traits::to_int_type(_Ch)));

  00031	8b 01		 mov	 eax, DWORD PTR [ecx]
  00033	ff 60 04	 jmp	 DWORD PTR [eax+4]
?sputc@?$basic_streambuf@GU?$char_traits@G@std@@@std@@QAEGG@Z ENDP ; std::basic_streambuf<unsigned short,std::char_traits<unsigned short> >::sputc
; Function compile flags: /Ogsy
; File c:\program files (x86)\microsoft visual studio .net 2003\vc7\include\iosfwd
_TEXT	ENDS
;	COMDAT ?eof@?$char_traits@G@std@@SAGXZ
_TEXT	SEGMENT
?eof@?$char_traits@G@std@@SAGXZ PROC NEAR		; std::char_traits<unsigned short>::eof, COMDAT

; 309  : 		return (WEOF);

  00000	66 0d ff ff	 or	 ax, 65535		; 0000ffffH

; 310  : 		}

  00004	c3		 ret	 0
?eof@?$char_traits@G@std@@SAGXZ ENDP			; std::char_traits<unsigned short>::eof
; Function compile flags: /Ogsy
_TEXT	ENDS
;	COMDAT ?eq_int_type@?$char_traits@D@std@@SA_NABH0@Z
_TEXT	SEGMENT
?eq_int_type@?$char_traits@D@std@@SA_NABH0@Z PROC NEAR	; std::char_traits<char>::eq_int_type, COMDAT
; __Left$ = eax
; __Right$ = ecx

; 391  : 		return (_Left == _Right);

  00000	8b 00		 mov	 eax, DWORD PTR [eax]
  00002	2b 01		 sub	 eax, DWORD PTR [ecx]
  00004	f7 d8		 neg	 eax
  00006	1b c0		 sbb	 eax, eax
  00008	40		 inc	 eax

; 392  : 		}

  00009	c3		 ret	 0
?eq_int_type@?$char_traits@D@std@@SA_NABH0@Z ENDP	; std::char_traits<char>::eq_int_type
; Function compile flags: /Ogsy
_TEXT	ENDS
;	COMDAT ?to_int_type@?$char_traits@D@std@@SAHABD@Z
_TEXT	SEGMENT
?to_int_type@?$char_traits@D@std@@SAHABD@Z PROC NEAR	; std::char_traits<char>::to_int_type, COMDAT
; __Ch$ = eax

; 385  : 		return ((unsigned char)_Ch);

  00000	0f b6 00	 movzx	 eax, BYTE PTR [eax]

; 386  : 		}

  00003	c3		 ret	 0
?to_int_type@?$char_traits@D@std@@SAHABD@Z ENDP		; std::char_traits<char>::to_int_type
; Function compile flags: /Ogsy
; File c:\program files (x86)\microsoft visual studio .net 2003\vc7\include\streambuf
_TEXT	ENDS
;	COMDAT ?_Pninc@?$basic_streambuf@DU?$char_traits@D@std@@@std@@IAEPADXZ
_TEXT	SEGMENT
?_Pninc@?$basic_streambuf@DU?$char_traits@D@std@@@std@@IAEPADXZ PROC NEAR ; std::basic_streambuf<char,std::char_traits<char> >::_Pninc, COMDAT
; _this$ = ecx

; 245  : 		--*_IPcount;

  00000	8b 41 34	 mov	 eax, DWORD PTR [ecx+52]
  00003	ff 08		 dec	 DWORD PTR [eax]

; 246  : 		return ((*_IPnext)++);

  00005	8b 49 24	 mov	 ecx, DWORD PTR [ecx+36]
  00008	8b 01		 mov	 eax, DWORD PTR [ecx]
  0000a	8d 50 01	 lea	 edx, DWORD PTR [eax+1]
  0000d	89 11		 mov	 DWORD PTR [ecx], edx

; 247  : 		}

  0000f	c3		 ret	 0
?_Pninc@?$basic_streambuf@DU?$char_traits@D@std@@@std@@IAEPADXZ ENDP ; std::basic_streambuf<char,std::char_traits<char> >::_Pninc
; Function compile flags: /Ogsy
_TEXT	ENDS
;	COMDAT ?epptr@?$basic_streambuf@DU?$char_traits@D@std@@@std@@IBEPADXZ
_TEXT	SEGMENT
?epptr@?$basic_streambuf@DU?$char_traits@D@std@@@std@@IBEPADXZ PROC NEAR ; std::basic_streambuf<char,std::char_traits<char> >::epptr, COMDAT
; _this$ = eax

; 208  : 		return (*_IPnext + *_IPcount);

  00000	8b 48 34	 mov	 ecx, DWORD PTR [eax+52]
  00003	8b 50 24	 mov	 edx, DWORD PTR [eax+36]
  00006	8b 01		 mov	 eax, DWORD PTR [ecx]
  00008	03 02		 add	 eax, DWORD PTR [edx]

; 209  : 		}

  0000a	c3		 ret	 0
?epptr@?$basic_streambuf@DU?$char_traits@D@std@@@std@@IBEPADXZ ENDP ; std::basic_streambuf<char,std::char_traits<char> >::epptr
; Function compile flags: /Ogsy
_TEXT	ENDS
;	COMDAT ?pptr@?$basic_streambuf@DU?$char_traits@D@std@@@std@@IBEPADXZ
_TEXT	SEGMENT
?pptr@?$basic_streambuf@DU?$char_traits@D@std@@@std@@IBEPADXZ PROC NEAR ; std::basic_streambuf<char,std::char_traits<char> >::pptr, COMDAT
; _this$ = eax

; 185  : 		return (*_IPnext);

  00000	8b 40 24	 mov	 eax, DWORD PTR [eax+36]
  00003	8b 00		 mov	 eax, DWORD PTR [eax]

; 186  : 		}

  00005	c3		 ret	 0
?pptr@?$basic_streambuf@DU?$char_traits@D@std@@@std@@IBEPADXZ ENDP ; std::basic_streambuf<char,std::char_traits<char> >::pptr
; Function compile flags: /Ogsy
_TEXT	ENDS
;	COMDAT ?sputc@?$basic_streambuf@DU?$char_traits@D@std@@@std@@QAEHD@Z
_TEXT	SEGMENT
__Ch$ = 8						; size = 1
?sputc@?$basic_streambuf@DU?$char_traits@D@std@@@std@@QAEHD@Z PROC NEAR ; std::basic_streambuf<char,std::char_traits<char> >::sputc, COMDAT
; _this$ = ecx

; 146  : 		return (pptr() != 0 && pptr() < epptr()
; 147  : 			? _Traits::to_int_type(*_Pninc() = _Ch)
; 148  : 			: overflow(_Traits::to_int_type(_Ch)));

  00000	8b 41 24	 mov	 eax, DWORD PTR [ecx+36]
  00003	83 38 00	 cmp	 DWORD PTR [eax], 0
  00006	74 27		 je	 SHORT $L40870
  00008	8b 51 34	 mov	 edx, DWORD PTR [ecx+52]
  0000b	8b 00		 mov	 eax, DWORD PTR [eax]
  0000d	8b 12		 mov	 edx, DWORD PTR [edx]
  0000f	03 d0		 add	 edx, eax
  00011	3b c2		 cmp	 eax, edx
  00013	73 1a		 jae	 SHORT $L40870
  00015	8b 41 34	 mov	 eax, DWORD PTR [ecx+52]
  00018	ff 08		 dec	 DWORD PTR [eax]
  0001a	8b 49 24	 mov	 ecx, DWORD PTR [ecx+36]
  0001d	8b 01		 mov	 eax, DWORD PTR [ecx]
  0001f	8d 50 01	 lea	 edx, DWORD PTR [eax+1]
  00022	89 11		 mov	 DWORD PTR [ecx], edx
  00024	8a 4c 24 04	 mov	 cl, BYTE PTR __Ch$[esp-4]
  00028	88 08		 mov	 BYTE PTR [eax], cl
  0002a	0f b6 c1	 movzx	 eax, cl
  0002d	eb 0b		 jmp	 SHORT $L40872
$L40870:
  0002f	0f b6 54 24 04	 movzx	 edx, BYTE PTR __Ch$[esp-4]
  00034	8b 01		 mov	 eax, DWORD PTR [ecx]
  00036	52		 push	 edx
  00037	ff 50 04	 call	 DWORD PTR [eax+4]
$L40872:

; 149  : 		}

  0003a	c2 04 00	 ret	 4
?sputc@?$basic_streambuf@DU?$char_traits@D@std@@@std@@QAEHD@Z ENDP ; std::basic_streambuf<char,std::char_traits<char> >::sputc
; Function compile flags: /Ogsy
; File c:\program files (x86)\microsoft visual studio .net 2003\vc7\include\iosfwd
_TEXT	ENDS
;	COMDAT ?eof@?$char_traits@D@std@@SAHXZ
_TEXT	SEGMENT
?eof@?$char_traits@D@std@@SAHXZ PROC NEAR		; std::char_traits<char>::eof, COMDAT

; 396  : 		return (EOF);

  00000	83 c8 ff	 or	 eax, -1

; 397  : 		}

  00003	c3		 ret	 0
?eof@?$char_traits@D@std@@SAHXZ ENDP			; std::char_traits<char>::eof
; Function compile flags: /Ogsy
; File c:\program files (x86)\microsoft visual studio .net 2003\vc7\include\wchar.h
_TEXT	ENDS
;	COMDAT _wmemcpy
_TEXT	SEGMENT
_wmemcpy PROC NEAR					; COMDAT
; __S1$ = edx
; __S2$ = eax
; __N$ = ecx

; 792  :         {

  00000	56		 push	 esi
  00001	57		 push	 edi

; 793  :             return (wchar_t *)memcpy(_S1, _S2, _N*sizeof(wchar_t));

  00002	8b f0		 mov	 esi, eax
  00004	8b fa		 mov	 edi, edx
  00006	8b c7		 mov	 eax, edi
  00008	66 f3 a5	 rep movsw
  0000b	5f		 pop	 edi
  0000c	5e		 pop	 esi

; 794  :         }

  0000d	c3		 ret	 0
_wmemcpy ENDP
; Function compile flags: /Ogsy
; File c:\program files (x86)\microsoft visual studio .net 2003\vc7\include\iosfwd
_TEXT	ENDS
;	COMDAT ?copy@?$char_traits@G@std@@SAPAGPAGPBGI@Z
_TEXT	SEGMENT
?copy@?$char_traits@G@std@@SAPAGPAGPBGI@Z PROC NEAR	; std::char_traits<unsigned short>::copy, COMDAT
; __First1$ = edx
; __First2$ = eax
; __Count$ = ecx

; 270  : 		{	// copy [_First1, _First1 + _Count) to [_First2, ...)

  00000	56		 push	 esi
  00001	57		 push	 edi

; 271  : 		return (::wmemcpy(_First1, _First2, _Count));

  00002	8b f0		 mov	 esi, eax
  00004	8b fa		 mov	 edi, edx
  00006	8b c7		 mov	 eax, edi
  00008	66 f3 a5	 rep movsw
  0000b	5f		 pop	 edi
  0000c	5e		 pop	 esi

; 272  : 		}

  0000d	c3		 ret	 0
?copy@?$char_traits@G@std@@SAPAGPAGPBGI@Z ENDP		; std::char_traits<unsigned short>::copy
; Function compile flags: /Ogsy
; File c:\program files (x86)\microsoft visual studio .net 2003\vc7\include\xstring
_TEXT	ENDS
;	COMDAT ?_Myptr@?$basic_string@DU?$char_traits@D@std@@V?$allocator@D@2@@std@@QBEPBDXZ
_TEXT	SEGMENT
?_Myptr@?$basic_string@DU?$char_traits@D@std@@V?$allocator@D@2@@std@@QBEPBDXZ PROC NEAR ; std::basic_string<char,std::char_traits<char>,std::allocator<char> >::_Myptr, COMDAT
; _this$ = ecx

; 1537 : 		return (_BUF_SIZE <= _Myres ? _Bx._Ptr : _Bx._Buf);

  00000	83 79 18 10	 cmp	 DWORD PTR [ecx+24], 16	; 00000010H
  00004	72 04		 jb	 SHORT $L40908
  00006	8b 41 04	 mov	 eax, DWORD PTR [ecx+4]

; 1538 : 		}

  00009	c3		 ret	 0
$L40908:

; 1537 : 		return (_BUF_SIZE <= _Myres ? _Bx._Ptr : _Bx._Buf);

  0000a	8d 41 04	 lea	 eax, DWORD PTR [ecx+4]

; 1538 : 		}

  0000d	c3		 ret	 0
?_Myptr@?$basic_string@DU?$char_traits@D@std@@V?$allocator@D@2@@std@@QBEPBDXZ ENDP ; std::basic_string<char,std::char_traits<char>,std::allocator<char> >::_Myptr
; Function compile flags: /Ogsy
; File c:\program files (x86)\microsoft visual studio .net 2003\vc7\include\iosfwd
_TEXT	ENDS
;	COMDAT ?length@?$char_traits@G@std@@SAIPBG@Z
_TEXT	SEGMENT
__First$ = 8						; size = 4
?length@?$char_traits@G@std@@SAIPBG@Z PROC NEAR		; std::char_traits<unsigned short>::length, COMDAT

; 265  : 		return (::wcslen(_First));

  00000	e9 00 00 00 00	 jmp	 _wcslen
?length@?$char_traits@G@std@@SAIPBG@Z ENDP		; std::char_traits<unsigned short>::length
; Function compile flags: /Ogsy
; File c:\program files (x86)\microsoft visual studio .net 2003\vc7\include\wchar.h
_TEXT	ENDS
;	COMDAT _wmemmove
_TEXT	SEGMENT
__S1$ = 8						; size = 4
__S2$ = 12						; size = 4
_wmemmove PROC NEAR					; COMDAT
; __N$ = eax

; 797  :             return (wchar_t *)memmove(_S1, _S2, _N*sizeof(wchar_t));

  00000	03 c0		 add	 eax, eax
  00002	50		 push	 eax
  00003	ff 74 24 0c	 push	 DWORD PTR __S2$[esp]
  00007	ff 74 24 0c	 push	 DWORD PTR __S1$[esp+4]
  0000b	e8 00 00 00 00	 call	 _memmove
  00010	83 c4 0c	 add	 esp, 12			; 0000000cH

; 798  :         }

  00013	c3		 ret	 0
_wmemmove ENDP
; Function compile flags: /Ogsy
; File c:\program files (x86)\microsoft visual studio .net 2003\vc7\include\iosfwd
_TEXT	ENDS
;	COMDAT ?move@?$char_traits@G@std@@SAPAGPAGPBGI@Z
_TEXT	SEGMENT
__First1$ = 8						; size = 4
__First2$ = 12						; size = 4
?move@?$char_traits@G@std@@SAPAGPAGPBGI@Z PROC NEAR	; std::char_traits<unsigned short>::move, COMDAT
; __Count$ = eax

; 283  : 		return (::wmemmove(_First1, _First2, _Count));

  00000	03 c0		 add	 eax, eax
  00002	50		 push	 eax
  00003	ff 74 24 0c	 push	 DWORD PTR __First2$[esp]
  00007	ff 74 24 0c	 push	 DWORD PTR __First1$[esp+4]
  0000b	e8 00 00 00 00	 call	 _memmove
  00010	83 c4 0c	 add	 esp, 12			; 0000000cH

; 284  : 		}

  00013	c3		 ret	 0
?move@?$char_traits@G@std@@SAPAGPAGPBGI@Z ENDP		; std::char_traits<unsigned short>::move
; Function compile flags: /Ogsy
_TEXT	ENDS
;	COMDAT ?assign@?$char_traits@G@std@@SAXAAGABG@Z
_TEXT	SEGMENT
?assign@?$char_traits@G@std@@SAXAAGABG@Z PROC NEAR	; std::char_traits<unsigned short>::assign, COMDAT
; __Left$ = ecx
; __Right$ = eax

; 244  : 		_Left = _Right;

  00000	66 8b 00	 mov	 ax, WORD PTR [eax]
  00003	66 89 01	 mov	 WORD PTR [ecx], ax

; 245  : 		}

  00006	c3		 ret	 0
?assign@?$char_traits@G@std@@SAXAAGABG@Z ENDP		; std::char_traits<unsigned short>::assign
; Function compile flags: /Ogsy
; File c:\program files (x86)\microsoft visual studio .net 2003\vc7\include\xlocale
_TEXT	ENDS
;	COMDAT ??0id@locale@std@@QAE@I@Z
_TEXT	SEGMENT
__Val$ = 8						; size = 4
??0id@locale@std@@QAE@I@Z PROC NEAR			; std::locale::id::id, COMDAT
; _this$ = ecx

; 66   : 			{	// construct with specified stamp value

  00000	8b c1		 mov	 eax, ecx
  00002	8b 4c 24 04	 mov	 ecx, DWORD PTR __Val$[esp-4]
  00006	89 08		 mov	 DWORD PTR [eax], ecx

; 67   : 			}

  00008	c2 04 00	 ret	 4
??0id@locale@std@@QAE@I@Z ENDP				; std::locale::id::id
; Function compile flags: /Ogsy
; File c:\program files (x86)\microsoft visual studio .net 2003\vc7\include\iosfwd
_TEXT	ENDS
;	COMDAT ?length@?$char_traits@D@std@@SAIPBD@Z
_TEXT	SEGMENT
__First$ = 8						; size = 4
?length@?$char_traits@D@std@@SAIPBD@Z PROC NEAR		; std::char_traits<char>::length, COMDAT

; 352  : 		return (::strlen(_First));

  00000	8b 44 24 04	 mov	 eax, DWORD PTR __First$[esp-4]
  00004	8d 50 01	 lea	 edx, DWORD PTR [eax+1]
$L40932:
  00007	8a 08		 mov	 cl, BYTE PTR [eax]
  00009	40		 inc	 eax
  0000a	84 c9		 test	 cl, cl
  0000c	75 f9		 jne	 SHORT $L40932
  0000e	2b c2		 sub	 eax, edx

; 353  : 		}

  00010	c3		 ret	 0
?length@?$char_traits@D@std@@SAIPBD@Z ENDP		; std::char_traits<char>::length
; Function compile flags: /Ogsy
; File c:\program files (x86)\microsoft visual studio .net 2003\vc7\include\xlocale
_TEXT	ENDS
;	COMDAT ??Bid@locale@std@@QAEIXZ
_TEXT	SEGMENT
__Lock$5069 = -4					; size = 4
??Bid@locale@std@@QAEIXZ PROC NEAR			; std::locale::id::operator unsigned int, COMDAT
; _this$ = ecx

; 70   : 			{	// get stamp, with lazy allocation

  00000	55		 push	 ebp
  00001	8b ec		 mov	 ebp, esp
  00003	51		 push	 ecx
  00004	56		 push	 esi
  00005	8b f1		 mov	 esi, ecx

; 71   : 			if (_Id == 0)

  00007	83 3e 00	 cmp	 DWORD PTR [esi], 0
  0000a	75 24		 jne	 SHORT $L5068

; 72   : 				{	// still zero, allocate stamp
; 73   : 				_Lockit _Lock(_LOCK_LOCALE);

  0000c	6a 00		 push	 0
  0000e	8d 4d fc	 lea	 ecx, DWORD PTR __Lock$5069[ebp]
  00011	e8 00 00 00 00	 call	 ??0_Lockit@std@@QAE@H@Z	; std::_Lockit::_Lockit

; 74   : 				if (_Id == 0)

  00016	83 3e 00	 cmp	 DWORD PTR [esi], 0
  00019	75 0d		 jne	 SHORT $L5070

; 75   : 					_Id = ++_Id_cnt;

  0001b	ff 05 00 00 00
	00		 inc	 DWORD PTR ?_Id_cnt@id@locale@std@@0HA ; std::locale::id::_Id_cnt
  00021	a1 00 00 00 00	 mov	 eax, DWORD PTR ?_Id_cnt@id@locale@std@@0HA ; std::locale::id::_Id_cnt
  00026	89 06		 mov	 DWORD PTR [esi], eax
$L5070:

; 76   : 				}

  00028	8d 4d fc	 lea	 ecx, DWORD PTR __Lock$5069[ebp]
  0002b	e8 00 00 00 00	 call	 ??1_Lockit@std@@QAE@XZ	; std::_Lockit::~_Lockit
$L5068:

; 77   : 			return (_Id);

  00030	8b 06		 mov	 eax, DWORD PTR [esi]
  00032	5e		 pop	 esi

; 78   : 			}

  00033	c9		 leave
  00034	c3		 ret	 0
??Bid@locale@std@@QAEIXZ ENDP				; std::locale::id::operator unsigned int
; Function compile flags: /Ogsy
_TEXT	ENDS
;	COMDAT ?_Incref@facet@locale@std@@QAEXXZ
_TEXT	SEGMENT
__Lock$ = -4						; size = 4
?_Incref@facet@locale@std@@QAEXXZ PROC NEAR		; std::locale::facet::_Incref, COMDAT
; _this$ = ecx

; 103  : 			{	// safely increment the reference count

  00000	55		 push	 ebp
  00001	8b ec		 mov	 ebp, esp
  00003	51		 push	 ecx
  00004	56		 push	 esi
  00005	8b f1		 mov	 esi, ecx

; 104  : 			_Lockit _Lock(_LOCK_LOCALE);

  00007	6a 00		 push	 0
  00009	8d 4d fc	 lea	 ecx, DWORD PTR __Lock$[ebp]
  0000c	e8 00 00 00 00	 call	 ??0_Lockit@std@@QAE@H@Z	; std::_Lockit::_Lockit

; 105  : 
; 106  : 			if (_Refs < (size_t)(-1))

  00011	8b 46 04	 mov	 eax, DWORD PTR [esi+4]
  00014	83 f8 ff	 cmp	 eax, -1
  00017	73 04		 jae	 SHORT $L5077

; 107  : 				++_Refs;

  00019	40		 inc	 eax
  0001a	89 46 04	 mov	 DWORD PTR [esi+4], eax
$L5077:

; 108  : 			}

  0001d	8d 4d fc	 lea	 ecx, DWORD PTR __Lock$[ebp]
  00020	e8 00 00 00 00	 call	 ??1_Lockit@std@@QAE@XZ	; std::_Lockit::~_Lockit
  00025	5e		 pop	 esi
  00026	c9		 leave
  00027	c3		 ret	 0
?_Incref@facet@locale@std@@QAEXXZ ENDP			; std::locale::facet::_Incref
; Function compile flags: /Ogsy
_TEXT	ENDS
;	COMDAT ??_Gfacet@locale@std@@UAEPAXI@Z
_TEXT	SEGMENT
___flags$ = 8						; size = 4
??_Gfacet@locale@std@@UAEPAXI@Z PROC NEAR		; std::locale::facet::`scalar deleting destructor', COMDAT
; _this$ = ecx
  00000	f6 44 24 04 01	 test	 BYTE PTR ___flags$[esp-4], 1
  00005	56		 push	 esi
  00006	8b f1		 mov	 esi, ecx
  00008	c7 06 00 00 00
	00		 mov	 DWORD PTR [esi], OFFSET FLAT:??_7facet@locale@std@@6B@
  0000e	74 07		 je	 SHORT $L5112
  00010	56		 push	 esi
  00011	e8 00 00 00 00	 call	 ??3@YAXPAX@Z		; operator delete
  00016	59		 pop	 ecx
$L5112:
  00017	8b c6		 mov	 eax, esi
  00019	5e		 pop	 esi
  0001a	c2 04 00	 ret	 4
??_Gfacet@locale@std@@UAEPAXI@Z ENDP			; std::locale::facet::`scalar deleting destructor'
; Function compile flags: /Ogsy
_TEXT	ENDS
;	COMDAT ??0facet@locale@std@@IAE@I@Z
_TEXT	SEGMENT
__Initrefs$ = 8						; size = 4
??0facet@locale@std@@IAE@I@Z PROC NEAR			; std::locale::facet::facet, COMDAT
; _this$ = ecx

; 129  : 			{	// construct with initial reference count

  00000	8b c1		 mov	 eax, ecx
  00002	8b 4c 24 04	 mov	 ecx, DWORD PTR __Initrefs$[esp-4]
  00006	c7 00 00 00 00
	00		 mov	 DWORD PTR [eax], OFFSET FLAT:??_7facet@locale@std@@6B@
  0000c	89 48 04	 mov	 DWORD PTR [eax+4], ecx

; 130  : 			}

  0000f	c2 04 00	 ret	 4
??0facet@locale@std@@IAE@I@Z ENDP			; std::locale::facet::facet
; Function compile flags: /Ogsy
; File c:\program files (x86)\microsoft visual studio .net 2003\vc7\include\xlocinfo
_TEXT	ENDS
;	COMDAT ?_Getcvt@_Locinfo@std@@QBE?AU_Cvtvec@@XZ
_TEXT	SEGMENT
___$ReturnUdt$ = 8					; size = 4
?_Getcvt@_Locinfo@std@@QBE?AU_Cvtvec@@XZ PROC NEAR	; std::_Locinfo::_Getcvt, COMDAT
; _this$ = ecx

; 82   : 		return (::_Getcvt());

  00000	e8 00 00 00 00	 call	 __Getcvt
  00005	8b c8		 mov	 ecx, eax
  00007	8b 44 24 04	 mov	 eax, DWORD PTR ___$ReturnUdt$[esp-4]
  0000b	89 08		 mov	 DWORD PTR [eax], ecx
  0000d	89 50 04	 mov	 DWORD PTR [eax+4], edx

; 83   : 		}

  00010	c2 04 00	 ret	 4
?_Getcvt@_Locinfo@std@@QBE?AU_Cvtvec@@XZ ENDP		; std::_Locinfo::_Getcvt
; Function compile flags: /Ogsy
_TEXT	ENDS
;	COMDAT ?_Getlconv@_Locinfo@std@@QBEPBUlconv@@XZ
_TEXT	SEGMENT
?_Getlconv@_Locinfo@std@@QBEPBUlconv@@XZ PROC NEAR	; std::_Locinfo::_Getlconv, COMDAT
; _this$ = ecx

; 87   : 		return (localeconv());

  00000	e9 00 00 00 00	 jmp	 _localeconv
?_Getlconv@_Locinfo@std@@QBEPBUlconv@@XZ ENDP		; std::_Locinfo::_Getlconv
; Function compile flags: /Ogsy
; File c:\program files (x86)\microsoft visual studio .net 2003\vc7\include\xlocale
_TEXT	ENDS
;	COMDAT ??$_Maklocstr@G@std@@YAPAGPBDPAGABU_Cvtvec@@@Z
_TEXT	SEGMENT
__Mbst2$ = -16						; size = 4
__Mbst1$ = -12						; size = 4
__Ptrdest$ = -8						; size = 4
__Ptr1$ = -8						; size = 4
__Wc$ = -4						; size = 2
__Ptr$ = 8						; size = 4
___formal$ = 12						; size = 4
__Cvt$ = 16						; size = 4
??$_Maklocstr@G@std@@YAPAGPBDPAGABU_Cvtvec@@@Z PROC NEAR ; std::_Maklocstr<unsigned short>, COMDAT

; 464  : 	{	// convert C string to wchar_t sequence using _Cvtvec

  00000	55		 push	 ebp
  00001	8b ec		 mov	 ebp, esp
  00003	83 ec 10	 sub	 esp, 16			; 00000010H

; 465  : 	size_t _Count, _Count1;
; 466  : 	size_t _Wchars;
; 467  : 	const char *_Ptr1;
; 468  : 	int _Bytes;
; 469  : 	wchar_t _Wc;
; 470  : 	_Mbstinit(_Mbst1);
; 471  : 
; 472  : 	_Count1 = ::strlen(_Ptr) + 1;

  00006	8b 45 08	 mov	 eax, DWORD PTR __Ptr$[ebp]
  00009	53		 push	 ebx
  0000a	56		 push	 esi
  0000b	57		 push	 edi
  0000c	33 ff		 xor	 edi, edi
  0000e	89 7d f4	 mov	 DWORD PTR __Mbst1$[ebp], edi
  00011	8d 48 01	 lea	 ecx, DWORD PTR [eax+1]
$L40966:
  00014	8a 10		 mov	 dl, BYTE PTR [eax]
  00016	40		 inc	 eax
  00017	84 d2		 test	 dl, dl
  00019	75 f9		 jne	 SHORT $L40966
  0001b	2b c1		 sub	 eax, ecx
  0001d	8d 70 01	 lea	 esi, DWORD PTR [eax+1]

; 473  : 	for (_Count = _Count1, _Wchars = 0, _Ptr1 = _Ptr; 0 < _Count;
; 474  : 		_Count -= _Bytes, _Ptr1 += _Bytes, ++_Wchars)

  00020	3b f7		 cmp	 esi, edi
  00022	8b 45 08	 mov	 eax, DWORD PTR __Ptr$[ebp]
  00025	8b de		 mov	 ebx, esi
  00027	89 45 f8	 mov	 DWORD PTR __Ptr1$[ebp], eax
  0002a	76 25		 jbe	 SHORT $L40962
$L40967:

; 475  : 		if ((_Bytes = _Mbrtowc(&_Wc, _Ptr1, _Count, &_Mbst1, &_Cvt)) <= 0)

  0002c	ff 75 10	 push	 DWORD PTR __Cvt$[ebp]
  0002f	8d 45 f4	 lea	 eax, DWORD PTR __Mbst1$[ebp]
  00032	50		 push	 eax
  00033	53		 push	 ebx
  00034	ff 75 f8	 push	 DWORD PTR __Ptr1$[ebp]
  00037	8d 45 fc	 lea	 eax, DWORD PTR __Wc$[ebp]
  0003a	50		 push	 eax
  0003b	e8 00 00 00 00	 call	 __Mbrtowc
  00040	83 c4 14	 add	 esp, 20			; 00000014H
  00043	85 c0		 test	 eax, eax
  00045	7e 0a		 jle	 SHORT $L40962
  00047	01 45 f8	 add	 DWORD PTR __Ptr1$[ebp], eax
  0004a	2b d8		 sub	 ebx, eax
  0004c	47		 inc	 edi
  0004d	85 db		 test	 ebx, ebx
  0004f	77 db		 ja	 SHORT $L40967
$L40962:

; 476  : 			break;
; 477  : 	++_Wchars;	// count terminating nul

  00051	47		 inc	 edi

; 478  : 
; 479  : 	wchar_t *_Ptrdest = _NEW_CRT wchar_t[_Wchars];

  00052	8d 04 3f	 lea	 eax, DWORD PTR [edi+edi]
  00055	50		 push	 eax
  00056	e8 00 00 00 00	 call	 ??_U@YAPAXI@Z		; operator new[]

; 480  : 	wchar_t *_Ptrnext = _Ptrdest;
; 481  : 	_Mbstinit(_Mbst2);

  0005b	83 65 f0 00	 and	 DWORD PTR __Mbst2$[ebp], 0
  0005f	8b d8		 mov	 ebx, eax
  00061	59		 pop	 ecx
  00062	89 5d f8	 mov	 DWORD PTR __Ptrdest$[ebp], ebx
  00065	eb 1e		 jmp	 SHORT $L40969
$L5180:

; 484  : 		if ((_Bytes = _Mbrtowc(_Ptrnext, _Ptr, _Count1, &_Mbst2, &_Cvt)) <= 0)

  00067	ff 75 10	 push	 DWORD PTR __Cvt$[ebp]
  0006a	8d 45 f0	 lea	 eax, DWORD PTR __Mbst2$[ebp]
  0006d	50		 push	 eax
  0006e	56		 push	 esi
  0006f	ff 75 08	 push	 DWORD PTR __Ptr$[ebp]
  00072	53		 push	 ebx
  00073	e8 00 00 00 00	 call	 __Mbrtowc
  00078	83 c4 14	 add	 esp, 20			; 00000014H
  0007b	85 c0		 test	 eax, eax
  0007d	7e 0a		 jle	 SHORT $L40968
  0007f	01 45 08	 add	 DWORD PTR __Ptr$[ebp], eax
  00082	4f		 dec	 edi
  00083	43		 inc	 ebx
  00084	43		 inc	 ebx
$L40969:

; 482  : 	for (; 0 < _Wchars;
; 483  : 		_Count -= _Bytes, _Ptr += _Bytes, --_Wchars, ++_Ptrnext)

  00085	85 ff		 test	 edi, edi
  00087	77 de		 ja	 SHORT $L5180
$L40968:

; 485  : 			break;
; 486  : 	*_Ptrnext = L'\0';

  00089	66 83 23 00	 and	 WORD PTR [ebx], 0

; 487  : 	return (_Ptrdest);

  0008d	8b 45 f8	 mov	 eax, DWORD PTR __Ptrdest$[ebp]
  00090	5f		 pop	 edi
  00091	5e		 pop	 esi
  00092	5b		 pop	 ebx

; 488  : 	}

  00093	c9		 leave
  00094	c3		 ret	 0
??$_Maklocstr@G@std@@YAPAGPBDPAGABU_Cvtvec@@@Z ENDP	; std::_Maklocstr<unsigned short>
; Function compile flags: /Ogsy
; File c:\program files (x86)\microsoft visual studio .net 2003\vc7\include\xlocinfo
_TEXT	ENDS
;	COMDAT ?_Getfalse@_Locinfo@std@@QBEPBDXZ
_TEXT	SEGMENT
?_Getfalse@_Locinfo@std@@QBEPBDXZ PROC NEAR		; std::_Locinfo::_Getfalse, COMDAT
; _this$ = ecx

; 125  : 		return ("false");

  00000	b8 00 00 00 00	 mov	 eax, OFFSET FLAT:??_C@_05LAPONLG@false?$AA@

; 126  : 		}

  00005	c3		 ret	 0
?_Getfalse@_Locinfo@std@@QBEPBDXZ ENDP			; std::_Locinfo::_Getfalse
; Function compile flags: /Ogsy
_TEXT	ENDS
;	COMDAT ?_Gettrue@_Locinfo@std@@QBEPBDXZ
_TEXT	SEGMENT
?_Gettrue@_Locinfo@std@@QBEPBDXZ PROC NEAR		; std::_Locinfo::_Gettrue, COMDAT
; _this$ = ecx

; 130  : 		return ("true");

  00000	b8 00 00 00 00	 mov	 eax, OFFSET FLAT:??_C@_04LOAJBDKD@true?$AA@

; 131  : 		}

  00005	c3		 ret	 0
?_Gettrue@_Locinfo@std@@QBEPBDXZ ENDP			; std::_Locinfo::_Gettrue
; Function compile flags: /Ogsy
; File c:\program files (x86)\microsoft visual studio .net 2003\vc7\include\xlocale
_TEXT	ENDS
;	COMDAT ??$_Maklocstr@D@std@@YAPADPBDPADABU_Cvtvec@@@Z
_TEXT	SEGMENT
__Ptr$ = 8						; size = 4
___formal$ = 12						; size = 4
___formal$ = 16						; size = 4
??$_Maklocstr@D@std@@YAPADPBDPADABU_Cvtvec@@@Z PROC NEAR ; std::_Maklocstr<char>, COMDAT

; 452  : 	{	// convert C string to _Elem sequence using _Cvtvec

  00000	56		 push	 esi
  00001	57		 push	 edi

; 453  : 	size_t _Count = ::strlen(_Ptr) + 1;

  00002	8b 7c 24 0c	 mov	 edi, DWORD PTR __Ptr$[esp+4]
  00006	8b c7		 mov	 eax, edi
  00008	8d 48 01	 lea	 ecx, DWORD PTR [eax+1]
$L40981:
  0000b	8a 10		 mov	 dl, BYTE PTR [eax]
  0000d	40		 inc	 eax
  0000e	84 d2		 test	 dl, dl
  00010	75 f9		 jne	 SHORT $L40981
  00012	2b c1		 sub	 eax, ecx
  00014	8d 70 01	 lea	 esi, DWORD PTR [eax+1]

; 454  : 	_Elem *_Ptrdest = _NEW_CRT _Elem[_Count];

  00017	56		 push	 esi
  00018	e8 00 00 00 00	 call	 ??_U@YAPAXI@Z		; operator new[]

; 455  : 
; 456  : 	for (_Elem *_Ptrnext = _Ptrdest; 0 < _Count; --_Count, ++_Ptrnext, ++_Ptr)

  0001d	85 f6		 test	 esi, esi
  0001f	59		 pop	 ecx
  00020	8b c8		 mov	 ecx, eax
  00022	76 09		 jbe	 SHORT $L26502
$L26500:

; 457  : 		*_Ptrnext = (_Elem)(unsigned char)*_Ptr;

  00024	8a 17		 mov	 dl, BYTE PTR [edi]
  00026	88 11		 mov	 BYTE PTR [ecx], dl
  00028	41		 inc	 ecx
  00029	47		 inc	 edi
  0002a	4e		 dec	 esi
  0002b	75 f7		 jne	 SHORT $L26500
$L26502:
  0002d	5f		 pop	 edi
  0002e	5e		 pop	 esi

; 458  : 	return (_Ptrdest);
; 459  : 	}

  0002f	c3		 ret	 0
??$_Maklocstr@D@std@@YAPADPBDPADABU_Cvtvec@@@Z ENDP	; std::_Maklocstr<char>
; Function compile flags: /Ogsy
; File c:\program files (x86)\microsoft visual studio .net 2003\vc7\include\xlocnum
_TEXT	ENDS
;	COMDAT ?_Init@?$num_put@DV?$ostreambuf_iterator@DU?$char_traits@D@std@@@std@@@std@@IAEXABV_Locinfo@2@@Z
_TEXT	SEGMENT
__Lobj$ = 8						; size = 4
?_Init@?$num_put@DV?$ostreambuf_iterator@DU?$char_traits@D@std@@@std@@@std@@IAEXABV_Locinfo@2@@Z PROC NEAR ; std::num_put<char,std::ostreambuf_iterator<char,std::char_traits<char> > >::_Init, COMDAT
; _this$ = ecx

; 806  : 		{	// initialize from _Locinfo object

  00000	56		 push	 esi
  00001	8b f1		 mov	 esi, ecx

; 807  : 		_Cvt = _Lobj._Getcvt();

  00003	e8 00 00 00 00	 call	 __Getcvt
  00008	89 46 08	 mov	 DWORD PTR [esi+8], eax
  0000b	89 56 0c	 mov	 DWORD PTR [esi+12], edx
  0000e	5e		 pop	 esi

; 808  : 		}

  0000f	c2 04 00	 ret	 4
?_Init@?$num_put@DV?$ostreambuf_iterator@DU?$char_traits@D@std@@@std@@@std@@IAEXABV_Locinfo@2@@Z ENDP ; std::num_put<char,std::ostreambuf_iterator<char,std::char_traits<char> > >::_Init
; Function compile flags: /Ogsy
_TEXT	ENDS
;	COMDAT ?_Init@?$num_put@GV?$ostreambuf_iterator@GU?$char_traits@G@std@@@std@@@std@@IAEXABV_Locinfo@2@@Z
_TEXT	SEGMENT
__Lobj$ = 8						; size = 4
?_Init@?$num_put@GV?$ostreambuf_iterator@GU?$char_traits@G@std@@@std@@@std@@IAEXABV_Locinfo@2@@Z PROC NEAR ; std::num_put<unsigned short,std::ostreambuf_iterator<unsigned short,std::char_traits<unsigned short> > >::_Init, COMDAT
; _this$ = ecx

; 806  : 		{	// initialize from _Locinfo object

  00000	56		 push	 esi
  00001	8b f1		 mov	 esi, ecx

; 807  : 		_Cvt = _Lobj._Getcvt();

  00003	e8 00 00 00 00	 call	 __Getcvt
  00008	89 46 08	 mov	 DWORD PTR [esi+8], eax
  0000b	89 56 0c	 mov	 DWORD PTR [esi+12], edx
  0000e	5e		 pop	 esi

; 808  : 		}

  0000f	c2 04 00	 ret	 4
?_Init@?$num_put@GV?$ostreambuf_iterator@GU?$char_traits@G@std@@@std@@@std@@IAEXABV_Locinfo@2@@Z ENDP ; std::num_put<unsigned short,std::ostreambuf_iterator<unsigned short,std::char_traits<unsigned short> > >::_Init
_TEXT	ENDS
EXTRN	__EH_prolog:NEAR
EXTRN	__except_list:DWORD
EXTRN	___CxxFrameHandler:NEAR
;	COMDAT xdata$x
; File c:\program files (x86)\microsoft visual studio .net 2003\vc7\include\xlocinfo
xdata$x	SEGMENT
$T41029	DD	0ffffffffH
	DD	FLAT:$L41004
$T41025	DD	019930520H
	DD	01H
	DD	FLAT:$T41029
	DD	2 DUP(00H)
	DD	2 DUP(00H)
; Function compile flags: /Ogsy
; File c:\program files (x86)\microsoft visual studio .net 2003\vc7\include\xlocnum
xdata$x	ENDS
;	COMDAT ??0?$num_put@DV?$ostreambuf_iterator@DU?$char_traits@D@std@@@std@@@std@@QAE@I@Z
_TEXT	SEGMENT
$T41003 = -132						; size = 116
_this$ = -16						; size = 4
__$EHRec$ = -12						; size = 12
__Refs$ = 8						; size = 4
??0?$num_put@DV?$ostreambuf_iterator@DU?$char_traits@D@std@@@std@@@std@@QAE@I@Z PROC NEAR ; std::num_put<char,std::ostreambuf_iterator<char,std::char_traits<char> > >::num_put<char,std::ostreambuf_iterator<char,std::char_traits<char> > >, COMDAT
; _this$ = ecx

; 815  : 		{	// construct from current locale

  00000	b8 00 00 00 00	 mov	 eax, __ehhandler$??0?$num_put@DV?$ostreambuf_iterator@DU?$char_traits@D@std@@@std@@@std@@QAE@I@Z
  00005	e8 00 00 00 00	 call	 __EH_prolog
  0000a	83 ec 78	 sub	 esp, 120		; 00000078H
  0000d	8b 45 08	 mov	 eax, DWORD PTR __Refs$[ebp]
  00010	56		 push	 esi
  00011	8b f1		 mov	 esi, ecx
  00013	89 75 f0	 mov	 DWORD PTR _this$[ebp], esi
  00016	89 46 04	 mov	 DWORD PTR [esi+4], eax
  00019	83 65 fc 00	 and	 DWORD PTR __$EHRec$[ebp+8], 0

; 816  : 		_Init(_Locinfo());

  0001d	68 00 00 00 00	 push	 OFFSET FLAT:??_C@_01GFHCPBMG@C?$AA@
  00022	8d 8d 7c ff ff
	ff		 lea	 ecx, DWORD PTR $T41003[ebp]
  00028	c7 06 00 00 00
	00		 mov	 DWORD PTR [esi], OFFSET FLAT:??_7?$num_put@DV?$ostreambuf_iterator@DU?$char_traits@D@std@@@std@@@std@@6B@
  0002e	e8 00 00 00 00	 call	 ??0_Locinfo@std@@QAE@PBD@Z ; std::_Locinfo::_Locinfo
  00033	e8 00 00 00 00	 call	 __Getcvt
  00038	8d 8d 7c ff ff
	ff		 lea	 ecx, DWORD PTR $T41003[ebp]
  0003e	89 46 08	 mov	 DWORD PTR [esi+8], eax
  00041	89 56 0c	 mov	 DWORD PTR [esi+12], edx
  00044	e8 00 00 00 00	 call	 ??1_Locinfo@std@@QAE@XZ	; std::_Locinfo::~_Locinfo

; 817  : 		}

  00049	8b 4d f4	 mov	 ecx, DWORD PTR __$EHRec$[ebp]
  0004c	8b c6		 mov	 eax, esi
  0004e	5e		 pop	 esi
  0004f	64 89 0d 00 00
	00 00		 mov	 DWORD PTR fs:__except_list, ecx
  00056	c9		 leave
  00057	c2 04 00	 ret	 4
_TEXT	ENDS
;	COMDAT text$x
text$x	SEGMENT
$L41004:
  00000	8b 4d f0	 mov	 ecx, DWORD PTR _this$[ebp]
  00003	e9 00 00 00 00	 jmp	 ??1facet@locale@std@@UAE@XZ ; std::locale::facet::~facet
__ehhandler$??0?$num_put@DV?$ostreambuf_iterator@DU?$char_traits@D@std@@@std@@@std@@QAE@I@Z:
  00008	b8 00 00 00 00	 mov	 eax, OFFSET FLAT:$T41025
  0000d	e9 00 00 00 00	 jmp	 ___CxxFrameHandler
text$x	ENDS
??0?$num_put@DV?$ostreambuf_iterator@DU?$char_traits@D@std@@@std@@@std@@QAE@I@Z ENDP ; std::num_put<char,std::ostreambuf_iterator<char,std::char_traits<char> > >::num_put<char,std::ostreambuf_iterator<char,std::char_traits<char> > >
;	COMDAT xdata$x
; File c:\program files (x86)\microsoft visual studio .net 2003\vc7\include\xlocinfo
xdata$x	SEGMENT
$T41057	DD	0ffffffffH
	DD	FLAT:$L41036
$T41055	DD	019930520H
	DD	01H
	DD	FLAT:$T41057
	DD	2 DUP(00H)
	DD	2 DUP(00H)
; Function compile flags: /Ogsy
; File c:\program files (x86)\microsoft visual studio .net 2003\vc7\include\xlocnum
xdata$x	ENDS
;	COMDAT ??0?$num_put@GV?$ostreambuf_iterator@GU?$char_traits@G@std@@@std@@@std@@QAE@I@Z
_TEXT	SEGMENT
$T41035 = -132						; size = 116
_this$ = -16						; size = 4
__$EHRec$ = -12						; size = 12
__Refs$ = 8						; size = 4
??0?$num_put@GV?$ostreambuf_iterator@GU?$char_traits@G@std@@@std@@@std@@QAE@I@Z PROC NEAR ; std::num_put<unsigned short,std::ostreambuf_iterator<unsigned short,std::char_traits<unsigned short> > >::num_put<unsigned short,std::ostreambuf_iterator<unsigned short,std::char_traits<unsigned short> > >, COMDAT
; _this$ = ecx

; 815  : 		{	// construct from current locale

  00000	b8 00 00 00 00	 mov	 eax, __ehhandler$??0?$num_put@GV?$ostreambuf_iterator@GU?$char_traits@G@std@@@std@@@std@@QAE@I@Z
  00005	e8 00 00 00 00	 call	 __EH_prolog
  0000a	83 ec 78	 sub	 esp, 120		; 00000078H
  0000d	8b 45 08	 mov	 eax, DWORD PTR __Refs$[ebp]
  00010	56		 push	 esi
  00011	8b f1		 mov	 esi, ecx
  00013	89 75 f0	 mov	 DWORD PTR _this$[ebp], esi
  00016	89 46 04	 mov	 DWORD PTR [esi+4], eax
  00019	83 65 fc 00	 and	 DWORD PTR __$EHRec$[ebp+8], 0

; 816  : 		_Init(_Locinfo());

  0001d	68 00 00 00 00	 push	 OFFSET FLAT:??_C@_01GFHCPBMG@C?$AA@
  00022	8d 8d 7c ff ff
	ff		 lea	 ecx, DWORD PTR $T41035[ebp]
  00028	c7 06 00 00 00
	00		 mov	 DWORD PTR [esi], OFFSET FLAT:??_7?$num_put@GV?$ostreambuf_iterator@GU?$char_traits@G@std@@@std@@@std@@6B@
  0002e	e8 00 00 00 00	 call	 ??0_Locinfo@std@@QAE@PBD@Z ; std::_Locinfo::_Locinfo
  00033	e8 00 00 00 00	 call	 __Getcvt
  00038	8d 8d 7c ff ff
	ff		 lea	 ecx, DWORD PTR $T41035[ebp]
  0003e	89 46 08	 mov	 DWORD PTR [esi+8], eax
  00041	89 56 0c	 mov	 DWORD PTR [esi+12], edx
  00044	e8 00 00 00 00	 call	 ??1_Locinfo@std@@QAE@XZ	; std::_Locinfo::~_Locinfo

; 817  : 		}

  00049	8b 4d f4	 mov	 ecx, DWORD PTR __$EHRec$[ebp]
  0004c	8b c6		 mov	 eax, esi
  0004e	5e		 pop	 esi
  0004f	64 89 0d 00 00
	00 00		 mov	 DWORD PTR fs:__except_list, ecx
  00056	c9		 leave
  00057	c2 04 00	 ret	 4
_TEXT	ENDS
;	COMDAT text$x
text$x	SEGMENT
$L41036:
  00000	8b 4d f0	 mov	 ecx, DWORD PTR _this$[ebp]
  00003	e9 00 00 00 00	 jmp	 ??1facet@locale@std@@UAE@XZ ; std::locale::facet::~facet
__ehhandler$??0?$num_put@GV?$ostreambuf_iterator@GU?$char_traits@G@std@@@std@@@std@@QAE@I@Z:
  00008	b8 00 00 00 00	 mov	 eax, OFFSET FLAT:$T41055
  0000d	e9 00 00 00 00	 jmp	 ___CxxFrameHandler
text$x	ENDS
??0?$num_put@GV?$ostreambuf_iterator@GU?$char_traits@G@std@@@std@@@std@@QAE@I@Z ENDP ; std::num_put<unsigned short,std::ostreambuf_iterator<unsigned short,std::char_traits<unsigned short> > >::num_put<unsigned short,std::ostreambuf_iterator<unsigned short,std::char_traits<unsigned short> > >
;	COMDAT xdata$x
xdata$x	SEGMENT
$T41070	DD	0ffffffffH
	DD	FLAT:$L41066
$T41068	DD	019930520H
	DD	01H
	DD	FLAT:$T41070
	DD	2 DUP(00H)
	DD	2 DUP(00H)
; Function compile flags: /Ogsy
xdata$x	ENDS
;	COMDAT ?_Getcat@?$num_put@DV?$ostreambuf_iterator@DU?$char_traits@D@std@@@std@@@std@@SAIPAPBVfacet@locale@2@@Z
_TEXT	SEGMENT
__$EHRec$ = -12						; size = 12
$T41063 = 8						; size = 4
__Ppf$ = 8						; size = 4
?_Getcat@?$num_put@DV?$ostreambuf_iterator@DU?$char_traits@D@std@@@std@@@std@@SAIPAPBVfacet@locale@2@@Z PROC NEAR ; std::num_put<char,std::ostreambuf_iterator<char,std::char_traits<char> > >::_Getcat, COMDAT

; 791  : 		{	// return locale category mask and construct standard facet

  00000	b8 00 00 00 00	 mov	 eax, __ehhandler$?_Getcat@?$num_put@DV?$ostreambuf_iterator@DU?$char_traits@D@std@@@std@@@std@@SAIPAPBVfacet@locale@2@@Z
  00005	e8 00 00 00 00	 call	 __EH_prolog
  0000a	56		 push	 esi

; 792  : 		if (_Ppf != 0 && *_Ppf == 0)

  0000b	8b 75 08	 mov	 esi, DWORD PTR __Ppf$[ebp]
  0000e	85 f6		 test	 esi, esi
  00010	74 27		 je	 SHORT $L26403
  00012	83 3e 00	 cmp	 DWORD PTR [esi], 0
  00015	75 22		 jne	 SHORT $L26403

; 793  : 			*_Ppf = _NEW_CRT num_put<_Elem, _OutIt>;

  00017	6a 10		 push	 16			; 00000010H
  00019	e8 00 00 00 00	 call	 ??2@YAPAXI@Z		; operator new
  0001e	59		 pop	 ecx
  0001f	8b c8		 mov	 ecx, eax
  00021	89 4d 08	 mov	 DWORD PTR $T41063[ebp], ecx
  00024	83 65 fc 00	 and	 DWORD PTR __$EHRec$[ebp+8], 0
  00028	85 c9		 test	 ecx, ecx
  0002a	74 09		 je	 SHORT $L41064
  0002c	6a 00		 push	 0
  0002e	e8 00 00 00 00	 call	 ??0?$num_put@DV?$ostreambuf_iterator@DU?$char_traits@D@std@@@std@@@std@@QAE@I@Z ; std::num_put<char,std::ostreambuf_iterator<char,std::char_traits<char> > >::num_put<char,std::ostreambuf_iterator<char,std::char_traits<char> > >
  00033	eb 02		 jmp	 SHORT $L41065
$L41064:
  00035	33 c0		 xor	 eax, eax
$L41065:
  00037	89 06		 mov	 DWORD PTR [esi], eax
$L26403:

; 794  : 		return (_X_NUMERIC);
; 795  : 		}

  00039	8b 4d f4	 mov	 ecx, DWORD PTR __$EHRec$[ebp]
  0003c	6a 04		 push	 4
  0003e	58		 pop	 eax
  0003f	5e		 pop	 esi
  00040	64 89 0d 00 00
	00 00		 mov	 DWORD PTR fs:__except_list, ecx
  00047	c9		 leave
  00048	c3		 ret	 0
_TEXT	ENDS
;	COMDAT text$x
text$x	SEGMENT
$L41066:
  00000	ff 75 08	 push	 DWORD PTR $T41063[ebp]
  00003	e8 00 00 00 00	 call	 ??3@YAXPAX@Z		; operator delete
  00008	59		 pop	 ecx
  00009	c3		 ret	 0
__ehhandler$?_Getcat@?$num_put@DV?$ostreambuf_iterator@DU?$char_traits@D@std@@@std@@@std@@SAIPAPBVfacet@locale@2@@Z:
  0000a	b8 00 00 00 00	 mov	 eax, OFFSET FLAT:$T41068
  0000f	e9 00 00 00 00	 jmp	 ___CxxFrameHandler
text$x	ENDS
?_Getcat@?$num_put@DV?$ostreambuf_iterator@DU?$char_traits@D@std@@@std@@@std@@SAIPAPBVfacet@locale@2@@Z ENDP ; std::num_put<char,std::ostreambuf_iterator<char,std::char_traits<char> > >::_Getcat
;	COMDAT xdata$x
xdata$x	SEGMENT
$T41083	DD	0ffffffffH
	DD	FLAT:$L41079
$T41081	DD	019930520H
	DD	01H
	DD	FLAT:$T41083
	DD	2 DUP(00H)
	DD	2 DUP(00H)
; Function compile flags: /Ogsy
xdata$x	ENDS
;	COMDAT ?_Getcat@?$num_put@GV?$ostreambuf_iterator@GU?$char_traits@G@std@@@std@@@std@@SAIPAPBVfacet@locale@2@@Z
_TEXT	SEGMENT
__$EHRec$ = -12						; size = 12
$T41076 = 8						; size = 4
__Ppf$ = 8						; size = 4
?_Getcat@?$num_put@GV?$ostreambuf_iterator@GU?$char_traits@G@std@@@std@@@std@@SAIPAPBVfacet@locale@2@@Z PROC NEAR ; std::num_put<unsigned short,std::ostreambuf_iterator<unsigned short,std::char_traits<unsigned short> > >::_Getcat, COMDAT

; 791  : 		{	// return locale category mask and construct standard facet

  00000	b8 00 00 00 00	 mov	 eax, __ehhandler$?_Getcat@?$num_put@GV?$ostreambuf_iterator@GU?$char_traits@G@std@@@std@@@std@@SAIPAPBVfacet@locale@2@@Z
  00005	e8 00 00 00 00	 call	 __EH_prolog
  0000a	56		 push	 esi

; 792  : 		if (_Ppf != 0 && *_Ppf == 0)

  0000b	8b 75 08	 mov	 esi, DWORD PTR __Ppf$[ebp]
  0000e	85 f6		 test	 esi, esi
  00010	74 27		 je	 SHORT $L26397
  00012	83 3e 00	 cmp	 DWORD PTR [esi], 0
  00015	75 22		 jne	 SHORT $L26397

; 793  : 			*_Ppf = _NEW_CRT num_put<_Elem, _OutIt>;

  00017	6a 10		 push	 16			; 00000010H
  00019	e8 00 00 00 00	 call	 ??2@YAPAXI@Z		; operator new
  0001e	59		 pop	 ecx
  0001f	8b c8		 mov	 ecx, eax
  00021	89 4d 08	 mov	 DWORD PTR $T41076[ebp], ecx
  00024	83 65 fc 00	 and	 DWORD PTR __$EHRec$[ebp+8], 0
  00028	85 c9		 test	 ecx, ecx
  0002a	74 09		 je	 SHORT $L41077
  0002c	6a 00		 push	 0
  0002e	e8 00 00 00 00	 call	 ??0?$num_put@GV?$ostreambuf_iterator@GU?$char_traits@G@std@@@std@@@std@@QAE@I@Z ; std::num_put<unsigned short,std::ostreambuf_iterator<unsigned short,std::char_traits<unsigned short> > >::num_put<unsigned short,std::ostreambuf_iterator<unsigned short,std::char_traits<unsigned short> > >
  00033	eb 02		 jmp	 SHORT $L41078
$L41077:
  00035	33 c0		 xor	 eax, eax
$L41078:
  00037	89 06		 mov	 DWORD PTR [esi], eax
$L26397:

; 794  : 		return (_X_NUMERIC);
; 795  : 		}

  00039	8b 4d f4	 mov	 ecx, DWORD PTR __$EHRec$[ebp]
  0003c	6a 04		 push	 4
  0003e	58		 pop	 eax
  0003f	5e		 pop	 esi
  00040	64 89 0d 00 00
	00 00		 mov	 DWORD PTR fs:__except_list, ecx
  00047	c9		 leave
  00048	c3		 ret	 0
_TEXT	ENDS
;	COMDAT text$x
text$x	SEGMENT
$L41079:
  00000	ff 75 08	 push	 DWORD PTR $T41076[ebp]
  00003	e8 00 00 00 00	 call	 ??3@YAXPAX@Z		; operator delete
  00008	59		 pop	 ecx
  00009	c3		 ret	 0
__ehhandler$?_Getcat@?$num_put@GV?$ostreambuf_iterator@GU?$char_traits@G@std@@@std@@@std@@SAIPAPBVfacet@locale@2@@Z:
  0000a	b8 00 00 00 00	 mov	 eax, OFFSET FLAT:$T41081
  0000f	e9 00 00 00 00	 jmp	 ___CxxFrameHandler
text$x	ENDS
?_Getcat@?$num_put@GV?$ostreambuf_iterator@GU?$char_traits@G@std@@@std@@@std@@SAIPAPBVfacet@locale@2@@Z ENDP ; std::num_put<unsigned short,std::ostreambuf_iterator<unsigned short,std::char_traits<unsigned short> > >::_Getcat
; Function compile flags: /Ogsy
; File c:\program files (x86)\microsoft visual studio .net 2003\vc7\include\iomanip
;	COMDAT ??0?$_Fillobj@D@std@@QAE@D@Z
_TEXT	SEGMENT
??0?$_Fillobj@D@std@@QAE@D@Z PROC NEAR			; std::_Fillobj<char>::_Fillobj<char>, COMDAT
; _this$ = eax
; __Ch$ = ecx

; 17   : 		{	// construct from fill character

  00000	88 08		 mov	 BYTE PTR [eax], cl

; 18   : 		}

  00002	c3		 ret	 0
??0?$_Fillobj@D@std@@QAE@D@Z ENDP			; std::_Fillobj<char>::_Fillobj<char>
; Function compile flags: /Ogsy
; File c:\program files (x86)\microsoft visual studio .net 2003\vc7\include\streambuf
_TEXT	ENDS
;	COMDAT ?sputn@?$basic_streambuf@DU?$char_traits@D@std@@@std@@QAEHPBDH@Z
_TEXT	SEGMENT
__Ptr$ = 8						; size = 4
__Count$ = 12						; size = 4
?sputn@?$basic_streambuf@DU?$char_traits@D@std@@@std@@QAEHPBDH@Z PROC NEAR ; std::basic_streambuf<char,std::char_traits<char> >::sputn, COMDAT
; _this$ = ecx

; 153  : 		return (xsputn(_Ptr, _Count));

  00000	8b 01		 mov	 eax, DWORD PTR [ecx]
  00002	ff 60 1c	 jmp	 DWORD PTR [eax+28]
?sputn@?$basic_streambuf@DU?$char_traits@D@std@@@std@@QAEHPBDH@Z ENDP ; std::basic_streambuf<char,std::char_traits<char> >::sputn
; Function compile flags: /Ogsy
; File c:\program files (x86)\microsoft visual studio .net 2003\vc7\include\ios
_TEXT	ENDS
;	COMDAT ?fill@?$basic_ios@DU?$char_traits@D@std@@@std@@QAEDD@Z
_TEXT	SEGMENT
?fill@?$basic_ios@DU?$char_traits@D@std@@@std@@QAEDD@Z PROC NEAR ; std::basic_ios<char,std::char_traits<char> >::fill, COMDAT
; _this$ = ecx
; __Newfill$ = edx

; 107  : 		_Elem _Oldfill = _Fillch;

  00000	8a 41 30	 mov	 al, BYTE PTR [ecx+48]

; 108  : 		_Fillch = _Newfill;

  00003	88 51 30	 mov	 BYTE PTR [ecx+48], dl

; 109  : 		return (_Oldfill);
; 110  : 		}

  00006	c3		 ret	 0
?fill@?$basic_ios@DU?$char_traits@D@std@@@std@@QAEDD@Z ENDP ; std::basic_ios<char,std::char_traits<char> >::fill
; Function compile flags: /Ogsy
; File c:\program files (x86)\microsoft visual studio .net 2003\vc7\include\streambuf
_TEXT	ENDS
;	COMDAT ?sputn@?$basic_streambuf@GU?$char_traits@G@std@@@std@@QAEHPBGH@Z
_TEXT	SEGMENT
__Ptr$ = 8						; size = 4
__Count$ = 12						; size = 4
?sputn@?$basic_streambuf@GU?$char_traits@G@std@@@std@@QAEHPBGH@Z PROC NEAR ; std::basic_streambuf<unsigned short,std::char_traits<unsigned short> >::sputn, COMDAT
; _this$ = ecx

; 153  : 		return (xsputn(_Ptr, _Count));

  00000	8b 01		 mov	 eax, DWORD PTR [ecx]
  00002	ff 60 1c	 jmp	 DWORD PTR [eax+28]
?sputn@?$basic_streambuf@GU?$char_traits@G@std@@@std@@QAEHPBGH@Z ENDP ; std::basic_streambuf<unsigned short,std::char_traits<unsigned short> >::sputn
; Function compile flags: /Ogsy
; File c:\program files (x86)\microsoft visual studio .net 2003\vc7\include\xmemory
_TEXT	ENDS
;	COMDAT ??$_Allocate@G@std@@YAPAGIPAG@Z
_TEXT	SEGMENT
??$_Allocate@G@std@@YAPAGIPAG@Z PROC NEAR		; std::_Allocate<unsigned short>, COMDAT
; __Count$ = eax

; 34   : 	return ((_Ty _FARQ *)operator new(_Count * sizeof (_Ty)));

  00000	03 c0		 add	 eax, eax
  00002	50		 push	 eax
  00003	e8 00 00 00 00	 call	 ??2@YAPAXI@Z		; operator new
  00008	59		 pop	 ecx

; 35   : 	}

  00009	c3		 ret	 0
??$_Allocate@G@std@@YAPAGIPAG@Z ENDP			; std::_Allocate<unsigned short>
; Function compile flags: /Ogsy
; File c:\program files (x86)\microsoft visual studio .net 2003\vc7\include\xlocale
_TEXT	ENDS
;	COMDAT ??$_Maklocchr@D@std@@YADDPADABU_Cvtvec@@@Z
_TEXT	SEGMENT
__Byte$ = 8						; size = 1
___formal$ = 12						; size = 4
___formal$ = 16						; size = 4
??$_Maklocchr@D@std@@YADDPADABU_Cvtvec@@@Z PROC NEAR	; std::_Maklocchr<char>, COMDAT

; 431  : 	return ((_Elem)(unsigned char)_Byte);

  00000	8a 44 24 04	 mov	 al, BYTE PTR __Byte$[esp-4]

; 432  : 	}

  00004	c3		 ret	 0
??$_Maklocchr@D@std@@YADDPADABU_Cvtvec@@@Z ENDP		; std::_Maklocchr<char>
_TEXT	ENDS
EXTRN	__CxxThrowException@8:NEAR
;	COMDAT xdata$x
xdata$x	SEGMENT
$T41116	DD	0ffffffffH
	DD	FLAT:$L41111
$T41113	DD	019930520H
	DD	01H
	DD	FLAT:$T41116
	DD	2 DUP(00H)
	DD	2 DUP(00H)
; Function compile flags: /Ogsy
xdata$x	ENDS
;	COMDAT ??$use_facet@V?$num_put@DV?$ostreambuf_iterator@DU?$char_traits@D@std@@@std@@@std@@@std@@YAABV?$num_put@DV?$ostreambuf_iterator@DU?$char_traits@D@std@@@std@@@0@ABVlocale@0@@Z
_TEXT	SEGMENT
$T41108 = -32						; size = 12
__Lock$ = -20						; size = 4
__Psave$ = -16						; size = 4
__$EHRec$ = -12						; size = 12
__Loc$ = 8						; size = 4
??$use_facet@V?$num_put@DV?$ostreambuf_iterator@DU?$char_traits@D@std@@@std@@@std@@@std@@YAABV?$num_put@DV?$ostreambuf_iterator@DU?$char_traits@D@std@@@std@@@0@ABVlocale@0@@Z PROC NEAR ; std::use_facet<std::num_put<char,std::ostreambuf_iterator<char,std::char_traits<char> > > >, COMDAT

; 315  : 	{	// get facet reference from locale

  00000	b8 00 00 00 00	 mov	 eax, __ehhandler$??$use_facet@V?$num_put@DV?$ostreambuf_iterator@DU?$char_traits@D@std@@@std@@@std@@@std@@YAABV?$num_put@DV?$ostreambuf_iterator@DU?$char_traits@D@std@@@std@@@0@ABVlocale@0@@Z
  00005	e8 00 00 00 00	 call	 __EH_prolog
  0000a	83 ec 14	 sub	 esp, 20			; 00000014H
  0000d	56		 push	 esi
  0000e	57		 push	 edi

; 316  : 	_Lockit _Lock(_LOCK_LOCALE);	// the thread lock, make get atomic

  0000f	6a 00		 push	 0
  00011	8d 4d ec	 lea	 ecx, DWORD PTR __Lock$[ebp]
  00014	e8 00 00 00 00	 call	 ??0_Lockit@std@@QAE@H@Z	; std::_Lockit::_Lockit
  00019	83 65 fc 00	 and	 DWORD PTR __$EHRec$[ebp+8], 0

; 317  : 	const locale::facet *_Psave =
; 318  : 		_Facetptr<_Facet>::_Psave;	// static pointer to lazy facet

  0001d	8b 35 00 00 00
	00		 mov	 esi, DWORD PTR ?_Psave@?$_Facetptr@V?$num_put@DV?$ostreambuf_iterator@DU?$char_traits@D@std@@@std@@@std@@@std@@2PBVfacet@locale@2@B ; std::_Facetptr<std::num_put<char,std::ostreambuf_iterator<char,std::char_traits<char> > > >::_Psave

; 319  : 
; 320  : 	size_t _Id = _Facet::id;

  00023	b9 00 00 00 00	 mov	 ecx, OFFSET FLAT:?id@?$num_put@DV?$ostreambuf_iterator@DU?$char_traits@D@std@@@std@@@std@@2V0locale@2@A ; std::num_put<char,std::ostreambuf_iterator<char,std::char_traits<char> > >::id
  00028	89 75 f0	 mov	 DWORD PTR __Psave$[ebp], esi
  0002b	e8 00 00 00 00	 call	 ??Bid@locale@std@@QAEIXZ ; std::locale::id::operator unsigned int

; 321  : 	const locale::facet *_Pf = _Loc._Getfacet(_Id);

  00030	8b 4d 08	 mov	 ecx, DWORD PTR __Loc$[ebp]
  00033	50		 push	 eax
  00034	e8 00 00 00 00	 call	 ?_Getfacet@locale@std@@QBEPBVfacet@12@I@Z ; std::locale::_Getfacet
  00039	8b f8		 mov	 edi, eax

; 322  : 
; 323  : 	if (_Pf != 0)

  0003b	85 ff		 test	 edi, edi
  0003d	75 49		 jne	 SHORT $L26316

; 324  : 		;	// got facet from locale
; 325  : 	else if (_Psave != 0)

  0003f	85 f6		 test	 esi, esi
  00041	74 04		 je	 SHORT $L26310

; 326  : 		_Pf = _Psave;	// lazy facet already allocated

  00043	8b fe		 mov	 edi, esi

; 327  : 	else if (_Facet::_Getcat(&_Psave) == (size_t)(-1))

  00045	eb 41		 jmp	 SHORT $L26316
$L26310:
  00047	8d 45 f0	 lea	 eax, DWORD PTR __Psave$[ebp]
  0004a	50		 push	 eax
  0004b	e8 00 00 00 00	 call	 ?_Getcat@?$num_put@DV?$ostreambuf_iterator@DU?$char_traits@D@std@@@std@@@std@@SAIPAPBVfacet@locale@2@@Z ; std::num_put<char,std::ostreambuf_iterator<char,std::char_traits<char> > >::_Getcat
  00050	83 f8 ff	 cmp	 eax, -1
  00053	59		 pop	 ecx
  00054	75 1b		 jne	 SHORT $L26313

; 328  : 
; 329  :  #if _HAS_EXCEPTIONS
; 330  : 		throw bad_cast();	// lazy disallowed

  00056	68 00 00 00 00	 push	 OFFSET FLAT:??_C@_08EPJLHIJG@bad?5cast?$AA@
  0005b	8d 4d e0	 lea	 ecx, DWORD PTR $T41108[ebp]
  0005e	e8 00 00 00 00	 call	 ??0bad_cast@@QAE@PBD@Z	; bad_cast::bad_cast
  00063	68 00 00 00 00	 push	 OFFSET FLAT:__TI2?AVbad_cast@@
  00068	8d 45 e0	 lea	 eax, DWORD PTR $T41108[ebp]
  0006b	50		 push	 eax
  0006c	e8 00 00 00 00	 call	 __CxxThrowException@8
$L41117:
$L26313:

; 331  : 
; 332  :  #else /* _HAS_EXCEPTIONS */
; 333  : 		abort();	// lazy disallowed
; 334  :  #endif /* _HAS_EXCEPTIONS */
; 335  : 
; 336  : 	else
; 337  : 		{	// queue up lazy facet for destruction
; 338  : 		_Pf = _Psave;

  00071	8b 7d f0	 mov	 edi, DWORD PTR __Psave$[ebp]

; 339  : 		_Facetptr<_Facet>::_Psave = _Psave;
; 340  : 
; 341  : 		locale::facet *_Pfmod = (_Facet *)_Psave;
; 342  : 		_Pfmod->_Incref();

  00074	8b cf		 mov	 ecx, edi
  00076	89 3d 00 00 00
	00		 mov	 DWORD PTR ?_Psave@?$_Facetptr@V?$num_put@DV?$ostreambuf_iterator@DU?$char_traits@D@std@@@std@@@std@@@std@@2PBVfacet@locale@2@B, edi ; std::_Facetptr<std::num_put<char,std::ostreambuf_iterator<char,std::char_traits<char> > > >::_Psave
  0007c	e8 00 00 00 00	 call	 ?_Incref@facet@locale@std@@QAEXXZ ; std::locale::facet::_Incref

; 343  : 		_Pfmod->_Register();

  00081	8b cf		 mov	 ecx, edi
  00083	e8 00 00 00 00	 call	 ?_Register@facet@locale@std@@QAEXXZ ; std::locale::facet::_Register
$L26316:

; 344  : 		}
; 345  : 
; 346  : 	return ((const _Facet&)(*_Pf));	// should be dynamic_cast

  00088	83 4d fc ff	 or	 DWORD PTR __$EHRec$[ebp+8], -1
  0008c	8d 4d ec	 lea	 ecx, DWORD PTR __Lock$[ebp]
  0008f	e8 00 00 00 00	 call	 ??1_Lockit@std@@QAE@XZ	; std::_Lockit::~_Lockit

; 347  : 	}

  00094	8b 4d f4	 mov	 ecx, DWORD PTR __$EHRec$[ebp]
  00097	8b c7		 mov	 eax, edi
  00099	5f		 pop	 edi
  0009a	5e		 pop	 esi
  0009b	64 89 0d 00 00
	00 00		 mov	 DWORD PTR fs:__except_list, ecx
  000a2	c9		 leave
  000a3	c3		 ret	 0
$L41115:
_TEXT	ENDS
;	COMDAT text$x
text$x	SEGMENT
$L41111:
  00000	8d 4d ec	 lea	 ecx, DWORD PTR __Lock$[ebp]
  00003	e9 00 00 00 00	 jmp	 ??1_Lockit@std@@QAE@XZ	; std::_Lockit::~_Lockit
__ehhandler$??$use_facet@V?$num_put@DV?$ostreambuf_iterator@DU?$char_traits@D@std@@@std@@@std@@@std@@YAABV?$num_put@DV?$ostreambuf_iterator@DU?$char_traits@D@std@@@std@@@0@ABVlocale@0@@Z:
  00008	b8 00 00 00 00	 mov	 eax, OFFSET FLAT:$T41113
  0000d	e9 00 00 00 00	 jmp	 ___CxxFrameHandler
text$x	ENDS
??$use_facet@V?$num_put@DV?$ostreambuf_iterator@DU?$char_traits@D@std@@@std@@@std@@@std@@YAABV?$num_put@DV?$ostreambuf_iterator@DU?$char_traits@D@std@@@std@@@0@ABVlocale@0@@Z ENDP ; std::use_facet<std::num_put<char,std::ostreambuf_iterator<char,std::char_traits<char> > > >
;	COMDAT xdata$x
xdata$x	SEGMENT
$T41129	DD	0ffffffffH
	DD	FLAT:$L41124
$T41126	DD	019930520H
	DD	01H
	DD	FLAT:$T41129
	DD	2 DUP(00H)
	DD	2 DUP(00H)
; Function compile flags: /Ogsy
xdata$x	ENDS
;	COMDAT ??$use_facet@V?$num_put@GV?$ostreambuf_iterator@GU?$char_traits@G@std@@@std@@@std@@@std@@YAABV?$num_put@GV?$ostreambuf_iterator@GU?$char_traits@G@std@@@std@@@0@ABVlocale@0@@Z
_TEXT	SEGMENT
$T41122 = -32						; size = 12
__Lock$ = -20						; size = 4
__Psave$ = -16						; size = 4
__$EHRec$ = -12						; size = 12
__Loc$ = 8						; size = 4
??$use_facet@V?$num_put@GV?$ostreambuf_iterator@GU?$char_traits@G@std@@@std@@@std@@@std@@YAABV?$num_put@GV?$ostreambuf_iterator@GU?$char_traits@G@std@@@std@@@0@ABVlocale@0@@Z PROC NEAR ; std::use_facet<std::num_put<unsigned short,std::ostreambuf_iterator<unsigned short,std::char_traits<unsigned short> > > >, COMDAT

; 315  : 	{	// get facet reference from locale

  00000	b8 00 00 00 00	 mov	 eax, __ehhandler$??$use_facet@V?$num_put@GV?$ostreambuf_iterator@GU?$char_traits@G@std@@@std@@@std@@@std@@YAABV?$num_put@GV?$ostreambuf_iterator@GU?$char_traits@G@std@@@std@@@0@ABVlocale@0@@Z
  00005	e8 00 00 00 00	 call	 __EH_prolog
  0000a	83 ec 14	 sub	 esp, 20			; 00000014H
  0000d	56		 push	 esi
  0000e	57		 push	 edi

; 316  : 	_Lockit _Lock(_LOCK_LOCALE);	// the thread lock, make get atomic

  0000f	6a 00		 push	 0
  00011	8d 4d ec	 lea	 ecx, DWORD PTR __Lock$[ebp]
  00014	e8 00 00 00 00	 call	 ??0_Lockit@std@@QAE@H@Z	; std::_Lockit::_Lockit
  00019	83 65 fc 00	 and	 DWORD PTR __$EHRec$[ebp+8], 0

; 317  : 	const locale::facet *_Psave =
; 318  : 		_Facetptr<_Facet>::_Psave;	// static pointer to lazy facet

  0001d	8b 35 00 00 00
	00		 mov	 esi, DWORD PTR ?_Psave@?$_Facetptr@V?$num_put@GV?$ostreambuf_iterator@GU?$char_traits@G@std@@@std@@@std@@@std@@2PBVfacet@locale@2@B ; std::_Facetptr<std::num_put<unsigned short,std::ostreambuf_iterator<unsigned short,std::char_traits<unsigned short> > > >::_Psave

; 319  : 
; 320  : 	size_t _Id = _Facet::id;

  00023	b9 00 00 00 00	 mov	 ecx, OFFSET FLAT:?id@?$num_put@GV?$ostreambuf_iterator@GU?$char_traits@G@std@@@std@@@std@@2V0locale@2@A ; std::num_put<unsigned short,std::ostreambuf_iterator<unsigned short,std::char_traits<unsigned short> > >::id
  00028	89 75 f0	 mov	 DWORD PTR __Psave$[ebp], esi
  0002b	e8 00 00 00 00	 call	 ??Bid@locale@std@@QAEIXZ ; std::locale::id::operator unsigned int

; 321  : 	const locale::facet *_Pf = _Loc._Getfacet(_Id);

  00030	8b 4d 08	 mov	 ecx, DWORD PTR __Loc$[ebp]
  00033	50		 push	 eax
  00034	e8 00 00 00 00	 call	 ?_Getfacet@locale@std@@QBEPBVfacet@12@I@Z ; std::locale::_Getfacet
  00039	8b f8		 mov	 edi, eax

; 322  : 
; 323  : 	if (_Pf != 0)

  0003b	85 ff		 test	 edi, edi
  0003d	75 49		 jne	 SHORT $L26288

; 324  : 		;	// got facet from locale
; 325  : 	else if (_Psave != 0)

  0003f	85 f6		 test	 esi, esi
  00041	74 04		 je	 SHORT $L26282

; 326  : 		_Pf = _Psave;	// lazy facet already allocated

  00043	8b fe		 mov	 edi, esi

; 327  : 	else if (_Facet::_Getcat(&_Psave) == (size_t)(-1))

  00045	eb 41		 jmp	 SHORT $L26288
$L26282:
  00047	8d 45 f0	 lea	 eax, DWORD PTR __Psave$[ebp]
  0004a	50		 push	 eax
  0004b	e8 00 00 00 00	 call	 ?_Getcat@?$num_put@GV?$ostreambuf_iterator@GU?$char_traits@G@std@@@std@@@std@@SAIPAPBVfacet@locale@2@@Z ; std::num_put<unsigned short,std::ostreambuf_iterator<unsigned short,std::char_traits<unsigned short> > >::_Getcat
  00050	83 f8 ff	 cmp	 eax, -1
  00053	59		 pop	 ecx
  00054	75 1b		 jne	 SHORT $L26285

; 328  : 
; 329  :  #if _HAS_EXCEPTIONS
; 330  : 		throw bad_cast();	// lazy disallowed

  00056	68 00 00 00 00	 push	 OFFSET FLAT:??_C@_08EPJLHIJG@bad?5cast?$AA@
  0005b	8d 4d e0	 lea	 ecx, DWORD PTR $T41122[ebp]
  0005e	e8 00 00 00 00	 call	 ??0bad_cast@@QAE@PBD@Z	; bad_cast::bad_cast
  00063	68 00 00 00 00	 push	 OFFSET FLAT:__TI2?AVbad_cast@@
  00068	8d 45 e0	 lea	 eax, DWORD PTR $T41122[ebp]
  0006b	50		 push	 eax
  0006c	e8 00 00 00 00	 call	 __CxxThrowException@8
$L41130:
$L26285:

; 331  : 
; 332  :  #else /* _HAS_EXCEPTIONS */
; 333  : 		abort();	// lazy disallowed
; 334  :  #endif /* _HAS_EXCEPTIONS */
; 335  : 
; 336  : 	else
; 337  : 		{	// queue up lazy facet for destruction
; 338  : 		_Pf = _Psave;

  00071	8b 7d f0	 mov	 edi, DWORD PTR __Psave$[ebp]

; 339  : 		_Facetptr<_Facet>::_Psave = _Psave;
; 340  : 
; 341  : 		locale::facet *_Pfmod = (_Facet *)_Psave;
; 342  : 		_Pfmod->_Incref();

  00074	8b cf		 mov	 ecx, edi
  00076	89 3d 00 00 00
	00		 mov	 DWORD PTR ?_Psave@?$_Facetptr@V?$num_put@GV?$ostreambuf_iterator@GU?$char_traits@G@std@@@std@@@std@@@std@@2PBVfacet@locale@2@B, edi ; std::_Facetptr<std::num_put<unsigned short,std::ostreambuf_iterator<unsigned short,std::char_traits<unsigned short> > > >::_Psave
  0007c	e8 00 00 00 00	 call	 ?_Incref@facet@locale@std@@QAEXXZ ; std::locale::facet::_Incref

; 343  : 		_Pfmod->_Register();

  00081	8b cf		 mov	 ecx, edi
  00083	e8 00 00 00 00	 call	 ?_Register@facet@locale@std@@QAEXXZ ; std::locale::facet::_Register
$L26288:

; 344  : 		}
; 345  : 
; 346  : 	return ((const _Facet&)(*_Pf));	// should be dynamic_cast

  00088	83 4d fc ff	 or	 DWORD PTR __$EHRec$[ebp+8], -1
  0008c	8d 4d ec	 lea	 ecx, DWORD PTR __Lock$[ebp]
  0008f	e8 00 00 00 00	 call	 ??1_Lockit@std@@QAE@XZ	; std::_Lockit::~_Lockit

; 347  : 	}

  00094	8b 4d f4	 mov	 ecx, DWORD PTR __$EHRec$[ebp]
  00097	8b c7		 mov	 eax, edi
  00099	5f		 pop	 edi
  0009a	5e		 pop	 esi
  0009b	64 89 0d 00 00
	00 00		 mov	 DWORD PTR fs:__except_list, ecx
  000a2	c9		 leave
  000a3	c3		 ret	 0
$L41128:
_TEXT	ENDS
;	COMDAT text$x
text$x	SEGMENT
$L41124:
  00000	8d 4d ec	 lea	 ecx, DWORD PTR __Lock$[ebp]
  00003	e9 00 00 00 00	 jmp	 ??1_Lockit@std@@QAE@XZ	; std::_Lockit::~_Lockit
__ehhandler$??$use_facet@V?$num_put@GV?$ostreambuf_iterator@GU?$char_traits@G@std@@@std@@@std@@@std@@YAABV?$num_put@GV?$ostreambuf_iterator@GU?$char_traits@G@std@@@std@@@0@ABVlocale@0@@Z:
  00008	b8 00 00 00 00	 mov	 eax, OFFSET FLAT:$T41126
  0000d	e9 00 00 00 00	 jmp	 ___CxxFrameHandler
text$x	ENDS
??$use_facet@V?$num_put@GV?$ostreambuf_iterator@GU?$char_traits@G@std@@@std@@@std@@@std@@YAABV?$num_put@GV?$ostreambuf_iterator@GU?$char_traits@G@std@@@std@@@0@ABVlocale@0@@Z ENDP ; std::use_facet<std::num_put<unsigned short,std::ostreambuf_iterator<unsigned short,std::char_traits<unsigned short> > > >
; Function compile flags: /Ogsy
; File c:\program files (x86)\microsoft visual studio .net 2003\vc7\include\iomanip
;	COMDAT ??$?6DU?$char_traits@D@std@@H@std@@YAAAV?$basic_ostream@DU?$char_traits@D@std@@@0@AAV10@ABU?$_Smanip@H@0@@Z
_TEXT	SEGMENT
??$?6DU?$char_traits@D@std@@H@std@@YAAAV?$basic_ostream@DU?$char_traits@D@std@@@0@AAV10@ABU?$_Smanip@H@0@@Z PROC NEAR ; std::operator<<<char,std::char_traits<char>,int>, COMDAT
; __Ostr$ = esi
; __Manip$ = ecx

; 73   : 	(*_Manip._Pfun)(_Ostr, _Manip._Manarg);

  00000	85 f6		 test	 esi, esi
  00002	75 04		 jne	 SHORT $L41135
  00004	33 c0		 xor	 eax, eax
  00006	eb 07		 jmp	 SHORT $L41136
$L41135:
  00008	8b 06		 mov	 eax, DWORD PTR [esi]
  0000a	8b 40 04	 mov	 eax, DWORD PTR [eax+4]
  0000d	03 c6		 add	 eax, esi
$L41136:
  0000f	ff 71 04	 push	 DWORD PTR [ecx+4]
  00012	50		 push	 eax
  00013	ff 11		 call	 DWORD PTR [ecx]
  00015	59		 pop	 ecx
  00016	59		 pop	 ecx

; 74   : 	return (_Ostr);

  00017	8b c6		 mov	 eax, esi

; 75   : 	}

  00019	c3		 ret	 0
??$?6DU?$char_traits@D@std@@H@std@@YAAAV?$basic_ostream@DU?$char_traits@D@std@@@0@AAV10@ABU?$_Smanip@H@0@@Z ENDP ; std::operator<<<char,std::char_traits<char>,int>
; Function compile flags: /Ogsy
_TEXT	ENDS
;	COMDAT ??$?6DU?$char_traits@D@std@@@std@@YAAAV?$basic_ostream@DU?$char_traits@D@std@@@0@AAV10@ABU?$_Fillobj@D@0@@Z
_TEXT	SEGMENT
??$?6DU?$char_traits@D@std@@@std@@YAAAV?$basic_ostream@DU?$char_traits@D@std@@@0@AAV10@ABU?$_Fillobj@D@0@@Z PROC NEAR ; std::operator<<<char,std::char_traits<char> >, COMDAT
; __Ostr$ = eax
; __Manip$ = edx

; 44   : 	_Ostr.fill(_Manip._Fill);

  00000	8b 08		 mov	 ecx, DWORD PTR [eax]
  00002	8b 49 04	 mov	 ecx, DWORD PTR [ecx+4]
  00005	8a 12		 mov	 dl, BYTE PTR [edx]
  00007	88 54 01 30	 mov	 BYTE PTR [ecx+eax+48], dl

; 45   : 	return (_Ostr);
; 46   : 	}

  0000b	c3		 ret	 0
??$?6DU?$char_traits@D@std@@@std@@YAAAV?$basic_ostream@DU?$char_traits@D@std@@@0@AAV10@ABU?$_Fillobj@D@0@@Z ENDP ; std::operator<<<char,std::char_traits<char> >
; Function compile flags: /Ogsy
_TEXT	ENDS
;	COMDAT ??$setfill@D@std@@YA?AU?$_Fillobj@D@0@D@Z
_TEXT	SEGMENT
??$setfill@D@std@@YA?AU?$_Fillobj@D@0@D@Z PROC NEAR	; std::setfill<char>, COMDAT
; ___$ReturnUdt$ = eax
; __Ch$ = ecx

; 27   : 	return (_Fillobj<_Elem>(_Ch));

  00000	88 08		 mov	 BYTE PTR [eax], cl

; 28   : 	}

  00002	c3		 ret	 0
??$setfill@D@std@@YA?AU?$_Fillobj@D@0@D@Z ENDP		; std::setfill<char>
; Function compile flags: /Ogsy
; File c:\program files (x86)\microsoft visual studio .net 2003\vc7\include\xmemory
_TEXT	ENDS
;	COMDAT ?max_size@?$allocator@G@std@@QBEIXZ
_TEXT	SEGMENT
?max_size@?$allocator@G@std@@QBEIXZ PROC NEAR		; std::allocator<unsigned short>::max_size, COMDAT

; 157  : 		_SIZT _Count = (_SIZT)(-1) / sizeof (_Ty);
; 158  : 		return (0 < _Count ? _Count : 1);

  00000	b8 ff ff ff 7f	 mov	 eax, 2147483647		; 7fffffffH

; 159  : 		}

  00005	c3		 ret	 0
?max_size@?$allocator@G@std@@QBEIXZ ENDP		; std::allocator<unsigned short>::max_size
; Function compile flags: /Ogsy
_TEXT	ENDS
;	COMDAT ?allocate@?$allocator@G@std@@QAEPAGI@Z
_TEXT	SEGMENT
?allocate@?$allocator@G@std@@QAEPAGI@Z PROC NEAR	; std::allocator<unsigned short>::allocate, COMDAT
; __Count$ = eax

; 137  : 		return (_Allocate(_Count, (pointer)0));

  00000	03 c0		 add	 eax, eax
  00002	50		 push	 eax
  00003	e8 00 00 00 00	 call	 ??2@YAPAXI@Z		; operator new
  00008	59		 pop	 ecx

; 138  : 		}

  00009	c3		 ret	 0
?allocate@?$allocator@G@std@@QAEPAGI@Z ENDP		; std::allocator<unsigned short>::allocate
; Function compile flags: /Ogsy
; File c:\program files (x86)\microsoft visual studio .net 2003\vc7\include\xstring
_TEXT	ENDS
;	COMDAT ?max_size@?$basic_string@GU?$char_traits@G@std@@V?$allocator@G@2@@std@@QBEIXZ
_TEXT	SEGMENT
?max_size@?$basic_string@GU?$char_traits@G@std@@V?$allocator@G@2@@std@@QBEIXZ PROC NEAR ; std::basic_string<unsigned short,std::char_traits<unsigned short>,std::allocator<unsigned short> >::max_size, COMDAT

; 1114 : 		size_type _Num = _Mybase::_Alval.max_size();
; 1115 : 		return (_Num <= 1 ? 1 : _Num - 1);

  00000	b8 fe ff ff 7f	 mov	 eax, 2147483646		; 7ffffffeH

; 1116 : 		}

  00005	c3		 ret	 0
?max_size@?$basic_string@GU?$char_traits@G@std@@V?$allocator@G@2@@std@@QBEIXZ ENDP ; std::basic_string<unsigned short,std::char_traits<unsigned short>,std::allocator<unsigned short> >::max_size
; Function compile flags: /Ogsy
; File c:\program files (x86)\microsoft visual studio .net 2003\vc7\include\xmemory
_TEXT	ENDS
;	COMDAT ?deallocate@?$allocator@G@std@@QAEXPAGI@Z
_TEXT	SEGMENT
__Ptr$ = 8						; size = 4
?deallocate@?$allocator@G@std@@QAEXPAGI@Z PROC NEAR	; std::allocator<unsigned short>::deallocate, COMDAT

; 132  : 		operator delete(_Ptr);

  00000	ff 74 24 04	 push	 DWORD PTR __Ptr$[esp-4]
  00004	e8 00 00 00 00	 call	 ??3@YAXPAX@Z		; operator delete
  00009	59		 pop	 ecx

; 133  : 		}

  0000a	c2 04 00	 ret	 4
?deallocate@?$allocator@G@std@@QAEXPAGI@Z ENDP		; std::allocator<unsigned short>::deallocate
; Function compile flags: /Ogsy
_TEXT	ENDS
;	COMDAT ??0?$allocator@G@std@@QAE@ABV01@@Z
_TEXT	SEGMENT
??0?$allocator@G@std@@QAE@ABV01@@Z PROC NEAR		; std::allocator<unsigned short>::allocator<unsigned short>, COMDAT
; _this$ = eax

; 116  : 		{	// construct by copying (do nothing)
; 117  : 		}

  00000	c3		 ret	 0
??0?$allocator@G@std@@QAE@ABV01@@Z ENDP			; std::allocator<unsigned short>::allocator<unsigned short>
; Function compile flags: /Ogsy
; File c:\program files (x86)\microsoft visual studio .net 2003\vc7\include\xstring
_TEXT	ENDS
;	COMDAT ?_Myptr@?$basic_string@GU?$char_traits@G@std@@V?$allocator@G@2@@std@@QAEPAGXZ
_TEXT	SEGMENT
?_Myptr@?$basic_string@GU?$char_traits@G@std@@V?$allocator@G@2@@std@@QAEPAGXZ PROC NEAR ; std::basic_string<unsigned short,std::char_traits<unsigned short>,std::allocator<unsigned short> >::_Myptr, COMDAT
; _this$ = eax

; 1532 : 		return (_BUF_SIZE <= _Myres ? _Bx._Ptr : _Bx._Buf);

  00000	83 78 18 08	 cmp	 DWORD PTR [eax+24], 8
  00004	72 04		 jb	 SHORT $L41185
  00006	8b 40 04	 mov	 eax, DWORD PTR [eax+4]

; 1533 : 		}

  00009	c3		 ret	 0
$L41185:

; 1532 : 		return (_BUF_SIZE <= _Myres ? _Bx._Ptr : _Bx._Buf);

  0000a	83 c0 04	 add	 eax, 4

; 1533 : 		}

  0000d	c3		 ret	 0
?_Myptr@?$basic_string@GU?$char_traits@G@std@@V?$allocator@G@2@@std@@QAEPAGXZ ENDP ; std::basic_string<unsigned short,std::char_traits<unsigned short>,std::allocator<unsigned short> >::_Myptr
; Function compile flags: /Ogsy
_TEXT	ENDS
;	COMDAT ?_Eos@?$basic_string@GU?$char_traits@G@std@@V?$allocator@G@2@@std@@IAEXI@Z
_TEXT	SEGMENT
__Newsize$ = 8						; size = 4
?_Eos@?$basic_string@GU?$char_traits@G@std@@V?$allocator@G@2@@std@@IAEXI@Z PROC NEAR ; std::basic_string<unsigned short,std::char_traits<unsigned short>,std::allocator<unsigned short> >::_Eos, COMDAT
; _this$ = ecx

; 1475 : 		_Traits::assign(_Myptr()[_Mysize = _Newsize], _Elem());

  00000	83 79 18 08	 cmp	 DWORD PTR [ecx+24], 8
  00004	8b 44 24 04	 mov	 eax, DWORD PTR __Newsize$[esp-4]
  00008	89 41 14	 mov	 DWORD PTR [ecx+20], eax
  0000b	72 05		 jb	 SHORT $L41195
  0000d	8b 49 04	 mov	 ecx, DWORD PTR [ecx+4]
  00010	eb 03		 jmp	 SHORT $L41196
$L41195:
  00012	83 c1 04	 add	 ecx, 4
$L41196:
  00015	66 83 24 41 00	 and	 WORD PTR [ecx+eax*2], 0

; 1476 : 		}

  0001a	c2 04 00	 ret	 4
?_Eos@?$basic_string@GU?$char_traits@G@std@@V?$allocator@G@2@@std@@IAEXI@Z ENDP ; std::basic_string<unsigned short,std::char_traits<unsigned short>,std::allocator<unsigned short> >::_Eos
; Function compile flags: /Ogsy
_TEXT	ENDS
;	COMDAT ?erase@?$basic_string@GU?$char_traits@G@std@@V?$allocator@G@2@@std@@QAEAAV12@II@Z
_TEXT	SEGMENT
__Off$ = 8						; size = 4
__Count$ = 12						; size = 4
?erase@?$basic_string@GU?$char_traits@G@std@@V?$allocator@G@2@@std@@QAEAAV12@II@Z PROC NEAR ; std::basic_string<unsigned short,std::char_traits<unsigned short>,std::allocator<unsigned short> >::erase, COMDAT
; _this$ = ecx

; 792  : 		{	// erase elements [_Off, _Off + _Count)

  00000	55		 push	 ebp
  00001	8b ec		 mov	 ebp, esp
  00003	56		 push	 esi
  00004	57		 push	 edi

; 793  : 		if (_Mysize < _Off)

  00005	8b 7d 08	 mov	 edi, DWORD PTR __Off$[ebp]
  00008	8b f1		 mov	 esi, ecx
  0000a	39 7e 14	 cmp	 DWORD PTR [esi+20], edi
  0000d	73 05		 jae	 SHORT $L26136

; 794  : 			_String_base::_Xran();	// _Off off end

  0000f	e8 00 00 00 00	 call	 ?_Xran@_String_base@std@@QBEXXZ ; std::_String_base::_Xran
$L26136:

; 795  : 		if (_Mysize - _Off < _Count)

  00014	8b 46 14	 mov	 eax, DWORD PTR [esi+20]
  00017	2b c7		 sub	 eax, edi
  00019	3b 45 0c	 cmp	 eax, DWORD PTR __Count$[ebp]
  0001c	73 03		 jae	 SHORT $L26137

; 796  : 			_Count = _Mysize - _Off;	// trim _Count

  0001e	89 45 0c	 mov	 DWORD PTR __Count$[ebp], eax
$L26137:

; 797  : 		if (0 < _Count)

  00021	83 7d 0c 00	 cmp	 DWORD PTR __Count$[ebp], 0
  00025	76 42		 jbe	 SHORT $L26138
  00027	53		 push	 ebx

; 798  : 			{	// move elements down
; 799  : 			_Traits::move(_Myptr() + _Off, _Myptr() + _Off + _Count,
; 800  : 				_Mysize - _Off - _Count);

  00028	8b 5e 18	 mov	 ebx, DWORD PTR [esi+24]
  0002b	83 fb 08	 cmp	 ebx, 8
  0002e	8d 4e 04	 lea	 ecx, DWORD PTR [esi+4]
  00031	72 04		 jb	 SHORT $L41208
  00033	8b 11		 mov	 edx, DWORD PTR [ecx]
  00035	eb 02		 jmp	 SHORT $L41209
$L41208:
  00037	8b d1		 mov	 edx, ecx
$L41209:
  00039	83 fb 08	 cmp	 ebx, 8
  0003c	72 02		 jb	 SHORT $L41216
  0003e	8b 09		 mov	 ecx, DWORD PTR [ecx]
$L41216:
  00040	8b 5d 0c	 mov	 ebx, DWORD PTR __Count$[ebp]
  00043	2b c3		 sub	 eax, ebx
  00045	d1 e0		 shl	 eax, 1
  00047	50		 push	 eax
  00048	8d 04 1f	 lea	 eax, DWORD PTR [edi+ebx]
  0004b	8d 04 42	 lea	 eax, DWORD PTR [edx+eax*2]
  0004e	50		 push	 eax
  0004f	8d 04 79	 lea	 eax, DWORD PTR [ecx+edi*2]
  00052	50		 push	 eax
  00053	e8 00 00 00 00	 call	 _memmove

; 801  : 			size_type _Newsize = _Mysize - _Count;

  00058	8b 46 14	 mov	 eax, DWORD PTR [esi+20]
  0005b	83 c4 0c	 add	 esp, 12			; 0000000cH
  0005e	2b c3		 sub	 eax, ebx

; 802  : 			_Eos(_Newsize);

  00060	50		 push	 eax
  00061	8b ce		 mov	 ecx, esi
  00063	e8 00 00 00 00	 call	 ?_Eos@?$basic_string@GU?$char_traits@G@std@@V?$allocator@G@2@@std@@IAEXI@Z ; std::basic_string<unsigned short,std::char_traits<unsigned short>,std::allocator<unsigned short> >::_Eos
  00068	5b		 pop	 ebx
$L26138:
  00069	5f		 pop	 edi

; 803  : 			}
; 804  : 		return (*this);

  0006a	8b c6		 mov	 eax, esi
  0006c	5e		 pop	 esi

; 805  : 		}

  0006d	5d		 pop	 ebp
  0006e	c2 08 00	 ret	 8
?erase@?$basic_string@GU?$char_traits@G@std@@V?$allocator@G@2@@std@@QAEAAV12@II@Z ENDP ; std::basic_string<unsigned short,std::char_traits<unsigned short>,std::allocator<unsigned short> >::erase
; Function compile flags: /Ogsy
; File c:\program files (x86)\microsoft visual studio .net 2003\vc7\include\xlocnum
_TEXT	ENDS
;	COMDAT ?_Tidy@?$numpunct@D@std@@AAEXXZ
_TEXT	SEGMENT
?_Tidy@?$numpunct@D@std@@AAEXXZ PROC NEAR		; std::numpunct<char>::_Tidy, COMDAT
; _this$ = ecx

; 137  : 		{	// free all storage

  00000	56		 push	 esi
  00001	8b f1		 mov	 esi, ecx

; 138  : 		_DELETE_CRT_VEC((void *)_Grouping);

  00003	ff 76 08	 push	 DWORD PTR [esi+8]
  00006	e8 00 00 00 00	 call	 ??_V@YAXPAX@Z		; operator delete[]

; 139  : 		_DELETE_CRT_VEC((void *)_Falsename);

  0000b	ff 76 10	 push	 DWORD PTR [esi+16]
  0000e	e8 00 00 00 00	 call	 ??_V@YAXPAX@Z		; operator delete[]

; 140  : 		_DELETE_CRT_VEC((void *)_Truename);

  00013	ff 76 14	 push	 DWORD PTR [esi+20]
  00016	e8 00 00 00 00	 call	 ??_V@YAXPAX@Z		; operator delete[]
  0001b	83 c4 0c	 add	 esp, 12			; 0000000cH
  0001e	5e		 pop	 esi

; 141  : 		}

  0001f	c3		 ret	 0
?_Tidy@?$numpunct@D@std@@AAEXXZ ENDP			; std::numpunct<char>::_Tidy
; Function compile flags: /Ogsy
_TEXT	ENDS
;	COMDAT ?thousands_sep@?$numpunct@D@std@@QBEDXZ
_TEXT	SEGMENT
?thousands_sep@?$numpunct@D@std@@QBEDXZ PROC NEAR	; std::numpunct<char>::thousands_sep, COMDAT
; _this$ = ecx

; 44   : 		return (do_thousands_sep());

  00000	8b 01		 mov	 eax, DWORD PTR [ecx]
  00002	ff 60 08	 jmp	 DWORD PTR [eax+8]
?thousands_sep@?$numpunct@D@std@@QBEDXZ ENDP		; std::numpunct<char>::thousands_sep
; Function compile flags: /Ogsy
_TEXT	ENDS
;	COMDAT ?decimal_point@?$numpunct@D@std@@QBEDXZ
_TEXT	SEGMENT
?decimal_point@?$numpunct@D@std@@QBEDXZ PROC NEAR	; std::numpunct<char>::decimal_point, COMDAT
; _this$ = ecx

; 39   : 		return (do_decimal_point());

  00000	8b 01		 mov	 eax, DWORD PTR [ecx]
  00002	ff 60 04	 jmp	 DWORD PTR [eax+4]
?decimal_point@?$numpunct@D@std@@QBEDXZ ENDP		; std::numpunct<char>::decimal_point
; Function compile flags: /Ogsy
_TEXT	ENDS
;	COMDAT ?_Tidy@?$numpunct@G@std@@AAEXXZ
_TEXT	SEGMENT
?_Tidy@?$numpunct@G@std@@AAEXXZ PROC NEAR		; std::numpunct<unsigned short>::_Tidy, COMDAT
; _this$ = ecx

; 137  : 		{	// free all storage

  00000	56		 push	 esi
  00001	8b f1		 mov	 esi, ecx

; 138  : 		_DELETE_CRT_VEC((void *)_Grouping);

  00003	ff 76 08	 push	 DWORD PTR [esi+8]
  00006	e8 00 00 00 00	 call	 ??_V@YAXPAX@Z		; operator delete[]

; 139  : 		_DELETE_CRT_VEC((void *)_Falsename);

  0000b	ff 76 10	 push	 DWORD PTR [esi+16]
  0000e	e8 00 00 00 00	 call	 ??_V@YAXPAX@Z		; operator delete[]

; 140  : 		_DELETE_CRT_VEC((void *)_Truename);

  00013	ff 76 14	 push	 DWORD PTR [esi+20]
  00016	e8 00 00 00 00	 call	 ??_V@YAXPAX@Z		; operator delete[]
  0001b	83 c4 0c	 add	 esp, 12			; 0000000cH
  0001e	5e		 pop	 esi

; 141  : 		}

  0001f	c3		 ret	 0
?_Tidy@?$numpunct@G@std@@AAEXXZ ENDP			; std::numpunct<unsigned short>::_Tidy
; Function compile flags: /Ogsy
_TEXT	ENDS
;	COMDAT ?thousands_sep@?$numpunct@G@std@@QBEGXZ
_TEXT	SEGMENT
?thousands_sep@?$numpunct@G@std@@QBEGXZ PROC NEAR	; std::numpunct<unsigned short>::thousands_sep, COMDAT
; _this$ = ecx

; 44   : 		return (do_thousands_sep());

  00000	8b 01		 mov	 eax, DWORD PTR [ecx]
  00002	ff 60 08	 jmp	 DWORD PTR [eax+8]
?thousands_sep@?$numpunct@G@std@@QBEGXZ ENDP		; std::numpunct<unsigned short>::thousands_sep
; Function compile flags: /Ogsy
_TEXT	ENDS
;	COMDAT ?decimal_point@?$numpunct@G@std@@QBEGXZ
_TEXT	SEGMENT
?decimal_point@?$numpunct@G@std@@QBEGXZ PROC NEAR	; std::numpunct<unsigned short>::decimal_point, COMDAT
; _this$ = ecx

; 39   : 		return (do_decimal_point());

  00000	8b 01		 mov	 eax, DWORD PTR [ecx]
  00002	ff 60 04	 jmp	 DWORD PTR [eax+4]
?decimal_point@?$numpunct@G@std@@QBEGXZ ENDP		; std::numpunct<unsigned short>::decimal_point
; Function compile flags: /Ogsy
; File c:\program files (x86)\microsoft visual studio .net 2003\vc7\include\xmemory
_TEXT	ENDS
;	COMDAT ??0?$allocator@G@std@@QAE@XZ
_TEXT	SEGMENT
??0?$allocator@G@std@@QAE@XZ PROC NEAR			; std::allocator<unsigned short>::allocator<unsigned short>, COMDAT
; _this$ = eax

; 112  : 		{	// construct default allocator (do nothing)
; 113  : 		}

  00000	c3		 ret	 0
??0?$allocator@G@std@@QAE@XZ ENDP			; std::allocator<unsigned short>::allocator<unsigned short>
; Function compile flags: /Ogsy
; File c:\program files (x86)\microsoft visual studio .net 2003\vc7\include\xstring
_TEXT	ENDS
;	COMDAT ??0?$_String_val@GV?$allocator@G@std@@@std@@IAE@V?$allocator@G@1@@Z
_TEXT	SEGMENT
__Al$ = 8						; size = 1
??0?$_String_val@GV?$allocator@G@std@@@std@@IAE@V?$allocator@G@1@@Z PROC NEAR ; std::_String_val<unsigned short,std::allocator<unsigned short> >::_String_val<unsigned short,std::allocator<unsigned short> >, COMDAT
; _this$ = eax

; 35   : 		}

  00000	c2 04 00	 ret	 4
??0?$_String_val@GV?$allocator@G@std@@@std@@IAE@V?$allocator@G@1@@Z ENDP ; std::_String_val<unsigned short,std::allocator<unsigned short> >::_String_val<unsigned short,std::allocator<unsigned short> >
; Function compile flags: /Ogsy
_TEXT	ENDS
;	COMDAT ?_Myptr@?$basic_string@GU?$char_traits@G@std@@V?$allocator@G@2@@std@@QBEPBGXZ
_TEXT	SEGMENT
?_Myptr@?$basic_string@GU?$char_traits@G@std@@V?$allocator@G@2@@std@@QBEPBGXZ PROC NEAR ; std::basic_string<unsigned short,std::char_traits<unsigned short>,std::allocator<unsigned short> >::_Myptr, COMDAT
; _this$ = eax

; 1537 : 		return (_BUF_SIZE <= _Myres ? _Bx._Ptr : _Bx._Buf);

  00000	83 78 18 08	 cmp	 DWORD PTR [eax+24], 8
  00004	72 04		 jb	 SHORT $L41266
  00006	8b 40 04	 mov	 eax, DWORD PTR [eax+4]

; 1538 : 		}

  00009	c3		 ret	 0
$L41266:

; 1537 : 		return (_BUF_SIZE <= _Myres ? _Bx._Ptr : _Bx._Buf);

  0000a	83 c0 04	 add	 eax, 4

; 1538 : 		}

  0000d	c3		 ret	 0
?_Myptr@?$basic_string@GU?$char_traits@G@std@@V?$allocator@G@2@@std@@QBEPBGXZ ENDP ; std::basic_string<unsigned short,std::char_traits<unsigned short>,std::allocator<unsigned short> >::_Myptr
; Function compile flags: /Ogsy
_TEXT	ENDS
;	COMDAT ?_Tidy@?$basic_string@GU?$char_traits@G@std@@V?$allocator@G@2@@std@@IAEX_NI@Z
_TEXT	SEGMENT
__Built$ = 8						; size = 1
__Newsize$ = 12						; size = 4
?_Tidy@?$basic_string@GU?$char_traits@G@std@@V?$allocator@G@2@@std@@IAEX_NI@Z PROC NEAR ; std::basic_string<unsigned short,std::char_traits<unsigned short>,std::allocator<unsigned short> >::_Tidy, COMDAT
; _this$ = ecx

; 1510 : 		if (!_Built)

  00000	80 7c 24 04 00	 cmp	 BYTE PTR __Built$[esp-4], 0
  00005	53		 push	 ebx
  00006	8b d9		 mov	 ebx, ecx
  00008	74 23		 je	 SHORT $L41281

; 1511 : 			;
; 1512 : 		else if (_BUF_SIZE <= _Myres)

  0000a	83 7b 18 08	 cmp	 DWORD PTR [ebx+24], 8
  0000e	72 1d		 jb	 SHORT $L41281

; 1513 : 			{	// copy any leftovers to small buffer and deallocate
; 1514 : 			_Elem *_Ptr = _Bx._Ptr;
; 1515 : 			if (0 < _Newsize)

  00010	8b 4c 24 0c	 mov	 ecx, DWORD PTR __Newsize$[esp]
  00014	85 c9		 test	 ecx, ecx
  00016	57		 push	 edi
  00017	8d 7b 04	 lea	 edi, DWORD PTR [ebx+4]
  0001a	8b 07		 mov	 eax, DWORD PTR [edi]
  0001c	76 07		 jbe	 SHORT $L41275
  0001e	56		 push	 esi

; 1516 : 				_Traits::copy(_Bx._Buf, _Ptr, _Newsize);

  0001f	8b f0		 mov	 esi, eax
  00021	66 f3 a5	 rep movsw
  00024	5e		 pop	 esi
$L41275:

; 1517 : 			_Mybase::_Alval.deallocate(_Ptr, _Myres + 1);

  00025	50		 push	 eax
  00026	e8 00 00 00 00	 call	 ??3@YAXPAX@Z		; operator delete
  0002b	59		 pop	 ecx
  0002c	5f		 pop	 edi
$L41281:

; 1518 : 			}
; 1519 : 		_Myres = _BUF_SIZE - 1;
; 1520 : 		_Eos(_Newsize);

  0002d	ff 74 24 0c	 push	 DWORD PTR __Newsize$[esp]
  00031	8b cb		 mov	 ecx, ebx
  00033	c7 43 18 07 00
	00 00		 mov	 DWORD PTR [ebx+24], 7
  0003a	e8 00 00 00 00	 call	 ?_Eos@?$basic_string@GU?$char_traits@G@std@@V?$allocator@G@2@@std@@IAEXI@Z ; std::basic_string<unsigned short,std::char_traits<unsigned short>,std::allocator<unsigned short> >::_Eos
  0003f	5b		 pop	 ebx

; 1521 : 		}

  00040	c2 08 00	 ret	 8
?_Tidy@?$basic_string@GU?$char_traits@G@std@@V?$allocator@G@2@@std@@IAEX_NI@Z ENDP ; std::basic_string<unsigned short,std::char_traits<unsigned short>,std::allocator<unsigned short> >::_Tidy
; Function compile flags: /Ogsy
; File c:\program files (x86)\microsoft visual studio .net 2003\vc7\include\xutility
_TEXT	ENDS
;	COMDAT ??E?$ostreambuf_iterator@DU?$char_traits@D@std@@@std@@QAEAAV01@XZ
_TEXT	SEGMENT
??E?$ostreambuf_iterator@DU?$char_traits@D@std@@@std@@QAEAAV01@XZ PROC NEAR ; std::ostreambuf_iterator<char,std::char_traits<char> >::operator++, COMDAT
; _this$ = eax

; 995  : 		return (*this);
; 996  : 		}

  00000	c3		 ret	 0
??E?$ostreambuf_iterator@DU?$char_traits@D@std@@@std@@QAEAAV01@XZ ENDP ; std::ostreambuf_iterator<char,std::char_traits<char> >::operator++
; Function compile flags: /Ogsy
_TEXT	ENDS
;	COMDAT ??D?$ostreambuf_iterator@DU?$char_traits@D@std@@@std@@QAEAAV01@XZ
_TEXT	SEGMENT
??D?$ostreambuf_iterator@DU?$char_traits@D@std@@@std@@QAEAAV01@XZ PROC NEAR ; std::ostreambuf_iterator<char,std::char_traits<char> >::operator*, COMDAT
; _this$ = eax

; 990  : 		return (*this);
; 991  : 		}

  00000	c3		 ret	 0
??D?$ostreambuf_iterator@DU?$char_traits@D@std@@@std@@QAEAAV01@XZ ENDP ; std::ostreambuf_iterator<char,std::char_traits<char> >::operator*
; Function compile flags: /Ogsy
_TEXT	ENDS
;	COMDAT ??4?$ostreambuf_iterator@DU?$char_traits@D@std@@@std@@QAEAAV01@D@Z
_TEXT	SEGMENT
__Right$ = 8						; size = 1
??4?$ostreambuf_iterator@DU?$char_traits@D@std@@@std@@QAEAAV01@D@Z PROC NEAR ; std::ostreambuf_iterator<char,std::char_traits<char> >::operator=, COMDAT
; _this$ = ecx

; 980  : 		{	// store element and increment

  00000	56		 push	 esi
  00001	8b f1		 mov	 esi, ecx

; 981  : 		if (_Strbuf == 0
; 982  : 			|| traits_type::eq_int_type(_Traits::eof(),
; 983  : 				_Strbuf->sputc(_Right)))

  00003	8b 4e 04	 mov	 ecx, DWORD PTR [esi+4]
  00006	85 c9		 test	 ecx, ecx
  00008	74 0e		 je	 SHORT $L25947
  0000a	ff 74 24 08	 push	 DWORD PTR __Right$[esp]
  0000e	e8 00 00 00 00	 call	 ?sputc@?$basic_streambuf@DU?$char_traits@D@std@@@std@@QAEHD@Z ; std::basic_streambuf<char,std::char_traits<char> >::sputc
  00013	83 f8 ff	 cmp	 eax, -1
  00016	75 03		 jne	 SHORT $L25946
$L25947:

; 984  : 			_Failed = true;

  00018	c6 06 01	 mov	 BYTE PTR [esi], 1
$L25946:

; 985  : 		return (*this);

  0001b	8b c6		 mov	 eax, esi
  0001d	5e		 pop	 esi

; 986  : 		}

  0001e	c2 04 00	 ret	 4
??4?$ostreambuf_iterator@DU?$char_traits@D@std@@@std@@QAEAAV01@D@Z ENDP ; std::ostreambuf_iterator<char,std::char_traits<char> >::operator=
; Function compile flags: /Ogsy
; File c:\program files (x86)\microsoft visual studio .net 2003\vc7\include\xlocnum
_TEXT	ENDS
;	COMDAT ?_Putc@?$num_put@DV?$ostreambuf_iterator@DU?$char_traits@D@std@@@std@@@std@@ABA?AV?$ostreambuf_iterator@DU?$char_traits@D@std@@@2@V32@PBDI@Z
_TEXT	SEGMENT
__Dest$ = 8						; size = 8
?_Putc@?$num_put@DV?$ostreambuf_iterator@DU?$char_traits@D@std@@@std@@@std@@ABA?AV?$ostreambuf_iterator@DU?$char_traits@D@std@@@2@V32@PBDI@Z PROC NEAR ; std::num_put<char,std::ostreambuf_iterator<char,std::char_traits<char> > >::_Putc, COMDAT
; ___$ReturnUdt$ = ebx
; __Ptr$ = ecx
; __Count$ = eax

; 1250 : 		{	// put char sequence [_Ptr, _Ptr + _Count) to _Dest

  00000	56		 push	 esi
  00001	57		 push	 edi
  00002	8b f8		 mov	 edi, eax

; 1251 : 		for (; 0 < _Count; --_Count, ++_Dest, ++_Ptr)

  00004	85 ff		 test	 edi, edi
  00006	8b f1		 mov	 esi, ecx
  00008	76 12		 jbe	 SHORT $L25926
$L25924:

; 1252 : 			*_Dest = _MAKLOCCHR(_Elem, *_Ptr, _Cvt);

  0000a	33 c0		 xor	 eax, eax
  0000c	8a 06		 mov	 al, BYTE PTR [esi]
  0000e	8d 4c 24 0c	 lea	 ecx, DWORD PTR __Dest$[esp+4]
  00012	50		 push	 eax
  00013	e8 00 00 00 00	 call	 ??4?$ostreambuf_iterator@DU?$char_traits@D@std@@@std@@QAEAAV01@D@Z ; std::ostreambuf_iterator<char,std::char_traits<char> >::operator=
  00018	46		 inc	 esi
  00019	4f		 dec	 edi
  0001a	75 ee		 jne	 SHORT $L25924
$L25926:

; 1253 : 		return (_Dest);

  0001c	8b 44 24 0c	 mov	 eax, DWORD PTR __Dest$[esp+4]
  00020	89 03		 mov	 DWORD PTR [ebx], eax
  00022	8b 44 24 10	 mov	 eax, DWORD PTR __Dest$[esp+8]
  00026	5f		 pop	 edi
  00027	89 43 04	 mov	 DWORD PTR [ebx+4], eax
  0002a	8b c3		 mov	 eax, ebx
  0002c	5e		 pop	 esi

; 1254 : 		}

  0002d	c3		 ret	 0
?_Putc@?$num_put@DV?$ostreambuf_iterator@DU?$char_traits@D@std@@@std@@@std@@ABA?AV?$ostreambuf_iterator@DU?$char_traits@D@std@@@2@V32@PBDI@Z ENDP ; std::num_put<char,std::ostreambuf_iterator<char,std::char_traits<char> > >::_Putc
; Function compile flags: /Ogsy
; File c:\program files (x86)\microsoft visual studio .net 2003\vc7\include\xutility
_TEXT	ENDS
;	COMDAT ??E?$ostreambuf_iterator@GU?$char_traits@G@std@@@std@@QAEAAV01@XZ
_TEXT	SEGMENT
??E?$ostreambuf_iterator@GU?$char_traits@G@std@@@std@@QAEAAV01@XZ PROC NEAR ; std::ostreambuf_iterator<unsigned short,std::char_traits<unsigned short> >::operator++, COMDAT
; _this$ = eax

; 995  : 		return (*this);
; 996  : 		}

  00000	c3		 ret	 0
??E?$ostreambuf_iterator@GU?$char_traits@G@std@@@std@@QAEAAV01@XZ ENDP ; std::ostreambuf_iterator<unsigned short,std::char_traits<unsigned short> >::operator++
; Function compile flags: /Ogsy
_TEXT	ENDS
;	COMDAT ??D?$ostreambuf_iterator@GU?$char_traits@G@std@@@std@@QAEAAV01@XZ
_TEXT	SEGMENT
??D?$ostreambuf_iterator@GU?$char_traits@G@std@@@std@@QAEAAV01@XZ PROC NEAR ; std::ostreambuf_iterator<unsigned short,std::char_traits<unsigned short> >::operator*, COMDAT
; _this$ = eax

; 990  : 		return (*this);
; 991  : 		}

  00000	c3		 ret	 0
??D?$ostreambuf_iterator@GU?$char_traits@G@std@@@std@@QAEAAV01@XZ ENDP ; std::ostreambuf_iterator<unsigned short,std::char_traits<unsigned short> >::operator*
; Function compile flags: /Ogsy
_TEXT	ENDS
;	COMDAT ??4?$ostreambuf_iterator@GU?$char_traits@G@std@@@std@@QAEAAV01@G@Z
_TEXT	SEGMENT
__Right$ = 8						; size = 2
??4?$ostreambuf_iterator@GU?$char_traits@G@std@@@std@@QAEAAV01@G@Z PROC NEAR ; std::ostreambuf_iterator<unsigned short,std::char_traits<unsigned short> >::operator=, COMDAT
; _this$ = ecx

; 980  : 		{	// store element and increment

  00000	56		 push	 esi
  00001	8b f1		 mov	 esi, ecx

; 981  : 		if (_Strbuf == 0
; 982  : 			|| traits_type::eq_int_type(_Traits::eof(),
; 983  : 				_Strbuf->sputc(_Right)))

  00003	8b 4e 04	 mov	 ecx, DWORD PTR [esi+4]
  00006	85 c9		 test	 ecx, ecx
  00008	74 0f		 je	 SHORT $L25916
  0000a	ff 74 24 08	 push	 DWORD PTR __Right$[esp]
  0000e	e8 00 00 00 00	 call	 ?sputc@?$basic_streambuf@GU?$char_traits@G@std@@@std@@QAEGG@Z ; std::basic_streambuf<unsigned short,std::char_traits<unsigned short> >::sputc
  00013	66 3d ff ff	 cmp	 ax, 65535		; 0000ffffH
  00017	75 03		 jne	 SHORT $L25915
$L25916:

; 984  : 			_Failed = true;

  00019	c6 06 01	 mov	 BYTE PTR [esi], 1
$L25915:

; 985  : 		return (*this);

  0001c	8b c6		 mov	 eax, esi
  0001e	5e		 pop	 esi

; 986  : 		}

  0001f	c2 04 00	 ret	 4
??4?$ostreambuf_iterator@GU?$char_traits@G@std@@@std@@QAEAAV01@G@Z ENDP ; std::ostreambuf_iterator<unsigned short,std::char_traits<unsigned short> >::operator=
; Function compile flags: /Ogsy
; File c:\program files (x86)\microsoft visual studio .net 2003\vc7\include\xlocnum
_TEXT	ENDS
;	COMDAT ?_Putc@?$num_put@GV?$ostreambuf_iterator@GU?$char_traits@G@std@@@std@@@std@@ABA?AV?$ostreambuf_iterator@GU?$char_traits@G@std@@@2@V32@PBDI@Z
_TEXT	SEGMENT
___$ReturnUdt$ = 8					; size = 4
__Dest$ = 12						; size = 8
?_Putc@?$num_put@GV?$ostreambuf_iterator@GU?$char_traits@G@std@@@std@@@std@@ABA?AV?$ostreambuf_iterator@GU?$char_traits@G@std@@@2@V32@PBDI@Z PROC NEAR ; std::num_put<unsigned short,std::ostreambuf_iterator<unsigned short,std::char_traits<unsigned short> > >::_Putc, COMDAT
; _this$ = edx
; __Ptr$ = ecx
; __Count$ = eax

; 1250 : 		{	// put char sequence [_Ptr, _Ptr + _Count) to _Dest

  00000	53		 push	 ebx
  00001	8b d8		 mov	 ebx, eax

; 1251 : 		for (; 0 < _Count; --_Count, ++_Dest, ++_Ptr)

  00003	85 db		 test	 ebx, ebx
  00005	57		 push	 edi
  00006	8b f9		 mov	 edi, ecx
  00008	76 25		 jbe	 SHORT $L25895
  0000a	56		 push	 esi
  0000b	8b f2		 mov	 esi, edx
  0000d	83 c6 08	 add	 esi, 8
$L41343:

; 1252 : 			*_Dest = _MAKLOCCHR(_Elem, *_Ptr, _Cvt);

  00010	33 c0		 xor	 eax, eax
  00012	8a 07		 mov	 al, BYTE PTR [edi]
  00014	56		 push	 esi
  00015	6a 00		 push	 0
  00017	50		 push	 eax
  00018	e8 00 00 00 00	 call	 ??$_Maklocchr@G@std@@YAGDPAGABU_Cvtvec@@@Z ; std::_Maklocchr<unsigned short>
  0001d	83 c4 0c	 add	 esp, 12			; 0000000cH
  00020	8d 4c 24 14	 lea	 ecx, DWORD PTR __Dest$[esp+8]
  00024	50		 push	 eax
  00025	e8 00 00 00 00	 call	 ??4?$ostreambuf_iterator@GU?$char_traits@G@std@@@std@@QAEAAV01@G@Z ; std::ostreambuf_iterator<unsigned short,std::char_traits<unsigned short> >::operator=
  0002a	47		 inc	 edi
  0002b	4b		 dec	 ebx
  0002c	75 e2		 jne	 SHORT $L41343
  0002e	5e		 pop	 esi
$L25895:

; 1253 : 		return (_Dest);

  0002f	8b 4c 24 10	 mov	 ecx, DWORD PTR __Dest$[esp+4]
  00033	8b 44 24 0c	 mov	 eax, DWORD PTR ___$ReturnUdt$[esp+4]
  00037	89 08		 mov	 DWORD PTR [eax], ecx
  00039	8b 4c 24 14	 mov	 ecx, DWORD PTR __Dest$[esp+8]
  0003d	5f		 pop	 edi
  0003e	89 48 04	 mov	 DWORD PTR [eax+4], ecx
  00041	5b		 pop	 ebx

; 1254 : 		}

  00042	c3		 ret	 0
?_Putc@?$num_put@GV?$ostreambuf_iterator@GU?$char_traits@G@std@@@std@@@std@@ABA?AV?$ostreambuf_iterator@GU?$char_traits@G@std@@@2@V32@PBDI@Z ENDP ; std::num_put<unsigned short,std::ostreambuf_iterator<unsigned short,std::char_traits<unsigned short> > >::_Putc
; Function compile flags: /Ogsy
_TEXT	ENDS
;	COMDAT ?do_thousands_sep@?$numpunct@D@std@@MBEDXZ
_TEXT	SEGMENT
?do_thousands_sep@?$numpunct@D@std@@MBEDXZ PROC NEAR	; std::numpunct<char>::do_thousands_sep, COMDAT
; _this$ = ecx

; 117  : 		return (_Kseparator);

  00000	8a 41 0d	 mov	 al, BYTE PTR [ecx+13]

; 118  : 		}

  00003	c3		 ret	 0
?do_thousands_sep@?$numpunct@D@std@@MBEDXZ ENDP		; std::numpunct<char>::do_thousands_sep
; Function compile flags: /Ogsy
_TEXT	ENDS
;	COMDAT ?do_decimal_point@?$numpunct@D@std@@MBEDXZ
_TEXT	SEGMENT
?do_decimal_point@?$numpunct@D@std@@MBEDXZ PROC NEAR	; std::numpunct<char>::do_decimal_point, COMDAT
; _this$ = ecx

; 112  : 		return (_Dp);

  00000	8a 41 0c	 mov	 al, BYTE PTR [ecx+12]

; 113  : 		}

  00003	c3		 ret	 0
?do_decimal_point@?$numpunct@D@std@@MBEDXZ ENDP		; std::numpunct<char>::do_decimal_point
; Function compile flags: /Ogsy
_TEXT	ENDS
;	COMDAT ??1?$numpunct@D@std@@MAE@XZ
_TEXT	SEGMENT
??1?$numpunct@D@std@@MAE@XZ PROC NEAR			; std::numpunct<char>::~numpunct<char>, COMDAT
; _this$ = ecx

; 83   : 		{	// destroy the object

  00000	56		 push	 esi
  00001	8b f1		 mov	 esi, ecx
  00003	c7 06 00 00 00
	00		 mov	 DWORD PTR [esi], OFFSET FLAT:??_7?$numpunct@D@std@@6B@

; 84   : 		_Tidy();

  00009	e8 00 00 00 00	 call	 ?_Tidy@?$numpunct@D@std@@AAEXXZ ; std::numpunct<char>::_Tidy

; 85   : 		}

  0000e	c7 06 00 00 00
	00		 mov	 DWORD PTR [esi], OFFSET FLAT:??_7facet@locale@std@@6B@
  00014	5e		 pop	 esi
  00015	c3		 ret	 0
??1?$numpunct@D@std@@MAE@XZ ENDP			; std::numpunct<char>::~numpunct<char>
; Function compile flags: /Ogsy
_TEXT	ENDS
;	COMDAT ?do_thousands_sep@?$numpunct@G@std@@MBEGXZ
_TEXT	SEGMENT
?do_thousands_sep@?$numpunct@G@std@@MBEGXZ PROC NEAR	; std::numpunct<unsigned short>::do_thousands_sep, COMDAT
; _this$ = ecx

; 117  : 		return (_Kseparator);

  00000	66 8b 41 0e	 mov	 ax, WORD PTR [ecx+14]

; 118  : 		}

  00004	c3		 ret	 0
?do_thousands_sep@?$numpunct@G@std@@MBEGXZ ENDP		; std::numpunct<unsigned short>::do_thousands_sep
; Function compile flags: /Ogsy
_TEXT	ENDS
;	COMDAT ?do_decimal_point@?$numpunct@G@std@@MBEGXZ
_TEXT	SEGMENT
?do_decimal_point@?$numpunct@G@std@@MBEGXZ PROC NEAR	; std::numpunct<unsigned short>::do_decimal_point, COMDAT
; _this$ = ecx

; 112  : 		return (_Dp);

  00000	66 8b 41 0c	 mov	 ax, WORD PTR [ecx+12]

; 113  : 		}

  00004	c3		 ret	 0
?do_decimal_point@?$numpunct@G@std@@MBEGXZ ENDP		; std::numpunct<unsigned short>::do_decimal_point
; Function compile flags: /Ogsy
_TEXT	ENDS
;	COMDAT ??1?$numpunct@G@std@@MAE@XZ
_TEXT	SEGMENT
??1?$numpunct@G@std@@MAE@XZ PROC NEAR			; std::numpunct<unsigned short>::~numpunct<unsigned short>, COMDAT
; _this$ = ecx

; 83   : 		{	// destroy the object

  00000	56		 push	 esi
  00001	8b f1		 mov	 esi, ecx
  00003	c7 06 00 00 00
	00		 mov	 DWORD PTR [esi], OFFSET FLAT:??_7?$numpunct@G@std@@6B@

; 84   : 		_Tidy();

  00009	e8 00 00 00 00	 call	 ?_Tidy@?$numpunct@G@std@@AAEXXZ ; std::numpunct<unsigned short>::_Tidy

; 85   : 		}

  0000e	c7 06 00 00 00
	00		 mov	 DWORD PTR [esi], OFFSET FLAT:??_7facet@locale@std@@6B@
  00014	5e		 pop	 esi
  00015	c3		 ret	 0
??1?$numpunct@G@std@@MAE@XZ ENDP			; std::numpunct<unsigned short>::~numpunct<unsigned short>
; Function compile flags: /Ogsy
; File c:\program files (x86)\microsoft visual studio .net 2003\vc7\include\xstring
_TEXT	ENDS
;	COMDAT ?size@?$basic_string@GU?$char_traits@G@std@@V?$allocator@G@2@@std@@QBEIXZ
_TEXT	SEGMENT
?size@?$basic_string@GU?$char_traits@G@std@@V?$allocator@G@2@@std@@QBEIXZ PROC NEAR ; std::basic_string<unsigned short,std::char_traits<unsigned short>,std::allocator<unsigned short> >::size, COMDAT
; _this$ = eax

; 1109 : 		return (_Mysize);

  00000	8b 40 14	 mov	 eax, DWORD PTR [eax+20]

; 1110 : 		}

  00003	c3		 ret	 0
?size@?$basic_string@GU?$char_traits@G@std@@V?$allocator@G@2@@std@@QBEIXZ ENDP ; std::basic_string<unsigned short,std::char_traits<unsigned short>,std::allocator<unsigned short> >::size
; Function compile flags: /Ogsy
_TEXT	ENDS
;	COMDAT ?c_str@?$basic_string@GU?$char_traits@G@std@@V?$allocator@G@2@@std@@QBEPBGXZ
_TEXT	SEGMENT
?c_str@?$basic_string@GU?$char_traits@G@std@@V?$allocator@G@2@@std@@QBEPBGXZ PROC NEAR ; std::basic_string<unsigned short,std::char_traits<unsigned short>,std::allocator<unsigned short> >::c_str, COMDAT
; _this$ = eax

; 1094 : 		return (_Myptr());

  00000	83 78 18 08	 cmp	 DWORD PTR [eax+24], 8
  00004	72 04		 jb	 SHORT $L41380
  00006	8b 40 04	 mov	 eax, DWORD PTR [eax+4]

; 1095 : 		}

  00009	c3		 ret	 0

; 1094 : 		return (_Myptr());

$L41380:
  0000a	83 c0 04	 add	 eax, 4

; 1095 : 		}

  0000d	c3		 ret	 0
?c_str@?$basic_string@GU?$char_traits@G@std@@V?$allocator@G@2@@std@@QBEPBGXZ ENDP ; std::basic_string<unsigned short,std::char_traits<unsigned short>,std::allocator<unsigned short> >::c_str
; Function compile flags: /Ogsy
_TEXT	ENDS
;	COMDAT ??1?$basic_string@GU?$char_traits@G@std@@V?$allocator@G@2@@std@@QAE@XZ
_TEXT	SEGMENT
??1?$basic_string@GU?$char_traits@G@std@@V?$allocator@G@2@@std@@QAE@XZ PROC NEAR ; std::basic_string<unsigned short,std::char_traits<unsigned short>,std::allocator<unsigned short> >::~basic_string<unsigned short,std::char_traits<unsigned short>,std::allocator<unsigned short> >, COMDAT
; _this$ = ecx

; 457  : 		_Tidy(true);

  00000	6a 00		 push	 0
  00002	6a 01		 push	 1
  00004	e8 00 00 00 00	 call	 ?_Tidy@?$basic_string@GU?$char_traits@G@std@@V?$allocator@G@2@@std@@IAEX_NI@Z ; std::basic_string<unsigned short,std::char_traits<unsigned short>,std::allocator<unsigned short> >::_Tidy

; 458  : 		}

  00009	c3		 ret	 0
??1?$basic_string@GU?$char_traits@G@std@@V?$allocator@G@2@@std@@QAE@XZ ENDP ; std::basic_string<unsigned short,std::char_traits<unsigned short>,std::allocator<unsigned short> >::~basic_string<unsigned short,std::char_traits<unsigned short>,std::allocator<unsigned short> >
; Function compile flags: /Ogsy
_TEXT	ENDS
;	COMDAT ??0?$basic_string@GU?$char_traits@G@std@@V?$allocator@G@2@@std@@QAE@XZ
_TEXT	SEGMENT
??0?$basic_string@GU?$char_traits@G@std@@V?$allocator@G@2@@std@@QAE@XZ PROC NEAR ; std::basic_string<unsigned short,std::char_traits<unsigned short>,std::allocator<unsigned short> >::basic_string<unsigned short,std::char_traits<unsigned short>,std::allocator<unsigned short> >, COMDAT
; _this$ = ecx

; 311  : 		{	// construct empty string

  00000	56		 push	 esi
  00001	8b f1		 mov	 esi, ecx

; 312  : 		_Tidy();

  00003	6a 00		 push	 0
  00005	c7 46 18 07 00
	00 00		 mov	 DWORD PTR [esi+24], 7
  0000c	e8 00 00 00 00	 call	 ?_Eos@?$basic_string@GU?$char_traits@G@std@@V?$allocator@G@2@@std@@IAEXI@Z ; std::basic_string<unsigned short,std::char_traits<unsigned short>,std::allocator<unsigned short> >::_Eos

; 313  : 		}

  00011	8b c6		 mov	 eax, esi
  00013	5e		 pop	 esi
  00014	c3		 ret	 0
??0?$basic_string@GU?$char_traits@G@std@@V?$allocator@G@2@@std@@QAE@XZ ENDP ; std::basic_string<unsigned short,std::char_traits<unsigned short>,std::allocator<unsigned short> >::basic_string<unsigned short,std::char_traits<unsigned short>,std::allocator<unsigned short> >
; Function compile flags: /Ogsy
; File c:\program files (x86)\microsoft visual studio .net 2003\vc7\include\xlocnum
_TEXT	ENDS
;	COMDAT ?_Rep@?$num_put@DV?$ostreambuf_iterator@DU?$char_traits@D@std@@@std@@@std@@ABA?AV?$ostreambuf_iterator@DU?$char_traits@D@std@@@2@V32@DI@Z
_TEXT	SEGMENT
__Dest$ = 8						; size = 8
__Ch$ = 16						; size = 1
?_Rep@?$num_put@DV?$ostreambuf_iterator@DU?$char_traits@D@std@@@std@@@std@@ABA?AV?$ostreambuf_iterator@DU?$char_traits@D@std@@@2@V32@DI@Z PROC NEAR ; std::num_put<char,std::ostreambuf_iterator<char,std::char_traits<char> > >::_Rep, COMDAT
; ___$ReturnUdt$ = edi
; __Count$ = eax

; 1276 : 		{	// put _Count * _Ch to _Dest

  00000	56		 push	 esi
  00001	8b f0		 mov	 esi, eax

; 1277 : 		for (; 0 < _Count; --_Count, ++_Dest)

  00003	85 f6		 test	 esi, esi
  00005	76 10		 jbe	 SHORT $L25798
$L41432:

; 1278 : 			*_Dest = _Ch;

  00007	ff 74 24 10	 push	 DWORD PTR __Ch$[esp]
  0000b	8d 4c 24 0c	 lea	 ecx, DWORD PTR __Dest$[esp+4]
  0000f	e8 00 00 00 00	 call	 ??4?$ostreambuf_iterator@DU?$char_traits@D@std@@@std@@QAEAAV01@D@Z ; std::ostreambuf_iterator<char,std::char_traits<char> >::operator=
  00014	4e		 dec	 esi
  00015	75 f0		 jne	 SHORT $L41432
$L25798:

; 1279 : 		return (_Dest);

  00017	8b 44 24 08	 mov	 eax, DWORD PTR __Dest$[esp]
  0001b	89 07		 mov	 DWORD PTR [edi], eax
  0001d	8b 44 24 0c	 mov	 eax, DWORD PTR __Dest$[esp+4]
  00021	89 47 04	 mov	 DWORD PTR [edi+4], eax
  00024	8b c7		 mov	 eax, edi
  00026	5e		 pop	 esi

; 1280 : 		}

  00027	c3		 ret	 0
?_Rep@?$num_put@DV?$ostreambuf_iterator@DU?$char_traits@D@std@@@std@@@std@@ABA?AV?$ostreambuf_iterator@DU?$char_traits@D@std@@@2@V32@DI@Z ENDP ; std::num_put<char,std::ostreambuf_iterator<char,std::char_traits<char> > >::_Rep
; Function compile flags: /Ogsy
_TEXT	ENDS
;	COMDAT ?_Put@?$num_put@DV?$ostreambuf_iterator@DU?$char_traits@D@std@@@std@@@std@@ABA?AV?$ostreambuf_iterator@DU?$char_traits@D@std@@@2@V32@PBDI@Z
_TEXT	SEGMENT
__Dest$ = 8						; size = 8
?_Put@?$num_put@DV?$ostreambuf_iterator@DU?$char_traits@D@std@@@std@@@std@@ABA?AV?$ostreambuf_iterator@DU?$char_traits@D@std@@@2@V32@PBDI@Z PROC NEAR ; std::num_put<char,std::ostreambuf_iterator<char,std::char_traits<char> > >::_Put, COMDAT
; ___$ReturnUdt$ = ebx
; __Ptr$ = ecx
; __Count$ = eax

; 1242 : 		{	// put [_Ptr, _Ptr + _Count) to _Dest

  00000	56		 push	 esi
  00001	57		 push	 edi
  00002	8b f8		 mov	 edi, eax

; 1243 : 		for (; 0 < _Count; --_Count, ++_Dest, ++_Ptr)

  00004	85 ff		 test	 edi, edi
  00006	8b f1		 mov	 esi, ecx
  00008	76 12		 jbe	 SHORT $L25792
$L25790:

; 1244 : 			*_Dest = *_Ptr;

  0000a	33 c0		 xor	 eax, eax
  0000c	8a 06		 mov	 al, BYTE PTR [esi]
  0000e	8d 4c 24 0c	 lea	 ecx, DWORD PTR __Dest$[esp+4]
  00012	50		 push	 eax
  00013	e8 00 00 00 00	 call	 ??4?$ostreambuf_iterator@DU?$char_traits@D@std@@@std@@QAEAAV01@D@Z ; std::ostreambuf_iterator<char,std::char_traits<char> >::operator=
  00018	46		 inc	 esi
  00019	4f		 dec	 edi
  0001a	75 ee		 jne	 SHORT $L25790
$L25792:

; 1245 : 		return (_Dest);

  0001c	8b 44 24 0c	 mov	 eax, DWORD PTR __Dest$[esp+4]
  00020	89 03		 mov	 DWORD PTR [ebx], eax
  00022	8b 44 24 10	 mov	 eax, DWORD PTR __Dest$[esp+8]
  00026	5f		 pop	 edi
  00027	89 43 04	 mov	 DWORD PTR [ebx+4], eax
  0002a	8b c3		 mov	 eax, ebx
  0002c	5e		 pop	 esi

; 1246 : 		}

  0002d	c3		 ret	 0
?_Put@?$num_put@DV?$ostreambuf_iterator@DU?$char_traits@D@std@@@std@@@std@@ABA?AV?$ostreambuf_iterator@DU?$char_traits@D@std@@@2@V32@PBDI@Z ENDP ; std::num_put<char,std::ostreambuf_iterator<char,std::char_traits<char> > >::_Put
; Function compile flags: /Ogsy
_TEXT	ENDS
;	COMDAT ?_Ifmt@?$num_put@DV?$ostreambuf_iterator@DU?$char_traits@D@std@@@std@@@std@@ABAPADPADPBDH@Z
_TEXT	SEGMENT
_this$ = 8						; size = 4
__Fmt$ = 12						; size = 4
__Spec$ = 16						; size = 4
__Flags$ = 20						; size = 4
?_Ifmt@?$num_put@DV?$ostreambuf_iterator@DU?$char_traits@D@std@@@std@@@std@@ABAPADPADPBDH@Z PROC NEAR ; std::num_put<char,std::ostreambuf_iterator<char,std::char_traits<char> > >::_Ifmt, COMDAT

; 1166 : 		char *_Ptr = _Fmt;
; 1167 : 		*_Ptr++ = '%';

  00000	8b 44 24 08	 mov	 eax, DWORD PTR __Fmt$[esp-4]

; 1168 : 
; 1169 : 		if (_Flags & ios_base::showpos)

  00004	8b 54 24 10	 mov	 edx, DWORD PTR __Flags$[esp-4]
  00008	f6 c2 20	 test	 dl, 32			; 00000020H
  0000b	c6 00 25	 mov	 BYTE PTR [eax], 37	; 00000025H
  0000e	8d 48 01	 lea	 ecx, DWORD PTR [eax+1]
  00011	74 04		 je	 SHORT $L25754

; 1170 : 			*_Ptr++ = '+';

  00013	c6 01 2b	 mov	 BYTE PTR [ecx], 43	; 0000002bH
  00016	41		 inc	 ecx
$L25754:

; 1171 : 		if (_Flags & ios_base::showbase)

  00017	f6 c2 08	 test	 dl, 8
  0001a	74 04		 je	 SHORT $L25755

; 1172 : 			*_Ptr++ = '#';

  0001c	c6 01 23	 mov	 BYTE PTR [ecx], 35	; 00000023H
  0001f	41		 inc	 ecx
$L25755:
  00020	53		 push	 ebx
  00021	56		 push	 esi
  00022	57		 push	 edi

; 1173 : 		if (_Spec[0] != 'L')

  00023	8b 7c 24 18	 mov	 edi, DWORD PTR __Spec$[esp+8]
  00027	8a 1f		 mov	 bl, BYTE PTR [edi]
  00029	80 fb 4c	 cmp	 bl, 76			; 0000004cH
  0002c	74 04		 je	 SHORT $L25756

; 1174 : 			*_Ptr++ = _Spec[0];	// qualifier

  0002e	88 19		 mov	 BYTE PTR [ecx], bl

; 1175 : 		else

  00030	eb 0b		 jmp	 SHORT $L41457
$L25756:

; 1176 : 			{	/* change L to I64 */
; 1177 : 			*_Ptr++ = 'I';

  00032	c6 01 49	 mov	 BYTE PTR [ecx], 73	; 00000049H
  00035	41		 inc	 ecx

; 1178 : 			*_Ptr++ = '6';

  00036	c6 01 36	 mov	 BYTE PTR [ecx], 54	; 00000036H
  00039	41		 inc	 ecx

; 1179 : 			*_Ptr++ = '4';

  0003a	c6 01 34	 mov	 BYTE PTR [ecx], 52	; 00000034H
$L41457:

; 1180 : 			}
; 1181 : 
; 1182 : 		ios_base::fmtflags _Basefield = _Flags & ios_base::basefield;

  0003d	8b f2		 mov	 esi, edx
  0003f	81 e6 00 0e 00
	00		 and	 esi, 3584		; 00000e00H
  00045	41		 inc	 ecx

; 1183 : 		*_Ptr++ = _Basefield == ios_base::oct ? 'o'
; 1184 : 			: _Basefield != ios_base::hex ? _Spec[1]	// 'd' or 'u'
; 1185 : 			: _Flags & ios_base::uppercase ? 'X' : 'x';

  00046	81 fe 00 04 00
	00		 cmp	 esi, 1024		; 00000400H
  0004c	75 04		 jne	 SHORT $L41455
  0004e	b2 6f		 mov	 dl, 111			; 0000006fH
  00050	eb 18		 jmp	 SHORT $L41454
$L41455:
  00052	81 fe 00 08 00
	00		 cmp	 esi, 2048		; 00000800H
  00058	74 05		 je	 SHORT $L41453
  0005a	8a 57 01	 mov	 dl, BYTE PTR [edi+1]
  0005d	eb 0b		 jmp	 SHORT $L41454
$L41453:
  0005f	c0 e2 03	 shl	 dl, 3
  00062	f6 d2		 not	 dl
  00064	80 e2 20	 and	 dl, 32			; 00000020H
  00067	80 ca 58	 or	 dl, 88			; 00000058H
$L41454:
  0006a	5f		 pop	 edi
  0006b	5e		 pop	 esi
  0006c	88 11		 mov	 BYTE PTR [ecx], dl

; 1186 : 		*_Ptr = '\0';

  0006e	c6 41 01 00	 mov	 BYTE PTR [ecx+1], 0
  00072	5b		 pop	 ebx

; 1187 : 		return (_Fmt);
; 1188 : 		}

  00073	c3		 ret	 0
?_Ifmt@?$num_put@DV?$ostreambuf_iterator@DU?$char_traits@D@std@@@std@@@std@@ABAPADPADPBDH@Z ENDP ; std::num_put<char,std::ostreambuf_iterator<char,std::char_traits<char> > >::_Ifmt
; Function compile flags: /Ogsy
_TEXT	ENDS
;	COMDAT ?_Ffmt@?$num_put@DV?$ostreambuf_iterator@DU?$char_traits@D@std@@@std@@@std@@ABAPADPADDH@Z
_TEXT	SEGMENT
_this$ = 8						; size = 4
__Fmt$ = 12						; size = 4
__Spec$ = 16						; size = 1
__Flags$ = 20						; size = 4
?_Ffmt@?$num_put@DV?$ostreambuf_iterator@DU?$char_traits@D@std@@@std@@@std@@ABAPADPADDH@Z PROC NEAR ; std::num_put<char,std::ostreambuf_iterator<char,std::char_traits<char> > >::_Ffmt, COMDAT

; 1038 : 		char *_Ptr = _Fmt;
; 1039 : 		*_Ptr++ = '%';

  00000	8b 44 24 08	 mov	 eax, DWORD PTR __Fmt$[esp-4]

; 1040 : 
; 1041 : 		if (_Flags & ios_base::showpos)

  00004	8b 54 24 10	 mov	 edx, DWORD PTR __Flags$[esp-4]
  00008	f6 c2 20	 test	 dl, 32			; 00000020H
  0000b	c6 00 25	 mov	 BYTE PTR [eax], 37	; 00000025H
  0000e	8d 48 01	 lea	 ecx, DWORD PTR [eax+1]
  00011	74 04		 je	 SHORT $L25684

; 1042 : 			*_Ptr++ = '+';

  00013	c6 01 2b	 mov	 BYTE PTR [ecx], 43	; 0000002bH
  00016	41		 inc	 ecx
$L25684:

; 1043 : 		if (_Flags & ios_base::showpoint)

  00017	f6 c2 10	 test	 dl, 16			; 00000010H
  0001a	74 04		 je	 SHORT $L25685

; 1044 : 			*_Ptr++ = '#';

  0001c	c6 01 23	 mov	 BYTE PTR [ecx], 35	; 00000023H
  0001f	41		 inc	 ecx
$L25685:

; 1045 : 		*_Ptr++ = '.';

  00020	c6 01 2e	 mov	 BYTE PTR [ecx], 46	; 0000002eH
  00023	41		 inc	 ecx
  00024	53		 push	 ebx

; 1046 : 		*_Ptr++ = '*';	// for precision argument
; 1047 : 		if (_Spec != '\0')

  00025	8a 5c 24 10	 mov	 bl, BYTE PTR __Spec$[esp]
  00029	c6 01 2a	 mov	 BYTE PTR [ecx], 42	; 0000002aH
  0002c	41		 inc	 ecx
  0002d	84 db		 test	 bl, bl
  0002f	74 03		 je	 SHORT $L25686

; 1048 : 			*_Ptr++ = _Spec;	// 'L' qualifier for long double only

  00031	88 19		 mov	 BYTE PTR [ecx], bl
  00033	41		 inc	 ecx
$L25686:

; 1049 : 
; 1050 : 		ios_base::fmtflags _Ffl = _Flags & ios_base::floatfield;

  00034	81 e2 00 30 00
	00		 and	 edx, 12288		; 00003000H

; 1051 : 		*_Ptr++ = _Ffl == ios_base::fixed ? 'f'
; 1052 : 			: _Ffl == ios_base::scientific ? 'e' : 'g';	// specifier

  0003a	81 fa 00 20 00
	00		 cmp	 edx, 8192		; 00002000H
  00040	5b		 pop	 ebx
  00041	75 04		 jne	 SHORT $L41461
  00043	b2 66		 mov	 dl, 102			; 00000066H
  00045	eb 0d		 jmp	 SHORT $L41462
$L41461:
  00047	81 fa 00 10 00
	00		 cmp	 edx, 4096		; 00001000H
  0004d	0f 95 c2	 setne	 dl
  00050	8d 54 12 65	 lea	 edx, DWORD PTR [edx+edx+101]
$L41462:
  00054	88 11		 mov	 BYTE PTR [ecx], dl

; 1053 : 		*_Ptr = '\0';

  00056	c6 41 01 00	 mov	 BYTE PTR [ecx+1], 0

; 1054 : 		return (_Fmt);
; 1055 : 		}

  0005a	c3		 ret	 0
?_Ffmt@?$num_put@DV?$ostreambuf_iterator@DU?$char_traits@D@std@@@std@@@std@@ABAPADPADDH@Z ENDP ; std::num_put<char,std::ostreambuf_iterator<char,std::char_traits<char> > >::_Ffmt
; Function compile flags: /Ogsy
_TEXT	ENDS
;	COMDAT ?_Rep@?$num_put@GV?$ostreambuf_iterator@GU?$char_traits@G@std@@@std@@@std@@ABA?AV?$ostreambuf_iterator@GU?$char_traits@G@std@@@2@V32@GI@Z
_TEXT	SEGMENT
__Dest$ = 8						; size = 8
__Ch$ = 16						; size = 2
?_Rep@?$num_put@GV?$ostreambuf_iterator@GU?$char_traits@G@std@@@std@@@std@@ABA?AV?$ostreambuf_iterator@GU?$char_traits@G@std@@@2@V32@GI@Z PROC NEAR ; std::num_put<unsigned short,std::ostreambuf_iterator<unsigned short,std::char_traits<unsigned short> > >::_Rep, COMDAT
; ___$ReturnUdt$ = edi
; __Count$ = eax

; 1276 : 		{	// put _Count * _Ch to _Dest

  00000	56		 push	 esi
  00001	8b f0		 mov	 esi, eax

; 1277 : 		for (; 0 < _Count; --_Count, ++_Dest)

  00003	85 f6		 test	 esi, esi
  00005	76 10		 jbe	 SHORT $L25680
$L41467:

; 1278 : 			*_Dest = _Ch;

  00007	ff 74 24 10	 push	 DWORD PTR __Ch$[esp]
  0000b	8d 4c 24 0c	 lea	 ecx, DWORD PTR __Dest$[esp+4]
  0000f	e8 00 00 00 00	 call	 ??4?$ostreambuf_iterator@GU?$char_traits@G@std@@@std@@QAEAAV01@G@Z ; std::ostreambuf_iterator<unsigned short,std::char_traits<unsigned short> >::operator=
  00014	4e		 dec	 esi
  00015	75 f0		 jne	 SHORT $L41467
$L25680:

; 1279 : 		return (_Dest);

  00017	8b 44 24 08	 mov	 eax, DWORD PTR __Dest$[esp]
  0001b	89 07		 mov	 DWORD PTR [edi], eax
  0001d	8b 44 24 0c	 mov	 eax, DWORD PTR __Dest$[esp+4]
  00021	89 47 04	 mov	 DWORD PTR [edi+4], eax
  00024	8b c7		 mov	 eax, edi
  00026	5e		 pop	 esi

; 1280 : 		}

  00027	c3		 ret	 0
?_Rep@?$num_put@GV?$ostreambuf_iterator@GU?$char_traits@G@std@@@std@@@std@@ABA?AV?$ostreambuf_iterator@GU?$char_traits@G@std@@@2@V32@GI@Z ENDP ; std::num_put<unsigned short,std::ostreambuf_iterator<unsigned short,std::char_traits<unsigned short> > >::_Rep
; Function compile flags: /Ogsy
_TEXT	ENDS
;	COMDAT ?_Put@?$num_put@GV?$ostreambuf_iterator@GU?$char_traits@G@std@@@std@@@std@@ABA?AV?$ostreambuf_iterator@GU?$char_traits@G@std@@@2@V32@PBGI@Z
_TEXT	SEGMENT
__Dest$ = 8						; size = 8
?_Put@?$num_put@GV?$ostreambuf_iterator@GU?$char_traits@G@std@@@std@@@std@@ABA?AV?$ostreambuf_iterator@GU?$char_traits@G@std@@@2@V32@PBGI@Z PROC NEAR ; std::num_put<unsigned short,std::ostreambuf_iterator<unsigned short,std::char_traits<unsigned short> > >::_Put, COMDAT
; ___$ReturnUdt$ = ebx
; __Ptr$ = ecx
; __Count$ = eax

; 1242 : 		{	// put [_Ptr, _Ptr + _Count) to _Dest

  00000	56		 push	 esi
  00001	57		 push	 edi
  00002	8b f8		 mov	 edi, eax

; 1243 : 		for (; 0 < _Count; --_Count, ++_Dest, ++_Ptr)

  00004	85 ff		 test	 edi, edi
  00006	8b f1		 mov	 esi, ecx
  00008	76 14		 jbe	 SHORT $L25674
$L25672:

; 1244 : 			*_Dest = *_Ptr;

  0000a	33 c0		 xor	 eax, eax
  0000c	66 8b 06	 mov	 ax, WORD PTR [esi]
  0000f	8d 4c 24 0c	 lea	 ecx, DWORD PTR __Dest$[esp+4]
  00013	50		 push	 eax
  00014	e8 00 00 00 00	 call	 ??4?$ostreambuf_iterator@GU?$char_traits@G@std@@@std@@QAEAAV01@G@Z ; std::ostreambuf_iterator<unsigned short,std::char_traits<unsigned short> >::operator=
  00019	46		 inc	 esi
  0001a	46		 inc	 esi
  0001b	4f		 dec	 edi
  0001c	75 ec		 jne	 SHORT $L25672
$L25674:

; 1245 : 		return (_Dest);

  0001e	8b 44 24 0c	 mov	 eax, DWORD PTR __Dest$[esp+4]
  00022	89 03		 mov	 DWORD PTR [ebx], eax
  00024	8b 44 24 10	 mov	 eax, DWORD PTR __Dest$[esp+8]
  00028	5f		 pop	 edi
  00029	89 43 04	 mov	 DWORD PTR [ebx+4], eax
  0002c	8b c3		 mov	 eax, ebx
  0002e	5e		 pop	 esi

; 1246 : 		}

  0002f	c3		 ret	 0
?_Put@?$num_put@GV?$ostreambuf_iterator@GU?$char_traits@G@std@@@std@@@std@@ABA?AV?$ostreambuf_iterator@GU?$char_traits@G@std@@@2@V32@PBGI@Z ENDP ; std::num_put<unsigned short,std::ostreambuf_iterator<unsigned short,std::char_traits<unsigned short> > >::_Put
; Function compile flags: /Ogsy
_TEXT	ENDS
;	COMDAT ?_Ifmt@?$num_put@GV?$ostreambuf_iterator@GU?$char_traits@G@std@@@std@@@std@@ABAPADPADPBDH@Z
_TEXT	SEGMENT
_this$ = 8						; size = 4
__Fmt$ = 12						; size = 4
__Spec$ = 16						; size = 4
__Flags$ = 20						; size = 4
?_Ifmt@?$num_put@GV?$ostreambuf_iterator@GU?$char_traits@G@std@@@std@@@std@@ABAPADPADPBDH@Z PROC NEAR ; std::num_put<unsigned short,std::ostreambuf_iterator<unsigned short,std::char_traits<unsigned short> > >::_Ifmt, COMDAT

; 1166 : 		char *_Ptr = _Fmt;
; 1167 : 		*_Ptr++ = '%';

  00000	8b 44 24 08	 mov	 eax, DWORD PTR __Fmt$[esp-4]

; 1168 : 
; 1169 : 		if (_Flags & ios_base::showpos)

  00004	8b 54 24 10	 mov	 edx, DWORD PTR __Flags$[esp-4]
  00008	f6 c2 20	 test	 dl, 32			; 00000020H
  0000b	c6 00 25	 mov	 BYTE PTR [eax], 37	; 00000025H
  0000e	8d 48 01	 lea	 ecx, DWORD PTR [eax+1]
  00011	74 04		 je	 SHORT $L25636

; 1170 : 			*_Ptr++ = '+';

  00013	c6 01 2b	 mov	 BYTE PTR [ecx], 43	; 0000002bH
  00016	41		 inc	 ecx
$L25636:

; 1171 : 		if (_Flags & ios_base::showbase)

  00017	f6 c2 08	 test	 dl, 8
  0001a	74 04		 je	 SHORT $L25637

; 1172 : 			*_Ptr++ = '#';

  0001c	c6 01 23	 mov	 BYTE PTR [ecx], 35	; 00000023H
  0001f	41		 inc	 ecx
$L25637:
  00020	53		 push	 ebx
  00021	56		 push	 esi
  00022	57		 push	 edi

; 1173 : 		if (_Spec[0] != 'L')

  00023	8b 7c 24 18	 mov	 edi, DWORD PTR __Spec$[esp+8]
  00027	8a 1f		 mov	 bl, BYTE PTR [edi]
  00029	80 fb 4c	 cmp	 bl, 76			; 0000004cH
  0002c	74 04		 je	 SHORT $L25638

; 1174 : 			*_Ptr++ = _Spec[0];	// qualifier

  0002e	88 19		 mov	 BYTE PTR [ecx], bl

; 1175 : 		else

  00030	eb 0b		 jmp	 SHORT $L41492
$L25638:

; 1176 : 			{	/* change L to I64 */
; 1177 : 			*_Ptr++ = 'I';

  00032	c6 01 49	 mov	 BYTE PTR [ecx], 73	; 00000049H
  00035	41		 inc	 ecx

; 1178 : 			*_Ptr++ = '6';

  00036	c6 01 36	 mov	 BYTE PTR [ecx], 54	; 00000036H
  00039	41		 inc	 ecx

; 1179 : 			*_Ptr++ = '4';

  0003a	c6 01 34	 mov	 BYTE PTR [ecx], 52	; 00000034H
$L41492:

; 1180 : 			}
; 1181 : 
; 1182 : 		ios_base::fmtflags _Basefield = _Flags & ios_base::basefield;

  0003d	8b f2		 mov	 esi, edx
  0003f	81 e6 00 0e 00
	00		 and	 esi, 3584		; 00000e00H
  00045	41		 inc	 ecx

; 1183 : 		*_Ptr++ = _Basefield == ios_base::oct ? 'o'
; 1184 : 			: _Basefield != ios_base::hex ? _Spec[1]	// 'd' or 'u'
; 1185 : 			: _Flags & ios_base::uppercase ? 'X' : 'x';

  00046	81 fe 00 04 00
	00		 cmp	 esi, 1024		; 00000400H
  0004c	75 04		 jne	 SHORT $L41490
  0004e	b2 6f		 mov	 dl, 111			; 0000006fH
  00050	eb 18		 jmp	 SHORT $L41489
$L41490:
  00052	81 fe 00 08 00
	00		 cmp	 esi, 2048		; 00000800H
  00058	74 05		 je	 SHORT $L41488
  0005a	8a 57 01	 mov	 dl, BYTE PTR [edi+1]
  0005d	eb 0b		 jmp	 SHORT $L41489
$L41488:
  0005f	c0 e2 03	 shl	 dl, 3
  00062	f6 d2		 not	 dl
  00064	80 e2 20	 and	 dl, 32			; 00000020H
  00067	80 ca 58	 or	 dl, 88			; 00000058H
$L41489:
  0006a	5f		 pop	 edi
  0006b	5e		 pop	 esi
  0006c	88 11		 mov	 BYTE PTR [ecx], dl

; 1186 : 		*_Ptr = '\0';

  0006e	c6 41 01 00	 mov	 BYTE PTR [ecx+1], 0
  00072	5b		 pop	 ebx

; 1187 : 		return (_Fmt);
; 1188 : 		}

  00073	c3		 ret	 0
?_Ifmt@?$num_put@GV?$ostreambuf_iterator@GU?$char_traits@G@std@@@std@@@std@@ABAPADPADPBDH@Z ENDP ; std::num_put<unsigned short,std::ostreambuf_iterator<unsigned short,std::char_traits<unsigned short> > >::_Ifmt
; Function compile flags: /Ogsy
_TEXT	ENDS
;	COMDAT ?_Ffmt@?$num_put@GV?$ostreambuf_iterator@GU?$char_traits@G@std@@@std@@@std@@ABAPADPADDH@Z
_TEXT	SEGMENT
_this$ = 8						; size = 4
__Fmt$ = 12						; size = 4
__Spec$ = 16						; size = 1
__Flags$ = 20						; size = 4
?_Ffmt@?$num_put@GV?$ostreambuf_iterator@GU?$char_traits@G@std@@@std@@@std@@ABAPADPADDH@Z PROC NEAR ; std::num_put<unsigned short,std::ostreambuf_iterator<unsigned short,std::char_traits<unsigned short> > >::_Ffmt, COMDAT

; 1038 : 		char *_Ptr = _Fmt;
; 1039 : 		*_Ptr++ = '%';

  00000	8b 44 24 08	 mov	 eax, DWORD PTR __Fmt$[esp-4]

; 1040 : 
; 1041 : 		if (_Flags & ios_base::showpos)

  00004	8b 54 24 10	 mov	 edx, DWORD PTR __Flags$[esp-4]
  00008	f6 c2 20	 test	 dl, 32			; 00000020H
  0000b	c6 00 25	 mov	 BYTE PTR [eax], 37	; 00000025H
  0000e	8d 48 01	 lea	 ecx, DWORD PTR [eax+1]
  00011	74 04		 je	 SHORT $L25570

; 1042 : 			*_Ptr++ = '+';

  00013	c6 01 2b	 mov	 BYTE PTR [ecx], 43	; 0000002bH
  00016	41		 inc	 ecx
$L25570:

; 1043 : 		if (_Flags & ios_base::showpoint)

  00017	f6 c2 10	 test	 dl, 16			; 00000010H
  0001a	74 04		 je	 SHORT $L25571

; 1044 : 			*_Ptr++ = '#';

  0001c	c6 01 23	 mov	 BYTE PTR [ecx], 35	; 00000023H
  0001f	41		 inc	 ecx
$L25571:

; 1045 : 		*_Ptr++ = '.';

  00020	c6 01 2e	 mov	 BYTE PTR [ecx], 46	; 0000002eH
  00023	41		 inc	 ecx
  00024	53		 push	 ebx

; 1046 : 		*_Ptr++ = '*';	// for precision argument
; 1047 : 		if (_Spec != '\0')

  00025	8a 5c 24 10	 mov	 bl, BYTE PTR __Spec$[esp]
  00029	c6 01 2a	 mov	 BYTE PTR [ecx], 42	; 0000002aH
  0002c	41		 inc	 ecx
  0002d	84 db		 test	 bl, bl
  0002f	74 03		 je	 SHORT $L25572

; 1048 : 			*_Ptr++ = _Spec;	// 'L' qualifier for long double only

  00031	88 19		 mov	 BYTE PTR [ecx], bl
  00033	41		 inc	 ecx
$L25572:

; 1049 : 
; 1050 : 		ios_base::fmtflags _Ffl = _Flags & ios_base::floatfield;

  00034	81 e2 00 30 00
	00		 and	 edx, 12288		; 00003000H

; 1051 : 		*_Ptr++ = _Ffl == ios_base::fixed ? 'f'
; 1052 : 			: _Ffl == ios_base::scientific ? 'e' : 'g';	// specifier

  0003a	81 fa 00 20 00
	00		 cmp	 edx, 8192		; 00002000H
  00040	5b		 pop	 ebx
  00041	75 04		 jne	 SHORT $L41496
  00043	b2 66		 mov	 dl, 102			; 00000066H
  00045	eb 0d		 jmp	 SHORT $L41497
$L41496:
  00047	81 fa 00 10 00
	00		 cmp	 edx, 4096		; 00001000H
  0004d	0f 95 c2	 setne	 dl
  00050	8d 54 12 65	 lea	 edx, DWORD PTR [edx+edx+101]
$L41497:
  00054	88 11		 mov	 BYTE PTR [ecx], dl

; 1053 : 		*_Ptr = '\0';

  00056	c6 41 01 00	 mov	 BYTE PTR [ecx+1], 0

; 1054 : 		return (_Fmt);
; 1055 : 		}

  0005a	c3		 ret	 0
?_Ffmt@?$num_put@GV?$ostreambuf_iterator@GU?$char_traits@G@std@@@std@@@std@@ABAPADPADDH@Z ENDP ; std::num_put<unsigned short,std::ostreambuf_iterator<unsigned short,std::char_traits<unsigned short> > >::_Ffmt
; Function compile flags: /Ogsy
; File c:\program files (x86)\microsoft visual studio .net 2003\vc7\include\xutility
_TEXT	ENDS
;	COMDAT ?failed@?$ostreambuf_iterator@DU?$char_traits@D@std@@@std@@QBE_NXZ
_TEXT	SEGMENT
?failed@?$ostreambuf_iterator@DU?$char_traits@D@std@@@std@@QBE_NXZ PROC NEAR ; std::ostreambuf_iterator<char,std::char_traits<char> >::failed, COMDAT
; _this$ = eax

; 1005 : 		return (_Failed);

  00000	8a 00		 mov	 al, BYTE PTR [eax]

; 1006 : 		}

  00002	c3		 ret	 0
?failed@?$ostreambuf_iterator@DU?$char_traits@D@std@@@std@@QBE_NXZ ENDP ; std::ostreambuf_iterator<char,std::char_traits<char> >::failed
; Function compile flags: /Ogsy
_TEXT	ENDS
;	COMDAT ??0?$ostreambuf_iterator@DU?$char_traits@D@std@@@std@@QAE@PAV?$basic_streambuf@DU?$char_traits@D@std@@@1@@Z
_TEXT	SEGMENT
??0?$ostreambuf_iterator@DU?$char_traits@D@std@@@std@@QAE@PAV?$basic_streambuf@DU?$char_traits@D@std@@@1@@Z PROC NEAR ; std::ostreambuf_iterator<char,std::char_traits<char> >::ostreambuf_iterator<char,std::char_traits<char> >, COMDAT
; _this$ = eax
; __Sb$ = ecx

; 971  : 		{	// construct from stream buffer _Sb

  00000	c6 00 00	 mov	 BYTE PTR [eax], 0
  00003	89 48 04	 mov	 DWORD PTR [eax+4], ecx

; 972  : 		}

  00006	c3		 ret	 0
??0?$ostreambuf_iterator@DU?$char_traits@D@std@@@std@@QAE@PAV?$basic_streambuf@DU?$char_traits@D@std@@@1@@Z ENDP ; std::ostreambuf_iterator<char,std::char_traits<char> >::ostreambuf_iterator<char,std::char_traits<char> >
; Function compile flags: /Ogsy
; File c:\program files (x86)\microsoft visual studio .net 2003\vc7\include\xlocnum
_TEXT	ENDS
;	COMDAT ?put@?$num_put@DV?$ostreambuf_iterator@DU?$char_traits@D@std@@@std@@@std@@QBE?AV?$ostreambuf_iterator@DU?$char_traits@D@std@@@2@V32@AAVios_base@2@DK@Z
_TEXT	SEGMENT
___$ReturnUdt$ = 8					; size = 4
__Dest$ = 12						; size = 8
__Iosbase$ = 20						; size = 4
__Fill$ = 24						; size = 1
__Val$ = 28						; size = 4
?put@?$num_put@DV?$ostreambuf_iterator@DU?$char_traits@D@std@@@std@@@std@@QBE?AV?$ostreambuf_iterator@DU?$char_traits@D@std@@@2@V32@AAVios_base@2@DK@Z PROC NEAR ; std::num_put<char,std::ostreambuf_iterator<char,std::char_traits<char> > >::put, COMDAT
; _this$ = ecx

; 842  : 		{	// put formatted unsigned long to _Dest

  00000	55		 push	 ebp
  00001	8b ec		 mov	 ebp, esp

; 843  : 		return (do_put(_Dest, _Iosbase, _Fill, _Val));

  00003	ff 75 1c	 push	 DWORD PTR __Val$[ebp]
  00006	8b 01		 mov	 eax, DWORD PTR [ecx]
  00008	ff 75 18	 push	 DWORD PTR __Fill$[ebp]
  0000b	ff 75 14	 push	 DWORD PTR __Iosbase$[ebp]
  0000e	ff 75 10	 push	 DWORD PTR __Dest$[ebp+4]
  00011	ff 75 0c	 push	 DWORD PTR __Dest$[ebp]
  00014	ff 75 08	 push	 DWORD PTR ___$ReturnUdt$[ebp]
  00017	ff 50 18	 call	 DWORD PTR [eax+24]
  0001a	8b 45 08	 mov	 eax, DWORD PTR ___$ReturnUdt$[ebp]

; 844  : 		}

  0001d	5d		 pop	 ebp
  0001e	c2 18 00	 ret	 24			; 00000018H
?put@?$num_put@DV?$ostreambuf_iterator@DU?$char_traits@D@std@@@std@@@std@@QBE?AV?$ostreambuf_iterator@DU?$char_traits@D@std@@@2@V32@AAVios_base@2@DK@Z ENDP ; std::num_put<char,std::ostreambuf_iterator<char,std::char_traits<char> > >::put
; Function compile flags: /Ogsy
_TEXT	ENDS
;	COMDAT ??1?$num_put@DV?$ostreambuf_iterator@DU?$char_traits@D@std@@@std@@@std@@MAE@XZ
_TEXT	SEGMENT
??1?$num_put@DV?$ostreambuf_iterator@DU?$char_traits@D@std@@@std@@@std@@MAE@XZ PROC NEAR ; std::num_put<char,std::ostreambuf_iterator<char,std::char_traits<char> > >::~num_put<char,std::ostreambuf_iterator<char,std::char_traits<char> > >, COMDAT
; _this$ = ecx

; 802  : 		}

  00000	c7 01 00 00 00
	00		 mov	 DWORD PTR [ecx], OFFSET FLAT:??_7facet@locale@std@@6B@
  00006	c3		 ret	 0
??1?$num_put@DV?$ostreambuf_iterator@DU?$char_traits@D@std@@@std@@@std@@MAE@XZ ENDP ; std::num_put<char,std::ostreambuf_iterator<char,std::char_traits<char> > >::~num_put<char,std::ostreambuf_iterator<char,std::char_traits<char> > >
; Function compile flags: /Ogsy
; File c:\program files (x86)\microsoft visual studio .net 2003\vc7\include\xutility
_TEXT	ENDS
;	COMDAT ?failed@?$ostreambuf_iterator@GU?$char_traits@G@std@@@std@@QBE_NXZ
_TEXT	SEGMENT
?failed@?$ostreambuf_iterator@GU?$char_traits@G@std@@@std@@QBE_NXZ PROC NEAR ; std::ostreambuf_iterator<unsigned short,std::char_traits<unsigned short> >::failed, COMDAT
; _this$ = eax

; 1005 : 		return (_Failed);

  00000	8a 00		 mov	 al, BYTE PTR [eax]

; 1006 : 		}

  00002	c3		 ret	 0
?failed@?$ostreambuf_iterator@GU?$char_traits@G@std@@@std@@QBE_NXZ ENDP ; std::ostreambuf_iterator<unsigned short,std::char_traits<unsigned short> >::failed
; Function compile flags: /Ogsy
_TEXT	ENDS
;	COMDAT ??0?$ostreambuf_iterator@GU?$char_traits@G@std@@@std@@QAE@PAV?$basic_streambuf@GU?$char_traits@G@std@@@1@@Z
_TEXT	SEGMENT
??0?$ostreambuf_iterator@GU?$char_traits@G@std@@@std@@QAE@PAV?$basic_streambuf@GU?$char_traits@G@std@@@1@@Z PROC NEAR ; std::ostreambuf_iterator<unsigned short,std::char_traits<unsigned short> >::ostreambuf_iterator<unsigned short,std::char_traits<unsigned short> >, COMDAT
; _this$ = eax
; __Sb$ = ecx

; 971  : 		{	// construct from stream buffer _Sb

  00000	c6 00 00	 mov	 BYTE PTR [eax], 0
  00003	89 48 04	 mov	 DWORD PTR [eax+4], ecx

; 972  : 		}

  00006	c3		 ret	 0
??0?$ostreambuf_iterator@GU?$char_traits@G@std@@@std@@QAE@PAV?$basic_streambuf@GU?$char_traits@G@std@@@1@@Z ENDP ; std::ostreambuf_iterator<unsigned short,std::char_traits<unsigned short> >::ostreambuf_iterator<unsigned short,std::char_traits<unsigned short> >
; Function compile flags: /Ogsy
; File c:\program files (x86)\microsoft visual studio .net 2003\vc7\include\xlocnum
_TEXT	ENDS
;	COMDAT ?put@?$num_put@GV?$ostreambuf_iterator@GU?$char_traits@G@std@@@std@@@std@@QBE?AV?$ostreambuf_iterator@GU?$char_traits@G@std@@@2@V32@AAVios_base@2@GJ@Z
_TEXT	SEGMENT
___$ReturnUdt$ = 8					; size = 4
__Dest$ = 12						; size = 8
__Iosbase$ = 20						; size = 4
__Fill$ = 24						; size = 2
__Val$ = 28						; size = 4
?put@?$num_put@GV?$ostreambuf_iterator@GU?$char_traits@G@std@@@std@@@std@@QBE?AV?$ostreambuf_iterator@GU?$char_traits@G@std@@@2@V32@AAVios_base@2@GJ@Z PROC NEAR ; std::num_put<unsigned short,std::ostreambuf_iterator<unsigned short,std::char_traits<unsigned short> > >::put, COMDAT
; _this$ = ecx

; 836  : 		{	// put formatted long to _Dest

  00000	55		 push	 ebp
  00001	8b ec		 mov	 ebp, esp

; 837  : 		return (do_put(_Dest, _Iosbase, _Fill, _Val));

  00003	ff 75 1c	 push	 DWORD PTR __Val$[ebp]
  00006	8b 01		 mov	 eax, DWORD PTR [ecx]
  00008	ff 75 18	 push	 DWORD PTR __Fill$[ebp]
  0000b	ff 75 14	 push	 DWORD PTR __Iosbase$[ebp]
  0000e	ff 75 10	 push	 DWORD PTR __Dest$[ebp+4]
  00011	ff 75 0c	 push	 DWORD PTR __Dest$[ebp]
  00014	ff 75 08	 push	 DWORD PTR ___$ReturnUdt$[ebp]
  00017	ff 50 1c	 call	 DWORD PTR [eax+28]
  0001a	8b 45 08	 mov	 eax, DWORD PTR ___$ReturnUdt$[ebp]

; 838  : 		}

  0001d	5d		 pop	 ebp
  0001e	c2 18 00	 ret	 24			; 00000018H
?put@?$num_put@GV?$ostreambuf_iterator@GU?$char_traits@G@std@@@std@@@std@@QBE?AV?$ostreambuf_iterator@GU?$char_traits@G@std@@@2@V32@AAVios_base@2@GJ@Z ENDP ; std::num_put<unsigned short,std::ostreambuf_iterator<unsigned short,std::char_traits<unsigned short> > >::put
; Function compile flags: /Ogsy
_TEXT	ENDS
;	COMDAT ??1?$num_put@GV?$ostreambuf_iterator@GU?$char_traits@G@std@@@std@@@std@@MAE@XZ
_TEXT	SEGMENT
??1?$num_put@GV?$ostreambuf_iterator@GU?$char_traits@G@std@@@std@@@std@@MAE@XZ PROC NEAR ; std::num_put<unsigned short,std::ostreambuf_iterator<unsigned short,std::char_traits<unsigned short> > >::~num_put<unsigned short,std::ostreambuf_iterator<unsigned short,std::char_traits<unsigned short> > >, COMDAT
; _this$ = ecx

; 802  : 		}

  00000	c7 01 00 00 00
	00		 mov	 DWORD PTR [ecx], OFFSET FLAT:??_7facet@locale@std@@6B@
  00006	c3		 ret	 0
??1?$num_put@GV?$ostreambuf_iterator@GU?$char_traits@G@std@@@std@@@std@@MAE@XZ ENDP ; std::num_put<unsigned short,std::ostreambuf_iterator<unsigned short,std::char_traits<unsigned short> > >::~num_put<unsigned short,std::ostreambuf_iterator<unsigned short,std::char_traits<unsigned short> > >
; Function compile flags: /Ogsy
; File c:\program files (x86)\microsoft visual studio .net 2003\vc7\include\ios
_TEXT	ENDS
;	COMDAT ?fill@?$basic_ios@DU?$char_traits@D@std@@@std@@QBEDXZ
_TEXT	SEGMENT
?fill@?$basic_ios@DU?$char_traits@D@std@@@std@@QBEDXZ PROC NEAR ; std::basic_ios<char,std::char_traits<char> >::fill, COMDAT
; _this$ = eax

; 102  : 		return (_Fillch);

  00000	8a 40 30	 mov	 al, BYTE PTR [eax+48]

; 103  : 		}

  00003	c3		 ret	 0
?fill@?$basic_ios@DU?$char_traits@D@std@@@std@@QBEDXZ ENDP ; std::basic_ios<char,std::char_traits<char> >::fill
; Function compile flags: /Ogsy
; File c:\program files (x86)\microsoft visual studio .net 2003\vc7\include\ostream
_TEXT	ENDS
;	COMDAT ??6?$basic_ostream@DU?$char_traits@D@std@@@std@@QAEAAV01@P6AAAV01@AAV01@@Z@Z
_TEXT	SEGMENT
_this$ = 8						; size = 4
__Pfn$ = 12						; size = 4
??6?$basic_ostream@DU?$char_traits@D@std@@@std@@QAEAAV01@P6AAAV01@AAV01@@Z@Z PROC NEAR ; std::basic_ostream<char,std::char_traits<char> >::operator<<, COMDAT

; 139  : 		return ((*_Pfn)(*this));

  00000	ff 74 24 04	 push	 DWORD PTR _this$[esp-4]
  00004	ff 54 24 0c	 call	 DWORD PTR __Pfn$[esp]
  00008	59		 pop	 ecx

; 140  : 		}

  00009	c2 08 00	 ret	 8
??6?$basic_ostream@DU?$char_traits@D@std@@@std@@QAEAAV01@P6AAAV01@AAV01@@Z@Z ENDP ; std::basic_ostream<char,std::char_traits<char> >::operator<<
; Function compile flags: /Ogsy
_TEXT	ENDS
;	COMDAT ??6?$basic_ostream@GU?$char_traits@G@std@@@std@@QAEAAV01@P6AAAV01@AAV01@@Z@Z
_TEXT	SEGMENT
_this$ = 8						; size = 4
__Pfn$ = 12						; size = 4
??6?$basic_ostream@GU?$char_traits@G@std@@@std@@QAEAAV01@P6AAAV01@AAV01@@Z@Z PROC NEAR ; std::basic_ostream<unsigned short,std::char_traits<unsigned short> >::operator<<, COMDAT

; 139  : 		return ((*_Pfn)(*this));

  00000	ff 74 24 04	 push	 DWORD PTR _this$[esp-4]
  00004	ff 54 24 0c	 call	 DWORD PTR __Pfn$[esp]
  00008	59		 pop	 ecx

; 140  : 		}

  00009	c2 08 00	 ret	 8
??6?$basic_ostream@GU?$char_traits@G@std@@@std@@QAEAAV01@P6AAAV01@AAV01@@Z@Z ENDP ; std::basic_ostream<unsigned short,std::char_traits<unsigned short> >::operator<<
_TEXT	ENDS
PUBLIC	?nsc_exit@@YAXH@Z				; nsc_exit
; Function compile flags: /Ogsy
; File f:\nes\nsdl\src\nsc\nsc.cpp
_TEXT	SEGMENT
$T41540 = -4						; size = 4
?nsc_exit@@YAXH@Z PROC NEAR				; nsc_exit
; _no$ = eax

; 55   : {

  00000	55		 push	 ebp
  00001	8b ec		 mov	 ebp, esp
  00003	51		 push	 ecx

; 56   : 	throw no;

  00004	89 45 fc	 mov	 DWORD PTR $T41540[ebp], eax
  00007	68 00 00 00 00	 push	 OFFSET FLAT:__TI1H
  0000c	8d 45 fc	 lea	 eax, DWORD PTR $T41540[ebp]
  0000f	50		 push	 eax
  00010	e8 00 00 00 00	 call	 __CxxThrowException@8
$L41542:
$L41541:
  00015	cc		 int	 3
?nsc_exit@@YAXH@Z ENDP					; nsc_exit
; Function compile flags: /Ogsy
; File c:\program files (x86)\microsoft visual studio .net 2003\vc7\include\xstring
;	COMDAT ?c_str@?$basic_string@DU?$char_traits@D@std@@V?$allocator@D@2@@std@@QBEPBDXZ
_TEXT	SEGMENT
?c_str@?$basic_string@DU?$char_traits@D@std@@V?$allocator@D@2@@std@@QBEPBDXZ PROC NEAR ; std::basic_string<char,std::char_traits<char>,std::allocator<char> >::c_str, COMDAT
; _this$ = ecx

; 1094 : 		return (_Myptr());

  00000	83 79 18 10	 cmp	 DWORD PTR [ecx+24], 16	; 00000010H
  00004	72 04		 jb	 SHORT $L53248
  00006	8b 41 04	 mov	 eax, DWORD PTR [ecx+4]

; 1095 : 		}

  00009	c3		 ret	 0

; 1094 : 		return (_Myptr());

$L53248:
  0000a	8d 41 04	 lea	 eax, DWORD PTR [ecx+4]

; 1095 : 		}

  0000d	c3		 ret	 0
?c_str@?$basic_string@DU?$char_traits@D@std@@V?$allocator@D@2@@std@@QBEPBDXZ ENDP ; std::basic_string<char,std::char_traits<char>,std::allocator<char> >::c_str
; Function compile flags: /Ogsy
; File c:\program files (x86)\microsoft visual studio .net 2003\vc7\include\ostream
_TEXT	ENDS
;	COMDAT ??0_Sentry_base@?$basic_ostream@GU?$char_traits@G@std@@@std@@QAE@AAV12@@Z
_TEXT	SEGMENT
??0_Sentry_base@?$basic_ostream@GU?$char_traits@G@std@@@std@@QAE@AAV12@@Z PROC NEAR ; std::basic_ostream<unsigned short,std::char_traits<unsigned short> >::_Sentry_base::_Sentry_base, COMDAT
; _this$ = esi
; __Ostr$ = eax

; 68   : 			{	// lock the stream buffer, if there

  00000	89 06		 mov	 DWORD PTR [esi], eax

; 69   : 			if (_Myostr.rdbuf() != 0)

  00002	8b 08		 mov	 ecx, DWORD PTR [eax]
  00004	8b 49 04	 mov	 ecx, DWORD PTR [ecx+4]
  00007	8b 44 01 28	 mov	 eax, DWORD PTR [ecx+eax+40]
  0000b	85 c0		 test	 eax, eax
  0000d	74 08		 je	 SHORT $L53263

; 70   : 				_Myostr.rdbuf()->_Lock();

  0000f	8d 48 04	 lea	 ecx, DWORD PTR [eax+4]
  00012	e8 00 00 00 00	 call	 ?_Lock@_Mutex@std@@QAEXXZ ; std::_Mutex::_Lock
$L53263:

; 71   : 			}

  00017	8b c6		 mov	 eax, esi
  00019	c3		 ret	 0
??0_Sentry_base@?$basic_ostream@GU?$char_traits@G@std@@@std@@QAE@AAV12@@Z ENDP ; std::basic_ostream<unsigned short,std::char_traits<unsigned short> >::_Sentry_base::_Sentry_base
; Function compile flags: /Ogsy
_TEXT	ENDS
;	COMDAT ??1_Sentry_base@?$basic_ostream@GU?$char_traits@G@std@@@std@@QAE@XZ
_TEXT	SEGMENT
??1_Sentry_base@?$basic_ostream@GU?$char_traits@G@std@@@std@@QAE@XZ PROC NEAR ; std::basic_ostream<unsigned short,std::char_traits<unsigned short> >::_Sentry_base::~_Sentry_base, COMDAT
; _this$ = eax

; 75   : 			if (_Myostr.rdbuf() != 0)

  00000	8b 00		 mov	 eax, DWORD PTR [eax]
  00002	8b 08		 mov	 ecx, DWORD PTR [eax]
  00004	8b 49 04	 mov	 ecx, DWORD PTR [ecx+4]
  00007	8b 44 01 28	 mov	 eax, DWORD PTR [ecx+eax+40]
  0000b	85 c0		 test	 eax, eax
  0000d	74 08		 je	 SHORT $L53277

; 76   : 				_Myostr.rdbuf()->_Unlock();

  0000f	8d 48 04	 lea	 ecx, DWORD PTR [eax+4]
  00012	e9 00 00 00 00	 jmp	 ?_Unlock@_Mutex@std@@QAEXXZ ; std::_Mutex::_Unlock
$L53277:

; 77   : 			}

  00017	c3		 ret	 0
??1_Sentry_base@?$basic_ostream@GU?$char_traits@G@std@@@std@@QAE@XZ ENDP ; std::basic_ostream<unsigned short,std::char_traits<unsigned short> >::_Sentry_base::~_Sentry_base
; Function compile flags: /Ogsy
; File c:\program files (x86)\microsoft visual studio .net 2003\vc7\include\xlocale
_TEXT	ENDS
;	COMDAT ??0locale@std@@QAE@ABV01@@Z
_TEXT	SEGMENT
__Right$ = 8						; size = 4
??0locale@std@@QAE@ABV01@@Z PROC NEAR			; std::locale::locale, COMDAT
; _this$ = ecx

; 231  : 		{	// construct by copying

  00000	8b 44 24 04	 mov	 eax, DWORD PTR __Right$[esp-4]
  00004	56		 push	 esi
  00005	8b f1		 mov	 esi, ecx
  00007	8b 08		 mov	 ecx, DWORD PTR [eax]
  00009	89 0e		 mov	 DWORD PTR [esi], ecx

; 232  : 		_Ptr->_Incref();

  0000b	e8 00 00 00 00	 call	 ?_Incref@facet@locale@std@@QAEXXZ ; std::locale::facet::_Incref

; 233  : 		}

  00010	8b c6		 mov	 eax, esi
  00012	5e		 pop	 esi
  00013	c2 04 00	 ret	 4
??0locale@std@@QAE@ABV01@@Z ENDP			; std::locale::locale
; Function compile flags: /Ogsy
; File c:\program files (x86)\microsoft visual studio .net 2003\vc7\include\xiosbase
_TEXT	ENDS
;	COMDAT ?getloc@ios_base@std@@QBE?AVlocale@2@XZ
_TEXT	SEGMENT
$T53285 = -4						; size = 4
___$ReturnUdt$ = 8					; size = 4
?getloc@ios_base@std@@QBE?AVlocale@2@XZ PROC NEAR	; std::ios_base::getloc, COMDAT
; _this$ = ecx

; 381  : 		{	// get locale

  00000	55		 push	 ebp
  00001	8b ec		 mov	 ebp, esp
  00003	51		 push	 ecx

; 382  : 		return (*_Ploc);

  00004	ff 71 24	 push	 DWORD PTR [ecx+36]
  00007	8b 4d 08	 mov	 ecx, DWORD PTR ___$ReturnUdt$[ebp]
  0000a	83 65 fc 00	 and	 DWORD PTR $T53285[ebp], 0
  0000e	e8 00 00 00 00	 call	 ??0locale@std@@QAE@ABV01@@Z ; std::locale::locale
  00013	8b 45 08	 mov	 eax, DWORD PTR ___$ReturnUdt$[ebp]

; 383  : 		}

  00016	c9		 leave
  00017	c2 04 00	 ret	 4
?getloc@ios_base@std@@QBE?AVlocale@2@XZ ENDP		; std::ios_base::getloc
; Function compile flags: /Ogsy
; File c:\program files (x86)\microsoft visual studio .net 2003\vc7\include\ios
_TEXT	ENDS
;	COMDAT ?setstate@?$basic_ios@GU?$char_traits@G@std@@@std@@QAEXH_N@Z
_TEXT	SEGMENT
__State$ = 8						; size = 4
__Except$ = 12						; size = 1
?setstate@?$basic_ios@GU?$char_traits@G@std@@@std@@QAEXH_N@Z PROC NEAR ; std::basic_ios<unsigned short,std::char_traits<unsigned short> >::setstate, COMDAT
; _this$ = ecx

; 50   : 		if (_State != goodbit)

  00000	83 7c 24 04 00	 cmp	 DWORD PTR __State$[esp-4], 0
  00005	74 11		 je	 SHORT $L22779

; 51   : 			clear((iostate)((int)rdstate() | (int)_State), _Except);

  00007	8b 41 08	 mov	 eax, DWORD PTR [ecx+8]
  0000a	ff 74 24 08	 push	 DWORD PTR __Except$[esp-4]
  0000e	0b 44 24 08	 or	 eax, DWORD PTR __State$[esp]
  00012	50		 push	 eax
  00013	e8 00 00 00 00	 call	 ?clear@?$basic_ios@GU?$char_traits@G@std@@@std@@QAEXH_N@Z ; std::basic_ios<unsigned short,std::char_traits<unsigned short> >::clear
$L22779:

; 52   : 		}

  00018	c2 08 00	 ret	 8
?setstate@?$basic_ios@GU?$char_traits@G@std@@@std@@QAEXH_N@Z ENDP ; std::basic_ios<unsigned short,std::char_traits<unsigned short> >::setstate
; Function compile flags: /Ogsy
; File c:\program files (x86)\microsoft visual studio .net 2003\vc7\include\xiosbase
_TEXT	ENDS
;	COMDAT ?good@ios_base@std@@QBE_NXZ
_TEXT	SEGMENT
?good@ios_base@std@@QBE_NXZ PROC NEAR			; std::ios_base::good, COMDAT
; _this$ = ecx

; 288  : 		return (rdstate() == goodbit);

  00000	33 c0		 xor	 eax, eax
  00002	39 41 08	 cmp	 DWORD PTR [ecx+8], eax
  00005	0f 94 c0	 sete	 al

; 289  : 		}

  00008	c3		 ret	 0
?good@ios_base@std@@QBE_NXZ ENDP			; std::ios_base::good
; Function compile flags: /Ogsy
; File c:\program files (x86)\microsoft visual studio .net 2003\vc7\include\ostream
_TEXT	ENDS
;	COMDAT ??0_Sentry_base@?$basic_ostream@DU?$char_traits@D@std@@@std@@QAE@AAV12@@Z
_TEXT	SEGMENT
??0_Sentry_base@?$basic_ostream@DU?$char_traits@D@std@@@std@@QAE@AAV12@@Z PROC NEAR ; std::basic_ostream<char,std::char_traits<char> >::_Sentry_base::_Sentry_base, COMDAT
; _this$ = esi
; __Ostr$ = eax

; 68   : 			{	// lock the stream buffer, if there

  00000	89 06		 mov	 DWORD PTR [esi], eax

; 69   : 			if (_Myostr.rdbuf() != 0)

  00002	8b 08		 mov	 ecx, DWORD PTR [eax]
  00004	8b 49 04	 mov	 ecx, DWORD PTR [ecx+4]
  00007	8b 44 01 28	 mov	 eax, DWORD PTR [ecx+eax+40]
  0000b	85 c0		 test	 eax, eax
  0000d	74 08		 je	 SHORT $L53313

; 70   : 				_Myostr.rdbuf()->_Lock();

  0000f	8d 48 04	 lea	 ecx, DWORD PTR [eax+4]
  00012	e8 00 00 00 00	 call	 ?_Lock@_Mutex@std@@QAEXXZ ; std::_Mutex::_Lock
$L53313:

; 71   : 			}

  00017	8b c6		 mov	 eax, esi
  00019	c3		 ret	 0
??0_Sentry_base@?$basic_ostream@DU?$char_traits@D@std@@@std@@QAE@AAV12@@Z ENDP ; std::basic_ostream<char,std::char_traits<char> >::_Sentry_base::_Sentry_base
; Function compile flags: /Ogsy
; File c:\program files (x86)\microsoft visual studio .net 2003\vc7\include\xiosbase
_TEXT	ENDS
;	COMDAT ?fail@ios_base@std@@QBE_NXZ
_TEXT	SEGMENT
?fail@ios_base@std@@QBE_NXZ PROC NEAR			; std::ios_base::fail, COMDAT
; _this$ = ecx

; 298  : 		return (((int)rdstate()
; 299  : 			& ((int)badbit | (int)failbit)) != 0);

  00000	8b 41 08	 mov	 eax, DWORD PTR [ecx+8]
  00003	24 06		 and	 al, 6
  00005	f6 d8		 neg	 al
  00007	1b c0		 sbb	 eax, eax
  00009	f7 d8		 neg	 eax

; 300  : 		}

  0000b	c3		 ret	 0
?fail@ios_base@std@@QBE_NXZ ENDP			; std::ios_base::fail
; Function compile flags: /Ogsy
; File c:\program files (x86)\microsoft visual studio .net 2003\vc7\include\ostream
_TEXT	ENDS
;	COMDAT ?flush@?$basic_ostream@DU?$char_traits@D@std@@@std@@QAEAAV12@XZ
_TEXT	SEGMENT
?flush@?$basic_ostream@DU?$char_traits@D@std@@@std@@QAEAAV12@XZ PROC NEAR ; std::basic_ostream<char,std::char_traits<char> >::flush, COMDAT
; _this$ = esi

; 512  : 		ios_base::iostate _State = ios_base::goodbit;
; 513  : 		if (!ios_base::fail() && _Myios::rdbuf()->pubsync() == -1)

  00000	8b 06		 mov	 eax, DWORD PTR [esi]
  00002	8b 40 04	 mov	 eax, DWORD PTR [eax+4]
  00005	57		 push	 edi
  00006	03 c6		 add	 eax, esi
  00008	33 ff		 xor	 edi, edi
  0000a	f6 40 08 06	 test	 BYTE PTR [eax+8], 6
  0000e	75 12		 jne	 SHORT $L22945
  00010	8b 40 28	 mov	 eax, DWORD PTR [eax+40]
  00013	8b 10		 mov	 edx, DWORD PTR [eax]
  00015	8b c8		 mov	 ecx, eax
  00017	ff 52 2c	 call	 DWORD PTR [edx+44]
  0001a	83 f8 ff	 cmp	 eax, -1
  0001d	75 03		 jne	 SHORT $L22945

; 514  : 			_State |= ios_base::badbit;	// sync failed

  0001f	6a 04		 push	 4
  00021	5f		 pop	 edi
$L22945:

; 515  : 		_Myios::setstate(_State);

  00022	8b 06		 mov	 eax, DWORD PTR [esi]
  00024	8b 48 04	 mov	 ecx, DWORD PTR [eax+4]
  00027	6a 00		 push	 0
  00029	57		 push	 edi
  0002a	03 ce		 add	 ecx, esi
  0002c	e8 00 00 00 00	 call	 ?setstate@?$basic_ios@DU?$char_traits@D@std@@@std@@QAEXH_N@Z ; std::basic_ios<char,std::char_traits<char> >::setstate

; 516  : 		return (*this);

  00031	8b c6		 mov	 eax, esi
  00033	5f		 pop	 edi

; 517  : 		}

  00034	c3		 ret	 0
?flush@?$basic_ostream@DU?$char_traits@D@std@@@std@@QAEAAV12@XZ ENDP ; std::basic_ostream<char,std::char_traits<char> >::flush
; Function compile flags: /Ogsy
_TEXT	ENDS
;	COMDAT ?_Osfx@?$basic_ostream@DU?$char_traits@D@std@@@std@@QAEXXZ
_TEXT	SEGMENT
?_Osfx@?$basic_ostream@DU?$char_traits@D@std@@@std@@QAEXXZ PROC NEAR ; std::basic_ostream<char,std::char_traits<char> >::_Osfx, COMDAT
; _this$ = eax

; 132  : 		{	// perform any wrapup

  00000	56		 push	 esi
  00001	8b f0		 mov	 esi, eax

; 133  : 		if (ios_base::flags() & ios_base::unitbuf)

  00003	8b 06		 mov	 eax, DWORD PTR [esi]
  00005	8b 40 04	 mov	 eax, DWORD PTR [eax+4]
  00008	f6 44 30 10 02	 test	 BYTE PTR [eax+esi+16], 2
  0000d	74 05		 je	 SHORT $L23744

; 134  : 			flush();	// flush stream as needed

  0000f	e8 00 00 00 00	 call	 ?flush@?$basic_ostream@DU?$char_traits@D@std@@@std@@QAEAAV12@XZ ; std::basic_ostream<char,std::char_traits<char> >::flush
$L23744:
  00014	5e		 pop	 esi

; 135  : 		}

  00015	c3		 ret	 0
?_Osfx@?$basic_ostream@DU?$char_traits@D@std@@@std@@QAEXXZ ENDP ; std::basic_ostream<char,std::char_traits<char> >::_Osfx
; Function compile flags: /Ogsy
_TEXT	ENDS
;	COMDAT ??1_Sentry_base@?$basic_ostream@DU?$char_traits@D@std@@@std@@QAE@XZ
_TEXT	SEGMENT
??1_Sentry_base@?$basic_ostream@DU?$char_traits@D@std@@@std@@QAE@XZ PROC NEAR ; std::basic_ostream<char,std::char_traits<char> >::_Sentry_base::~_Sentry_base, COMDAT
; _this$ = eax

; 75   : 			if (_Myostr.rdbuf() != 0)

  00000	8b 00		 mov	 eax, DWORD PTR [eax]
  00002	8b 08		 mov	 ecx, DWORD PTR [eax]
  00004	8b 49 04	 mov	 ecx, DWORD PTR [ecx+4]
  00007	8b 44 01 28	 mov	 eax, DWORD PTR [ecx+eax+40]
  0000b	85 c0		 test	 eax, eax
  0000d	74 08		 je	 SHORT $L53359

; 76   : 				_Myostr.rdbuf()->_Unlock();

  0000f	8d 48 04	 lea	 ecx, DWORD PTR [eax+4]
  00012	e9 00 00 00 00	 jmp	 ?_Unlock@_Mutex@std@@QAEXXZ ; std::_Mutex::_Unlock
$L53359:

; 77   : 			}

  00017	c3		 ret	 0
??1_Sentry_base@?$basic_ostream@DU?$char_traits@D@std@@@std@@QAE@XZ ENDP ; std::basic_ostream<char,std::char_traits<char> >::_Sentry_base::~_Sentry_base
_TEXT	ENDS
;	COMDAT xdata$x
xdata$x	SEGMENT
$T53368	DD	0ffffffffH
	DD	FLAT:$L53364
$T53366	DD	019930520H
	DD	01H
	DD	FLAT:$T53368
	DD	2 DUP(00H)
	DD	2 DUP(00H)
; Function compile flags: /Ogsy
xdata$x	ENDS
;	COMDAT ??1sentry@?$basic_ostream@DU?$char_traits@D@std@@@std@@QAE@XZ
_TEXT	SEGMENT
__$EHRec$ = -12						; size = 12
_this$ = 8						; size = 4
??1sentry@?$basic_ostream@DU?$char_traits@D@std@@@std@@QAE@XZ PROC NEAR ; std::basic_ostream<char,std::char_traits<char> >::sentry::~sentry, COMDAT

; 95   : 			{	// destroy the object

  00000	b8 00 00 00 00	 mov	 eax, __ehhandler$??1sentry@?$basic_ostream@DU?$char_traits@D@std@@@std@@QAE@XZ
  00005	e8 00 00 00 00	 call	 __EH_prolog
  0000a	56		 push	 esi
  0000b	8b 75 08	 mov	 esi, DWORD PTR _this$[ebp]
  0000e	83 65 fc 00	 and	 DWORD PTR __$EHRec$[ebp+8], 0

; 96   : 
; 97   :  #if _HAS_EXCEPTIONS
; 98   : 			if (!uncaught_exception())

  00012	e8 00 00 00 00	 call	 ?uncaught_exception@std@@YA_NXZ ; std::uncaught_exception
  00017	84 c0		 test	 al, al
  00019	75 07		 jne	 SHORT $L23685

; 99   : 				this->_Myostr._Osfx();

  0001b	8b 06		 mov	 eax, DWORD PTR [esi]
  0001d	e8 00 00 00 00	 call	 ?_Osfx@?$basic_ostream@DU?$char_traits@D@std@@@std@@QAEXXZ ; std::basic_ostream<char,std::char_traits<char> >::_Osfx
$L23685:

; 100  : 			}

  00022	83 4d fc ff	 or	 DWORD PTR __$EHRec$[ebp+8], -1
  00026	8b c6		 mov	 eax, esi
  00028	e8 00 00 00 00	 call	 ??1_Sentry_base@?$basic_ostream@DU?$char_traits@D@std@@@std@@QAE@XZ ; std::basic_ostream<char,std::char_traits<char> >::_Sentry_base::~_Sentry_base
  0002d	8b 4d f4	 mov	 ecx, DWORD PTR __$EHRec$[ebp]
  00030	5e		 pop	 esi
  00031	64 89 0d 00 00
	00 00		 mov	 DWORD PTR fs:__except_list, ecx
  00038	c9		 leave
  00039	c2 04 00	 ret	 4
_TEXT	ENDS
;	COMDAT text$x
text$x	SEGMENT
$L53364:
  00000	8b 45 08	 mov	 eax, DWORD PTR _this$[ebp]
  00003	e9 00 00 00 00	 jmp	 ??1_Sentry_base@?$basic_ostream@DU?$char_traits@D@std@@@std@@QAE@XZ ; std::basic_ostream<char,std::char_traits<char> >::_Sentry_base::~_Sentry_base
__ehhandler$??1sentry@?$basic_ostream@DU?$char_traits@D@std@@@std@@QAE@XZ:
  00008	b8 00 00 00 00	 mov	 eax, OFFSET FLAT:$T53366
  0000d	e9 00 00 00 00	 jmp	 ___CxxFrameHandler
text$x	ENDS
??1sentry@?$basic_ostream@DU?$char_traits@D@std@@@std@@QAE@XZ ENDP ; std::basic_ostream<char,std::char_traits<char> >::sentry::~sentry
; Function compile flags: /Ogsy
; File c:\program files (x86)\microsoft visual studio .net 2003\vc7\include\xstring
;	COMDAT ?erase@?$basic_string@DU?$char_traits@D@std@@V?$allocator@D@2@@std@@QAEAAV12@II@Z
_TEXT	SEGMENT
__Off$ = 8						; size = 4
__Count$ = 12						; size = 4
?erase@?$basic_string@DU?$char_traits@D@std@@V?$allocator@D@2@@std@@QAEAAV12@II@Z PROC NEAR ; std::basic_string<char,std::char_traits<char>,std::allocator<char> >::erase, COMDAT
; _this$ = ecx

; 792  : 		{	// erase elements [_Off, _Off + _Count)

  00000	55		 push	 ebp
  00001	8b ec		 mov	 ebp, esp
  00003	56		 push	 esi
  00004	57		 push	 edi

; 793  : 		if (_Mysize < _Off)

  00005	8b 7d 08	 mov	 edi, DWORD PTR __Off$[ebp]
  00008	8b f1		 mov	 esi, ecx
  0000a	39 7e 14	 cmp	 DWORD PTR [esi+20], edi
  0000d	73 05		 jae	 SHORT $L23487

; 794  : 			_String_base::_Xran();	// _Off off end

  0000f	e8 00 00 00 00	 call	 ?_Xran@_String_base@std@@QBEXXZ ; std::_String_base::_Xran
$L23487:

; 795  : 		if (_Mysize - _Off < _Count)

  00014	8b 46 14	 mov	 eax, DWORD PTR [esi+20]
  00017	2b c7		 sub	 eax, edi
  00019	3b 45 0c	 cmp	 eax, DWORD PTR __Count$[ebp]
  0001c	73 03		 jae	 SHORT $L23488

; 796  : 			_Count = _Mysize - _Off;	// trim _Count

  0001e	89 45 0c	 mov	 DWORD PTR __Count$[ebp], eax
$L23488:

; 797  : 		if (0 < _Count)

  00021	83 7d 0c 00	 cmp	 DWORD PTR __Count$[ebp], 0
  00025	76 3d		 jbe	 SHORT $L23489
  00027	53		 push	 ebx

; 798  : 			{	// move elements down
; 799  : 			_Traits::move(_Myptr() + _Off, _Myptr() + _Off + _Count,
; 800  : 				_Mysize - _Off - _Count);

  00028	8b 5e 18	 mov	 ebx, DWORD PTR [esi+24]
  0002b	83 fb 10	 cmp	 ebx, 16			; 00000010H
  0002e	8d 4e 04	 lea	 ecx, DWORD PTR [esi+4]
  00031	72 04		 jb	 SHORT $L53377
  00033	8b 11		 mov	 edx, DWORD PTR [ecx]
  00035	eb 02		 jmp	 SHORT $L53378
$L53377:
  00037	8b d1		 mov	 edx, ecx
$L53378:
  00039	83 fb 10	 cmp	 ebx, 16			; 00000010H
  0003c	5b		 pop	 ebx
  0003d	72 02		 jb	 SHORT $L53385
  0003f	8b 09		 mov	 ecx, DWORD PTR [ecx]
$L53385:
  00041	2b 45 0c	 sub	 eax, DWORD PTR __Count$[ebp]

; 801  : 			size_type _Newsize = _Mysize - _Count;
; 802  : 			_Eos(_Newsize);
; 803  : 			}
; 804  : 		return (*this);

  00044	03 d7		 add	 edx, edi
  00046	03 55 0c	 add	 edx, DWORD PTR __Count$[ebp]
  00049	50		 push	 eax
  0004a	52		 push	 edx
  0004b	03 cf		 add	 ecx, edi
  0004d	51		 push	 ecx
  0004e	e8 00 00 00 00	 call	 _memmove
  00053	8b 46 14	 mov	 eax, DWORD PTR [esi+20]
  00056	2b 45 0c	 sub	 eax, DWORD PTR __Count$[ebp]
  00059	83 c4 0c	 add	 esp, 12			; 0000000cH
  0005c	50		 push	 eax
  0005d	8b ce		 mov	 ecx, esi
  0005f	e8 00 00 00 00	 call	 ?_Eos@?$basic_string@DU?$char_traits@D@std@@V?$allocator@D@2@@std@@IAEXI@Z ; std::basic_string<char,std::char_traits<char>,std::allocator<char> >::_Eos
$L23489:
  00064	5f		 pop	 edi
  00065	8b c6		 mov	 eax, esi
  00067	5e		 pop	 esi

; 805  : 		}

  00068	5d		 pop	 ebp
  00069	c2 08 00	 ret	 8
?erase@?$basic_string@DU?$char_traits@D@std@@V?$allocator@D@2@@std@@QAEAAV12@II@Z ENDP ; std::basic_string<char,std::char_traits<char>,std::allocator<char> >::erase
; Function compile flags: /Ogsy
_TEXT	ENDS
;	COMDAT ??A?$basic_string@DU?$char_traits@D@std@@V?$allocator@D@2@@std@@QAEAADI@Z
_TEXT	SEGMENT
??A?$basic_string@DU?$char_traits@D@std@@V?$allocator@D@2@@std@@QAEAADI@Z PROC NEAR ; std::basic_string<char,std::char_traits<char>,std::allocator<char> >::operator[], COMDAT
; _this$ = eax
; __Off$ = ecx

; 1079 : 		return (_Myptr()[_Off]);

  00000	83 78 18 10	 cmp	 DWORD PTR [eax+24], 16	; 00000010H
  00004	72 05		 jb	 SHORT $L53397
  00006	8b 40 04	 mov	 eax, DWORD PTR [eax+4]
  00009	eb 03		 jmp	 SHORT $L53398
$L53397:
  0000b	83 c0 04	 add	 eax, 4
$L53398:
  0000e	03 c1		 add	 eax, ecx

; 1080 : 		}

  00010	c3		 ret	 0
??A?$basic_string@DU?$char_traits@D@std@@V?$allocator@D@2@@std@@QAEAADI@Z ENDP ; std::basic_string<char,std::char_traits<char>,std::allocator<char> >::operator[]
; Function compile flags: /Ogsy
_TEXT	ENDS
;	COMDAT ?_Tidy@?$basic_string@DU?$char_traits@D@std@@V?$allocator@D@2@@std@@IAEX_NI@Z
_TEXT	SEGMENT
__Built$ = 8						; size = 1
__Newsize$ = 12						; size = 4
?_Tidy@?$basic_string@DU?$char_traits@D@std@@V?$allocator@D@2@@std@@IAEX_NI@Z PROC NEAR ; std::basic_string<char,std::char_traits<char>,std::allocator<char> >::_Tidy, COMDAT
; _this$ = ecx

; 1510 : 		if (!_Built)

  00000	80 7c 24 04 00	 cmp	 BYTE PTR __Built$[esp-4], 0
  00005	56		 push	 esi
  00006	8b f1		 mov	 esi, ecx
  00008	74 29		 je	 SHORT $L53405

; 1511 : 			;
; 1512 : 		else if (_BUF_SIZE <= _Myres)

  0000a	83 7e 18 10	 cmp	 DWORD PTR [esi+24], 16	; 00000010H
  0000e	72 23		 jb	 SHORT $L53405

; 1513 : 			{	// copy any leftovers to small buffer and deallocate
; 1514 : 			_Elem *_Ptr = _Bx._Ptr;
; 1515 : 			if (0 < _Newsize)

  00010	83 7c 24 0c 00	 cmp	 DWORD PTR __Newsize$[esp], 0
  00015	8d 46 04	 lea	 eax, DWORD PTR [esi+4]
  00018	57		 push	 edi
  00019	8b 38		 mov	 edi, DWORD PTR [eax]
  0001b	76 0e		 jbe	 SHORT $L23503

; 1516 : 				_Traits::copy(_Bx._Buf, _Ptr, _Newsize);

  0001d	ff 74 24 10	 push	 DWORD PTR __Newsize$[esp+4]
  00021	57		 push	 edi
  00022	50		 push	 eax
  00023	e8 00 00 00 00	 call	 ?copy@?$char_traits@D@std@@SAPADPADPBDI@Z ; std::char_traits<char>::copy
  00028	83 c4 0c	 add	 esp, 12			; 0000000cH
$L23503:

; 1517 : 			_Mybase::_Alval.deallocate(_Ptr, _Myres + 1);

  0002b	57		 push	 edi
  0002c	e8 00 00 00 00	 call	 ??3@YAXPAX@Z		; operator delete
  00031	59		 pop	 ecx
  00032	5f		 pop	 edi
$L53405:

; 1518 : 			}
; 1519 : 		_Myres = _BUF_SIZE - 1;
; 1520 : 		_Eos(_Newsize);

  00033	ff 74 24 0c	 push	 DWORD PTR __Newsize$[esp]
  00037	8b ce		 mov	 ecx, esi
  00039	c7 46 18 0f 00
	00 00		 mov	 DWORD PTR [esi+24], 15	; 0000000fH
  00040	e8 00 00 00 00	 call	 ?_Eos@?$basic_string@DU?$char_traits@D@std@@V?$allocator@D@2@@std@@IAEXI@Z ; std::basic_string<char,std::char_traits<char>,std::allocator<char> >::_Eos
  00045	5e		 pop	 esi

; 1521 : 		}

  00046	c2 08 00	 ret	 8
?_Tidy@?$basic_string@DU?$char_traits@D@std@@V?$allocator@D@2@@std@@IAEX_NI@Z ENDP ; std::basic_string<char,std::char_traits<char>,std::allocator<char> >::_Tidy
; Function compile flags: /Ogsy
_TEXT	ENDS
;	COMDAT ?_Inside@?$basic_string@DU?$char_traits@D@std@@V?$allocator@D@2@@std@@IAE_NPBD@Z
_TEXT	SEGMENT
__Ptr$ = 8						; size = 4
?_Inside@?$basic_string@DU?$char_traits@D@std@@V?$allocator@D@2@@std@@IAE_NPBD@Z PROC NEAR ; std::basic_string<char,std::char_traits<char>,std::allocator<char> >::_Inside, COMDAT
; _this$ = ecx

; 1494 : 		{	// test if _Ptr points inside string

  00000	56		 push	 esi

; 1495 : 		if (_Ptr < _Myptr() || _Myptr() + _Mysize <= _Ptr)

  00001	8b 71 18	 mov	 esi, DWORD PTR [ecx+24]
  00004	83 fe 10	 cmp	 esi, 16			; 00000010H
  00007	8d 41 04	 lea	 eax, DWORD PTR [ecx+4]
  0000a	72 04		 jb	 SHORT $L53414
  0000c	8b 10		 mov	 edx, DWORD PTR [eax]
  0000e	eb 02		 jmp	 SHORT $L53415
$L53414:
  00010	8b d0		 mov	 edx, eax
$L53415:
  00012	39 54 24 08	 cmp	 DWORD PTR __Ptr$[esp], edx
  00016	72 16		 jb	 SHORT $L23793
  00018	83 fe 10	 cmp	 esi, 16			; 00000010H
  0001b	72 02		 jb	 SHORT $L53422
  0001d	8b 00		 mov	 eax, DWORD PTR [eax]
$L53422:
  0001f	8b 49 14	 mov	 ecx, DWORD PTR [ecx+20]
  00022	03 c8		 add	 ecx, eax
  00024	3b 4c 24 08	 cmp	 ecx, DWORD PTR __Ptr$[esp]
  00028	76 04		 jbe	 SHORT $L23793

; 1497 : 		else
; 1498 : 			return (true);

  0002a	b0 01		 mov	 al, 1
  0002c	eb 02		 jmp	 SHORT $L23794
$L23793:

; 1496 : 			return (false);	// don't ask

  0002e	32 c0		 xor	 al, al
$L23794:
  00030	5e		 pop	 esi

; 1499 : 		}

  00031	c2 04 00	 ret	 4
?_Inside@?$basic_string@DU?$char_traits@D@std@@V?$allocator@D@2@@std@@IAE_NPBD@Z ENDP ; std::basic_string<char,std::char_traits<char>,std::allocator<char> >::_Inside
_TEXT	ENDS
;	COMDAT xdata$x
xdata$x	SEGMENT
$T53501	DD	0ffffffffH
	DD	00H
	DD	0ffffffffH
	DD	00H
	DD	01H
	DD	00H
	DD	01H
	DD	00H
$T53503	DD	00H
	DD	00H
	DD	00H
	DD	FLAT:$L53430
$T53504	DD	00H
	DD	00H
	DD	00H
	DD	FLAT:$L53428
$T53502	DD	02H
	DD	02H
	DD	03H
	DD	01H
	DD	FLAT:$T53503
	DD	00H
	DD	00H
	DD	03H
	DD	01H
	DD	FLAT:$T53504
$T53497	DD	019930520H
	DD	04H
	DD	FLAT:$T53501
	DD	02H
	DD	FLAT:$T53502
	DD	2 DUP(00H)
; Function compile flags: /Ogsy
xdata$x	ENDS
;	COMDAT ?_Copy@?$basic_string@DU?$char_traits@D@std@@V?$allocator@D@2@@std@@IAEXII@Z
_TEXT	SEGMENT
_this$ = -24						; size = 4
tv200 = -20						; size = 4
__Ptr$ = -20						; size = 4
__$EHRec$ = -16						; size = 16
__Newres$ = 8						; size = 4
__Newsize$ = 8						; size = 4
__Oldlen$ = 12						; size = 4
?_Copy@?$basic_string@DU?$char_traits@D@std@@V?$allocator@D@2@@std@@IAEXII@Z PROC NEAR ; std::basic_string<char,std::char_traits<char>,std::allocator<char> >::_Copy, COMDAT
; _this$ = ecx

; 1444 : 		{	// copy _Oldlen elements to newly allocated buffer

  00000	b8 00 00 00 00	 mov	 eax, __ehhandler$?_Copy@?$basic_string@DU?$char_traits@D@std@@V?$allocator@D@2@@std@@IAEXII@Z
  00005	e8 00 00 00 00	 call	 __EH_prolog
  0000a	83 ec 0c	 sub	 esp, 12			; 0000000cH
  0000d	53		 push	 ebx
  0000e	56		 push	 esi

; 1445 : 		size_type _Newres = _Newsize | _ALLOC_MASK;

  0000f	8b 75 08	 mov	 esi, DWORD PTR __Newsize$[ebp]
  00012	57		 push	 edi
  00013	83 ce 0f	 or	 esi, 15			; 0000000fH

; 1446 : 		if (max_size() < _Newres)

  00016	83 fe fe	 cmp	 esi, -2			; fffffffeH
  00019	8b f9		 mov	 edi, ecx
  0001b	89 65 f0	 mov	 DWORD PTR __$EHRec$[ebp], esp
  0001e	89 7d e8	 mov	 DWORD PTR _this$[ebp], edi
  00021	76 05		 jbe	 SHORT $L23783

; 1447 : 			_Newres = _Newsize;	// undo roundup if too big

  00023	8b 75 08	 mov	 esi, DWORD PTR __Newsize$[ebp]

; 1448 : 		else if (_Newres / 3 < _Myres / 2

  00026	eb 25		 jmp	 SHORT $L23785
$L23783:

; 1449 : 			&& _Myres <= max_size() - _Myres / 2)

  00028	33 d2		 xor	 edx, edx
  0002a	6a 03		 push	 3
  0002c	8b c6		 mov	 eax, esi
  0002e	5b		 pop	 ebx
  0002f	f7 f3		 div	 ebx
  00031	8b 4f 18	 mov	 ecx, DWORD PTR [edi+24]
  00034	89 4d ec	 mov	 DWORD PTR tv200[ebp], ecx
  00037	d1 6d ec	 shr	 DWORD PTR tv200[ebp], 1
  0003a	8b 55 ec	 mov	 edx, DWORD PTR tv200[ebp]
  0003d	3b c2		 cmp	 eax, edx
  0003f	73 0c		 jae	 SHORT $L23785
  00041	6a fe		 push	 -2			; fffffffeH
  00043	58		 pop	 eax
  00044	2b c2		 sub	 eax, edx
  00046	3b c8		 cmp	 ecx, eax
  00048	77 03		 ja	 SHORT $L23785

; 1450 : 			_Newres = _Myres + _Myres / 2;	// grow exponentially if possible

  0004a	8d 34 0a	 lea	 esi, DWORD PTR [edx+ecx]
$L23785:

; 1451 : 		_Elem *_Ptr;
; 1452 : 
; 1453 : 		_TRY_BEGIN

  0004d	83 65 fc 00	 and	 DWORD PTR __$EHRec$[ebp+12], 0

; 1454 : 			_Ptr = _Mybase::_Alval.allocate(_Newres + 1);

  00051	8d 46 01	 lea	 eax, DWORD PTR [esi+1]
  00054	50		 push	 eax
  00055	e8 00 00 00 00	 call	 ??2@YAPAXI@Z		; operator new
  0005a	59		 pop	 ecx
  0005b	8b d8		 mov	 ebx, eax
  0005d	eb 27		 jmp	 SHORT $L23787
$L53428:

; 1455 : 		_CATCH_ALL
; 1456 : 			_Newres = _Newsize;	// allocation failed, undo roundup and retry

  0005f	8b 45 08	 mov	 eax, DWORD PTR __Newsize$[ebp]
  00062	89 45 08	 mov	 DWORD PTR __Newres$[ebp], eax

; 1457 : 			_TRY_BEGIN
; 1458 : 				_Ptr = _Mybase::_Alval.allocate(_Newres + 1);

  00065	40		 inc	 eax
  00066	89 65 f0	 mov	 DWORD PTR __$EHRec$[ebp], esp
  00069	50		 push	 eax
  0006a	c6 45 fc 02	 mov	 BYTE PTR __$EHRec$[ebp+12], 2
  0006e	e8 00 00 00 00	 call	 ??2@YAPAXI@Z		; operator new
  00073	89 45 ec	 mov	 DWORD PTR __Ptr$[ebp], eax
  00076	59		 pop	 ecx

; 1462 : 			_CATCH_END
; 1463 : 		_CATCH_END

  00077	b8 00 00 00 00	 mov	 eax, $L53498
  0007c	c3		 ret	 0
$L53498:
  0007d	8b 7d e8	 mov	 edi, DWORD PTR _this$[ebp]
  00080	8b 75 08	 mov	 esi, DWORD PTR __Newres$[ebp]
  00083	8b 5d ec	 mov	 ebx, DWORD PTR __Ptr$[ebp]
$L23787:

; 1464 : 
; 1465 : 		if (0 < _Oldlen)

  00086	83 7d 0c 00	 cmp	 DWORD PTR __Oldlen$[ebp], 0
  0008a	76 1b		 jbe	 SHORT $L23789

; 1466 : 			_Traits::copy(_Ptr, _Myptr(), _Oldlen);	// copy existing elements

  0008c	83 7f 18 10	 cmp	 DWORD PTR [edi+24], 16	; 00000010H
  00090	72 05		 jb	 SHORT $L53494
  00092	8b 47 04	 mov	 eax, DWORD PTR [edi+4]
  00095	eb 03		 jmp	 SHORT $L53495
$L53494:
  00097	8d 47 04	 lea	 eax, DWORD PTR [edi+4]
$L53495:
  0009a	ff 75 0c	 push	 DWORD PTR __Oldlen$[ebp]
  0009d	50		 push	 eax
  0009e	53		 push	 ebx
  0009f	e8 00 00 00 00	 call	 ?copy@?$char_traits@D@std@@SAPADPADPBDI@Z ; std::char_traits<char>::copy
  000a4	83 c4 0c	 add	 esp, 12			; 0000000cH
$L23789:

; 1467 : 		_Tidy(true);

  000a7	6a 00		 push	 0
  000a9	6a 01		 push	 1
  000ab	8b cf		 mov	 ecx, edi
  000ad	e8 00 00 00 00	 call	 ?_Tidy@?$basic_string@DU?$char_traits@D@std@@V?$allocator@D@2@@std@@IAEX_NI@Z ; std::basic_string<char,std::char_traits<char>,std::allocator<char> >::_Tidy

; 1468 : 		_Bx._Ptr = _Ptr;
; 1469 : 		_Myres = _Newres;
; 1470 : 		_Eos(_Oldlen);

  000b2	ff 75 0c	 push	 DWORD PTR __Oldlen$[ebp]
  000b5	8b cf		 mov	 ecx, edi
  000b7	89 5f 04	 mov	 DWORD PTR [edi+4], ebx
  000ba	89 77 18	 mov	 DWORD PTR [edi+24], esi
  000bd	e8 00 00 00 00	 call	 ?_Eos@?$basic_string@DU?$char_traits@D@std@@V?$allocator@D@2@@std@@IAEXI@Z ; std::basic_string<char,std::char_traits<char>,std::allocator<char> >::_Eos

; 1471 : 		}

  000c2	8b 4d f4	 mov	 ecx, DWORD PTR __$EHRec$[ebp+4]
  000c5	5f		 pop	 edi
  000c6	5e		 pop	 esi
  000c7	64 89 0d 00 00
	00 00		 mov	 DWORD PTR fs:__except_list, ecx
  000ce	5b		 pop	 ebx
  000cf	c9		 leave
  000d0	c2 08 00	 ret	 8
$L53430:

; 1459 : 			_CATCH_ALL
; 1460 : 			_Tidy(true);	// failed again, discard storage and reraise

  000d3	8b 4d e8	 mov	 ecx, DWORD PTR _this$[ebp]
  000d6	33 f6		 xor	 esi, esi
  000d8	56		 push	 esi
  000d9	6a 01		 push	 1
  000db	e8 00 00 00 00	 call	 ?_Tidy@?$basic_string@DU?$char_traits@D@std@@V?$allocator@D@2@@std@@IAEX_NI@Z ; std::basic_string<char,std::char_traits<char>,std::allocator<char> >::_Tidy

; 1461 : 			_RERAISE;

  000e0	56		 push	 esi
  000e1	56		 push	 esi
  000e2	e8 00 00 00 00	 call	 __CxxThrowException@8
$L53505:
$L53500:
  000e7	cc		 int	 3
_TEXT	ENDS
;	COMDAT text$x
text$x	SEGMENT
__ehhandler$?_Copy@?$basic_string@DU?$char_traits@D@std@@V?$allocator@D@2@@std@@IAEXII@Z:
  00000	b8 00 00 00 00	 mov	 eax, OFFSET FLAT:$T53497
  00005	e9 00 00 00 00	 jmp	 ___CxxFrameHandler
text$x	ENDS
?_Copy@?$basic_string@DU?$char_traits@D@std@@V?$allocator@D@2@@std@@IAEXII@Z ENDP ; std::basic_string<char,std::char_traits<char>,std::allocator<char> >::_Copy
; Function compile flags: /Ogsy
;	COMDAT ?_Grow@?$basic_string@DU?$char_traits@D@std@@V?$allocator@D@2@@std@@IAE_NI_N@Z
_TEXT	SEGMENT
__Newsize$ = 8						; size = 4
__Trim$ = 12						; size = 1
?_Grow@?$basic_string@DU?$char_traits@D@std@@V?$allocator@D@2@@std@@IAE_NI_N@Z PROC NEAR ; std::basic_string<char,std::char_traits<char>,std::allocator<char> >::_Grow, COMDAT
; _this$ = ecx

; 1480 : 		{	// ensure buffer is big enough, trim to size if _Trim is true

  00000	56		 push	 esi
  00001	57		 push	 edi

; 1481 : 		if (max_size() < _Newsize)

  00002	8b 7c 24 0c	 mov	 edi, DWORD PTR __Newsize$[esp+4]
  00006	83 ff fe	 cmp	 edi, -2			; fffffffeH
  00009	8b f1		 mov	 esi, ecx
  0000b	76 05		 jbe	 SHORT $L23728

; 1482 : 			_String_base::_Xlen();	// result too long

  0000d	e8 00 00 00 00	 call	 ?_Xlen@_String_base@std@@QBEXXZ ; std::_String_base::_Xlen
$L23728:

; 1483 : 		if (_Myres < _Newsize)

  00012	39 7e 18	 cmp	 DWORD PTR [esi+24], edi
  00015	73 0d		 jae	 SHORT $L23729

; 1484 : 			_Copy(_Newsize, _Mysize);	// reallocate to grow

  00017	ff 76 14	 push	 DWORD PTR [esi+20]
  0001a	8b ce		 mov	 ecx, esi
  0001c	57		 push	 edi
  0001d	e8 00 00 00 00	 call	 ?_Copy@?$basic_string@DU?$char_traits@D@std@@V?$allocator@D@2@@std@@IAEXII@Z ; std::basic_string<char,std::char_traits<char>,std::allocator<char> >::_Copy

; 1485 : 		else if (_Trim && _Newsize < _BUF_SIZE)

  00022	eb 2d		 jmp	 SHORT $L23733
$L23729:
  00024	80 7c 24 10 00	 cmp	 BYTE PTR __Trim$[esp+4], 0
  00029	74 1a		 je	 SHORT $L23731
  0002b	83 ff 10	 cmp	 edi, 16			; 00000010H
  0002e	73 15		 jae	 SHORT $L23731

; 1486 : 			_Tidy(true,	// copy and deallocate if trimming to small string
; 1487 : 				_Newsize < _Mysize ? _Newsize : _Mysize);

  00030	8b 46 14	 mov	 eax, DWORD PTR [esi+20]
  00033	3b f8		 cmp	 edi, eax
  00035	73 02		 jae	 SHORT $L53511
  00037	8b c7		 mov	 eax, edi
$L53511:
  00039	50		 push	 eax
  0003a	6a 01		 push	 1
  0003c	8b ce		 mov	 ecx, esi
  0003e	e8 00 00 00 00	 call	 ?_Tidy@?$basic_string@DU?$char_traits@D@std@@V?$allocator@D@2@@std@@IAEX_NI@Z ; std::basic_string<char,std::char_traits<char>,std::allocator<char> >::_Tidy

; 1488 : 		else if (_Newsize == 0)

  00043	eb 0c		 jmp	 SHORT $L23733
$L23731:
  00045	85 ff		 test	 edi, edi
  00047	75 08		 jne	 SHORT $L23733

; 1489 : 			_Eos(0);	// new size is zero, just null terminate

  00049	57		 push	 edi
  0004a	8b ce		 mov	 ecx, esi
  0004c	e8 00 00 00 00	 call	 ?_Eos@?$basic_string@DU?$char_traits@D@std@@V?$allocator@D@2@@std@@IAEXI@Z ; std::basic_string<char,std::char_traits<char>,std::allocator<char> >::_Eos
$L23733:

; 1490 : 		return (0 < _Newsize);	// return true only if more work to do

  00051	33 c0		 xor	 eax, eax
  00053	3b c7		 cmp	 eax, edi
  00055	1b c0		 sbb	 eax, eax
  00057	5f		 pop	 edi
  00058	f7 d8		 neg	 eax
  0005a	5e		 pop	 esi

; 1491 : 		}

  0005b	c2 08 00	 ret	 8
?_Grow@?$basic_string@DU?$char_traits@D@std@@V?$allocator@D@2@@std@@IAE_NI_N@Z ENDP ; std::basic_string<char,std::char_traits<char>,std::allocator<char> >::_Grow
_TEXT	ENDS
;	COMDAT xdata$x
; File c:\program files (x86)\microsoft visual studio .net 2003\vc7\include\xlocale
xdata$x	SEGMENT
$T53589	DD	0ffffffffH
	DD	00H
	DD	0ffffffffH
	DD	00H
$T53591	DD	00H
	DD	00H
	DD	00H
	DD	FLAT:$L53542
$T53590	DD	00H
	DD	00H
	DD	01H
	DD	01H
	DD	FLAT:$T53591
$T53586	DD	019930520H
	DD	02H
	DD	FLAT:$T53589
	DD	01H
	DD	FLAT:$T53590
	DD	2 DUP(00H)
; Function compile flags: /Ogsy
; File c:\program files (x86)\microsoft visual studio .net 2003\vc7\include\xlocnum
xdata$x	ENDS
;	COMDAT ?_Init@?$numpunct@D@std@@IAEXABV_Locinfo@2@@Z
_TEXT	SEGMENT
$T53538 = -24						; size = 8
$T53537 = -24						; size = 8
$T53536 = -24						; size = 8
_this$ = -20						; size = 4
__$EHRec$ = -16						; size = 16
__Lobj$ = 8						; size = 4
?_Init@?$numpunct@D@std@@IAEXABV_Locinfo@2@@Z PROC NEAR	; std::numpunct<char>::_Init, COMDAT
; _this$ = ecx

; 89   : 		{	// initialize from _Lobj

  00000	b8 00 00 00 00	 mov	 eax, __ehhandler$?_Init@?$numpunct@D@std@@IAEXABV_Locinfo@2@@Z
  00005	e8 00 00 00 00	 call	 __EH_prolog
  0000a	83 ec 0c	 sub	 esp, 12			; 0000000cH
  0000d	53		 push	 ebx
  0000e	56		 push	 esi
  0000f	57		 push	 edi
  00010	8b f1		 mov	 esi, ecx
  00012	89 65 f0	 mov	 DWORD PTR __$EHRec$[ebp], esp
  00015	89 75 ec	 mov	 DWORD PTR _this$[ebp], esi

; 90   : 		const lconv *_Ptr = _Lobj._Getlconv();

  00018	e8 00 00 00 00	 call	 _localeconv

; 91   : 
; 92   : 		_Grouping = 0;

  0001d	33 ff		 xor	 edi, edi
  0001f	8b d8		 mov	 ebx, eax
  00021	89 7e 08	 mov	 DWORD PTR [esi+8], edi

; 93   : 		_Falsename = 0;

  00024	89 7e 10	 mov	 DWORD PTR [esi+16], edi

; 94   : 		_Truename = 0;

  00027	89 7e 14	 mov	 DWORD PTR [esi+20], edi

; 95   : 
; 96   : 		_TRY_BEGIN

  0002a	89 7d fc	 mov	 DWORD PTR __$EHRec$[ebp+12], edi

; 97   : 		_Grouping = _MAKLOCSTR(char, _Ptr->grouping, _Lobj._Getcvt());

  0002d	e8 00 00 00 00	 call	 __Getcvt
  00032	8d 45 e8	 lea	 eax, DWORD PTR $T53536[ebp]
  00035	50		 push	 eax
  00036	57		 push	 edi
  00037	ff 73 08	 push	 DWORD PTR [ebx+8]
  0003a	e8 00 00 00 00	 call	 ??$_Maklocstr@D@std@@YAPADPBDPADABU_Cvtvec@@@Z ; std::_Maklocstr<char>
  0003f	83 c4 0c	 add	 esp, 12			; 0000000cH
  00042	89 46 08	 mov	 DWORD PTR [esi+8], eax

; 98   : 		_Falsename = _MAKLOCSTR(_Elem, _Lobj._Getfalse(), _Lobj._Getcvt());

  00045	e8 00 00 00 00	 call	 __Getcvt
  0004a	8d 45 e8	 lea	 eax, DWORD PTR $T53537[ebp]
  0004d	50		 push	 eax
  0004e	57		 push	 edi
  0004f	68 00 00 00 00	 push	 OFFSET FLAT:??_C@_05LAPONLG@false?$AA@
  00054	e8 00 00 00 00	 call	 ??$_Maklocstr@D@std@@YAPADPBDPADABU_Cvtvec@@@Z ; std::_Maklocstr<char>
  00059	83 c4 0c	 add	 esp, 12			; 0000000cH
  0005c	89 46 10	 mov	 DWORD PTR [esi+16], eax

; 99   : 		_Truename = _MAKLOCSTR(_Elem, _Lobj._Gettrue(), _Lobj._Getcvt());

  0005f	e8 00 00 00 00	 call	 __Getcvt
  00064	8d 45 e8	 lea	 eax, DWORD PTR $T53538[ebp]
  00067	50		 push	 eax
  00068	57		 push	 edi
  00069	68 00 00 00 00	 push	 OFFSET FLAT:??_C@_04LOAJBDKD@true?$AA@
  0006e	e8 00 00 00 00	 call	 ??$_Maklocstr@D@std@@YAPADPBDPADABU_Cvtvec@@@Z ; std::_Maklocstr<char>
  00073	83 c4 0c	 add	 esp, 12			; 0000000cH
  00076	89 46 14	 mov	 DWORD PTR [esi+20], eax

; 103  : 		_CATCH_END
; 104  : 
; 105  : 		_Dp = _MAKLOCCHR(_Elem, _Ptr->decimal_point[0], _Lobj._Getcvt());

  00079	e8 00 00 00 00	 call	 __Getcvt
  0007e	8b 03		 mov	 eax, DWORD PTR [ebx]
  00080	8a 00		 mov	 al, BYTE PTR [eax]
  00082	88 46 0c	 mov	 BYTE PTR [esi+12], al

; 106  : 		_Kseparator =
; 107  : 			_MAKLOCCHR(_Elem, _Ptr->thousands_sep[0], _Lobj._Getcvt());

  00085	e8 00 00 00 00	 call	 __Getcvt
  0008a	8b 43 04	 mov	 eax, DWORD PTR [ebx+4]
  0008d	8a 00		 mov	 al, BYTE PTR [eax]

; 108  : 		}

  0008f	8b 4d f4	 mov	 ecx, DWORD PTR __$EHRec$[ebp+4]
  00092	5f		 pop	 edi
  00093	88 46 0d	 mov	 BYTE PTR [esi+13], al
  00096	5e		 pop	 esi
  00097	64 89 0d 00 00
	00 00		 mov	 DWORD PTR fs:__except_list, ecx
  0009e	5b		 pop	 ebx
  0009f	c9		 leave
  000a0	c2 04 00	 ret	 4
$L53542:

; 100  : 		_CATCH_ALL
; 101  : 		_Tidy();

  000a3	8b 4d ec	 mov	 ecx, DWORD PTR _this$[ebp]
  000a6	e8 00 00 00 00	 call	 ?_Tidy@?$numpunct@D@std@@AAEXXZ ; std::numpunct<char>::_Tidy

; 102  : 		_RERAISE;

  000ab	33 ff		 xor	 edi, edi
  000ad	57		 push	 edi
  000ae	57		 push	 edi
  000af	e8 00 00 00 00	 call	 __CxxThrowException@8
$L53592:
$L53588:
  000b4	cc		 int	 3
_TEXT	ENDS
;	COMDAT text$x
text$x	SEGMENT
__ehhandler$?_Init@?$numpunct@D@std@@IAEXABV_Locinfo@2@@Z:
  00000	b8 00 00 00 00	 mov	 eax, OFFSET FLAT:$T53586
  00005	e9 00 00 00 00	 jmp	 ___CxxFrameHandler
text$x	ENDS
?_Init@?$numpunct@D@std@@IAEXABV_Locinfo@2@@Z ENDP	; std::numpunct<char>::_Init
;	COMDAT xdata$x
; File c:\program files (x86)\microsoft visual studio .net 2003\vc7\include\xlocinfo
xdata$x	SEGMENT
$T53642	DD	0ffffffffH
	DD	00H
	DD	0ffffffffH
	DD	00H
$T53644	DD	00H
	DD	00H
	DD	00H
	DD	FLAT:$L53603
$T53643	DD	00H
	DD	00H
	DD	01H
	DD	01H
	DD	FLAT:$T53644
$T53639	DD	019930520H
	DD	02H
	DD	FLAT:$T53642
	DD	01H
	DD	FLAT:$T53643
	DD	2 DUP(00H)
; Function compile flags: /Ogsy
; File c:\program files (x86)\microsoft visual studio .net 2003\vc7\include\xlocnum
xdata$x	ENDS
;	COMDAT ?_Init@?$numpunct@G@std@@IAEXABV_Locinfo@2@@Z
_TEXT	SEGMENT
$T53601 = -36						; size = 8
$T53597 = -36						; size = 8
$T53600 = -28						; size = 8
$T53599 = -28						; size = 8
$T53598 = -28						; size = 8
_this$ = -20						; size = 4
__$EHRec$ = -16						; size = 16
__Lobj$ = 8						; size = 4
?_Init@?$numpunct@G@std@@IAEXABV_Locinfo@2@@Z PROC NEAR	; std::numpunct<unsigned short>::_Init, COMDAT
; _this$ = ecx

; 89   : 		{	// initialize from _Lobj

  00000	b8 00 00 00 00	 mov	 eax, __ehhandler$?_Init@?$numpunct@G@std@@IAEXABV_Locinfo@2@@Z
  00005	e8 00 00 00 00	 call	 __EH_prolog
  0000a	83 ec 18	 sub	 esp, 24			; 00000018H
  0000d	53		 push	 ebx
  0000e	56		 push	 esi
  0000f	57		 push	 edi
  00010	8b f1		 mov	 esi, ecx
  00012	89 65 f0	 mov	 DWORD PTR __$EHRec$[ebp], esp
  00015	89 75 ec	 mov	 DWORD PTR _this$[ebp], esi

; 90   : 		const lconv *_Ptr = _Lobj._Getlconv();

  00018	e8 00 00 00 00	 call	 _localeconv

; 91   : 
; 92   : 		_Grouping = 0;

  0001d	33 db		 xor	 ebx, ebx
  0001f	8b f8		 mov	 edi, eax
  00021	89 5e 08	 mov	 DWORD PTR [esi+8], ebx

; 93   : 		_Falsename = 0;

  00024	89 5e 10	 mov	 DWORD PTR [esi+16], ebx

; 94   : 		_Truename = 0;

  00027	89 5e 14	 mov	 DWORD PTR [esi+20], ebx

; 95   : 
; 96   : 		_TRY_BEGIN

  0002a	89 5d fc	 mov	 DWORD PTR __$EHRec$[ebp+12], ebx

; 97   : 		_Grouping = _MAKLOCSTR(char, _Ptr->grouping, _Lobj._Getcvt());

  0002d	e8 00 00 00 00	 call	 __Getcvt
  00032	8d 45 dc	 lea	 eax, DWORD PTR $T53597[ebp]
  00035	50		 push	 eax
  00036	53		 push	 ebx
  00037	ff 77 08	 push	 DWORD PTR [edi+8]
  0003a	e8 00 00 00 00	 call	 ??$_Maklocstr@D@std@@YAPADPBDPADABU_Cvtvec@@@Z ; std::_Maklocstr<char>
  0003f	83 c4 0c	 add	 esp, 12			; 0000000cH
  00042	89 46 08	 mov	 DWORD PTR [esi+8], eax

; 98   : 		_Falsename = _MAKLOCSTR(_Elem, _Lobj._Getfalse(), _Lobj._Getcvt());

  00045	e8 00 00 00 00	 call	 __Getcvt
  0004a	89 45 e4	 mov	 DWORD PTR $T53598[ebp], eax
  0004d	8d 45 e4	 lea	 eax, DWORD PTR $T53598[ebp]
  00050	50		 push	 eax
  00051	53		 push	 ebx
  00052	68 00 00 00 00	 push	 OFFSET FLAT:??_C@_05LAPONLG@false?$AA@
  00057	89 55 e8	 mov	 DWORD PTR $T53598[ebp+4], edx
  0005a	e8 00 00 00 00	 call	 ??$_Maklocstr@G@std@@YAPAGPBDPAGABU_Cvtvec@@@Z ; std::_Maklocstr<unsigned short>
  0005f	83 c4 0c	 add	 esp, 12			; 0000000cH
  00062	89 46 10	 mov	 DWORD PTR [esi+16], eax

; 99   : 		_Truename = _MAKLOCSTR(_Elem, _Lobj._Gettrue(), _Lobj._Getcvt());

  00065	e8 00 00 00 00	 call	 __Getcvt
  0006a	89 45 e4	 mov	 DWORD PTR $T53599[ebp], eax
  0006d	8d 45 e4	 lea	 eax, DWORD PTR $T53599[ebp]
  00070	50		 push	 eax
  00071	53		 push	 ebx
  00072	68 00 00 00 00	 push	 OFFSET FLAT:??_C@_04LOAJBDKD@true?$AA@
  00077	89 55 e8	 mov	 DWORD PTR $T53599[ebp+4], edx
  0007a	e8 00 00 00 00	 call	 ??$_Maklocstr@G@std@@YAPAGPBDPAGABU_Cvtvec@@@Z ; std::_Maklocstr<unsigned short>
  0007f	83 c4 0c	 add	 esp, 12			; 0000000cH
  00082	89 46 14	 mov	 DWORD PTR [esi+20], eax

; 103  : 		_CATCH_END
; 104  : 
; 105  : 		_Dp = _MAKLOCCHR(_Elem, _Ptr->decimal_point[0], _Lobj._Getcvt());

  00085	e8 00 00 00 00	 call	 __Getcvt
  0008a	89 45 e4	 mov	 DWORD PTR $T53600[ebp], eax
  0008d	8d 45 e4	 lea	 eax, DWORD PTR $T53600[ebp]
  00090	50		 push	 eax
  00091	8b 07		 mov	 eax, DWORD PTR [edi]
  00093	89 55 e8	 mov	 DWORD PTR $T53600[ebp+4], edx
  00096	0f be 00	 movsx	 eax, BYTE PTR [eax]
  00099	53		 push	 ebx
  0009a	50		 push	 eax
  0009b	e8 00 00 00 00	 call	 ??$_Maklocchr@G@std@@YAGDPAGABU_Cvtvec@@@Z ; std::_Maklocchr<unsigned short>
  000a0	66 89 46 0c	 mov	 WORD PTR [esi+12], ax

; 106  : 		_Kseparator =
; 107  : 			_MAKLOCCHR(_Elem, _Ptr->thousands_sep[0], _Lobj._Getcvt());

  000a4	e8 00 00 00 00	 call	 __Getcvt
  000a9	89 45 dc	 mov	 DWORD PTR $T53601[ebp], eax
  000ac	8d 45 dc	 lea	 eax, DWORD PTR $T53601[ebp]
  000af	50		 push	 eax
  000b0	8b 47 04	 mov	 eax, DWORD PTR [edi+4]
  000b3	89 55 e0	 mov	 DWORD PTR $T53601[ebp+4], edx
  000b6	0f be 00	 movsx	 eax, BYTE PTR [eax]
  000b9	53		 push	 ebx
  000ba	50		 push	 eax
  000bb	e8 00 00 00 00	 call	 ??$_Maklocchr@G@std@@YAGDPAGABU_Cvtvec@@@Z ; std::_Maklocchr<unsigned short>

; 108  : 		}

  000c0	8b 4d f4	 mov	 ecx, DWORD PTR __$EHRec$[ebp+4]
  000c3	83 c4 18	 add	 esp, 24			; 00000018H
  000c6	5f		 pop	 edi
  000c7	66 89 46 0e	 mov	 WORD PTR [esi+14], ax
  000cb	5e		 pop	 esi
  000cc	64 89 0d 00 00
	00 00		 mov	 DWORD PTR fs:__except_list, ecx
  000d3	5b		 pop	 ebx
  000d4	c9		 leave
  000d5	c2 04 00	 ret	 4
$L53603:

; 100  : 		_CATCH_ALL
; 101  : 		_Tidy();

  000d8	8b 4d ec	 mov	 ecx, DWORD PTR _this$[ebp]
  000db	e8 00 00 00 00	 call	 ?_Tidy@?$numpunct@G@std@@AAEXXZ ; std::numpunct<unsigned short>::_Tidy

; 102  : 		_RERAISE;

  000e0	33 db		 xor	 ebx, ebx
  000e2	53		 push	 ebx
  000e3	53		 push	 ebx
  000e4	e8 00 00 00 00	 call	 __CxxThrowException@8
$L53645:
$L53641:
  000e9	cc		 int	 3
_TEXT	ENDS
;	COMDAT text$x
text$x	SEGMENT
__ehhandler$?_Init@?$numpunct@G@std@@IAEXABV_Locinfo@2@@Z:
  00000	b8 00 00 00 00	 mov	 eax, OFFSET FLAT:$T53639
  00005	e9 00 00 00 00	 jmp	 ___CxxFrameHandler
text$x	ENDS
?_Init@?$numpunct@G@std@@IAEXABV_Locinfo@2@@Z ENDP	; std::numpunct<unsigned short>::_Init
;	COMDAT xdata$x
; File c:\program files (x86)\microsoft visual studio .net 2003\vc7\include\xlocale
xdata$x	SEGMENT
$T53659	DD	0ffffffffH
	DD	FLAT:$L53651
	DD	00H
	DD	FLAT:$L53652
$T53657	DD	019930520H
	DD	02H
	DD	FLAT:$T53659
	DD	2 DUP(00H)
	DD	2 DUP(00H)
; Function compile flags: /Ogsy
; File c:\program files (x86)\microsoft visual studio .net 2003\vc7\include\xlocnum
xdata$x	ENDS
;	COMDAT ??0?$numpunct@D@std@@QAE@I@Z
_TEXT	SEGMENT
$T53650 = -132						; size = 116
_this$ = -16						; size = 4
__$EHRec$ = -12						; size = 12
__Refs$ = 8						; size = 4
??0?$numpunct@D@std@@QAE@I@Z PROC NEAR			; std::numpunct<char>::numpunct<char>, COMDAT
; _this$ = ecx

; 64   : 		{	// construct from current locale

  00000	b8 00 00 00 00	 mov	 eax, __ehhandler$??0?$numpunct@D@std@@QAE@I@Z
  00005	e8 00 00 00 00	 call	 __EH_prolog
  0000a	83 ec 78	 sub	 esp, 120		; 00000078H
  0000d	8b 45 08	 mov	 eax, DWORD PTR __Refs$[ebp]
  00010	56		 push	 esi
  00011	8b f1		 mov	 esi, ecx
  00013	89 75 f0	 mov	 DWORD PTR _this$[ebp], esi
  00016	89 46 04	 mov	 DWORD PTR [esi+4], eax
  00019	83 65 fc 00	 and	 DWORD PTR __$EHRec$[ebp+8], 0

; 65   : 		_Init(_Locinfo());

  0001d	68 00 00 00 00	 push	 OFFSET FLAT:??_C@_01GFHCPBMG@C?$AA@
  00022	8d 8d 7c ff ff
	ff		 lea	 ecx, DWORD PTR $T53650[ebp]
  00028	c7 06 00 00 00
	00		 mov	 DWORD PTR [esi], OFFSET FLAT:??_7?$numpunct@D@std@@6B@
  0002e	e8 00 00 00 00	 call	 ??0_Locinfo@std@@QAE@PBD@Z ; std::_Locinfo::_Locinfo
  00033	50		 push	 eax
  00034	8b ce		 mov	 ecx, esi
  00036	c6 45 fc 01	 mov	 BYTE PTR __$EHRec$[ebp+8], 1
  0003a	e8 00 00 00 00	 call	 ?_Init@?$numpunct@D@std@@IAEXABV_Locinfo@2@@Z ; std::numpunct<char>::_Init
  0003f	8d 8d 7c ff ff
	ff		 lea	 ecx, DWORD PTR $T53650[ebp]
  00045	c6 45 fc 00	 mov	 BYTE PTR __$EHRec$[ebp+8], 0
  00049	e8 00 00 00 00	 call	 ??1_Locinfo@std@@QAE@XZ	; std::_Locinfo::~_Locinfo

; 66   : 		}

  0004e	8b 4d f4	 mov	 ecx, DWORD PTR __$EHRec$[ebp]
  00051	8b c6		 mov	 eax, esi
  00053	5e		 pop	 esi
  00054	64 89 0d 00 00
	00 00		 mov	 DWORD PTR fs:__except_list, ecx
  0005b	c9		 leave
  0005c	c2 04 00	 ret	 4
_TEXT	ENDS
;	COMDAT text$x
text$x	SEGMENT
$L53651:
  00000	8b 4d f0	 mov	 ecx, DWORD PTR _this$[ebp]
  00003	e9 00 00 00 00	 jmp	 ??1facet@locale@std@@UAE@XZ ; std::locale::facet::~facet
$L53652:
  00008	8d 8d 7c ff ff
	ff		 lea	 ecx, DWORD PTR $T53650[ebp]
  0000e	e9 00 00 00 00	 jmp	 ??1_Locinfo@std@@QAE@XZ	; std::_Locinfo::~_Locinfo
__ehhandler$??0?$numpunct@D@std@@QAE@I@Z:
  00013	b8 00 00 00 00	 mov	 eax, OFFSET FLAT:$T53657
  00018	e9 00 00 00 00	 jmp	 ___CxxFrameHandler
text$x	ENDS
??0?$numpunct@D@std@@QAE@I@Z ENDP			; std::numpunct<char>::numpunct<char>
;	COMDAT xdata$x
; File c:\program files (x86)\microsoft visual studio .net 2003\vc7\include\xlocale
xdata$x	SEGMENT
$T53673	DD	0ffffffffH
	DD	FLAT:$L53665
	DD	00H
	DD	FLAT:$L53666
$T53671	DD	019930520H
	DD	02H
	DD	FLAT:$T53673
	DD	2 DUP(00H)
	DD	2 DUP(00H)
; Function compile flags: /Ogsy
; File c:\program files (x86)\microsoft visual studio .net 2003\vc7\include\xlocnum
xdata$x	ENDS
;	COMDAT ??0?$numpunct@G@std@@QAE@I@Z
_TEXT	SEGMENT
$T53664 = -132						; size = 116
_this$ = -16						; size = 4
__$EHRec$ = -12						; size = 12
__Refs$ = 8						; size = 4
??0?$numpunct@G@std@@QAE@I@Z PROC NEAR			; std::numpunct<unsigned short>::numpunct<unsigned short>, COMDAT
; _this$ = ecx

; 64   : 		{	// construct from current locale

  00000	b8 00 00 00 00	 mov	 eax, __ehhandler$??0?$numpunct@G@std@@QAE@I@Z
  00005	e8 00 00 00 00	 call	 __EH_prolog
  0000a	83 ec 78	 sub	 esp, 120		; 00000078H
  0000d	8b 45 08	 mov	 eax, DWORD PTR __Refs$[ebp]
  00010	56		 push	 esi
  00011	8b f1		 mov	 esi, ecx
  00013	89 75 f0	 mov	 DWORD PTR _this$[ebp], esi
  00016	89 46 04	 mov	 DWORD PTR [esi+4], eax
  00019	83 65 fc 00	 and	 DWORD PTR __$EHRec$[ebp+8], 0

; 65   : 		_Init(_Locinfo());

  0001d	68 00 00 00 00	 push	 OFFSET FLAT:??_C@_01GFHCPBMG@C?$AA@
  00022	8d 8d 7c ff ff
	ff		 lea	 ecx, DWORD PTR $T53664[ebp]
  00028	c7 06 00 00 00
	00		 mov	 DWORD PTR [esi], OFFSET FLAT:??_7?$numpunct@G@std@@6B@
  0002e	e8 00 00 00 00	 call	 ??0_Locinfo@std@@QAE@PBD@Z ; std::_Locinfo::_Locinfo
  00033	50		 push	 eax
  00034	8b ce		 mov	 ecx, esi
  00036	c6 45 fc 01	 mov	 BYTE PTR __$EHRec$[ebp+8], 1
  0003a	e8 00 00 00 00	 call	 ?_Init@?$numpunct@G@std@@IAEXABV_Locinfo@2@@Z ; std::numpunct<unsigned short>::_Init
  0003f	8d 8d 7c ff ff
	ff		 lea	 ecx, DWORD PTR $T53664[ebp]
  00045	c6 45 fc 00	 mov	 BYTE PTR __$EHRec$[ebp+8], 0
  00049	e8 00 00 00 00	 call	 ??1_Locinfo@std@@QAE@XZ	; std::_Locinfo::~_Locinfo

; 66   : 		}

  0004e	8b 4d f4	 mov	 ecx, DWORD PTR __$EHRec$[ebp]
  00051	8b c6		 mov	 eax, esi
  00053	5e		 pop	 esi
  00054	64 89 0d 00 00
	00 00		 mov	 DWORD PTR fs:__except_list, ecx
  0005b	c9		 leave
  0005c	c2 04 00	 ret	 4
_TEXT	ENDS
;	COMDAT text$x
text$x	SEGMENT
$L53665:
  00000	8b 4d f0	 mov	 ecx, DWORD PTR _this$[ebp]
  00003	e9 00 00 00 00	 jmp	 ??1facet@locale@std@@UAE@XZ ; std::locale::facet::~facet
$L53666:
  00008	8d 8d 7c ff ff
	ff		 lea	 ecx, DWORD PTR $T53664[ebp]
  0000e	e9 00 00 00 00	 jmp	 ??1_Locinfo@std@@QAE@XZ	; std::_Locinfo::~_Locinfo
__ehhandler$??0?$numpunct@G@std@@QAE@I@Z:
  00013	b8 00 00 00 00	 mov	 eax, OFFSET FLAT:$T53671
  00018	e9 00 00 00 00	 jmp	 ___CxxFrameHandler
text$x	ENDS
??0?$numpunct@G@std@@QAE@I@Z ENDP			; std::numpunct<unsigned short>::numpunct<unsigned short>
;	COMDAT xdata$x
xdata$x	SEGMENT
$T53686	DD	0ffffffffH
	DD	FLAT:$L53682
$T53684	DD	019930520H
	DD	01H
	DD	FLAT:$T53686
	DD	2 DUP(00H)
	DD	2 DUP(00H)
; Function compile flags: /Ogsy
xdata$x	ENDS
;	COMDAT ?_Getcat@?$numpunct@D@std@@SAIPAPBVfacet@locale@2@@Z
_TEXT	SEGMENT
__$EHRec$ = -12						; size = 12
$T53679 = 8						; size = 4
__Ppf$ = 8						; size = 4
?_Getcat@?$numpunct@D@std@@SAIPAPBVfacet@locale@2@@Z PROC NEAR ; std::numpunct<char>::_Getcat, COMDAT

; 75   : 		{	// return locale category mask and construct standard facet

  00000	b8 00 00 00 00	 mov	 eax, __ehhandler$?_Getcat@?$numpunct@D@std@@SAIPAPBVfacet@locale@2@@Z
  00005	e8 00 00 00 00	 call	 __EH_prolog
  0000a	56		 push	 esi

; 76   : 		if (_Ppf != 0 && *_Ppf == 0)

  0000b	8b 75 08	 mov	 esi, DWORD PTR __Ppf$[ebp]
  0000e	85 f6		 test	 esi, esi
  00010	74 27		 je	 SHORT $L26415
  00012	83 3e 00	 cmp	 DWORD PTR [esi], 0
  00015	75 22		 jne	 SHORT $L26415

; 77   : 			*_Ppf = _NEW_CRT numpunct<_Elem>;

  00017	6a 18		 push	 24			; 00000018H
  00019	e8 00 00 00 00	 call	 ??2@YAPAXI@Z		; operator new
  0001e	59		 pop	 ecx
  0001f	8b c8		 mov	 ecx, eax
  00021	89 4d 08	 mov	 DWORD PTR $T53679[ebp], ecx
  00024	83 65 fc 00	 and	 DWORD PTR __$EHRec$[ebp+8], 0
  00028	85 c9		 test	 ecx, ecx
  0002a	74 09		 je	 SHORT $L53680
  0002c	6a 00		 push	 0
  0002e	e8 00 00 00 00	 call	 ??0?$numpunct@D@std@@QAE@I@Z ; std::numpunct<char>::numpunct<char>
  00033	eb 02		 jmp	 SHORT $L53681
$L53680:
  00035	33 c0		 xor	 eax, eax
$L53681:
  00037	89 06		 mov	 DWORD PTR [esi], eax
$L26415:

; 78   : 		return (_X_NUMERIC);
; 79   : 		}

  00039	8b 4d f4	 mov	 ecx, DWORD PTR __$EHRec$[ebp]
  0003c	6a 04		 push	 4
  0003e	58		 pop	 eax
  0003f	5e		 pop	 esi
  00040	64 89 0d 00 00
	00 00		 mov	 DWORD PTR fs:__except_list, ecx
  00047	c9		 leave
  00048	c3		 ret	 0
_TEXT	ENDS
;	COMDAT text$x
text$x	SEGMENT
$L53682:
  00000	ff 75 08	 push	 DWORD PTR $T53679[ebp]
  00003	e8 00 00 00 00	 call	 ??3@YAXPAX@Z		; operator delete
  00008	59		 pop	 ecx
  00009	c3		 ret	 0
__ehhandler$?_Getcat@?$numpunct@D@std@@SAIPAPBVfacet@locale@2@@Z:
  0000a	b8 00 00 00 00	 mov	 eax, OFFSET FLAT:$T53684
  0000f	e9 00 00 00 00	 jmp	 ___CxxFrameHandler
text$x	ENDS
?_Getcat@?$numpunct@D@std@@SAIPAPBVfacet@locale@2@@Z ENDP ; std::numpunct<char>::_Getcat
;	COMDAT xdata$x
xdata$x	SEGMENT
$T53699	DD	0ffffffffH
	DD	FLAT:$L53695
$T53697	DD	019930520H
	DD	01H
	DD	FLAT:$T53699
	DD	2 DUP(00H)
	DD	2 DUP(00H)
; Function compile flags: /Ogsy
xdata$x	ENDS
;	COMDAT ?_Getcat@?$numpunct@G@std@@SAIPAPBVfacet@locale@2@@Z
_TEXT	SEGMENT
__$EHRec$ = -12						; size = 12
$T53692 = 8						; size = 4
__Ppf$ = 8						; size = 4
?_Getcat@?$numpunct@G@std@@SAIPAPBVfacet@locale@2@@Z PROC NEAR ; std::numpunct<unsigned short>::_Getcat, COMDAT

; 75   : 		{	// return locale category mask and construct standard facet

  00000	b8 00 00 00 00	 mov	 eax, __ehhandler$?_Getcat@?$numpunct@G@std@@SAIPAPBVfacet@locale@2@@Z
  00005	e8 00 00 00 00	 call	 __EH_prolog
  0000a	56		 push	 esi

; 76   : 		if (_Ppf != 0 && *_Ppf == 0)

  0000b	8b 75 08	 mov	 esi, DWORD PTR __Ppf$[ebp]
  0000e	85 f6		 test	 esi, esi
  00010	74 27		 je	 SHORT $L26409
  00012	83 3e 00	 cmp	 DWORD PTR [esi], 0
  00015	75 22		 jne	 SHORT $L26409

; 77   : 			*_Ppf = _NEW_CRT numpunct<_Elem>;

  00017	6a 18		 push	 24			; 00000018H
  00019	e8 00 00 00 00	 call	 ??2@YAPAXI@Z		; operator new
  0001e	59		 pop	 ecx
  0001f	8b c8		 mov	 ecx, eax
  00021	89 4d 08	 mov	 DWORD PTR $T53692[ebp], ecx
  00024	83 65 fc 00	 and	 DWORD PTR __$EHRec$[ebp+8], 0
  00028	85 c9		 test	 ecx, ecx
  0002a	74 09		 je	 SHORT $L53693
  0002c	6a 00		 push	 0
  0002e	e8 00 00 00 00	 call	 ??0?$numpunct@G@std@@QAE@I@Z ; std::numpunct<unsigned short>::numpunct<unsigned short>
  00033	eb 02		 jmp	 SHORT $L53694
$L53693:
  00035	33 c0		 xor	 eax, eax
$L53694:
  00037	89 06		 mov	 DWORD PTR [esi], eax
$L26409:

; 78   : 		return (_X_NUMERIC);
; 79   : 		}

  00039	8b 4d f4	 mov	 ecx, DWORD PTR __$EHRec$[ebp]
  0003c	6a 04		 push	 4
  0003e	58		 pop	 eax
  0003f	5e		 pop	 esi
  00040	64 89 0d 00 00
	00 00		 mov	 DWORD PTR fs:__except_list, ecx
  00047	c9		 leave
  00048	c3		 ret	 0
_TEXT	ENDS
;	COMDAT text$x
text$x	SEGMENT
$L53695:
  00000	ff 75 08	 push	 DWORD PTR $T53692[ebp]
  00003	e8 00 00 00 00	 call	 ??3@YAXPAX@Z		; operator delete
  00008	59		 pop	 ecx
  00009	c3		 ret	 0
__ehhandler$?_Getcat@?$numpunct@G@std@@SAIPAPBVfacet@locale@2@@Z:
  0000a	b8 00 00 00 00	 mov	 eax, OFFSET FLAT:$T53697
  0000f	e9 00 00 00 00	 jmp	 ___CxxFrameHandler
text$x	ENDS
?_Getcat@?$numpunct@G@std@@SAIPAPBVfacet@locale@2@@Z ENDP ; std::numpunct<unsigned short>::_Getcat
;	COMDAT xdata$x
; File c:\program files (x86)\microsoft visual studio .net 2003\vc7\include\xlocale
xdata$x	SEGMENT
$T53711	DD	0ffffffffH
	DD	FLAT:$L53706
$T53708	DD	019930520H
	DD	01H
	DD	FLAT:$T53711
	DD	2 DUP(00H)
	DD	2 DUP(00H)
; Function compile flags: /Ogsy
xdata$x	ENDS
;	COMDAT ??$use_facet@V?$numpunct@D@std@@@std@@YAABV?$numpunct@D@0@ABVlocale@0@@Z
_TEXT	SEGMENT
$T53704 = -32						; size = 12
__Lock$ = -20						; size = 4
__Psave$ = -16						; size = 4
__$EHRec$ = -12						; size = 12
__Loc$ = 8						; size = 4
??$use_facet@V?$numpunct@D@std@@@std@@YAABV?$numpunct@D@0@ABVlocale@0@@Z PROC NEAR ; std::use_facet<std::numpunct<char> >, COMDAT

; 315  : 	{	// get facet reference from locale

  00000	b8 00 00 00 00	 mov	 eax, __ehhandler$??$use_facet@V?$numpunct@D@std@@@std@@YAABV?$numpunct@D@0@ABVlocale@0@@Z
  00005	e8 00 00 00 00	 call	 __EH_prolog
  0000a	83 ec 14	 sub	 esp, 20			; 00000014H
  0000d	56		 push	 esi
  0000e	57		 push	 edi

; 316  : 	_Lockit _Lock(_LOCK_LOCALE);	// the thread lock, make get atomic

  0000f	6a 00		 push	 0
  00011	8d 4d ec	 lea	 ecx, DWORD PTR __Lock$[ebp]
  00014	e8 00 00 00 00	 call	 ??0_Lockit@std@@QAE@H@Z	; std::_Lockit::_Lockit
  00019	83 65 fc 00	 and	 DWORD PTR __$EHRec$[ebp+8], 0

; 317  : 	const locale::facet *_Psave =
; 318  : 		_Facetptr<_Facet>::_Psave;	// static pointer to lazy facet

  0001d	8b 35 00 00 00
	00		 mov	 esi, DWORD PTR ?_Psave@?$_Facetptr@V?$numpunct@D@std@@@std@@2PBVfacet@locale@2@B ; std::_Facetptr<std::numpunct<char> >::_Psave

; 319  : 
; 320  : 	size_t _Id = _Facet::id;

  00023	b9 00 00 00 00	 mov	 ecx, OFFSET FLAT:?id@?$numpunct@D@std@@2V0locale@2@A ; std::numpunct<char>::id
  00028	89 75 f0	 mov	 DWORD PTR __Psave$[ebp], esi
  0002b	e8 00 00 00 00	 call	 ??Bid@locale@std@@QAEIXZ ; std::locale::id::operator unsigned int

; 321  : 	const locale::facet *_Pf = _Loc._Getfacet(_Id);

  00030	8b 4d 08	 mov	 ecx, DWORD PTR __Loc$[ebp]
  00033	50		 push	 eax
  00034	e8 00 00 00 00	 call	 ?_Getfacet@locale@std@@QBEPBVfacet@12@I@Z ; std::locale::_Getfacet
  00039	8b f8		 mov	 edi, eax

; 322  : 
; 323  : 	if (_Pf != 0)

  0003b	85 ff		 test	 edi, edi
  0003d	75 49		 jne	 SHORT $L26376

; 324  : 		;	// got facet from locale
; 325  : 	else if (_Psave != 0)

  0003f	85 f6		 test	 esi, esi
  00041	74 04		 je	 SHORT $L26370

; 326  : 		_Pf = _Psave;	// lazy facet already allocated

  00043	8b fe		 mov	 edi, esi

; 327  : 	else if (_Facet::_Getcat(&_Psave) == (size_t)(-1))

  00045	eb 41		 jmp	 SHORT $L26376
$L26370:
  00047	8d 45 f0	 lea	 eax, DWORD PTR __Psave$[ebp]
  0004a	50		 push	 eax
  0004b	e8 00 00 00 00	 call	 ?_Getcat@?$numpunct@D@std@@SAIPAPBVfacet@locale@2@@Z ; std::numpunct<char>::_Getcat
  00050	83 f8 ff	 cmp	 eax, -1
  00053	59		 pop	 ecx
  00054	75 1b		 jne	 SHORT $L26373

; 328  : 
; 329  :  #if _HAS_EXCEPTIONS
; 330  : 		throw bad_cast();	// lazy disallowed

  00056	68 00 00 00 00	 push	 OFFSET FLAT:??_C@_08EPJLHIJG@bad?5cast?$AA@
  0005b	8d 4d e0	 lea	 ecx, DWORD PTR $T53704[ebp]
  0005e	e8 00 00 00 00	 call	 ??0bad_cast@@QAE@PBD@Z	; bad_cast::bad_cast
  00063	68 00 00 00 00	 push	 OFFSET FLAT:__TI2?AVbad_cast@@
  00068	8d 45 e0	 lea	 eax, DWORD PTR $T53704[ebp]
  0006b	50		 push	 eax
  0006c	e8 00 00 00 00	 call	 __CxxThrowException@8
$L53712:
$L26373:

; 331  : 
; 332  :  #else /* _HAS_EXCEPTIONS */
; 333  : 		abort();	// lazy disallowed
; 334  :  #endif /* _HAS_EXCEPTIONS */
; 335  : 
; 336  : 	else
; 337  : 		{	// queue up lazy facet for destruction
; 338  : 		_Pf = _Psave;

  00071	8b 7d f0	 mov	 edi, DWORD PTR __Psave$[ebp]

; 339  : 		_Facetptr<_Facet>::_Psave = _Psave;
; 340  : 
; 341  : 		locale::facet *_Pfmod = (_Facet *)_Psave;
; 342  : 		_Pfmod->_Incref();

  00074	8b cf		 mov	 ecx, edi
  00076	89 3d 00 00 00
	00		 mov	 DWORD PTR ?_Psave@?$_Facetptr@V?$numpunct@D@std@@@std@@2PBVfacet@locale@2@B, edi ; std::_Facetptr<std::numpunct<char> >::_Psave
  0007c	e8 00 00 00 00	 call	 ?_Incref@facet@locale@std@@QAEXXZ ; std::locale::facet::_Incref

; 343  : 		_Pfmod->_Register();

  00081	8b cf		 mov	 ecx, edi
  00083	e8 00 00 00 00	 call	 ?_Register@facet@locale@std@@QAEXXZ ; std::locale::facet::_Register
$L26376:

; 344  : 		}
; 345  : 
; 346  : 	return ((const _Facet&)(*_Pf));	// should be dynamic_cast

  00088	83 4d fc ff	 or	 DWORD PTR __$EHRec$[ebp+8], -1
  0008c	8d 4d ec	 lea	 ecx, DWORD PTR __Lock$[ebp]
  0008f	e8 00 00 00 00	 call	 ??1_Lockit@std@@QAE@XZ	; std::_Lockit::~_Lockit

; 347  : 	}

  00094	8b 4d f4	 mov	 ecx, DWORD PTR __$EHRec$[ebp]
  00097	8b c7		 mov	 eax, edi
  00099	5f		 pop	 edi
  0009a	5e		 pop	 esi
  0009b	64 89 0d 00 00
	00 00		 mov	 DWORD PTR fs:__except_list, ecx
  000a2	c9		 leave
  000a3	c3		 ret	 0
$L53710:
_TEXT	ENDS
;	COMDAT text$x
text$x	SEGMENT
$L53706:
  00000	8d 4d ec	 lea	 ecx, DWORD PTR __Lock$[ebp]
  00003	e9 00 00 00 00	 jmp	 ??1_Lockit@std@@QAE@XZ	; std::_Lockit::~_Lockit
__ehhandler$??$use_facet@V?$numpunct@D@std@@@std@@YAABV?$numpunct@D@0@ABVlocale@0@@Z:
  00008	b8 00 00 00 00	 mov	 eax, OFFSET FLAT:$T53708
  0000d	e9 00 00 00 00	 jmp	 ___CxxFrameHandler
text$x	ENDS
??$use_facet@V?$numpunct@D@std@@@std@@YAABV?$numpunct@D@0@ABVlocale@0@@Z ENDP ; std::use_facet<std::numpunct<char> >
;	COMDAT xdata$x
xdata$x	SEGMENT
$T53724	DD	0ffffffffH
	DD	FLAT:$L53719
$T53721	DD	019930520H
	DD	01H
	DD	FLAT:$T53724
	DD	2 DUP(00H)
	DD	2 DUP(00H)
; Function compile flags: /Ogsy
xdata$x	ENDS
;	COMDAT ??$use_facet@V?$numpunct@G@std@@@std@@YAABV?$numpunct@G@0@ABVlocale@0@@Z
_TEXT	SEGMENT
$T53717 = -32						; size = 12
__Lock$ = -20						; size = 4
__Psave$ = -16						; size = 4
__$EHRec$ = -12						; size = 12
__Loc$ = 8						; size = 4
??$use_facet@V?$numpunct@G@std@@@std@@YAABV?$numpunct@G@0@ABVlocale@0@@Z PROC NEAR ; std::use_facet<std::numpunct<unsigned short> >, COMDAT

; 315  : 	{	// get facet reference from locale

  00000	b8 00 00 00 00	 mov	 eax, __ehhandler$??$use_facet@V?$numpunct@G@std@@@std@@YAABV?$numpunct@G@0@ABVlocale@0@@Z
  00005	e8 00 00 00 00	 call	 __EH_prolog
  0000a	83 ec 14	 sub	 esp, 20			; 00000014H
  0000d	56		 push	 esi
  0000e	57		 push	 edi

; 316  : 	_Lockit _Lock(_LOCK_LOCALE);	// the thread lock, make get atomic

  0000f	6a 00		 push	 0
  00011	8d 4d ec	 lea	 ecx, DWORD PTR __Lock$[ebp]
  00014	e8 00 00 00 00	 call	 ??0_Lockit@std@@QAE@H@Z	; std::_Lockit::_Lockit
  00019	83 65 fc 00	 and	 DWORD PTR __$EHRec$[ebp+8], 0

; 317  : 	const locale::facet *_Psave =
; 318  : 		_Facetptr<_Facet>::_Psave;	// static pointer to lazy facet

  0001d	8b 35 00 00 00
	00		 mov	 esi, DWORD PTR ?_Psave@?$_Facetptr@V?$numpunct@G@std@@@std@@2PBVfacet@locale@2@B ; std::_Facetptr<std::numpunct<unsigned short> >::_Psave

; 319  : 
; 320  : 	size_t _Id = _Facet::id;

  00023	b9 00 00 00 00	 mov	 ecx, OFFSET FLAT:?id@?$numpunct@G@std@@2V0locale@2@A ; std::numpunct<unsigned short>::id
  00028	89 75 f0	 mov	 DWORD PTR __Psave$[ebp], esi
  0002b	e8 00 00 00 00	 call	 ??Bid@locale@std@@QAEIXZ ; std::locale::id::operator unsigned int

; 321  : 	const locale::facet *_Pf = _Loc._Getfacet(_Id);

  00030	8b 4d 08	 mov	 ecx, DWORD PTR __Loc$[ebp]
  00033	50		 push	 eax
  00034	e8 00 00 00 00	 call	 ?_Getfacet@locale@std@@QBEPBVfacet@12@I@Z ; std::locale::_Getfacet
  00039	8b f8		 mov	 edi, eax

; 322  : 
; 323  : 	if (_Pf != 0)

  0003b	85 ff		 test	 edi, edi
  0003d	75 49		 jne	 SHORT $L26344

; 324  : 		;	// got facet from locale
; 325  : 	else if (_Psave != 0)

  0003f	85 f6		 test	 esi, esi
  00041	74 04		 je	 SHORT $L26338

; 326  : 		_Pf = _Psave;	// lazy facet already allocated

  00043	8b fe		 mov	 edi, esi

; 327  : 	else if (_Facet::_Getcat(&_Psave) == (size_t)(-1))

  00045	eb 41		 jmp	 SHORT $L26344
$L26338:
  00047	8d 45 f0	 lea	 eax, DWORD PTR __Psave$[ebp]
  0004a	50		 push	 eax
  0004b	e8 00 00 00 00	 call	 ?_Getcat@?$numpunct@G@std@@SAIPAPBVfacet@locale@2@@Z ; std::numpunct<unsigned short>::_Getcat
  00050	83 f8 ff	 cmp	 eax, -1
  00053	59		 pop	 ecx
  00054	75 1b		 jne	 SHORT $L26341

; 328  : 
; 329  :  #if _HAS_EXCEPTIONS
; 330  : 		throw bad_cast();	// lazy disallowed

  00056	68 00 00 00 00	 push	 OFFSET FLAT:??_C@_08EPJLHIJG@bad?5cast?$AA@
  0005b	8d 4d e0	 lea	 ecx, DWORD PTR $T53717[ebp]
  0005e	e8 00 00 00 00	 call	 ??0bad_cast@@QAE@PBD@Z	; bad_cast::bad_cast
  00063	68 00 00 00 00	 push	 OFFSET FLAT:__TI2?AVbad_cast@@
  00068	8d 45 e0	 lea	 eax, DWORD PTR $T53717[ebp]
  0006b	50		 push	 eax
  0006c	e8 00 00 00 00	 call	 __CxxThrowException@8
$L53725:
$L26341:

; 331  : 
; 332  :  #else /* _HAS_EXCEPTIONS */
; 333  : 		abort();	// lazy disallowed
; 334  :  #endif /* _HAS_EXCEPTIONS */
; 335  : 
; 336  : 	else
; 337  : 		{	// queue up lazy facet for destruction
; 338  : 		_Pf = _Psave;

  00071	8b 7d f0	 mov	 edi, DWORD PTR __Psave$[ebp]

; 339  : 		_Facetptr<_Facet>::_Psave = _Psave;
; 340  : 
; 341  : 		locale::facet *_Pfmod = (_Facet *)_Psave;
; 342  : 		_Pfmod->_Incref();

  00074	8b cf		 mov	 ecx, edi
  00076	89 3d 00 00 00
	00		 mov	 DWORD PTR ?_Psave@?$_Facetptr@V?$numpunct@G@std@@@std@@2PBVfacet@locale@2@B, edi ; std::_Facetptr<std::numpunct<unsigned short> >::_Psave
  0007c	e8 00 00 00 00	 call	 ?_Incref@facet@locale@std@@QAEXXZ ; std::locale::facet::_Incref

; 343  : 		_Pfmod->_Register();

  00081	8b cf		 mov	 ecx, edi
  00083	e8 00 00 00 00	 call	 ?_Register@facet@locale@std@@QAEXXZ ; std::locale::facet::_Register
$L26344:

; 344  : 		}
; 345  : 
; 346  : 	return ((const _Facet&)(*_Pf));	// should be dynamic_cast

  00088	83 4d fc ff	 or	 DWORD PTR __$EHRec$[ebp+8], -1
  0008c	8d 4d ec	 lea	 ecx, DWORD PTR __Lock$[ebp]
  0008f	e8 00 00 00 00	 call	 ??1_Lockit@std@@QAE@XZ	; std::_Lockit::~_Lockit

; 347  : 	}

  00094	8b 4d f4	 mov	 ecx, DWORD PTR __$EHRec$[ebp]
  00097	8b c7		 mov	 eax, edi
  00099	5f		 pop	 edi
  0009a	5e		 pop	 esi
  0009b	64 89 0d 00 00
	00 00		 mov	 DWORD PTR fs:__except_list, ecx
  000a2	c9		 leave
  000a3	c3		 ret	 0
$L53723:
_TEXT	ENDS
;	COMDAT text$x
text$x	SEGMENT
$L53719:
  00000	8d 4d ec	 lea	 ecx, DWORD PTR __Lock$[ebp]
  00003	e9 00 00 00 00	 jmp	 ??1_Lockit@std@@QAE@XZ	; std::_Lockit::~_Lockit
__ehhandler$??$use_facet@V?$numpunct@G@std@@@std@@YAABV?$numpunct@G@0@ABVlocale@0@@Z:
  00008	b8 00 00 00 00	 mov	 eax, OFFSET FLAT:$T53721
  0000d	e9 00 00 00 00	 jmp	 ___CxxFrameHandler
text$x	ENDS
??$use_facet@V?$numpunct@G@std@@@std@@YAABV?$numpunct@G@0@ABVlocale@0@@Z ENDP ; std::use_facet<std::numpunct<unsigned short> >
; Function compile flags: /Ogsy
; File c:\program files (x86)\microsoft visual studio .net 2003\vc7\include\xstring
;	COMDAT ?_Inside@?$basic_string@GU?$char_traits@G@std@@V?$allocator@G@2@@std@@IAE_NPBG@Z
_TEXT	SEGMENT
__Ptr$ = 8						; size = 4
?_Inside@?$basic_string@GU?$char_traits@G@std@@V?$allocator@G@2@@std@@IAE_NPBG@Z PROC NEAR ; std::basic_string<unsigned short,std::char_traits<unsigned short>,std::allocator<unsigned short> >::_Inside, COMDAT
; _this$ = ecx

; 1494 : 		{	// test if _Ptr points inside string

  00000	56		 push	 esi

; 1495 : 		if (_Ptr < _Myptr() || _Myptr() + _Mysize <= _Ptr)

  00001	8b 71 18	 mov	 esi, DWORD PTR [ecx+24]
  00004	83 fe 08	 cmp	 esi, 8
  00007	8d 41 04	 lea	 eax, DWORD PTR [ecx+4]
  0000a	72 04		 jb	 SHORT $L53734
  0000c	8b 10		 mov	 edx, DWORD PTR [eax]
  0000e	eb 02		 jmp	 SHORT $L53735
$L53734:
  00010	8b d0		 mov	 edx, eax
$L53735:
  00012	39 54 24 08	 cmp	 DWORD PTR __Ptr$[esp], edx
  00016	72 17		 jb	 SHORT $L26177
  00018	83 fe 08	 cmp	 esi, 8
  0001b	72 02		 jb	 SHORT $L53742
  0001d	8b 00		 mov	 eax, DWORD PTR [eax]
$L53742:
  0001f	8b 49 14	 mov	 ecx, DWORD PTR [ecx+20]
  00022	8d 04 48	 lea	 eax, DWORD PTR [eax+ecx*2]
  00025	3b 44 24 08	 cmp	 eax, DWORD PTR __Ptr$[esp]
  00029	76 04		 jbe	 SHORT $L26177

; 1497 : 		else
; 1498 : 			return (true);

  0002b	b0 01		 mov	 al, 1
  0002d	eb 02		 jmp	 SHORT $L26178
$L26177:

; 1496 : 			return (false);	// don't ask

  0002f	32 c0		 xor	 al, al
$L26178:
  00031	5e		 pop	 esi

; 1499 : 		}

  00032	c2 04 00	 ret	 4
?_Inside@?$basic_string@GU?$char_traits@G@std@@V?$allocator@G@2@@std@@IAE_NPBG@Z ENDP ; std::basic_string<unsigned short,std::char_traits<unsigned short>,std::allocator<unsigned short> >::_Inside
_TEXT	ENDS
;	COMDAT xdata$x
; File c:\program files (x86)\microsoft visual studio .net 2003\vc7\include\wchar.h
xdata$x	SEGMENT
$T53830	DD	0ffffffffH
	DD	00H
	DD	0ffffffffH
	DD	00H
	DD	01H
	DD	00H
	DD	01H
	DD	00H
$T53832	DD	00H
	DD	00H
	DD	00H
	DD	FLAT:$L53750
$T53833	DD	00H
	DD	00H
	DD	00H
	DD	FLAT:$L53748
$T53831	DD	02H
	DD	02H
	DD	03H
	DD	01H
	DD	FLAT:$T53832
	DD	00H
	DD	00H
	DD	03H
	DD	01H
	DD	FLAT:$T53833
$T53826	DD	019930520H
	DD	04H
	DD	FLAT:$T53830
	DD	02H
	DD	FLAT:$T53831
	DD	2 DUP(00H)
; Function compile flags: /Ogsy
; File c:\program files (x86)\microsoft visual studio .net 2003\vc7\include\xstring
xdata$x	ENDS
;	COMDAT ?_Copy@?$basic_string@GU?$char_traits@G@std@@V?$allocator@G@2@@std@@IAEXII@Z
_TEXT	SEGMENT
_this$ = -24						; size = 4
tv200 = -20						; size = 4
__Newres$ = -20						; size = 4
__$EHRec$ = -16						; size = 16
__Ptr$ = 8						; size = 4
__Newsize$ = 8						; size = 4
__Oldlen$ = 12						; size = 4
?_Copy@?$basic_string@GU?$char_traits@G@std@@V?$allocator@G@2@@std@@IAEXII@Z PROC NEAR ; std::basic_string<unsigned short,std::char_traits<unsigned short>,std::allocator<unsigned short> >::_Copy, COMDAT
; _this$ = ecx

; 1444 : 		{	// copy _Oldlen elements to newly allocated buffer

  00000	b8 00 00 00 00	 mov	 eax, __ehhandler$?_Copy@?$basic_string@GU?$char_traits@G@std@@V?$allocator@G@2@@std@@IAEXII@Z
  00005	e8 00 00 00 00	 call	 __EH_prolog
  0000a	83 ec 0c	 sub	 esp, 12			; 0000000cH
  0000d	53		 push	 ebx

; 1445 : 		size_type _Newres = _Newsize | _ALLOC_MASK;

  0000e	8b 5d 08	 mov	 ebx, DWORD PTR __Newsize$[ebp]
  00011	56		 push	 esi
  00012	83 cb 07	 or	 ebx, 7

; 1446 : 		if (max_size() < _Newres)

  00015	81 fb fe ff ff
	7f		 cmp	 ebx, 2147483646		; 7ffffffeH
  0001b	57		 push	 edi
  0001c	8b f1		 mov	 esi, ecx
  0001e	89 65 f0	 mov	 DWORD PTR __$EHRec$[ebp], esp
  00021	89 75 e8	 mov	 DWORD PTR _this$[ebp], esi
  00024	76 05		 jbe	 SHORT $L26167

; 1447 : 			_Newres = _Newsize;	// undo roundup if too big

  00026	8b 5d 08	 mov	 ebx, DWORD PTR __Newsize$[ebp]

; 1448 : 		else if (_Newres / 3 < _Myres / 2

  00029	eb 27		 jmp	 SHORT $L26169
$L26167:

; 1449 : 			&& _Myres <= max_size() - _Myres / 2)

  0002b	33 d2		 xor	 edx, edx
  0002d	6a 03		 push	 3
  0002f	8b c3		 mov	 eax, ebx
  00031	5f		 pop	 edi
  00032	f7 f7		 div	 edi
  00034	8b 4e 18	 mov	 ecx, DWORD PTR [esi+24]
  00037	89 4d ec	 mov	 DWORD PTR tv200[ebp], ecx
  0003a	d1 6d ec	 shr	 DWORD PTR tv200[ebp], 1
  0003d	8b 55 ec	 mov	 edx, DWORD PTR tv200[ebp]
  00040	3b c2		 cmp	 eax, edx
  00042	73 0e		 jae	 SHORT $L26169
  00044	b8 fe ff ff 7f	 mov	 eax, 2147483646		; 7ffffffeH
  00049	2b c2		 sub	 eax, edx
  0004b	3b c8		 cmp	 ecx, eax
  0004d	77 03		 ja	 SHORT $L26169

; 1450 : 			_Newres = _Myres + _Myres / 2;	// grow exponentially if possible

  0004f	8d 1c 0a	 lea	 ebx, DWORD PTR [edx+ecx]
$L26169:

; 1451 : 		_Elem *_Ptr;
; 1452 : 
; 1453 : 		_TRY_BEGIN

  00052	83 65 fc 00	 and	 DWORD PTR __$EHRec$[ebp+12], 0

; 1454 : 			_Ptr = _Mybase::_Alval.allocate(_Newres + 1);

  00056	8d 44 1b 02	 lea	 eax, DWORD PTR [ebx+ebx+2]
  0005a	50		 push	 eax
  0005b	e8 00 00 00 00	 call	 ??2@YAPAXI@Z		; operator new
  00060	59		 pop	 ecx
  00061	89 45 08	 mov	 DWORD PTR __Ptr$[ebp], eax
  00064	eb 27		 jmp	 SHORT $L26171
$L53748:

; 1455 : 		_CATCH_ALL
; 1456 : 			_Newres = _Newsize;	// allocation failed, undo roundup and retry

  00066	8b 45 08	 mov	 eax, DWORD PTR __Newsize$[ebp]
  00069	89 45 ec	 mov	 DWORD PTR __Newres$[ebp], eax

; 1457 : 			_TRY_BEGIN
; 1458 : 				_Ptr = _Mybase::_Alval.allocate(_Newres + 1);

  0006c	8d 44 00 02	 lea	 eax, DWORD PTR [eax+eax+2]
  00070	89 65 f0	 mov	 DWORD PTR __$EHRec$[ebp], esp
  00073	50		 push	 eax
  00074	c6 45 fc 02	 mov	 BYTE PTR __$EHRec$[ebp+12], 2
  00078	e8 00 00 00 00	 call	 ??2@YAPAXI@Z		; operator new
  0007d	89 45 08	 mov	 DWORD PTR __Ptr$[ebp], eax
  00080	59		 pop	 ecx

; 1462 : 			_CATCH_END
; 1463 : 		_CATCH_END

  00081	b8 00 00 00 00	 mov	 eax, $L53827
  00086	c3		 ret	 0
$L53827:
  00087	8b 5d ec	 mov	 ebx, DWORD PTR __Newres$[ebp]
  0008a	8b 75 e8	 mov	 esi, DWORD PTR _this$[ebp]
$L26171:

; 1464 : 
; 1465 : 		if (0 < _Oldlen)

  0008d	8b 45 0c	 mov	 eax, DWORD PTR __Oldlen$[ebp]
  00090	85 c0		 test	 eax, eax
  00092	76 19		 jbe	 SHORT $L53820

; 1466 : 			_Traits::copy(_Ptr, _Myptr(), _Oldlen);	// copy existing elements

  00094	83 7e 18 08	 cmp	 DWORD PTR [esi+24], 8
  00098	72 05		 jb	 SHORT $L53814
  0009a	8b 76 04	 mov	 esi, DWORD PTR [esi+4]
  0009d	eb 03		 jmp	 SHORT $L53815
$L53814:
  0009f	83 c6 04	 add	 esi, 4
$L53815:
  000a2	8b 7d 08	 mov	 edi, DWORD PTR __Ptr$[ebp]
  000a5	8b c8		 mov	 ecx, eax
  000a7	66 f3 a5	 rep movsw
  000aa	8b 75 e8	 mov	 esi, DWORD PTR _this$[ebp]
$L53820:

; 1467 : 		_Tidy(true);

  000ad	6a 00		 push	 0
  000af	6a 01		 push	 1
  000b1	8b ce		 mov	 ecx, esi
  000b3	e8 00 00 00 00	 call	 ?_Tidy@?$basic_string@GU?$char_traits@G@std@@V?$allocator@G@2@@std@@IAEX_NI@Z ; std::basic_string<unsigned short,std::char_traits<unsigned short>,std::allocator<unsigned short> >::_Tidy

; 1468 : 		_Bx._Ptr = _Ptr;

  000b8	8b 45 08	 mov	 eax, DWORD PTR __Ptr$[ebp]

; 1469 : 		_Myres = _Newres;
; 1470 : 		_Eos(_Oldlen);

  000bb	ff 75 0c	 push	 DWORD PTR __Oldlen$[ebp]
  000be	8b ce		 mov	 ecx, esi
  000c0	89 46 04	 mov	 DWORD PTR [esi+4], eax
  000c3	89 5e 18	 mov	 DWORD PTR [esi+24], ebx
  000c6	e8 00 00 00 00	 call	 ?_Eos@?$basic_string@GU?$char_traits@G@std@@V?$allocator@G@2@@std@@IAEXI@Z ; std::basic_string<unsigned short,std::char_traits<unsigned short>,std::allocator<unsigned short> >::_Eos

; 1471 : 		}

  000cb	8b 4d f4	 mov	 ecx, DWORD PTR __$EHRec$[ebp+4]
  000ce	5f		 pop	 edi
  000cf	5e		 pop	 esi
  000d0	64 89 0d 00 00
	00 00		 mov	 DWORD PTR fs:__except_list, ecx
  000d7	5b		 pop	 ebx
  000d8	c9		 leave
  000d9	c2 08 00	 ret	 8
$L53750:

; 1459 : 			_CATCH_ALL
; 1460 : 			_Tidy(true);	// failed again, discard storage and reraise

  000dc	8b 4d e8	 mov	 ecx, DWORD PTR _this$[ebp]
  000df	33 f6		 xor	 esi, esi
  000e1	56		 push	 esi
  000e2	6a 01		 push	 1
  000e4	e8 00 00 00 00	 call	 ?_Tidy@?$basic_string@GU?$char_traits@G@std@@V?$allocator@G@2@@std@@IAEX_NI@Z ; std::basic_string<unsigned short,std::char_traits<unsigned short>,std::allocator<unsigned short> >::_Tidy

; 1461 : 			_RERAISE;

  000e9	56		 push	 esi
  000ea	56		 push	 esi
  000eb	e8 00 00 00 00	 call	 __CxxThrowException@8
$L53834:
$L53829:
  000f0	cc		 int	 3
_TEXT	ENDS
;	COMDAT text$x
text$x	SEGMENT
__ehhandler$?_Copy@?$basic_string@GU?$char_traits@G@std@@V?$allocator@G@2@@std@@IAEXII@Z:
  00000	b8 00 00 00 00	 mov	 eax, OFFSET FLAT:$T53826
  00005	e9 00 00 00 00	 jmp	 ___CxxFrameHandler
text$x	ENDS
?_Copy@?$basic_string@GU?$char_traits@G@std@@V?$allocator@G@2@@std@@IAEXII@Z ENDP ; std::basic_string<unsigned short,std::char_traits<unsigned short>,std::allocator<unsigned short> >::_Copy
; Function compile flags: /Ogsy
;	COMDAT ?_Grow@?$basic_string@GU?$char_traits@G@std@@V?$allocator@G@2@@std@@IAE_NI_N@Z
_TEXT	SEGMENT
__Newsize$ = 8						; size = 4
__Trim$ = 12						; size = 1
?_Grow@?$basic_string@GU?$char_traits@G@std@@V?$allocator@G@2@@std@@IAE_NI_N@Z PROC NEAR ; std::basic_string<unsigned short,std::char_traits<unsigned short>,std::allocator<unsigned short> >::_Grow, COMDAT
; _this$ = ecx

; 1480 : 		{	// ensure buffer is big enough, trim to size if _Trim is true

  00000	56		 push	 esi
  00001	57		 push	 edi

; 1481 : 		if (max_size() < _Newsize)

  00002	8b 7c 24 0c	 mov	 edi, DWORD PTR __Newsize$[esp+4]
  00006	81 ff fe ff ff
	7f		 cmp	 edi, 2147483646		; 7ffffffeH
  0000c	8b f1		 mov	 esi, ecx
  0000e	76 05		 jbe	 SHORT $L26145

; 1482 : 			_String_base::_Xlen();	// result too long

  00010	e8 00 00 00 00	 call	 ?_Xlen@_String_base@std@@QBEXXZ ; std::_String_base::_Xlen
$L26145:

; 1483 : 		if (_Myres < _Newsize)

  00015	39 7e 18	 cmp	 DWORD PTR [esi+24], edi
  00018	73 0d		 jae	 SHORT $L26146

; 1484 : 			_Copy(_Newsize, _Mysize);	// reallocate to grow

  0001a	ff 76 14	 push	 DWORD PTR [esi+20]
  0001d	8b ce		 mov	 ecx, esi
  0001f	57		 push	 edi
  00020	e8 00 00 00 00	 call	 ?_Copy@?$basic_string@GU?$char_traits@G@std@@V?$allocator@G@2@@std@@IAEXII@Z ; std::basic_string<unsigned short,std::char_traits<unsigned short>,std::allocator<unsigned short> >::_Copy

; 1485 : 		else if (_Trim && _Newsize < _BUF_SIZE)

  00025	eb 2d		 jmp	 SHORT $L26150
$L26146:
  00027	80 7c 24 10 00	 cmp	 BYTE PTR __Trim$[esp+4], 0
  0002c	74 1a		 je	 SHORT $L26148
  0002e	83 ff 08	 cmp	 edi, 8
  00031	73 15		 jae	 SHORT $L26148

; 1486 : 			_Tidy(true,	// copy and deallocate if trimming to small string
; 1487 : 				_Newsize < _Mysize ? _Newsize : _Mysize);

  00033	8b 46 14	 mov	 eax, DWORD PTR [esi+20]
  00036	3b f8		 cmp	 edi, eax
  00038	73 02		 jae	 SHORT $L53840
  0003a	8b c7		 mov	 eax, edi
$L53840:
  0003c	50		 push	 eax
  0003d	6a 01		 push	 1
  0003f	8b ce		 mov	 ecx, esi
  00041	e8 00 00 00 00	 call	 ?_Tidy@?$basic_string@GU?$char_traits@G@std@@V?$allocator@G@2@@std@@IAEX_NI@Z ; std::basic_string<unsigned short,std::char_traits<unsigned short>,std::allocator<unsigned short> >::_Tidy

; 1488 : 		else if (_Newsize == 0)

  00046	eb 0c		 jmp	 SHORT $L26150
$L26148:
  00048	85 ff		 test	 edi, edi
  0004a	75 08		 jne	 SHORT $L26150

; 1489 : 			_Eos(0);	// new size is zero, just null terminate

  0004c	57		 push	 edi
  0004d	8b ce		 mov	 ecx, esi
  0004f	e8 00 00 00 00	 call	 ?_Eos@?$basic_string@GU?$char_traits@G@std@@V?$allocator@G@2@@std@@IAEXI@Z ; std::basic_string<unsigned short,std::char_traits<unsigned short>,std::allocator<unsigned short> >::_Eos
$L26150:

; 1490 : 		return (0 < _Newsize);	// return true only if more work to do

  00054	33 c0		 xor	 eax, eax
  00056	3b c7		 cmp	 eax, edi
  00058	1b c0		 sbb	 eax, eax
  0005a	5f		 pop	 edi
  0005b	f7 d8		 neg	 eax
  0005d	5e		 pop	 esi

; 1491 : 		}

  0005e	c2 08 00	 ret	 8
?_Grow@?$basic_string@GU?$char_traits@G@std@@V?$allocator@G@2@@std@@IAE_NI_N@Z ENDP ; std::basic_string<unsigned short,std::char_traits<unsigned short>,std::allocator<unsigned short> >::_Grow
; Function compile flags: /Ogsy
_TEXT	ENDS
;	COMDAT ?append@?$basic_string@DU?$char_traits@D@std@@V?$allocator@D@2@@std@@QAEAAV12@ABV12@II@Z
_TEXT	SEGMENT
__Right$ = 8						; size = 4
__Roff$ = 12						; size = 4
__Count$ = 16						; size = 4
?append@?$basic_string@DU?$char_traits@D@std@@V?$allocator@D@2@@std@@QAEAAV12@ABV12@II@Z PROC NEAR ; std::basic_string<char,std::char_traits<char>,std::allocator<char> >::append, COMDAT
; _this$ = ecx

; 502  : 		{	// append _Right [_Roff, _Roff + _Count)

  00000	55		 push	 ebp
  00001	8b ec		 mov	 ebp, esp
  00003	53		 push	 ebx

; 503  : 		if (_Right.size() < _Roff)

  00004	8b 5d 08	 mov	 ebx, DWORD PTR __Right$[ebp]
  00007	56		 push	 esi
  00008	57		 push	 edi
  00009	8b 7d 0c	 mov	 edi, DWORD PTR __Roff$[ebp]
  0000c	39 7b 14	 cmp	 DWORD PTR [ebx+20], edi
  0000f	8b f1		 mov	 esi, ecx
  00011	73 05		 jae	 SHORT $L26127

; 504  : 			_String_base::_Xran();	// _Roff off end

  00013	e8 00 00 00 00	 call	 ?_Xran@_String_base@std@@QBEXXZ ; std::_String_base::_Xran
$L26127:

; 505  : 		size_type _Num = _Right.size() - _Roff;

  00018	8b 43 14	 mov	 eax, DWORD PTR [ebx+20]
  0001b	2b c7		 sub	 eax, edi

; 506  : 		if (_Num < _Count)

  0001d	3b 45 10	 cmp	 eax, DWORD PTR __Count$[ebp]
  00020	73 03		 jae	 SHORT $L26129

; 507  : 			_Count = _Num;	// trim _Count to size

  00022	89 45 10	 mov	 DWORD PTR __Count$[ebp], eax
$L26129:

; 508  : 		if (npos - _Mysize <= _Count)

  00025	83 c8 ff	 or	 eax, -1
  00028	2b 46 14	 sub	 eax, DWORD PTR [esi+20]
  0002b	3b 45 10	 cmp	 eax, DWORD PTR __Count$[ebp]
  0002e	77 07		 ja	 SHORT $L26130

; 509  : 			_String_base::_Xlen();	// result too long

  00030	8b ce		 mov	 ecx, esi
  00032	e8 00 00 00 00	 call	 ?_Xlen@_String_base@std@@QBEXXZ ; std::_String_base::_Xlen
$L26130:

; 510  : 
; 511  : 		if (0 < _Count && _Grow(_Num = _Mysize + _Count))

  00037	83 7d 10 00	 cmp	 DWORD PTR __Count$[ebp], 0
  0003b	76 4f		 jbe	 SHORT $L26131
  0003d	8b 7e 14	 mov	 edi, DWORD PTR [esi+20]
  00040	03 7d 10	 add	 edi, DWORD PTR __Count$[ebp]
  00043	6a 00		 push	 0
  00045	57		 push	 edi
  00046	8b ce		 mov	 ecx, esi
  00048	e8 00 00 00 00	 call	 ?_Grow@?$basic_string@DU?$char_traits@D@std@@V?$allocator@D@2@@std@@IAE_NI_N@Z ; std::basic_string<char,std::char_traits<char>,std::allocator<char> >::_Grow
  0004d	84 c0		 test	 al, al
  0004f	74 3b		 je	 SHORT $L26131

; 512  : 			{	// make room and append new stuff
; 513  : 			_Traits::copy(_Myptr() + _Mysize,
; 514  : 				_Right._Myptr() + _Roff, _Count);

  00051	83 7b 18 10	 cmp	 DWORD PTR [ebx+24], 16	; 00000010H
  00055	72 05		 jb	 SHORT $L53877
  00057	8b 5b 04	 mov	 ebx, DWORD PTR [ebx+4]
  0005a	eb 03		 jmp	 SHORT $L53878
$L53877:
  0005c	83 c3 04	 add	 ebx, 4
$L53878:
  0005f	83 7e 18 10	 cmp	 DWORD PTR [esi+24], 16	; 00000010H
  00063	72 05		 jb	 SHORT $L53885
  00065	8b 46 04	 mov	 eax, DWORD PTR [esi+4]
  00068	eb 03		 jmp	 SHORT $L53886
$L53885:
  0006a	8d 46 04	 lea	 eax, DWORD PTR [esi+4]
$L53886:
  0006d	8b 4d 0c	 mov	 ecx, DWORD PTR __Roff$[ebp]
  00070	ff 75 10	 push	 DWORD PTR __Count$[ebp]
  00073	03 d9		 add	 ebx, ecx
  00075	8b 4e 14	 mov	 ecx, DWORD PTR [esi+20]
  00078	03 c8		 add	 ecx, eax
  0007a	53		 push	 ebx
  0007b	51		 push	 ecx
  0007c	e8 00 00 00 00	 call	 ?copy@?$char_traits@D@std@@SAPADPADPBDI@Z ; std::char_traits<char>::copy
  00081	83 c4 0c	 add	 esp, 12			; 0000000cH

; 515  : 			_Eos(_Num);

  00084	57		 push	 edi
  00085	8b ce		 mov	 ecx, esi
  00087	e8 00 00 00 00	 call	 ?_Eos@?$basic_string@DU?$char_traits@D@std@@V?$allocator@D@2@@std@@IAEXI@Z ; std::basic_string<char,std::char_traits<char>,std::allocator<char> >::_Eos
$L26131:
  0008c	5f		 pop	 edi

; 516  : 			}
; 517  : 		return (*this);

  0008d	8b c6		 mov	 eax, esi
  0008f	5e		 pop	 esi
  00090	5b		 pop	 ebx

; 518  : 		}

  00091	5d		 pop	 ebp
  00092	c2 0c 00	 ret	 12			; 0000000cH
?append@?$basic_string@DU?$char_traits@D@std@@V?$allocator@D@2@@std@@QAEAAV12@ABV12@II@Z ENDP ; std::basic_string<char,std::char_traits<char>,std::allocator<char> >::append
; Function compile flags: /Ogsy
_TEXT	ENDS
;	COMDAT ?assign@?$basic_string@GU?$char_traits@G@std@@V?$allocator@G@2@@std@@QAEAAV12@ABV12@II@Z
_TEXT	SEGMENT
_this$ = -4						; size = 4
__Right$ = 8						; size = 4
__Roff$ = 12						; size = 4
__Count$ = 16						; size = 4
?assign@?$basic_string@GU?$char_traits@G@std@@V?$allocator@G@2@@std@@QAEAAV12@ABV12@II@Z PROC NEAR ; std::basic_string<unsigned short,std::char_traits<unsigned short>,std::allocator<unsigned short> >::assign, COMDAT
; _this$ = ecx

; 590  : 		{	// assign _Right [_Roff, _Roff + _Count)

  00000	55		 push	 ebp
  00001	8b ec		 mov	 ebp, esp
  00003	51		 push	 ecx

; 591  : 		if (_Right.size() < _Roff)

  00004	8b 45 0c	 mov	 eax, DWORD PTR __Roff$[ebp]
  00007	53		 push	 ebx
  00008	56		 push	 esi
  00009	8b 75 08	 mov	 esi, DWORD PTR __Right$[ebp]
  0000c	39 46 14	 cmp	 DWORD PTR [esi+20], eax
  0000f	57		 push	 edi
  00010	8b f9		 mov	 edi, ecx
  00012	89 7d fc	 mov	 DWORD PTR _this$[ebp], edi
  00015	73 05		 jae	 SHORT $L25957

; 592  : 			_String_base::_Xran();	// _Roff off end

  00017	e8 00 00 00 00	 call	 ?_Xran@_String_base@std@@QBEXXZ ; std::_String_base::_Xran
$L25957:

; 593  : 		size_type _Num = _Right.size() - _Roff;

  0001c	8b 5e 14	 mov	 ebx, DWORD PTR [esi+20]
  0001f	8b 45 0c	 mov	 eax, DWORD PTR __Roff$[ebp]
  00022	2b d8		 sub	 ebx, eax

; 594  : 		if (_Count < _Num)

  00024	39 5d 10	 cmp	 DWORD PTR __Count$[ebp], ebx
  00027	73 03		 jae	 SHORT $L25959

; 595  : 			_Num = _Count;	// trim _Num to size

  00029	8b 5d 10	 mov	 ebx, DWORD PTR __Count$[ebp]
$L25959:

; 596  : 
; 597  : 		if (this == &_Right)

  0002c	3b fe		 cmp	 edi, esi

; 598  : 			erase((size_type)(_Roff + _Num)), erase(0, _Roff);	// substring

  0002e	8b cf		 mov	 ecx, edi
  00030	75 18		 jne	 SHORT $L25960
  00032	6a ff		 push	 -1
  00034	03 d8		 add	 ebx, eax
  00036	53		 push	 ebx
  00037	e8 00 00 00 00	 call	 ?erase@?$basic_string@GU?$char_traits@G@std@@V?$allocator@G@2@@std@@QAEAAV12@II@Z ; std::basic_string<unsigned short,std::char_traits<unsigned short>,std::allocator<unsigned short> >::erase
  0003c	ff 75 0c	 push	 DWORD PTR __Roff$[ebp]
  0003f	8b cf		 mov	 ecx, edi
  00041	6a 00		 push	 0
  00043	e8 00 00 00 00	 call	 ?erase@?$basic_string@GU?$char_traits@G@std@@V?$allocator@G@2@@std@@QAEAAV12@II@Z ; std::basic_string<unsigned short,std::char_traits<unsigned short>,std::allocator<unsigned short> >::erase

; 599  : 		else if (_Grow(_Num))

  00048	eb 3f		 jmp	 SHORT $L26079
$L25960:
  0004a	6a 00		 push	 0
  0004c	53		 push	 ebx
  0004d	e8 00 00 00 00	 call	 ?_Grow@?$basic_string@GU?$char_traits@G@std@@V?$allocator@G@2@@std@@IAE_NI_N@Z ; std::basic_string<unsigned short,std::char_traits<unsigned short>,std::allocator<unsigned short> >::_Grow
  00052	84 c0		 test	 al, al
  00054	74 33		 je	 SHORT $L26079

; 600  : 			{	// make room and assign new stuff
; 601  : 			_Traits::copy(_Myptr(), _Right._Myptr() + _Roff, _Num);

  00056	83 7e 18 08	 cmp	 DWORD PTR [esi+24], 8
  0005a	72 05		 jb	 SHORT $L53902
  0005c	8b 76 04	 mov	 esi, DWORD PTR [esi+4]
  0005f	eb 03		 jmp	 SHORT $L53903
$L53902:
  00061	83 c6 04	 add	 esi, 4
$L53903:
  00064	83 7f 18 08	 cmp	 DWORD PTR [edi+24], 8
  00068	72 05		 jb	 SHORT $L53909
  0006a	8b 7f 04	 mov	 edi, DWORD PTR [edi+4]
  0006d	eb 03		 jmp	 SHORT $L53910
$L53909:
  0006f	83 c7 04	 add	 edi, 4
$L53910:
  00072	8b 45 0c	 mov	 eax, DWORD PTR __Roff$[ebp]
  00075	8d 34 46	 lea	 esi, DWORD PTR [esi+eax*2]
  00078	8b cb		 mov	 ecx, ebx
  0007a	66 f3 a5	 rep movsw

; 602  : 			_Eos(_Num);

  0007d	8b 4d fc	 mov	 ecx, DWORD PTR _this$[ebp]
  00080	53		 push	 ebx
  00081	e8 00 00 00 00	 call	 ?_Eos@?$basic_string@GU?$char_traits@G@std@@V?$allocator@G@2@@std@@IAEXI@Z ; std::basic_string<unsigned short,std::char_traits<unsigned short>,std::allocator<unsigned short> >::_Eos
  00086	8b 7d fc	 mov	 edi, DWORD PTR _this$[ebp]
$L26079:

; 603  : 			}
; 604  : 		return (*this);

  00089	8b c7		 mov	 eax, edi
  0008b	5f		 pop	 edi
  0008c	5e		 pop	 esi
  0008d	5b		 pop	 ebx

; 605  : 		}

  0008e	c9		 leave
  0008f	c2 0c 00	 ret	 12			; 0000000cH
?assign@?$basic_string@GU?$char_traits@G@std@@V?$allocator@G@2@@std@@QAEAAV12@ABV12@II@Z ENDP ; std::basic_string<unsigned short,std::char_traits<unsigned short>,std::allocator<unsigned short> >::assign
; Function compile flags: /Ogsy
; File c:\program files (x86)\microsoft visual studio .net 2003\vc7\include\xlocnum
_TEXT	ENDS
;	COMDAT ?_Putgrouped@?$num_put@DV?$ostreambuf_iterator@DU?$char_traits@D@std@@@std@@@std@@ABA?AV?$ostreambuf_iterator@DU?$char_traits@D@std@@@2@V32@PBDID@Z
_TEXT	SEGMENT
$T53925 = -8						; size = 8
_this$ = 8						; size = 4
___$ReturnUdt$ = 12					; size = 4
$T53924 = 16						; size = 8
__Dest$ = 16						; size = 8
__Ptr$ = 24						; size = 4
__Count$ = 28						; size = 4
__Kseparator$ = 32					; size = 1
?_Putgrouped@?$num_put@DV?$ostreambuf_iterator@DU?$char_traits@D@std@@@std@@@std@@ABA?AV?$ostreambuf_iterator@DU?$char_traits@D@std@@@2@V32@PBDID@Z PROC NEAR ; std::num_put<char,std::ostreambuf_iterator<char,std::char_traits<char> > >::_Putgrouped, COMDAT

; 1258 : 		{	// put char sequence [_Ptr, _Ptr + _Count) to _Dest with commas

  00000	55		 push	 ebp
  00001	8b ec		 mov	 ebp, esp
  00003	51		 push	 ecx
  00004	51		 push	 ecx
  00005	53		 push	 ebx
  00006	8b 5d 14	 mov	 ebx, DWORD PTR __Dest$[ebp+4]
  00009	56		 push	 esi
  0000a	57		 push	 edi
  0000b	8b 7d 10	 mov	 edi, DWORD PTR __Dest$[ebp]
$L25931:

; 1259 : 		for (; ; ++_Ptr, --_Count)
; 1260 : 			{	// put field with thousands separators for commas
; 1261 : 			const char *_Pend = (const char *)::memchr(_Ptr, ',', _Count);

  0000e	8b 75 1c	 mov	 esi, DWORD PTR __Count$[ebp]
  00011	56		 push	 esi
  00012	6a 2c		 push	 44			; 0000002cH
  00014	ff 75 18	 push	 DWORD PTR __Ptr$[ebp]
  00017	e8 00 00 00 00	 call	 _memchr
  0001c	83 c4 0c	 add	 esp, 12			; 0000000cH

; 1262 : 			size_t _Groupsize = _Pend != 0 ? _Pend - _Ptr : _Count;

  0001f	85 c0		 test	 eax, eax
  00021	74 05		 je	 SHORT $L53923
  00023	2b 45 18	 sub	 eax, DWORD PTR __Ptr$[ebp]
  00026	8b f0		 mov	 esi, eax
$L53923:

; 1263 : 
; 1264 : 			_Dest = _Putc(_Dest, _Ptr, _Groupsize);

  00028	8b 4d 18	 mov	 ecx, DWORD PTR __Ptr$[ebp]
  0002b	53		 push	 ebx
  0002c	57		 push	 edi
  0002d	8b c6		 mov	 eax, esi
  0002f	8d 5d 10	 lea	 ebx, DWORD PTR $T53924[ebp]
  00032	e8 00 00 00 00	 call	 ?_Putc@?$num_put@DV?$ostreambuf_iterator@DU?$char_traits@D@std@@@std@@@std@@ABA?AV?$ostreambuf_iterator@DU?$char_traits@D@std@@@2@V32@PBDI@Z ; std::num_put<char,std::ostreambuf_iterator<char,std::char_traits<char> > >::_Putc

; 1265 : 			_Ptr += _Groupsize, _Count -= _Groupsize;

  00037	01 75 18	 add	 DWORD PTR __Ptr$[ebp], esi
  0003a	29 75 1c	 sub	 DWORD PTR __Count$[ebp], esi
  0003d	8b 38		 mov	 edi, DWORD PTR [eax]
  0003f	8b 58 04	 mov	 ebx, DWORD PTR [eax+4]
  00042	59		 pop	 ecx
  00043	59		 pop	 ecx

; 1266 : 			if (_Count == 0)

  00044	74 26		 je	 SHORT $L53928

; 1267 : 				break;
; 1268 : 			if (_Kseparator != (_Elem)0)

  00046	80 7d 20 00	 cmp	 BYTE PTR __Kseparator$[ebp], 0
  0004a	74 18		 je	 SHORT $L25932

; 1269 : 				_Dest = _Rep(_Dest, _Kseparator, 1);

  0004c	ff 75 20	 push	 DWORD PTR __Kseparator$[ebp]
  0004f	33 c0		 xor	 eax, eax
  00051	53		 push	 ebx
  00052	57		 push	 edi
  00053	40		 inc	 eax
  00054	8d 7d f8	 lea	 edi, DWORD PTR $T53925[ebp]
  00057	e8 00 00 00 00	 call	 ?_Rep@?$num_put@DV?$ostreambuf_iterator@DU?$char_traits@D@std@@@std@@@std@@ABA?AV?$ostreambuf_iterator@DU?$char_traits@D@std@@@2@V32@DI@Z ; std::num_put<char,std::ostreambuf_iterator<char,std::char_traits<char> > >::_Rep
  0005c	8b 38		 mov	 edi, DWORD PTR [eax]
  0005e	8b 58 04	 mov	 ebx, DWORD PTR [eax+4]
  00061	83 c4 0c	 add	 esp, 12			; 0000000cH
$L25932:
  00064	ff 45 18	 inc	 DWORD PTR __Ptr$[ebp]
  00067	ff 4d 1c	 dec	 DWORD PTR __Count$[ebp]
  0006a	eb a2		 jmp	 SHORT $L25931
$L53928:

; 1270 : 			}
; 1271 : 		return (_Dest);

  0006c	8b 45 0c	 mov	 eax, DWORD PTR ___$ReturnUdt$[ebp]
  0006f	89 38		 mov	 DWORD PTR [eax], edi
  00071	5f		 pop	 edi
  00072	5e		 pop	 esi
  00073	89 58 04	 mov	 DWORD PTR [eax+4], ebx
  00076	5b		 pop	 ebx

; 1272 : 		}

  00077	c9		 leave
  00078	c3		 ret	 0
?_Putgrouped@?$num_put@DV?$ostreambuf_iterator@DU?$char_traits@D@std@@@std@@@std@@ABA?AV?$ostreambuf_iterator@DU?$char_traits@D@std@@@2@V32@PBDID@Z ENDP ; std::num_put<char,std::ostreambuf_iterator<char,std::char_traits<char> > >::_Putgrouped
; Function compile flags: /Ogsy
_TEXT	ENDS
;	COMDAT ?_Putgrouped@?$num_put@GV?$ostreambuf_iterator@GU?$char_traits@G@std@@@std@@@std@@ABA?AV?$ostreambuf_iterator@GU?$char_traits@G@std@@@2@V32@PBDIG@Z
_TEXT	SEGMENT
$T53934 = -8						; size = 8
_this$ = 8						; size = 4
___$ReturnUdt$ = 12					; size = 4
$T53933 = 16						; size = 8
__Dest$ = 16						; size = 8
__Ptr$ = 24						; size = 4
__Count$ = 28						; size = 4
__Kseparator$ = 32					; size = 2
?_Putgrouped@?$num_put@GV?$ostreambuf_iterator@GU?$char_traits@G@std@@@std@@@std@@ABA?AV?$ostreambuf_iterator@GU?$char_traits@G@std@@@2@V32@PBDIG@Z PROC NEAR ; std::num_put<unsigned short,std::ostreambuf_iterator<unsigned short,std::char_traits<unsigned short> > >::_Putgrouped, COMDAT

; 1258 : 		{	// put char sequence [_Ptr, _Ptr + _Count) to _Dest with commas

  00000	55		 push	 ebp
  00001	8b ec		 mov	 ebp, esp
  00003	51		 push	 ecx
  00004	51		 push	 ecx
  00005	53		 push	 ebx
  00006	8b 5d 14	 mov	 ebx, DWORD PTR __Dest$[ebp+4]
  00009	56		 push	 esi
  0000a	57		 push	 edi
  0000b	8b 7d 10	 mov	 edi, DWORD PTR __Dest$[ebp]
$L25900:

; 1259 : 		for (; ; ++_Ptr, --_Count)
; 1260 : 			{	// put field with thousands separators for commas
; 1261 : 			const char *_Pend = (const char *)::memchr(_Ptr, ',', _Count);

  0000e	8b 75 1c	 mov	 esi, DWORD PTR __Count$[ebp]
  00011	56		 push	 esi
  00012	6a 2c		 push	 44			; 0000002cH
  00014	ff 75 18	 push	 DWORD PTR __Ptr$[ebp]
  00017	e8 00 00 00 00	 call	 _memchr
  0001c	83 c4 0c	 add	 esp, 12			; 0000000cH

; 1262 : 			size_t _Groupsize = _Pend != 0 ? _Pend - _Ptr : _Count;

  0001f	85 c0		 test	 eax, eax
  00021	74 05		 je	 SHORT $L53932
  00023	2b 45 18	 sub	 eax, DWORD PTR __Ptr$[ebp]
  00026	8b f0		 mov	 esi, eax
$L53932:

; 1263 : 
; 1264 : 			_Dest = _Putc(_Dest, _Ptr, _Groupsize);

  00028	8b 4d 18	 mov	 ecx, DWORD PTR __Ptr$[ebp]
  0002b	8b 55 08	 mov	 edx, DWORD PTR _this$[ebp]
  0002e	53		 push	 ebx
  0002f	8d 45 10	 lea	 eax, DWORD PTR $T53933[ebp]
  00032	57		 push	 edi
  00033	50		 push	 eax
  00034	8b c6		 mov	 eax, esi
  00036	e8 00 00 00 00	 call	 ?_Putc@?$num_put@GV?$ostreambuf_iterator@GU?$char_traits@G@std@@@std@@@std@@ABA?AV?$ostreambuf_iterator@GU?$char_traits@G@std@@@2@V32@PBDI@Z ; std::num_put<unsigned short,std::ostreambuf_iterator<unsigned short,std::char_traits<unsigned short> > >::_Putc

; 1265 : 			_Ptr += _Groupsize, _Count -= _Groupsize;

  0003b	01 75 18	 add	 DWORD PTR __Ptr$[ebp], esi
  0003e	8b 38		 mov	 edi, DWORD PTR [eax]
  00040	8b 58 04	 mov	 ebx, DWORD PTR [eax+4]
  00043	83 c4 0c	 add	 esp, 12			; 0000000cH
  00046	29 75 1c	 sub	 DWORD PTR __Count$[ebp], esi

; 1266 : 			if (_Count == 0)

  00049	74 27		 je	 SHORT $L53937

; 1267 : 				break;
; 1268 : 			if (_Kseparator != (_Elem)0)

  0004b	66 83 7d 20 00	 cmp	 WORD PTR __Kseparator$[ebp], 0
  00050	74 18		 je	 SHORT $L25901

; 1269 : 				_Dest = _Rep(_Dest, _Kseparator, 1);

  00052	ff 75 20	 push	 DWORD PTR __Kseparator$[ebp]
  00055	33 c0		 xor	 eax, eax
  00057	53		 push	 ebx
  00058	57		 push	 edi
  00059	40		 inc	 eax
  0005a	8d 7d f8	 lea	 edi, DWORD PTR $T53934[ebp]
  0005d	e8 00 00 00 00	 call	 ?_Rep@?$num_put@GV?$ostreambuf_iterator@GU?$char_traits@G@std@@@std@@@std@@ABA?AV?$ostreambuf_iterator@GU?$char_traits@G@std@@@2@V32@GI@Z ; std::num_put<unsigned short,std::ostreambuf_iterator<unsigned short,std::char_traits<unsigned short> > >::_Rep
  00062	8b 38		 mov	 edi, DWORD PTR [eax]
  00064	8b 58 04	 mov	 ebx, DWORD PTR [eax+4]
  00067	83 c4 0c	 add	 esp, 12			; 0000000cH
$L25901:
  0006a	ff 45 18	 inc	 DWORD PTR __Ptr$[ebp]
  0006d	ff 4d 1c	 dec	 DWORD PTR __Count$[ebp]
  00070	eb 9c		 jmp	 SHORT $L25900
$L53937:

; 1270 : 			}
; 1271 : 		return (_Dest);

  00072	8b 45 0c	 mov	 eax, DWORD PTR ___$ReturnUdt$[ebp]
  00075	89 38		 mov	 DWORD PTR [eax], edi
  00077	5f		 pop	 edi
  00078	5e		 pop	 esi
  00079	89 58 04	 mov	 DWORD PTR [eax+4], ebx
  0007c	5b		 pop	 ebx

; 1272 : 		}

  0007d	c9		 leave
  0007e	c3		 ret	 0
?_Putgrouped@?$num_put@GV?$ostreambuf_iterator@GU?$char_traits@G@std@@@std@@@std@@ABA?AV?$ostreambuf_iterator@GU?$char_traits@G@std@@@2@V32@PBDIG@Z ENDP ; std::num_put<unsigned short,std::ostreambuf_iterator<unsigned short,std::char_traits<unsigned short> > >::_Putgrouped
; Function compile flags: /Ogsy
; File c:\program files (x86)\microsoft visual studio .net 2003\vc7\include\xstring
_TEXT	ENDS
;	COMDAT ?insert@?$basic_string@DU?$char_traits@D@std@@V?$allocator@D@2@@std@@QAEAAV12@IID@Z
_TEXT	SEGMENT
__Num$ = 8						; size = 4
__Off$ = 8						; size = 4
__Count$ = 12						; size = 4
__Ch$ = 16						; size = 1
?insert@?$basic_string@DU?$char_traits@D@std@@V?$allocator@D@2@@std@@QAEAAV12@IID@Z PROC NEAR ; std::basic_string<char,std::char_traits<char>,std::allocator<char> >::insert, COMDAT
; _this$ = ecx

; 726  : 		{	// insert _Count * _Ch at _Off

  00000	55		 push	 ebp
  00001	8b ec		 mov	 ebp, esp
  00003	53		 push	 ebx

; 727  : 		if (_Mysize < _Off)

  00004	8b 5d 08	 mov	 ebx, DWORD PTR __Off$[ebp]
  00007	56		 push	 esi
  00008	8b f1		 mov	 esi, ecx
  0000a	39 5e 14	 cmp	 DWORD PTR [esi+20], ebx
  0000d	73 05		 jae	 SHORT $L25886

; 728  : 			_String_base::_Xran();	// _Off off end

  0000f	e8 00 00 00 00	 call	 ?_Xran@_String_base@std@@QBEXXZ ; std::_String_base::_Xran
$L25886:

; 729  : 		if (npos - _Mysize <= _Count)

  00014	83 c8 ff	 or	 eax, -1
  00017	2b 46 14	 sub	 eax, DWORD PTR [esi+20]
  0001a	3b 45 0c	 cmp	 eax, DWORD PTR __Count$[ebp]
  0001d	77 07		 ja	 SHORT $L25887

; 730  : 			_String_base::_Xlen();	// result too long

  0001f	8b ce		 mov	 ecx, esi
  00021	e8 00 00 00 00	 call	 ?_Xlen@_String_base@std@@QBEXXZ ; std::_String_base::_Xlen
$L25887:

; 731  : 		size_type _Num;
; 732  : 		if (0 < _Count && _Grow(_Num = _Mysize + _Count))

  00026	83 7d 0c 00	 cmp	 DWORD PTR __Count$[ebp], 0
  0002a	76 6f		 jbe	 SHORT $L25889
  0002c	8b 46 14	 mov	 eax, DWORD PTR [esi+20]
  0002f	03 45 0c	 add	 eax, DWORD PTR __Count$[ebp]
  00032	6a 00		 push	 0
  00034	50		 push	 eax
  00035	8b ce		 mov	 ecx, esi
  00037	89 45 08	 mov	 DWORD PTR __Num$[ebp], eax
  0003a	e8 00 00 00 00	 call	 ?_Grow@?$basic_string@DU?$char_traits@D@std@@V?$allocator@D@2@@std@@IAE_NI_N@Z ; std::basic_string<char,std::char_traits<char>,std::allocator<char> >::_Grow
  0003f	84 c0		 test	 al, al
  00041	74 58		 je	 SHORT $L25889

; 733  : 			{	// make room and insert new stuff
; 734  : 			_Traits::move(_Myptr() + _Off + _Count,
; 735  : 				_Myptr() + _Off, _Mysize - _Off);	// empty out hole

  00043	8b 46 18	 mov	 eax, DWORD PTR [esi+24]
  00046	83 f8 10	 cmp	 eax, 16			; 00000010H
  00049	57		 push	 edi
  0004a	8d 7e 04	 lea	 edi, DWORD PTR [esi+4]
  0004d	72 04		 jb	 SHORT $L53945
  0004f	8b 0f		 mov	 ecx, DWORD PTR [edi]
  00051	eb 02		 jmp	 SHORT $L53946
$L53945:
  00053	8b cf		 mov	 ecx, edi
$L53946:
  00055	83 f8 10	 cmp	 eax, 16			; 00000010H
  00058	72 04		 jb	 SHORT $L53952
  0005a	8b 07		 mov	 eax, DWORD PTR [edi]
  0005c	eb 02		 jmp	 SHORT $L53953
$L53952:
  0005e	8b c7		 mov	 eax, edi
$L53953:
  00060	8b 56 14	 mov	 edx, DWORD PTR [esi+20]
  00063	2b d3		 sub	 edx, ebx
  00065	52		 push	 edx

; 738  : 			}
; 739  : 		return (*this);

  00066	03 c3		 add	 eax, ebx
  00068	03 45 0c	 add	 eax, DWORD PTR __Count$[ebp]
  0006b	03 cb		 add	 ecx, ebx
  0006d	51		 push	 ecx
  0006e	50		 push	 eax
  0006f	e8 00 00 00 00	 call	 _memmove
  00074	83 c4 0c	 add	 esp, 12			; 0000000cH
  00077	83 7e 18 10	 cmp	 DWORD PTR [esi+24], 16	; 00000010H
  0007b	72 02		 jb	 SHORT $L53964

; 736  : 			_Traits::assign(_Myptr() + _Off, _Count, _Ch);	// fill hole

  0007d	8b 3f		 mov	 edi, DWORD PTR [edi]
$L53964:
  0007f	ff 75 10	 push	 DWORD PTR __Ch$[ebp]
  00082	03 fb		 add	 edi, ebx
  00084	ff 75 0c	 push	 DWORD PTR __Count$[ebp]
  00087	57		 push	 edi
  00088	e8 00 00 00 00	 call	 ?assign@?$char_traits@D@std@@SAPADPADID@Z ; std::char_traits<char>::assign
  0008d	83 c4 0c	 add	 esp, 12			; 0000000cH

; 737  : 			_Eos(_Num);

  00090	ff 75 08	 push	 DWORD PTR __Num$[ebp]
  00093	8b ce		 mov	 ecx, esi
  00095	e8 00 00 00 00	 call	 ?_Eos@?$basic_string@DU?$char_traits@D@std@@V?$allocator@D@2@@std@@IAEXI@Z ; std::basic_string<char,std::char_traits<char>,std::allocator<char> >::_Eos
  0009a	5f		 pop	 edi
$L25889:

; 738  : 			}
; 739  : 		return (*this);

  0009b	8b c6		 mov	 eax, esi
  0009d	5e		 pop	 esi
  0009e	5b		 pop	 ebx

; 740  : 		}

  0009f	5d		 pop	 ebp
  000a0	c2 0c 00	 ret	 12			; 0000000cH
?insert@?$basic_string@DU?$char_traits@D@std@@V?$allocator@D@2@@std@@QAEAAV12@IID@Z ENDP ; std::basic_string<char,std::char_traits<char>,std::allocator<char> >::insert
; Function compile flags: /Ogsy
_TEXT	ENDS
;	COMDAT ?append@?$basic_string@DU?$char_traits@D@std@@V?$allocator@D@2@@std@@QAEAAV12@PBDI@Z
_TEXT	SEGMENT
__Ptr$ = 8						; size = 4
__Count$ = 12						; size = 4
?append@?$basic_string@DU?$char_traits@D@std@@V?$allocator@D@2@@std@@QAEAAV12@PBDI@Z PROC NEAR ; std::basic_string<char,std::char_traits<char>,std::allocator<char> >::append, COMDAT
; _this$ = ecx

; 521  : 		{	// append [_Ptr, _Ptr + _Count)

  00000	55		 push	 ebp
  00001	8b ec		 mov	 ebp, esp
  00003	53		 push	 ebx

; 522  : 		if (_Inside(_Ptr))

  00004	8b 5d 08	 mov	 ebx, DWORD PTR __Ptr$[ebp]
  00007	56		 push	 esi
  00008	53		 push	 ebx
  00009	8b f1		 mov	 esi, ecx
  0000b	e8 00 00 00 00	 call	 ?_Inside@?$basic_string@DU?$char_traits@D@std@@V?$allocator@D@2@@std@@IAE_NPBD@Z ; std::basic_string<char,std::char_traits<char>,std::allocator<char> >::_Inside
  00010	84 c0		 test	 al, al
  00012	74 1e		 je	 SHORT $L25880

; 523  : 			return (append(*this, _Ptr - _Myptr(), _Count));	// substring

  00014	83 7e 18 10	 cmp	 DWORD PTR [esi+24], 16	; 00000010H
  00018	72 05		 jb	 SHORT $L53972
  0001a	8b 46 04	 mov	 eax, DWORD PTR [esi+4]
  0001d	eb 03		 jmp	 SHORT $L53973
$L53972:
  0001f	8d 46 04	 lea	 eax, DWORD PTR [esi+4]
$L53973:
  00022	ff 75 0c	 push	 DWORD PTR __Count$[ebp]
  00025	2b d8		 sub	 ebx, eax
  00027	53		 push	 ebx
  00028	56		 push	 esi
  00029	8b ce		 mov	 ecx, esi
  0002b	e8 00 00 00 00	 call	 ?append@?$basic_string@DU?$char_traits@D@std@@V?$allocator@D@2@@std@@QAEAAV12@ABV12@II@Z ; std::basic_string<char,std::char_traits<char>,std::allocator<char> >::append
  00030	eb 58		 jmp	 SHORT $L25879
$L25880:

; 524  : 		if (npos - _Mysize <= _Count)

  00032	83 c8 ff	 or	 eax, -1
  00035	2b 46 14	 sub	 eax, DWORD PTR [esi+20]
  00038	3b 45 0c	 cmp	 eax, DWORD PTR __Count$[ebp]
  0003b	77 07		 ja	 SHORT $L25881

; 525  : 			_String_base::_Xlen();	// result too long

  0003d	8b ce		 mov	 ecx, esi
  0003f	e8 00 00 00 00	 call	 ?_Xlen@_String_base@std@@QBEXXZ ; std::_String_base::_Xlen
$L25881:

; 526  : 
; 527  : 		size_type _Num;
; 528  : 		if (0 < _Count && _Grow(_Num = _Mysize + _Count))

  00044	83 7d 0c 00	 cmp	 DWORD PTR __Count$[ebp], 0
  00048	76 3e		 jbe	 SHORT $L25883
  0004a	57		 push	 edi
  0004b	8b 7e 14	 mov	 edi, DWORD PTR [esi+20]
  0004e	03 7d 0c	 add	 edi, DWORD PTR __Count$[ebp]
  00051	6a 00		 push	 0
  00053	57		 push	 edi
  00054	8b ce		 mov	 ecx, esi
  00056	e8 00 00 00 00	 call	 ?_Grow@?$basic_string@DU?$char_traits@D@std@@V?$allocator@D@2@@std@@IAE_NI_N@Z ; std::basic_string<char,std::char_traits<char>,std::allocator<char> >::_Grow
  0005b	84 c0		 test	 al, al
  0005d	74 28		 je	 SHORT $L53981

; 529  : 			{	// make room and append new stuff
; 530  : 			_Traits::copy(_Myptr() + _Mysize, _Ptr, _Count);

  0005f	83 7e 18 10	 cmp	 DWORD PTR [esi+24], 16	; 00000010H
  00063	72 05		 jb	 SHORT $L53979
  00065	8b 46 04	 mov	 eax, DWORD PTR [esi+4]
  00068	eb 03		 jmp	 SHORT $L53980
$L53979:
  0006a	8d 46 04	 lea	 eax, DWORD PTR [esi+4]
$L53980:
  0006d	ff 75 0c	 push	 DWORD PTR __Count$[ebp]
  00070	8b 4e 14	 mov	 ecx, DWORD PTR [esi+20]
  00073	03 c8		 add	 ecx, eax
  00075	53		 push	 ebx
  00076	51		 push	 ecx
  00077	e8 00 00 00 00	 call	 ?copy@?$char_traits@D@std@@SAPADPADPBDI@Z ; std::char_traits<char>::copy
  0007c	83 c4 0c	 add	 esp, 12			; 0000000cH

; 531  : 			_Eos(_Num);

  0007f	57		 push	 edi
  00080	8b ce		 mov	 ecx, esi
  00082	e8 00 00 00 00	 call	 ?_Eos@?$basic_string@DU?$char_traits@D@std@@V?$allocator@D@2@@std@@IAEXI@Z ; std::basic_string<char,std::char_traits<char>,std::allocator<char> >::_Eos
$L53981:
  00087	5f		 pop	 edi
$L25883:

; 532  : 			}
; 533  : 		return (*this);

  00088	8b c6		 mov	 eax, esi
$L25879:
  0008a	5e		 pop	 esi
  0008b	5b		 pop	 ebx

; 534  : 		}

  0008c	5d		 pop	 ebp
  0008d	c2 08 00	 ret	 8
?append@?$basic_string@DU?$char_traits@D@std@@V?$allocator@D@2@@std@@QAEAAV12@PBDI@Z ENDP ; std::basic_string<char,std::char_traits<char>,std::allocator<char> >::append
; Function compile flags: /Ogsy
_TEXT	ENDS
;	COMDAT ??_G?$numpunct@D@std@@MAEPAXI@Z
_TEXT	SEGMENT
___flags$ = 8						; size = 4
??_G?$numpunct@D@std@@MAEPAXI@Z PROC NEAR		; std::numpunct<char>::`scalar deleting destructor', COMDAT
; _this$ = ecx
  00000	56		 push	 esi
  00001	8b f1		 mov	 esi, ecx
  00003	e8 00 00 00 00	 call	 ??1?$numpunct@D@std@@MAE@XZ ; std::numpunct<char>::~numpunct<char>
  00008	f6 44 24 08 01	 test	 BYTE PTR ___flags$[esp], 1
  0000d	74 07		 je	 SHORT $L25874
  0000f	56		 push	 esi
  00010	e8 00 00 00 00	 call	 ??3@YAXPAX@Z		; operator delete
  00015	59		 pop	 ecx
$L25874:
  00016	8b c6		 mov	 eax, esi
  00018	5e		 pop	 esi
  00019	c2 04 00	 ret	 4
??_G?$numpunct@D@std@@MAEPAXI@Z ENDP			; std::numpunct<char>::`scalar deleting destructor'
; Function compile flags: /Ogsy
_TEXT	ENDS
;	COMDAT ??_G?$numpunct@G@std@@MAEPAXI@Z
_TEXT	SEGMENT
___flags$ = 8						; size = 4
??_G?$numpunct@G@std@@MAEPAXI@Z PROC NEAR		; std::numpunct<unsigned short>::`scalar deleting destructor', COMDAT
; _this$ = ecx
  00000	56		 push	 esi
  00001	8b f1		 mov	 esi, ecx
  00003	e8 00 00 00 00	 call	 ??1?$numpunct@G@std@@MAE@XZ ; std::numpunct<unsigned short>::~numpunct<unsigned short>
  00008	f6 44 24 08 01	 test	 BYTE PTR ___flags$[esp], 1
  0000d	74 07		 je	 SHORT $L25871
  0000f	56		 push	 esi
  00010	e8 00 00 00 00	 call	 ??3@YAXPAX@Z		; operator delete
  00015	59		 pop	 ecx
$L25871:
  00016	8b c6		 mov	 eax, esi
  00018	5e		 pop	 esi
  00019	c2 04 00	 ret	 4
??_G?$numpunct@G@std@@MAEPAXI@Z ENDP			; std::numpunct<unsigned short>::`scalar deleting destructor'
; Function compile flags: /Ogsy
; File c:\program files (x86)\microsoft visual studio .net 2003\vc7\include\xlocnum
_TEXT	ENDS
;	COMDAT ?truename@?$numpunct@G@std@@QBE?AV?$basic_string@GU?$char_traits@G@std@@V?$allocator@G@2@@2@XZ
_TEXT	SEGMENT
$T53991 = -4						; size = 4
___$ReturnUdt$ = 8					; size = 4
?truename@?$numpunct@G@std@@QBE?AV?$basic_string@GU?$char_traits@G@std@@V?$allocator@G@2@@2@XZ PROC NEAR ; std::numpunct<unsigned short>::truename, COMDAT
; _this$ = ecx

; 58   : 		{	// return name for true

  00000	55		 push	 ebp
  00001	8b ec		 mov	 ebp, esp
  00003	51		 push	 ecx

; 59   : 		return (do_truename());

  00004	ff 75 08	 push	 DWORD PTR ___$ReturnUdt$[ebp]
  00007	8b 01		 mov	 eax, DWORD PTR [ecx]
  00009	83 65 fc 00	 and	 DWORD PTR $T53991[ebp], 0
  0000d	ff 50 14	 call	 DWORD PTR [eax+20]
  00010	8b 45 08	 mov	 eax, DWORD PTR ___$ReturnUdt$[ebp]

; 60   : 		}

  00013	c9		 leave
  00014	c2 04 00	 ret	 4
?truename@?$numpunct@G@std@@QBE?AV?$basic_string@GU?$char_traits@G@std@@V?$allocator@G@2@@2@XZ ENDP ; std::numpunct<unsigned short>::truename
; Function compile flags: /Ogsy
_TEXT	ENDS
;	COMDAT ?falsename@?$numpunct@G@std@@QBE?AV?$basic_string@GU?$char_traits@G@std@@V?$allocator@G@2@@2@XZ
_TEXT	SEGMENT
$T53996 = -4						; size = 4
___$ReturnUdt$ = 8					; size = 4
?falsename@?$numpunct@G@std@@QBE?AV?$basic_string@GU?$char_traits@G@std@@V?$allocator@G@2@@2@XZ PROC NEAR ; std::numpunct<unsigned short>::falsename, COMDAT
; _this$ = ecx

; 53   : 		{	// return name for false

  00000	55		 push	 ebp
  00001	8b ec		 mov	 ebp, esp
  00003	51		 push	 ecx

; 54   : 		return (do_falsename());

  00004	ff 75 08	 push	 DWORD PTR ___$ReturnUdt$[ebp]
  00007	8b 01		 mov	 eax, DWORD PTR [ecx]
  00009	83 65 fc 00	 and	 DWORD PTR $T53996[ebp], 0
  0000d	ff 50 10	 call	 DWORD PTR [eax+16]
  00010	8b 45 08	 mov	 eax, DWORD PTR ___$ReturnUdt$[ebp]

; 55   : 		}

  00013	c9		 leave
  00014	c2 04 00	 ret	 4
?falsename@?$numpunct@G@std@@QBE?AV?$basic_string@GU?$char_traits@G@std@@V?$allocator@G@2@@2@XZ ENDP ; std::numpunct<unsigned short>::falsename
; Function compile flags: /Ogsy
; File c:\program files (x86)\microsoft visual studio .net 2003\vc7\include\xstring
_TEXT	ENDS
;	COMDAT ?assign@?$basic_string@GU?$char_traits@G@std@@V?$allocator@G@2@@std@@QAEAAV12@ABV12@@Z
_TEXT	SEGMENT
__Right$ = 8						; size = 4
?assign@?$basic_string@GU?$char_traits@G@std@@V?$allocator@G@2@@std@@QAEAAV12@ABV12@@Z PROC NEAR ; std::basic_string<unsigned short,std::char_traits<unsigned short>,std::allocator<unsigned short> >::assign, COMDAT
; _this$ = ecx

; 585  : 		return (assign(_Right, 0, npos));

  00000	6a ff		 push	 -1
  00002	6a 00		 push	 0
  00004	ff 74 24 0c	 push	 DWORD PTR __Right$[esp+4]
  00008	e8 00 00 00 00	 call	 ?assign@?$basic_string@GU?$char_traits@G@std@@V?$allocator@G@2@@std@@QAEAAV12@ABV12@II@Z ; std::basic_string<unsigned short,std::char_traits<unsigned short>,std::allocator<unsigned short> >::assign

; 586  : 		}

  0000d	c2 04 00	 ret	 4
?assign@?$basic_string@GU?$char_traits@G@std@@V?$allocator@G@2@@std@@QAEAAV12@ABV12@@Z ENDP ; std::basic_string<unsigned short,std::char_traits<unsigned short>,std::allocator<unsigned short> >::assign
; Function compile flags: /Ogsy
_TEXT	ENDS
;	COMDAT ??_G?$num_put@DV?$ostreambuf_iterator@DU?$char_traits@D@std@@@std@@@std@@MAEPAXI@Z
_TEXT	SEGMENT
___flags$ = 8						; size = 4
??_G?$num_put@DV?$ostreambuf_iterator@DU?$char_traits@D@std@@@std@@@std@@MAEPAXI@Z PROC NEAR ; std::num_put<char,std::ostreambuf_iterator<char,std::char_traits<char> > >::`scalar deleting destructor', COMDAT
; _this$ = ecx
  00000	56		 push	 esi
  00001	8b f1		 mov	 esi, ecx
  00003	e8 00 00 00 00	 call	 ??1?$num_put@DV?$ostreambuf_iterator@DU?$char_traits@D@std@@@std@@@std@@MAE@XZ ; std::num_put<char,std::ostreambuf_iterator<char,std::char_traits<char> > >::~num_put<char,std::ostreambuf_iterator<char,std::char_traits<char> > >
  00008	f6 44 24 08 01	 test	 BYTE PTR ___flags$[esp], 1
  0000d	74 07		 je	 SHORT $L25562
  0000f	56		 push	 esi
  00010	e8 00 00 00 00	 call	 ??3@YAXPAX@Z		; operator delete
  00015	59		 pop	 ecx
$L25562:
  00016	8b c6		 mov	 eax, esi
  00018	5e		 pop	 esi
  00019	c2 04 00	 ret	 4
??_G?$num_put@DV?$ostreambuf_iterator@DU?$char_traits@D@std@@@std@@@std@@MAEPAXI@Z ENDP ; std::num_put<char,std::ostreambuf_iterator<char,std::char_traits<char> > >::`scalar deleting destructor'
; Function compile flags: /Ogsy
_TEXT	ENDS
;	COMDAT ??_G?$num_put@GV?$ostreambuf_iterator@GU?$char_traits@G@std@@@std@@@std@@MAEPAXI@Z
_TEXT	SEGMENT
___flags$ = 8						; size = 4
??_G?$num_put@GV?$ostreambuf_iterator@GU?$char_traits@G@std@@@std@@@std@@MAEPAXI@Z PROC NEAR ; std::num_put<unsigned short,std::ostreambuf_iterator<unsigned short,std::char_traits<unsigned short> > >::`scalar deleting destructor', COMDAT
; _this$ = ecx
  00000	56		 push	 esi
  00001	8b f1		 mov	 esi, ecx
  00003	e8 00 00 00 00	 call	 ??1?$num_put@GV?$ostreambuf_iterator@GU?$char_traits@G@std@@@std@@@std@@MAE@XZ ; std::num_put<unsigned short,std::ostreambuf_iterator<unsigned short,std::char_traits<unsigned short> > >::~num_put<unsigned short,std::ostreambuf_iterator<unsigned short,std::char_traits<unsigned short> > >
  00008	f6 44 24 08 01	 test	 BYTE PTR ___flags$[esp], 1
  0000d	74 07		 je	 SHORT $L25559
  0000f	56		 push	 esi
  00010	e8 00 00 00 00	 call	 ??3@YAXPAX@Z		; operator delete
  00015	59		 pop	 ecx
$L25559:
  00016	8b c6		 mov	 eax, esi
  00018	5e		 pop	 esi
  00019	c2 04 00	 ret	 4
??_G?$num_put@GV?$ostreambuf_iterator@GU?$char_traits@G@std@@@std@@@std@@MAEPAXI@Z ENDP ; std::num_put<unsigned short,std::ostreambuf_iterator<unsigned short,std::char_traits<unsigned short> > >::`scalar deleting destructor'
_TEXT	ENDS
;	COMDAT xdata$x
xdata$x	SEGMENT
$T54156	DD	0ffffffffH
	DD	FLAT:$L54017
	DD	0ffffffffH
	DD	FLAT:$L54018
	DD	01H
	DD	FLAT:$L54019
	DD	01H
	DD	FLAT:$L54020
$T54151	DD	019930520H
	DD	04H
	DD	FLAT:$T54156
	DD	2 DUP(00H)
	DD	2 DUP(00H)
; Function compile flags: /Ogsy
; File c:\program files (x86)\microsoft visual studio .net 2003\vc7\include\xlocnum
xdata$x	ENDS
;	COMDAT ?do_put@?$num_put@GV?$ostreambuf_iterator@GU?$char_traits@G@std@@@std@@@std@@MBE?AV?$ostreambuf_iterator@GU?$char_traits@G@std@@@2@V32@AAVios_base@2@G_N@Z
_TEXT	SEGMENT
$T54012 = -80						; size = 28
$T54011 = -80						; size = 28
$T54016 = -52						; size = 8
$T54015 = -52						; size = 8
__Punct_fac$24724 = -48					; size = 4
__Str$25275 = -44					; size = 28
__$ArrayPad$ = -16					; size = 4
__$EHRec$ = -12						; size = 12
__$ReturnAddr$ = 4					; size = 4
___$ReturnUdt$ = 8					; size = 4
__Dest$ = 12						; size = 8
$T54010 = 20						; size = 4
__Iosbase$ = 20						; size = 4
__Fill$ = 24						; size = 2
__Val$ = 28						; size = 1
?do_put@?$num_put@GV?$ostreambuf_iterator@GU?$char_traits@G@std@@@std@@@std@@MBE?AV?$ostreambuf_iterator@GU?$char_traits@G@std@@@2@V32@AAVios_base@2@G_N@Z PROC NEAR ; std::num_put<unsigned short,std::ostreambuf_iterator<unsigned short,std::char_traits<unsigned short> > >::do_put, COMDAT
; _this$ = ecx

; 881  : 		{	// put formatted bool to _Dest

  00000	b8 00 00 00 00	 mov	 eax, __ehhandler$?do_put@?$num_put@GV?$ostreambuf_iterator@GU?$char_traits@G@std@@@std@@@std@@MBE?AV?$ostreambuf_iterator@GU?$char_traits@G@std@@@2@V32@AAVios_base@2@G_N@Z
  00005	e8 00 00 00 00	 call	 __EH_prolog
  0000a	83 ec 44	 sub	 esp, 68			; 00000044H
  0000d	a1 00 00 00 00	 mov	 eax, DWORD PTR ___security_cookie
  00012	56		 push	 esi

; 882  : 		if (!(_Iosbase.flags() & ios_base::boolalpha))

  00013	8b 75 14	 mov	 esi, DWORD PTR __Iosbase$[ebp]
  00016	f6 46 11 40	 test	 BYTE PTR [esi+17], 64	; 00000040H
  0001a	89 45 f0	 mov	 DWORD PTR __$ArrayPad$[ebp], eax
  0001d	75 1f		 jne	 SHORT $L24720

; 883  : 			return (do_put(_Dest, _Iosbase, _Fill, (long)_Val));

  0001f	0f b6 55 1c	 movzx	 edx, BYTE PTR __Val$[ebp]
  00023	8b 01		 mov	 eax, DWORD PTR [ecx]
  00025	52		 push	 edx
  00026	ff 75 18	 push	 DWORD PTR __Fill$[ebp]
  00029	56		 push	 esi
  0002a	ff 75 10	 push	 DWORD PTR __Dest$[ebp+4]
  0002d	ff 75 0c	 push	 DWORD PTR __Dest$[ebp]
  00030	ff 75 08	 push	 DWORD PTR ___$ReturnUdt$[ebp]
  00033	ff 50 1c	 call	 DWORD PTR [eax+28]
  00036	8b 45 08	 mov	 eax, DWORD PTR ___$ReturnUdt$[ebp]
  00039	e9 ff 00 00 00	 jmp	 $L24723
$L24720:
  0003e	53		 push	 ebx
  0003f	57		 push	 edi

; 884  : 		else
; 885  : 			{	// put "false" or "true"
; 886  : 			const _Mypunct& _Punct_fac = _USE(_Iosbase.getloc(), _Mypunct);

  00040	8d 45 14	 lea	 eax, DWORD PTR $T54010[ebp]
  00043	50		 push	 eax
  00044	8b ce		 mov	 ecx, esi
  00046	e8 00 00 00 00	 call	 ?getloc@ios_base@std@@QBE?AVlocale@2@XZ ; std::ios_base::getloc
  0004b	33 db		 xor	 ebx, ebx
  0004d	50		 push	 eax
  0004e	89 5d fc	 mov	 DWORD PTR __$EHRec$[ebp+8], ebx
  00051	e8 00 00 00 00	 call	 ??$use_facet@V?$numpunct@G@std@@@std@@YAABV?$numpunct@G@0@ABVlocale@0@@Z ; std::use_facet<std::numpunct<unsigned short> >
  00056	59		 pop	 ecx
  00057	8d 4d 14	 lea	 ecx, DWORD PTR $T54010[ebp]
  0005a	89 45 d0	 mov	 DWORD PTR __Punct_fac$24724[ebp], eax
  0005d	e8 00 00 00 00	 call	 ??1locale@std@@QAE@XZ	; std::locale::~locale

; 887  : 			_Mystr _Str;

  00062	53		 push	 ebx
  00063	8d 4d d4	 lea	 ecx, DWORD PTR __Str$25275[ebp]
  00066	c7 45 ec 07 00
	00 00		 mov	 DWORD PTR __Str$25275[ebp+24], 7
  0006d	e8 00 00 00 00	 call	 ?_Eos@?$basic_string@GU?$char_traits@G@std@@V?$allocator@G@2@@std@@IAEXI@Z ; std::basic_string<unsigned short,std::char_traits<unsigned short>,std::allocator<unsigned short> >::_Eos
  00072	33 ff		 xor	 edi, edi
  00074	47		 inc	 edi

; 888  : 			if (_Val)

  00075	38 5d 1c	 cmp	 BYTE PTR __Val$[ebp], bl

; 889  : 				_Str.assign(_Punct_fac.truename());

  00078	8d 45 b0	 lea	 eax, DWORD PTR $T54011[ebp]
  0007b	89 7d fc	 mov	 DWORD PTR __$EHRec$[ebp+8], edi
  0007e	8b 4d d0	 mov	 ecx, DWORD PTR __Punct_fac$24724[ebp]
  00081	50		 push	 eax
  00082	74 0b		 je	 SHORT $L25276
  00084	e8 00 00 00 00	 call	 ?truename@?$numpunct@G@std@@QBE?AV?$basic_string@GU?$char_traits@G@std@@V?$allocator@G@2@@2@XZ ; std::numpunct<unsigned short>::truename
  00089	c6 45 fc 02	 mov	 BYTE PTR __$EHRec$[ebp+8], 2

; 890  : 			else

  0008d	eb 09		 jmp	 SHORT $L54155
$L25276:

; 891  : 				_Str.assign(_Punct_fac.falsename());

  0008f	e8 00 00 00 00	 call	 ?falsename@?$numpunct@G@std@@QBE?AV?$basic_string@GU?$char_traits@G@std@@V?$allocator@G@2@@2@XZ ; std::numpunct<unsigned short>::falsename
  00094	c6 45 fc 03	 mov	 BYTE PTR __$EHRec$[ebp+8], 3
$L54155:
  00098	6a ff		 push	 -1
  0009a	53		 push	 ebx
  0009b	8d 4d d4	 lea	 ecx, DWORD PTR __Str$25275[ebp]
  0009e	50		 push	 eax
  0009f	e8 00 00 00 00	 call	 ?assign@?$basic_string@GU?$char_traits@G@std@@V?$allocator@G@2@@std@@QAEAAV12@ABV12@II@Z ; std::basic_string<unsigned short,std::char_traits<unsigned short>,std::allocator<unsigned short> >::assign
  000a4	53		 push	 ebx
  000a5	8d 4d b0	 lea	 ecx, DWORD PTR $T54012[ebp]
  000a8	57		 push	 edi
  000a9	c6 45 fc 01	 mov	 BYTE PTR __$EHRec$[ebp+8], 1
  000ad	e8 00 00 00 00	 call	 ?_Tidy@?$basic_string@GU?$char_traits@G@std@@V?$allocator@G@2@@std@@IAEX_NI@Z ; std::basic_string<unsigned short,std::char_traits<unsigned short>,std::allocator<unsigned short> >::_Tidy

; 892  : 
; 893  : 			size_t _Fillcount = _Iosbase.width() <= 0
; 894  : 				|| (size_t)_Iosbase.width() <= _Str.size()
; 895  : 					? 0 : (size_t)_Iosbase.width() - _Str.size();

  000b2	8b 46 18	 mov	 eax, DWORD PTR [esi+24]
  000b5	3b c3		 cmp	 eax, ebx
  000b7	7e 0c		 jle	 SHORT $L54013
  000b9	3b 45 e8	 cmp	 eax, DWORD PTR __Str$25275[ebp+20]
  000bc	76 07		 jbe	 SHORT $L54013
  000be	2b 45 e8	 sub	 eax, DWORD PTR __Str$25275[ebp+20]
  000c1	8b f8		 mov	 edi, eax
  000c3	eb 02		 jmp	 SHORT $L54014
$L54013:
  000c5	33 ff		 xor	 edi, edi
$L54014:

; 896  : 
; 897  : 			if ((_Iosbase.flags() & ios_base::adjustfield) != ios_base::left)

  000c7	8b 46 10	 mov	 eax, DWORD PTR [esi+16]
  000ca	25 c0 01 00 00	 and	 eax, 448		; 000001c0H
  000cf	83 f8 40	 cmp	 eax, 64			; 00000040H
  000d2	74 1f		 je	 SHORT $L54152

; 898  : 				{	// put leading fill
; 899  : 				_Dest = _Rep(_Dest, _Fill, _Fillcount);

  000d4	ff 75 18	 push	 DWORD PTR __Fill$[ebp]
  000d7	8b c7		 mov	 eax, edi
  000d9	ff 75 10	 push	 DWORD PTR __Dest$[ebp+4]
  000dc	8d 7d cc	 lea	 edi, DWORD PTR $T54015[ebp]
  000df	ff 75 0c	 push	 DWORD PTR __Dest$[ebp]
  000e2	e8 00 00 00 00	 call	 ?_Rep@?$num_put@GV?$ostreambuf_iterator@GU?$char_traits@G@std@@@std@@@std@@ABA?AV?$ostreambuf_iterator@GU?$char_traits@G@std@@@2@V32@GI@Z ; std::num_put<unsigned short,std::ostreambuf_iterator<unsigned short,std::char_traits<unsigned short> > >::_Rep
  000e7	8b 10		 mov	 edx, DWORD PTR [eax]
  000e9	8b 40 04	 mov	 eax, DWORD PTR [eax+4]
  000ec	83 c4 0c	 add	 esp, 12			; 0000000cH

; 900  : 				_Fillcount = 0;

  000ef	33 ff		 xor	 edi, edi
  000f1	eb 06		 jmp	 SHORT $L25322
$L54152:
  000f3	8b 45 10	 mov	 eax, DWORD PTR __Dest$[ebp+4]
  000f6	8b 55 0c	 mov	 edx, DWORD PTR __Dest$[ebp]
$L25322:

; 901  : 				}
; 902  : 			_Dest = _Put(_Dest, _Str.c_str(), _Str.size());	// put field

  000f9	83 7d ec 08	 cmp	 DWORD PTR __Str$25275[ebp+24], 8
  000fd	8b 4d d8	 mov	 ecx, DWORD PTR __Str$25275[ebp+4]
  00100	73 03		 jae	 SHORT $L54142
  00102	8d 4d d8	 lea	 ecx, DWORD PTR __Str$25275[ebp+4]
$L54142:
  00105	50		 push	 eax
  00106	8b 45 e8	 mov	 eax, DWORD PTR __Str$25275[ebp+20]
  00109	52		 push	 edx
  0010a	8d 5d cc	 lea	 ebx, DWORD PTR $T54016[ebp]
  0010d	e8 00 00 00 00	 call	 ?_Put@?$num_put@GV?$ostreambuf_iterator@GU?$char_traits@G@std@@@std@@@std@@ABA?AV?$ostreambuf_iterator@GU?$char_traits@G@std@@@2@V32@PBGI@Z ; std::num_put<unsigned short,std::ostreambuf_iterator<unsigned short,std::char_traits<unsigned short> > >::_Put
  00112	8b 08		 mov	 ecx, DWORD PTR [eax]
  00114	8b 40 04	 mov	 eax, DWORD PTR [eax+4]

; 903  : 			_Iosbase.width(0);
; 904  : 			return (_Rep(_Dest, _Fill, _Fillcount));	// put trailing fill

  00117	ff 75 18	 push	 DWORD PTR __Fill$[ebp]
  0011a	83 66 18 00	 and	 DWORD PTR [esi+24], 0
  0011e	50		 push	 eax
  0011f	8b c7		 mov	 eax, edi
  00121	8b 7d 08	 mov	 edi, DWORD PTR ___$ReturnUdt$[ebp]
  00124	51		 push	 ecx
  00125	e8 00 00 00 00	 call	 ?_Rep@?$num_put@GV?$ostreambuf_iterator@GU?$char_traits@G@std@@@std@@@std@@ABA?AV?$ostreambuf_iterator@GU?$char_traits@G@std@@@2@V32@GI@Z ; std::num_put<unsigned short,std::ostreambuf_iterator<unsigned short,std::char_traits<unsigned short> > >::_Rep
  0012a	83 c4 14	 add	 esp, 20			; 00000014H
  0012d	6a 00		 push	 0
  0012f	6a 01		 push	 1
  00131	8d 4d d4	 lea	 ecx, DWORD PTR __Str$25275[ebp]
  00134	e8 00 00 00 00	 call	 ?_Tidy@?$basic_string@GU?$char_traits@G@std@@V?$allocator@G@2@@std@@IAEX_NI@Z ; std::basic_string<unsigned short,std::char_traits<unsigned short>,std::allocator<unsigned short> >::_Tidy
  00139	8b c7		 mov	 eax, edi
  0013b	5f		 pop	 edi
  0013c	5b		 pop	 ebx
$L24723:

; 905  : 			}
; 906  : 		}

  0013d	8b 4d f4	 mov	 ecx, DWORD PTR __$EHRec$[ebp]
  00140	64 89 0d 00 00
	00 00		 mov	 DWORD PTR fs:__except_list, ecx
  00147	8b 4d f0	 mov	 ecx, DWORD PTR __$ArrayPad$[ebp]
  0014a	5e		 pop	 esi
  0014b	e8 00 00 00 00	 call	 @__security_check_cookie@4
  00150	c9		 leave
  00151	c2 18 00	 ret	 24			; 00000018H
_TEXT	ENDS
;	COMDAT text$x
text$x	SEGMENT
$L54017:
  00000	8d 4d 14	 lea	 ecx, DWORD PTR $T54010[ebp]
  00003	e9 00 00 00 00	 jmp	 ??1locale@std@@QAE@XZ	; std::locale::~locale
$L54018:
  00008	8d 4d d4	 lea	 ecx, DWORD PTR __Str$25275[ebp]
  0000b	e9 00 00 00 00	 jmp	 ??1?$basic_string@GU?$char_traits@G@std@@V?$allocator@G@2@@std@@QAE@XZ ; std::basic_string<unsigned short,std::char_traits<unsigned short>,std::allocator<unsigned short> >::~basic_string<unsigned short,std::char_traits<unsigned short>,std::allocator<unsigned short> >
$L54019:
  00010	8d 4d b0	 lea	 ecx, DWORD PTR $T54011[ebp]
  00013	e9 00 00 00 00	 jmp	 ??1?$basic_string@GU?$char_traits@G@std@@V?$allocator@G@2@@std@@QAE@XZ ; std::basic_string<unsigned short,std::char_traits<unsigned short>,std::allocator<unsigned short> >::~basic_string<unsigned short,std::char_traits<unsigned short>,std::allocator<unsigned short> >
$L54020:
  00018	8d 4d b0	 lea	 ecx, DWORD PTR $T54012[ebp]
  0001b	e9 00 00 00 00	 jmp	 ??1?$basic_string@GU?$char_traits@G@std@@V?$allocator@G@2@@std@@QAE@XZ ; std::basic_string<unsigned short,std::char_traits<unsigned short>,std::allocator<unsigned short> >::~basic_string<unsigned short,std::char_traits<unsigned short>,std::allocator<unsigned short> >
__ehhandler$?do_put@?$num_put@GV?$ostreambuf_iterator@GU?$char_traits@G@std@@@std@@@std@@MBE?AV?$ostreambuf_iterator@GU?$char_traits@G@std@@@2@V32@AAVios_base@2@G_N@Z:
  00020	b8 00 00 00 00	 mov	 eax, OFFSET FLAT:$T54151
  00025	e9 00 00 00 00	 jmp	 ___CxxFrameHandler
text$x	ENDS
?do_put@?$num_put@GV?$ostreambuf_iterator@GU?$char_traits@G@std@@@std@@@std@@MBE?AV?$ostreambuf_iterator@GU?$char_traits@G@std@@@2@V32@AAVios_base@2@G_N@Z ENDP ; std::num_put<unsigned short,std::ostreambuf_iterator<unsigned short,std::char_traits<unsigned short> > >::do_put
; Function compile flags: /Ogsy
; File c:\program files (x86)\microsoft visual studio .net 2003\vc7\include\xstring
;	COMDAT ??1?$basic_string@DU?$char_traits@D@std@@V?$allocator@D@2@@std@@QAE@XZ
_TEXT	SEGMENT
??1?$basic_string@DU?$char_traits@D@std@@V?$allocator@D@2@@std@@QAE@XZ PROC NEAR ; std::basic_string<char,std::char_traits<char>,std::allocator<char> >::~basic_string<char,std::char_traits<char>,std::allocator<char> >, COMDAT
; _this$ = ecx

; 457  : 		_Tidy(true);

  00000	6a 00		 push	 0
  00002	6a 01		 push	 1
  00004	e8 00 00 00 00	 call	 ?_Tidy@?$basic_string@DU?$char_traits@D@std@@V?$allocator@D@2@@std@@IAEX_NI@Z ; std::basic_string<char,std::char_traits<char>,std::allocator<char> >::_Tidy

; 458  : 		}

  00009	c3		 ret	 0
??1?$basic_string@DU?$char_traits@D@std@@V?$allocator@D@2@@std@@QAE@XZ ENDP ; std::basic_string<char,std::char_traits<char>,std::allocator<char> >::~basic_string<char,std::char_traits<char>,std::allocator<char> >
; Function compile flags: /Ogsy
; File c:\program files (x86)\microsoft visual studio .net 2003\vc7\include\ostream
_TEXT	ENDS
;	COMDAT ?flush@?$basic_ostream@GU?$char_traits@G@std@@@std@@QAEAAV12@XZ
_TEXT	SEGMENT
?flush@?$basic_ostream@GU?$char_traits@G@std@@@std@@QAEAAV12@XZ PROC NEAR ; std::basic_ostream<unsigned short,std::char_traits<unsigned short> >::flush, COMDAT
; _this$ = ecx

; 511  : 		{	// flush output stream

  00000	56		 push	 esi
  00001	8b f1		 mov	 esi, ecx

; 512  : 		ios_base::iostate _State = ios_base::goodbit;
; 513  : 		if (!ios_base::fail() && _Myios::rdbuf()->pubsync() == -1)

  00003	8b 06		 mov	 eax, DWORD PTR [esi]
  00005	8b 40 04	 mov	 eax, DWORD PTR [eax+4]
  00008	57		 push	 edi
  00009	03 c6		 add	 eax, esi
  0000b	33 ff		 xor	 edi, edi
  0000d	f6 40 08 06	 test	 BYTE PTR [eax+8], 6
  00011	75 12		 jne	 SHORT $L22774
  00013	8b 40 28	 mov	 eax, DWORD PTR [eax+40]
  00016	8b 10		 mov	 edx, DWORD PTR [eax]
  00018	8b c8		 mov	 ecx, eax
  0001a	ff 52 2c	 call	 DWORD PTR [edx+44]
  0001d	83 f8 ff	 cmp	 eax, -1
  00020	75 03		 jne	 SHORT $L22774

; 514  : 			_State |= ios_base::badbit;	// sync failed

  00022	6a 04		 push	 4
  00024	5f		 pop	 edi
$L22774:

; 515  : 		_Myios::setstate(_State);

  00025	8b 06		 mov	 eax, DWORD PTR [esi]
  00027	8b 48 04	 mov	 ecx, DWORD PTR [eax+4]
  0002a	6a 00		 push	 0
  0002c	57		 push	 edi
  0002d	03 ce		 add	 ecx, esi
  0002f	e8 00 00 00 00	 call	 ?setstate@?$basic_ios@GU?$char_traits@G@std@@@std@@QAEXH_N@Z ; std::basic_ios<unsigned short,std::char_traits<unsigned short> >::setstate
  00034	5f		 pop	 edi

; 516  : 		return (*this);

  00035	8b c6		 mov	 eax, esi
  00037	5e		 pop	 esi

; 517  : 		}

  00038	c3		 ret	 0
?flush@?$basic_ostream@GU?$char_traits@G@std@@@std@@QAEAAV12@XZ ENDP ; std::basic_ostream<unsigned short,std::char_traits<unsigned short> >::flush
; Function compile flags: /Ogsy
_TEXT	ENDS
;	COMDAT ?_Osfx@?$basic_ostream@GU?$char_traits@G@std@@@std@@QAEXXZ
_TEXT	SEGMENT
?_Osfx@?$basic_ostream@GU?$char_traits@G@std@@@std@@QAEXXZ PROC NEAR ; std::basic_ostream<unsigned short,std::char_traits<unsigned short> >::_Osfx, COMDAT
; _this$ = ecx

; 133  : 		if (ios_base::flags() & ios_base::unitbuf)

  00000	8b 01		 mov	 eax, DWORD PTR [ecx]
  00002	8b 40 04	 mov	 eax, DWORD PTR [eax+4]
  00005	f6 44 08 10 02	 test	 BYTE PTR [eax+ecx+16], 2
  0000a	74 05		 je	 SHORT $L23512

; 134  : 			flush();	// flush stream as needed

  0000c	e9 00 00 00 00	 jmp	 ?flush@?$basic_ostream@GU?$char_traits@G@std@@@std@@QAEAAV12@XZ ; std::basic_ostream<unsigned short,std::char_traits<unsigned short> >::flush
$L23512:

; 135  : 		}

  00011	c3		 ret	 0
?_Osfx@?$basic_ostream@GU?$char_traits@G@std@@@std@@QAEXXZ ENDP ; std::basic_ostream<unsigned short,std::char_traits<unsigned short> >::_Osfx
_TEXT	ENDS
;	COMDAT xdata$x
; File c:\program files (x86)\microsoft visual studio .net 2003\vc7\include\xiosbase
xdata$x	SEGMENT
$T59576	DD	0ffffffffH
	DD	FLAT:$L59561
$T59574	DD	019930520H
	DD	01H
	DD	FLAT:$T59576
	DD	2 DUP(00H)
	DD	2 DUP(00H)
; Function compile flags: /Ogsy
; File c:\program files (x86)\microsoft visual studio .net 2003\vc7\include\ostream
xdata$x	ENDS
;	COMDAT ??1sentry@?$basic_ostream@GU?$char_traits@G@std@@@std@@QAE@XZ
_TEXT	SEGMENT
__$EHRec$ = -12						; size = 12
_this$ = 8						; size = 4
??1sentry@?$basic_ostream@GU?$char_traits@G@std@@@std@@QAE@XZ PROC NEAR ; std::basic_ostream<unsigned short,std::char_traits<unsigned short> >::sentry::~sentry, COMDAT

; 95   : 			{	// destroy the object

  00000	b8 00 00 00 00	 mov	 eax, __ehhandler$??1sentry@?$basic_ostream@GU?$char_traits@G@std@@@std@@QAE@XZ
  00005	e8 00 00 00 00	 call	 __EH_prolog
  0000a	56		 push	 esi
  0000b	8b 75 08	 mov	 esi, DWORD PTR _this$[ebp]
  0000e	83 65 fc 00	 and	 DWORD PTR __$EHRec$[ebp+8], 0

; 96   : 
; 97   :  #if _HAS_EXCEPTIONS
; 98   : 			if (!uncaught_exception())

  00012	e8 00 00 00 00	 call	 ?uncaught_exception@std@@YA_NXZ ; std::uncaught_exception
  00017	84 c0		 test	 al, al
  00019	75 13		 jne	 SHORT $L59571

; 99   : 				this->_Myostr._Osfx();

  0001b	8b 0e		 mov	 ecx, DWORD PTR [esi]
  0001d	8b 01		 mov	 eax, DWORD PTR [ecx]
  0001f	8b 40 04	 mov	 eax, DWORD PTR [eax+4]
  00022	f6 44 08 10 02	 test	 BYTE PTR [eax+ecx+16], 2
  00027	74 05		 je	 SHORT $L59571
  00029	e8 00 00 00 00	 call	 ?flush@?$basic_ostream@GU?$char_traits@G@std@@@std@@QAEAAV12@XZ ; std::basic_ostream<unsigned short,std::char_traits<unsigned short> >::flush
$L59571:

; 100  : 			}

  0002e	83 4d fc ff	 or	 DWORD PTR __$EHRec$[ebp+8], -1
  00032	8b c6		 mov	 eax, esi
  00034	e8 00 00 00 00	 call	 ??1_Sentry_base@?$basic_ostream@GU?$char_traits@G@std@@@std@@QAE@XZ ; std::basic_ostream<unsigned short,std::char_traits<unsigned short> >::_Sentry_base::~_Sentry_base
  00039	8b 4d f4	 mov	 ecx, DWORD PTR __$EHRec$[ebp]
  0003c	5e		 pop	 esi
  0003d	64 89 0d 00 00
	00 00		 mov	 DWORD PTR fs:__except_list, ecx
  00044	c9		 leave
  00045	c2 04 00	 ret	 4
_TEXT	ENDS
;	COMDAT text$x
text$x	SEGMENT
$L59561:
  00000	8b 45 08	 mov	 eax, DWORD PTR _this$[ebp]
  00003	e9 00 00 00 00	 jmp	 ??1_Sentry_base@?$basic_ostream@GU?$char_traits@G@std@@@std@@QAE@XZ ; std::basic_ostream<unsigned short,std::char_traits<unsigned short> >::_Sentry_base::~_Sentry_base
__ehhandler$??1sentry@?$basic_ostream@GU?$char_traits@G@std@@@std@@QAE@XZ:
  00008	b8 00 00 00 00	 mov	 eax, OFFSET FLAT:$T59574
  0000d	e9 00 00 00 00	 jmp	 ___CxxFrameHandler
text$x	ENDS
??1sentry@?$basic_ostream@GU?$char_traits@G@std@@@std@@QAE@XZ ENDP ; std::basic_ostream<unsigned short,std::char_traits<unsigned short> >::sentry::~sentry
;	COMDAT xdata$x
; File c:\program files (x86)\microsoft visual studio .net 2003\vc7\include\xiosbase
xdata$x	SEGMENT
$T59611	DD	0ffffffffH
	DD	FLAT:$L59581
$T59609	DD	019930520H
	DD	01H
	DD	FLAT:$T59611
	DD	2 DUP(00H)
	DD	2 DUP(00H)
; Function compile flags: /Ogsy
; File c:\program files (x86)\microsoft visual studio .net 2003\vc7\include\ostream
xdata$x	ENDS
;	COMDAT ??0sentry@?$basic_ostream@DU?$char_traits@D@std@@@std@@QAE@AAV12@@Z
_TEXT	SEGMENT
__$EHRec$ = -12						; size = 12
_this$ = 8						; size = 4
??0sentry@?$basic_ostream@DU?$char_traits@D@std@@@std@@QAE@AAV12@@Z PROC NEAR ; std::basic_ostream<char,std::char_traits<char> >::sentry::sentry, COMDAT
; __Ostr$ = edi

; 88   : 			{	// construct locking and testing stream

  00000	b8 00 00 00 00	 mov	 eax, __ehhandler$??0sentry@?$basic_ostream@DU?$char_traits@D@std@@@std@@QAE@AAV12@@Z
  00005	e8 00 00 00 00	 call	 __EH_prolog
  0000a	53		 push	 ebx
  0000b	8b 5d 08	 mov	 ebx, DWORD PTR _this$[ebp]
  0000e	56		 push	 esi
  0000f	8b c7		 mov	 eax, edi
  00011	8b f3		 mov	 esi, ebx
  00013	e8 00 00 00 00	 call	 ??0_Sentry_base@?$basic_ostream@DU?$char_traits@D@std@@@std@@QAE@AAV12@@Z ; std::basic_ostream<char,std::char_traits<char> >::_Sentry_base::_Sentry_base
  00018	83 65 fc 00	 and	 DWORD PTR __$EHRec$[ebp+8], 0

; 89   : 			if (_Ostr.good() && _Ostr.tie() != 0)

  0001c	8b 07		 mov	 eax, DWORD PTR [edi]
  0001e	8b 40 04	 mov	 eax, DWORD PTR [eax+4]
  00021	03 c7		 add	 eax, edi
  00023	83 78 08 00	 cmp	 DWORD PTR [eax+8], 0
  00027	75 0e		 jne	 SHORT $L23682
  00029	8b 40 2c	 mov	 eax, DWORD PTR [eax+44]
  0002c	85 c0		 test	 eax, eax
  0002e	74 07		 je	 SHORT $L23682

; 90   : 				_Ostr.tie()->flush();

  00030	8b f0		 mov	 esi, eax
  00032	e8 00 00 00 00	 call	 ?flush@?$basic_ostream@DU?$char_traits@D@std@@@std@@QAEAAV12@XZ ; std::basic_ostream<char,std::char_traits<char> >::flush
$L23682:

; 91   : 			_Ok = _Ostr.good();	// store test only after flushing tie

  00037	8b 07		 mov	 eax, DWORD PTR [edi]
  00039	8b 40 04	 mov	 eax, DWORD PTR [eax+4]
  0003c	83 7c 38 08 00	 cmp	 DWORD PTR [eax+edi+8], 0

; 92   : 			}

  00041	8b 4d f4	 mov	 ecx, DWORD PTR __$EHRec$[ebp]
  00044	0f 94 c0	 sete	 al
  00047	88 43 04	 mov	 BYTE PTR [ebx+4], al
  0004a	5e		 pop	 esi
  0004b	8b c3		 mov	 eax, ebx
  0004d	5b		 pop	 ebx
  0004e	64 89 0d 00 00
	00 00		 mov	 DWORD PTR fs:__except_list, ecx
  00055	c9		 leave
  00056	c2 04 00	 ret	 4
_TEXT	ENDS
;	COMDAT text$x
text$x	SEGMENT
$L59581:
  00000	8b 45 08	 mov	 eax, DWORD PTR _this$[ebp]
  00003	e9 00 00 00 00	 jmp	 ??1_Sentry_base@?$basic_ostream@DU?$char_traits@D@std@@@std@@QAE@XZ ; std::basic_ostream<char,std::char_traits<char> >::_Sentry_base::~_Sentry_base
__ehhandler$??0sentry@?$basic_ostream@DU?$char_traits@D@std@@@std@@QAE@AAV12@@Z:
  00008	b8 00 00 00 00	 mov	 eax, OFFSET FLAT:$T59609
  0000d	e9 00 00 00 00	 jmp	 ___CxxFrameHandler
text$x	ENDS
??0sentry@?$basic_ostream@DU?$char_traits@D@std@@@std@@QAE@AAV12@@Z ENDP ; std::basic_ostream<char,std::char_traits<char> >::sentry::sentry
; Function compile flags: /Ogsy
; File c:\program files (x86)\microsoft visual studio .net 2003\vc7\include\xstring
;	COMDAT ??0?$basic_string@DU?$char_traits@D@std@@V?$allocator@D@2@@std@@QAE@XZ
_TEXT	SEGMENT
??0?$basic_string@DU?$char_traits@D@std@@V?$allocator@D@2@@std@@QAE@XZ PROC NEAR ; std::basic_string<char,std::char_traits<char>,std::allocator<char> >::basic_string<char,std::char_traits<char>,std::allocator<char> >, COMDAT
; _this$ = ecx

; 311  : 		{	// construct empty string

  00000	56		 push	 esi
  00001	8b f1		 mov	 esi, ecx

; 312  : 		_Tidy();

  00003	6a 00		 push	 0
  00005	c7 46 18 0f 00
	00 00		 mov	 DWORD PTR [esi+24], 15	; 0000000fH
  0000c	e8 00 00 00 00	 call	 ?_Eos@?$basic_string@DU?$char_traits@D@std@@V?$allocator@D@2@@std@@IAEXI@Z ; std::basic_string<char,std::char_traits<char>,std::allocator<char> >::_Eos

; 313  : 		}

  00011	8b c6		 mov	 eax, esi
  00013	5e		 pop	 esi
  00014	c3		 ret	 0
??0?$basic_string@DU?$char_traits@D@std@@V?$allocator@D@2@@std@@QAE@XZ ENDP ; std::basic_string<char,std::char_traits<char>,std::allocator<char> >::basic_string<char,std::char_traits<char>,std::allocator<char> >
; Function compile flags: /Ogsy
_TEXT	ENDS
;	COMDAT ?assign@?$basic_string@DU?$char_traits@D@std@@V?$allocator@D@2@@std@@QAEAAV12@ABV12@II@Z
_TEXT	SEGMENT
__Right$ = 8						; size = 4
__Roff$ = 12						; size = 4
__Count$ = 16						; size = 4
?assign@?$basic_string@DU?$char_traits@D@std@@V?$allocator@D@2@@std@@QAEAAV12@ABV12@II@Z PROC NEAR ; std::basic_string<char,std::char_traits<char>,std::allocator<char> >::assign, COMDAT
; _this$ = ecx

; 590  : 		{	// assign _Right [_Roff, _Roff + _Count)

  00000	55		 push	 ebp
  00001	8b ec		 mov	 ebp, esp

; 591  : 		if (_Right.size() < _Roff)

  00003	8b 45 0c	 mov	 eax, DWORD PTR __Roff$[ebp]
  00006	53		 push	 ebx
  00007	56		 push	 esi
  00008	57		 push	 edi
  00009	8b 7d 08	 mov	 edi, DWORD PTR __Right$[ebp]
  0000c	39 47 14	 cmp	 DWORD PTR [edi+20], eax
  0000f	8b d9		 mov	 ebx, ecx
  00011	73 05		 jae	 SHORT $L23476

; 592  : 			_String_base::_Xran();	// _Roff off end

  00013	e8 00 00 00 00	 call	 ?_Xran@_String_base@std@@QBEXXZ ; std::_String_base::_Xran
$L23476:

; 593  : 		size_type _Num = _Right.size() - _Roff;

  00018	8b 77 14	 mov	 esi, DWORD PTR [edi+20]
  0001b	8b 45 0c	 mov	 eax, DWORD PTR __Roff$[ebp]
  0001e	2b f0		 sub	 esi, eax

; 594  : 		if (_Count < _Num)

  00020	39 75 10	 cmp	 DWORD PTR __Count$[ebp], esi
  00023	73 03		 jae	 SHORT $L23478

; 595  : 			_Num = _Count;	// trim _Num to size

  00025	8b 75 10	 mov	 esi, DWORD PTR __Count$[ebp]
$L23478:

; 596  : 
; 597  : 		if (this == &_Right)

  00028	3b df		 cmp	 ebx, edi

; 598  : 			erase((size_type)(_Roff + _Num)), erase(0, _Roff);	// substring

  0002a	8b cb		 mov	 ecx, ebx
  0002c	75 18		 jne	 SHORT $L23479
  0002e	6a ff		 push	 -1
  00030	03 f0		 add	 esi, eax
  00032	56		 push	 esi
  00033	e8 00 00 00 00	 call	 ?erase@?$basic_string@DU?$char_traits@D@std@@V?$allocator@D@2@@std@@QAEAAV12@II@Z ; std::basic_string<char,std::char_traits<char>,std::allocator<char> >::erase
  00038	ff 75 0c	 push	 DWORD PTR __Roff$[ebp]
  0003b	8b cb		 mov	 ecx, ebx
  0003d	6a 00		 push	 0
  0003f	e8 00 00 00 00	 call	 ?erase@?$basic_string@DU?$char_traits@D@std@@V?$allocator@D@2@@std@@QAEAAV12@II@Z ; std::basic_string<char,std::char_traits<char>,std::allocator<char> >::erase

; 599  : 		else if (_Grow(_Num))

  00044	eb 40		 jmp	 SHORT $L23482
$L23479:
  00046	6a 00		 push	 0
  00048	56		 push	 esi
  00049	e8 00 00 00 00	 call	 ?_Grow@?$basic_string@DU?$char_traits@D@std@@V?$allocator@D@2@@std@@IAE_NI_N@Z ; std::basic_string<char,std::char_traits<char>,std::allocator<char> >::_Grow
  0004e	84 c0		 test	 al, al
  00050	74 34		 je	 SHORT $L23482

; 600  : 			{	// make room and assign new stuff
; 601  : 			_Traits::copy(_Myptr(), _Right._Myptr() + _Roff, _Num);

  00052	83 7f 18 10	 cmp	 DWORD PTR [edi+24], 16	; 00000010H
  00056	72 05		 jb	 SHORT $L59663
  00058	8b 7f 04	 mov	 edi, DWORD PTR [edi+4]
  0005b	eb 03		 jmp	 SHORT $L59664
$L59663:
  0005d	83 c7 04	 add	 edi, 4
$L59664:
  00060	83 7b 18 10	 cmp	 DWORD PTR [ebx+24], 16	; 00000010H
  00064	72 05		 jb	 SHORT $L59671
  00066	8b 43 04	 mov	 eax, DWORD PTR [ebx+4]
  00069	eb 03		 jmp	 SHORT $L59672
$L59671:
  0006b	8d 43 04	 lea	 eax, DWORD PTR [ebx+4]
$L59672:
  0006e	8b 4d 0c	 mov	 ecx, DWORD PTR __Roff$[ebp]
  00071	56		 push	 esi
  00072	03 f9		 add	 edi, ecx
  00074	57		 push	 edi
  00075	50		 push	 eax
  00076	e8 00 00 00 00	 call	 ?copy@?$char_traits@D@std@@SAPADPADPBDI@Z ; std::char_traits<char>::copy
  0007b	83 c4 0c	 add	 esp, 12			; 0000000cH

; 602  : 			_Eos(_Num);

  0007e	56		 push	 esi
  0007f	8b cb		 mov	 ecx, ebx
  00081	e8 00 00 00 00	 call	 ?_Eos@?$basic_string@DU?$char_traits@D@std@@V?$allocator@D@2@@std@@IAEXI@Z ; std::basic_string<char,std::char_traits<char>,std::allocator<char> >::_Eos
$L23482:
  00086	5f		 pop	 edi
  00087	5e		 pop	 esi

; 603  : 			}
; 604  : 		return (*this);

  00088	8b c3		 mov	 eax, ebx
  0008a	5b		 pop	 ebx

; 605  : 		}

  0008b	5d		 pop	 ebp
  0008c	c2 0c 00	 ret	 12			; 0000000cH
?assign@?$basic_string@DU?$char_traits@D@std@@V?$allocator@D@2@@std@@QAEAAV12@ABV12@II@Z ENDP ; std::basic_string<char,std::char_traits<char>,std::allocator<char> >::assign
; Function compile flags: /Ogsy
_TEXT	ENDS
;	COMDAT ?append@?$basic_string@DU?$char_traits@D@std@@V?$allocator@D@2@@std@@QAEAAV12@ID@Z
_TEXT	SEGMENT
__Count$ = 8						; size = 4
__Ch$ = 12						; size = 1
?append@?$basic_string@DU?$char_traits@D@std@@V?$allocator@D@2@@std@@QAEAAV12@ID@Z PROC NEAR ; std::basic_string<char,std::char_traits<char>,std::allocator<char> >::append, COMDAT
; _this$ = ecx

; 542  : 		{	// append _Count * _Ch

  00000	53		 push	 ebx

; 543  : 		if (npos - _Mysize <= _Count)

  00001	8b 5c 24 08	 mov	 ebx, DWORD PTR __Count$[esp]
  00005	56		 push	 esi
  00006	83 c8 ff	 or	 eax, -1
  00009	8b f1		 mov	 esi, ecx
  0000b	2b 46 14	 sub	 eax, DWORD PTR [esi+20]
  0000e	3b c3		 cmp	 eax, ebx
  00010	77 05		 ja	 SHORT $L23471

; 544  : 			_String_base::_Xlen();	// result too long

  00012	e8 00 00 00 00	 call	 ?_Xlen@_String_base@std@@QBEXXZ ; std::_String_base::_Xlen
$L23471:

; 545  : 
; 546  : 		size_type _Num;
; 547  : 		if (0 < _Count && _Grow(_Num = _Mysize + _Count))

  00017	85 db		 test	 ebx, ebx
  00019	76 3e		 jbe	 SHORT $L23473
  0001b	57		 push	 edi
  0001c	8b 7e 14	 mov	 edi, DWORD PTR [esi+20]
  0001f	6a 00		 push	 0
  00021	03 fb		 add	 edi, ebx
  00023	57		 push	 edi
  00024	8b ce		 mov	 ecx, esi
  00026	e8 00 00 00 00	 call	 ?_Grow@?$basic_string@DU?$char_traits@D@std@@V?$allocator@D@2@@std@@IAE_NI_N@Z ; std::basic_string<char,std::char_traits<char>,std::allocator<char> >::_Grow
  0002b	84 c0		 test	 al, al
  0002d	74 29		 je	 SHORT $L59682

; 548  : 			{	// make room and append new stuff using assign
; 549  : 			_Traits::assign(_Myptr() + _Mysize, _Count, _Ch);

  0002f	83 7e 18 10	 cmp	 DWORD PTR [esi+24], 16	; 00000010H
  00033	72 05		 jb	 SHORT $L59680
  00035	8b 46 04	 mov	 eax, DWORD PTR [esi+4]
  00038	eb 03		 jmp	 SHORT $L59681
$L59680:
  0003a	8d 46 04	 lea	 eax, DWORD PTR [esi+4]
$L59681:
  0003d	ff 74 24 14	 push	 DWORD PTR __Ch$[esp+8]
  00041	8b 4e 14	 mov	 ecx, DWORD PTR [esi+20]
  00044	03 c8		 add	 ecx, eax
  00046	53		 push	 ebx
  00047	51		 push	 ecx
  00048	e8 00 00 00 00	 call	 ?assign@?$char_traits@D@std@@SAPADPADID@Z ; std::char_traits<char>::assign
  0004d	83 c4 0c	 add	 esp, 12			; 0000000cH

; 550  : 			_Eos(_Num);

  00050	57		 push	 edi
  00051	8b ce		 mov	 ecx, esi
  00053	e8 00 00 00 00	 call	 ?_Eos@?$basic_string@DU?$char_traits@D@std@@V?$allocator@D@2@@std@@IAEXI@Z ; std::basic_string<char,std::char_traits<char>,std::allocator<char> >::_Eos
$L59682:
  00058	5f		 pop	 edi
$L23473:

; 551  : 			}
; 552  : 		return (*this);

  00059	8b c6		 mov	 eax, esi
  0005b	5e		 pop	 esi
  0005c	5b		 pop	 ebx

; 553  : 		}

  0005d	c2 08 00	 ret	 8
?append@?$basic_string@DU?$char_traits@D@std@@V?$allocator@D@2@@std@@QAEAAV12@ID@Z ENDP ; std::basic_string<char,std::char_traits<char>,std::allocator<char> >::append
; Function compile flags: /Ogsy
_TEXT	ENDS
;	COMDAT ?assign@?$basic_string@DU?$char_traits@D@std@@V?$allocator@D@2@@std@@QAEAAV12@PBDI@Z
_TEXT	SEGMENT
__Ptr$ = 8						; size = 4
__Num$ = 12						; size = 4
?assign@?$basic_string@DU?$char_traits@D@std@@V?$allocator@D@2@@std@@QAEAAV12@PBDI@Z PROC NEAR ; std::basic_string<char,std::char_traits<char>,std::allocator<char> >::assign, COMDAT
; _this$ = ecx

; 608  : 		{	// assign [_Ptr, _Ptr + _Num)

  00000	55		 push	 ebp
  00001	8b ec		 mov	 ebp, esp
  00003	56		 push	 esi
  00004	57		 push	 edi

; 609  : 		if (_Inside(_Ptr))

  00005	8b 7d 08	 mov	 edi, DWORD PTR __Ptr$[ebp]
  00008	57		 push	 edi
  00009	8b f1		 mov	 esi, ecx
  0000b	e8 00 00 00 00	 call	 ?_Inside@?$basic_string@DU?$char_traits@D@std@@V?$allocator@D@2@@std@@IAE_NPBD@Z ; std::basic_string<char,std::char_traits<char>,std::allocator<char> >::_Inside
  00010	84 c0		 test	 al, al
  00012	74 1e		 je	 SHORT $L23717

; 610  : 			return (assign(*this, _Ptr - _Myptr(), _Num));	// substring

  00014	83 7e 18 10	 cmp	 DWORD PTR [esi+24], 16	; 00000010H
  00018	72 05		 jb	 SHORT $L59691
  0001a	8b 46 04	 mov	 eax, DWORD PTR [esi+4]
  0001d	eb 03		 jmp	 SHORT $L59692
$L59691:
  0001f	8d 46 04	 lea	 eax, DWORD PTR [esi+4]
$L59692:
  00022	ff 75 0c	 push	 DWORD PTR __Num$[ebp]
  00025	2b f8		 sub	 edi, eax
  00027	57		 push	 edi
  00028	56		 push	 esi
  00029	8b ce		 mov	 ecx, esi
  0002b	e8 00 00 00 00	 call	 ?assign@?$basic_string@DU?$char_traits@D@std@@V?$allocator@D@2@@std@@QAEAAV12@ABV12@II@Z ; std::basic_string<char,std::char_traits<char>,std::allocator<char> >::assign
  00030	eb 37		 jmp	 SHORT $L23716
$L23717:

; 611  : 
; 612  : 		if (_Grow(_Num))

  00032	6a 00		 push	 0
  00034	ff 75 0c	 push	 DWORD PTR __Num$[ebp]
  00037	8b ce		 mov	 ecx, esi
  00039	e8 00 00 00 00	 call	 ?_Grow@?$basic_string@DU?$char_traits@D@std@@V?$allocator@D@2@@std@@IAE_NI_N@Z ; std::basic_string<char,std::char_traits<char>,std::allocator<char> >::_Grow
  0003e	84 c0		 test	 al, al
  00040	74 25		 je	 SHORT $L23718

; 613  : 			{	// make room and assign new stuff
; 614  : 			_Traits::copy(_Myptr(), _Ptr, _Num);

  00042	83 7e 18 10	 cmp	 DWORD PTR [esi+24], 16	; 00000010H
  00046	72 05		 jb	 SHORT $L59698
  00048	8b 46 04	 mov	 eax, DWORD PTR [esi+4]
  0004b	eb 03		 jmp	 SHORT $L59699
$L59698:
  0004d	8d 46 04	 lea	 eax, DWORD PTR [esi+4]
$L59699:
  00050	ff 75 0c	 push	 DWORD PTR __Num$[ebp]
  00053	57		 push	 edi
  00054	50		 push	 eax
  00055	e8 00 00 00 00	 call	 ?copy@?$char_traits@D@std@@SAPADPADPBDI@Z ; std::char_traits<char>::copy
  0005a	83 c4 0c	 add	 esp, 12			; 0000000cH

; 615  : 			_Eos(_Num);

  0005d	ff 75 0c	 push	 DWORD PTR __Num$[ebp]
  00060	8b ce		 mov	 ecx, esi
  00062	e8 00 00 00 00	 call	 ?_Eos@?$basic_string@DU?$char_traits@D@std@@V?$allocator@D@2@@std@@IAEXI@Z ; std::basic_string<char,std::char_traits<char>,std::allocator<char> >::_Eos
$L23718:

; 616  : 			}
; 617  : 		return (*this);

  00067	8b c6		 mov	 eax, esi
$L23716:
  00069	5f		 pop	 edi
  0006a	5e		 pop	 esi

; 618  : 		}

  0006b	5d		 pop	 ebp
  0006c	c2 08 00	 ret	 8
?assign@?$basic_string@DU?$char_traits@D@std@@V?$allocator@D@2@@std@@QAEAAV12@PBDI@Z ENDP ; std::basic_string<char,std::char_traits<char>,std::allocator<char> >::assign
; Function compile flags: /Ogsy
_TEXT	ENDS
;	COMDAT ?assign@?$basic_string@DU?$char_traits@D@std@@V?$allocator@D@2@@std@@QAEAAV12@PBD@Z
_TEXT	SEGMENT
__Ptr$ = 8						; size = 4
?assign@?$basic_string@DU?$char_traits@D@std@@V?$allocator@D@2@@std@@QAEAAV12@PBD@Z PROC NEAR ; std::basic_string<char,std::char_traits<char>,std::allocator<char> >::assign, COMDAT
; _this$ = ecx

; 622  : 		return (assign(_Ptr, _Traits::length(_Ptr)));

  00000	8b 44 24 04	 mov	 eax, DWORD PTR __Ptr$[esp-4]
  00004	56		 push	 esi
  00005	8b f1		 mov	 esi, ecx
  00007	8d 50 01	 lea	 edx, DWORD PTR [eax+1]
$L59705:
  0000a	8a 08		 mov	 cl, BYTE PTR [eax]
  0000c	40		 inc	 eax
  0000d	84 c9		 test	 cl, cl
  0000f	75 f9		 jne	 SHORT $L59705
  00011	2b c2		 sub	 eax, edx
  00013	50		 push	 eax
  00014	ff 74 24 0c	 push	 DWORD PTR __Ptr$[esp+4]
  00018	8b ce		 mov	 ecx, esi
  0001a	e8 00 00 00 00	 call	 ?assign@?$basic_string@DU?$char_traits@D@std@@V?$allocator@D@2@@std@@QAEAAV12@PBDI@Z ; std::basic_string<char,std::char_traits<char>,std::allocator<char> >::assign
  0001f	5e		 pop	 esi

; 623  : 		}

  00020	c2 04 00	 ret	 4
?assign@?$basic_string@DU?$char_traits@D@std@@V?$allocator@D@2@@std@@QAEAAV12@PBD@Z ENDP ; std::basic_string<char,std::char_traits<char>,std::allocator<char> >::assign
_TEXT	ENDS
;	COMDAT xdata$x
; File c:\program files (x86)\microsoft visual studio .net 2003\vc7\include\xiosbase
xdata$x	SEGMENT
$T59806	DD	0ffffffffH
	DD	FLAT:$L59718
	DD	00H
	DD	00H
	DD	00H
	DD	00H
$T59808	DD	00H
	DD	00H
	DD	00H
	DD	FLAT:$L59717
$T59807	DD	01H
	DD	01H
	DD	02H
	DD	01H
	DD	FLAT:$T59808
$T59794	DD	019930520H
	DD	03H
	DD	FLAT:$T59806
	DD	01H
	DD	FLAT:$T59807
	DD	2 DUP(00H)
; Function compile flags: /Ogsy
; File c:\program files (x86)\microsoft visual studio .net 2003\vc7\include\ostream
xdata$x	ENDS
;	COMDAT ??$?6U?$char_traits@D@std@@@std@@YAAAV?$basic_ostream@DU?$char_traits@D@std@@@0@AAV10@PBD@Z
_TEXT	SEGMENT
__Ok$ = -32						; size = 8
$T59766 = -24						; size = 1
$T59745 = -24						; size = 1
__State$ = -20						; size = 4
__$EHRec$ = -16						; size = 16
__Ostr$ = 8						; size = 4
__Val$ = 12						; size = 4
??$?6U?$char_traits@D@std@@@std@@YAAAV?$basic_ostream@DU?$char_traits@D@std@@@0@AAV10@PBD@Z PROC NEAR ; std::operator<<<std::char_traits<char> >, COMDAT

; 700  : 	{	// insert NTBS into char stream

  00000	b8 00 00 00 00	 mov	 eax, __ehhandler$??$?6U?$char_traits@D@std@@@std@@YAAAV?$basic_ostream@DU?$char_traits@D@std@@@0@AAV10@PBD@Z
  00005	e8 00 00 00 00	 call	 __EH_prolog
  0000a	83 ec 14	 sub	 esp, 20			; 00000014H

; 701  : 	typedef char _Elem;
; 702  : 	typedef basic_ostream<_Elem, _Traits> _Myos;
; 703  : 	ios_base::iostate _State = ios_base::goodbit;
; 704  : 	streamsize _Count = (streamsize)_Traits::length(_Val);	// may overflow

  0000d	8b 45 0c	 mov	 eax, DWORD PTR __Val$[ebp]
  00010	53		 push	 ebx
  00011	56		 push	 esi
  00012	57		 push	 edi
  00013	8b 7d 08	 mov	 edi, DWORD PTR __Ostr$[ebp]
  00016	33 db		 xor	 ebx, ebx
  00018	89 65 f0	 mov	 DWORD PTR __$EHRec$[ebp], esp
  0001b	89 5d ec	 mov	 DWORD PTR __State$[ebp], ebx
  0001e	8d 48 01	 lea	 ecx, DWORD PTR [eax+1]
$L59799:
  00021	8a 10		 mov	 dl, BYTE PTR [eax]
  00023	40		 inc	 eax
  00024	84 d2		 test	 dl, dl
  00026	75 f9		 jne	 SHORT $L59799
  00028	2b c1		 sub	 eax, ecx
  0002a	8b f0		 mov	 esi, eax

; 705  : 	streamsize _Pad = _Ostr.width() <= 0 || _Ostr.width() <= _Count
; 706  : 		? 0 : _Ostr.width() - _Count;

  0002c	8b 07		 mov	 eax, DWORD PTR [edi]
  0002e	8b 40 04	 mov	 eax, DWORD PTR [eax+4]
  00031	8b 44 38 18	 mov	 eax, DWORD PTR [eax+edi+24]
  00035	3b c3		 cmp	 eax, ebx
  00037	7e 08		 jle	 SHORT $L59710
  00039	3b c6		 cmp	 eax, esi
  0003b	7e 04		 jle	 SHORT $L59710
  0003d	2b c6		 sub	 eax, esi
  0003f	8b d8		 mov	 ebx, eax
$L59710:

; 707  : 	const typename _Myos::sentry _Ok(_Ostr);

  00041	8d 45 e0	 lea	 eax, DWORD PTR __Ok$[ebp]
  00044	50		 push	 eax
  00045	e8 00 00 00 00	 call	 ??0sentry@?$basic_ostream@DU?$char_traits@D@std@@@std@@QAE@AAV12@@Z ; std::basic_ostream<char,std::char_traits<char> >::sentry::sentry
  0004a	83 65 fc 00	 and	 DWORD PTR __$EHRec$[ebp+12], 0

; 708  : 
; 709  : 	if (!_Ok)

  0004e	80 7d e4 00	 cmp	 BYTE PTR __Ok$[ebp+4], 0
  00052	75 0c		 jne	 SHORT $L26241

; 710  : 		_State |= ios_base::badbit;

  00054	c7 45 ec 04 00
	00 00		 mov	 DWORD PTR __State$[ebp], 4

; 711  : 	else

  0005b	e9 be 00 00 00	 jmp	 $L59778
$L26241:

; 712  : 		{	// state okay, insert
; 713  : 		_TRY_IO_BEGIN

  00060	c6 45 fc 01	 mov	 BYTE PTR __$EHRec$[ebp+12], 1

; 714  : 		if ((_Ostr.flags() & ios_base::adjustfield) != ios_base::left)

  00064	8b 07		 mov	 eax, DWORD PTR [edi]
  00066	8b 40 04	 mov	 eax, DWORD PTR [eax+4]
  00069	8b 44 38 10	 mov	 eax, DWORD PTR [eax+edi+16]
  0006d	25 c0 01 00 00	 and	 eax, 448		; 000001c0H
  00072	83 f8 40	 cmp	 eax, 64			; 00000040H
  00075	74 2d		 je	 SHORT $L59797
$L26245:

; 715  : 			for (; 0 < _Pad; --_Pad)	// pad on left

  00077	85 db		 test	 ebx, ebx
  00079	7e 23		 jle	 SHORT $L26247

; 716  : 				if (_Traits::eq_int_type(_Traits::eof(),
; 717  : 					_Ostr.rdbuf()->sputc(_Ostr.fill())))

  0007b	8b 07		 mov	 eax, DWORD PTR [edi]
  0007d	8b 40 04	 mov	 eax, DWORD PTR [eax+4]
  00080	03 c7		 add	 eax, edi
  00082	8a 48 30	 mov	 cl, BYTE PTR [eax+48]
  00085	8b 40 28	 mov	 eax, DWORD PTR [eax+40]
  00088	88 4d e8	 mov	 BYTE PTR $T59745[ebp], cl
  0008b	ff 75 e8	 push	 DWORD PTR $T59745[ebp]
  0008e	8b c8		 mov	 ecx, eax
  00090	e8 00 00 00 00	 call	 ?sputc@?$basic_streambuf@DU?$char_traits@D@std@@@std@@QAEHD@Z ; std::basic_streambuf<char,std::char_traits<char> >::sputc
  00095	83 f8 ff	 cmp	 eax, -1
  00098	75 34		 jne	 SHORT $L26246

; 718  : 					{	// insertion failed, quit
; 719  : 					_State |= ios_base::badbit;

  0009a	83 4d ec 04	 or	 DWORD PTR __State$[ebp], 4
$L26247:

; 720  : 					break;
; 721  : 					}
; 722  : 
; 723  : 		if (_State == ios_base::goodbit
; 724  : 			&& _Ostr.rdbuf()->sputn(_Val, _Count) != _Count)

  0009e	83 7d ec 00	 cmp	 DWORD PTR __State$[ebp], 0
  000a2	75 1d		 jne	 SHORT $L26255
$L59797:
  000a4	8b 07		 mov	 eax, DWORD PTR [edi]
  000a6	8b 40 04	 mov	 eax, DWORD PTR [eax+4]
  000a9	8b 4c 38 28	 mov	 ecx, DWORD PTR [eax+edi+40]
  000ad	8b 01		 mov	 eax, DWORD PTR [ecx]
  000af	56		 push	 esi
  000b0	ff 75 0c	 push	 DWORD PTR __Val$[ebp]
  000b3	ff 50 1c	 call	 DWORD PTR [eax+28]
  000b6	3b c6		 cmp	 eax, esi
  000b8	74 17		 je	 SHORT $L59798

; 725  : 			_State |= ios_base::badbit;

  000ba	c7 45 ec 04 00
	00 00		 mov	 DWORD PTR __State$[ebp], 4
$L26255:

; 734  : 					}
; 735  : 		_Ostr.width(0);

  000c1	8b 07		 mov	 eax, DWORD PTR [edi]
  000c3	8b 40 04	 mov	 eax, DWORD PTR [eax+4]
  000c6	03 c7		 add	 eax, edi
  000c8	83 60 18 00	 and	 DWORD PTR [eax+24], 0
  000cc	eb 50		 jmp	 SHORT $L59778
$L26246:

; 715  : 			for (; 0 < _Pad; --_Pad)	// pad on left

  000ce	4b		 dec	 ebx
  000cf	eb a6		 jmp	 SHORT $L26245
$L59798:

; 726  : 
; 727  : 		if (_State == ios_base::goodbit)
; 728  : 			for (; 0 < _Pad; --_Pad)	// pad on right

  000d1	85 db		 test	 ebx, ebx
  000d3	7e ec		 jle	 SHORT $L26255

; 729  : 				if (_Traits::eq_int_type(_Traits::eof(),
; 730  : 					_Ostr.rdbuf()->sputc(_Ostr.fill())))

  000d5	8b 07		 mov	 eax, DWORD PTR [edi]
  000d7	8b 40 04	 mov	 eax, DWORD PTR [eax+4]
  000da	03 c7		 add	 eax, edi
  000dc	8a 48 30	 mov	 cl, BYTE PTR [eax+48]
  000df	8b 40 28	 mov	 eax, DWORD PTR [eax+40]
  000e2	88 4d e8	 mov	 BYTE PTR $T59766[ebp], cl
  000e5	ff 75 e8	 push	 DWORD PTR $T59766[ebp]
  000e8	8b c8		 mov	 ecx, eax
  000ea	e8 00 00 00 00	 call	 ?sputc@?$basic_streambuf@DU?$char_traits@D@std@@@std@@QAEHD@Z ; std::basic_streambuf<char,std::char_traits<char> >::sputc
  000ef	83 f8 ff	 cmp	 eax, -1
  000f2	75 06		 jne	 SHORT $L26254

; 731  : 					{	// insertion failed, quit
; 732  : 					_State |= ios_base::badbit;

  000f4	83 4d ec 04	 or	 DWORD PTR __State$[ebp], 4

; 733  : 					break;

  000f8	eb c7		 jmp	 SHORT $L26255
$L26254:

; 726  : 
; 727  : 		if (_State == ios_base::goodbit)
; 728  : 			for (; 0 < _Pad; --_Pad)	// pad on right

  000fa	4b		 dec	 ebx
  000fb	eb d4		 jmp	 SHORT $L59798
$L59717:

; 736  : 		_CATCH_IO_(_Ostr)

  000fd	8b 45 08	 mov	 eax, DWORD PTR __Ostr$[ebp]
  00100	8b 08		 mov	 ecx, DWORD PTR [eax]
  00102	8b 49 04	 mov	 ecx, DWORD PTR [ecx+4]
  00105	03 c8		 add	 ecx, eax
  00107	8b 41 08	 mov	 eax, DWORD PTR [ecx+8]
  0010a	6a 01		 push	 1
  0010c	83 c8 04	 or	 eax, 4
  0010f	50		 push	 eax
  00110	e8 00 00 00 00	 call	 ?clear@?$basic_ios@DU?$char_traits@D@std@@@std@@QAEXH_N@Z ; std::basic_ios<char,std::char_traits<char> >::clear
  00115	b8 00 00 00 00	 mov	 eax, $L59803
  0011a	c3		 ret	 0
$L59803:

; 734  : 					}
; 735  : 		_Ostr.width(0);

  0011b	8b 7d 08	 mov	 edi, DWORD PTR __Ostr$[ebp]
$L59778:

; 736  : 		_CATCH_IO_(_Ostr)

  0011e	83 65 fc 00	 and	 DWORD PTR __$EHRec$[ebp+12], 0

; 737  : 		}
; 738  : 
; 739  : 	_Ostr.setstate(_State);

  00122	8b 07		 mov	 eax, DWORD PTR [edi]
  00124	8b 48 04	 mov	 ecx, DWORD PTR [eax+4]
  00127	6a 00		 push	 0
  00129	ff 75 ec	 push	 DWORD PTR __State$[ebp]
  0012c	03 cf		 add	 ecx, edi
  0012e	e8 00 00 00 00	 call	 ?setstate@?$basic_ios@DU?$char_traits@D@std@@@std@@QAEXH_N@Z ; std::basic_ios<char,std::char_traits<char> >::setstate

; 740  : 	return (_Ostr);

  00133	83 4d fc ff	 or	 DWORD PTR __$EHRec$[ebp+12], -1
  00137	8d 45 e0	 lea	 eax, DWORD PTR __Ok$[ebp]
  0013a	50		 push	 eax
  0013b	e8 00 00 00 00	 call	 ??1sentry@?$basic_ostream@DU?$char_traits@D@std@@@std@@QAE@XZ ; std::basic_ostream<char,std::char_traits<char> >::sentry::~sentry

; 741  : 	}

  00140	8b 4d f4	 mov	 ecx, DWORD PTR __$EHRec$[ebp+4]
  00143	8b c7		 mov	 eax, edi
  00145	5f		 pop	 edi
  00146	5e		 pop	 esi
  00147	64 89 0d 00 00
	00 00		 mov	 DWORD PTR fs:__except_list, ecx
  0014e	5b		 pop	 ebx
  0014f	c9		 leave
  00150	c3		 ret	 0
_TEXT	ENDS
;	COMDAT text$x
text$x	SEGMENT
$L59718:
  00000	8d 45 e0	 lea	 eax, DWORD PTR __Ok$[ebp]
  00003	50		 push	 eax
  00004	e8 00 00 00 00	 call	 ??1sentry@?$basic_ostream@DU?$char_traits@D@std@@@std@@QAE@XZ ; std::basic_ostream<char,std::char_traits<char> >::sentry::~sentry
  00009	c3		 ret	 0
__ehhandler$??$?6U?$char_traits@D@std@@@std@@YAAAV?$basic_ostream@DU?$char_traits@D@std@@@0@AAV10@PBD@Z:
  0000a	b8 00 00 00 00	 mov	 eax, OFFSET FLAT:$T59794
  0000f	e9 00 00 00 00	 jmp	 ___CxxFrameHandler
text$x	ENDS
??$?6U?$char_traits@D@std@@@std@@YAAAV?$basic_ostream@DU?$char_traits@D@std@@@0@AAV10@PBD@Z ENDP ; std::operator<<<std::char_traits<char> >
; Function compile flags: /Ogsy
; File c:\program files (x86)\microsoft visual studio .net 2003\vc7\include\xstring
;	COMDAT ?assign@?$basic_string@GU?$char_traits@G@std@@V?$allocator@G@2@@std@@QAEAAV12@PBGI@Z
_TEXT	SEGMENT
__Ptr$ = 8						; size = 4
__Num$ = 12						; size = 4
?assign@?$basic_string@GU?$char_traits@G@std@@V?$allocator@G@2@@std@@QAEAAV12@PBGI@Z PROC NEAR ; std::basic_string<unsigned short,std::char_traits<unsigned short>,std::allocator<unsigned short> >::assign, COMDAT
; _this$ = ecx

; 608  : 		{	// assign [_Ptr, _Ptr + _Num)

  00000	53		 push	 ebx
  00001	56		 push	 esi

; 609  : 		if (_Inside(_Ptr))

  00002	8b 74 24 0c	 mov	 esi, DWORD PTR __Ptr$[esp+4]
  00006	56		 push	 esi
  00007	8b d9		 mov	 ebx, ecx
  00009	e8 00 00 00 00	 call	 ?_Inside@?$basic_string@GU?$char_traits@G@std@@V?$allocator@G@2@@std@@IAE_NPBG@Z ; std::basic_string<unsigned short,std::char_traits<unsigned short>,std::allocator<unsigned short> >::_Inside
  0000e	84 c0		 test	 al, al
  00010	74 21		 je	 SHORT $L26159

; 610  : 			return (assign(*this, _Ptr - _Myptr(), _Num));	// substring

  00012	83 7b 18 08	 cmp	 DWORD PTR [ebx+24], 8
  00016	72 05		 jb	 SHORT $L59817
  00018	8b 43 04	 mov	 eax, DWORD PTR [ebx+4]
  0001b	eb 03		 jmp	 SHORT $L59818
$L59817:
  0001d	8d 43 04	 lea	 eax, DWORD PTR [ebx+4]
$L59818:
  00020	ff 74 24 10	 push	 DWORD PTR __Num$[esp+4]
  00024	2b f0		 sub	 esi, eax
  00026	d1 fe		 sar	 esi, 1
  00028	56		 push	 esi
  00029	53		 push	 ebx
  0002a	8b cb		 mov	 ecx, ebx
  0002c	e8 00 00 00 00	 call	 ?assign@?$basic_string@GU?$char_traits@G@std@@V?$allocator@G@2@@std@@QAEAAV12@ABV12@II@Z ; std::basic_string<unsigned short,std::char_traits<unsigned short>,std::allocator<unsigned short> >::assign
  00031	eb 36		 jmp	 SHORT $L26158
$L26159:
  00033	57		 push	 edi

; 611  : 
; 612  : 		if (_Grow(_Num))

  00034	8b 7c 24 14	 mov	 edi, DWORD PTR __Num$[esp+8]
  00038	6a 00		 push	 0
  0003a	57		 push	 edi
  0003b	8b cb		 mov	 ecx, ebx
  0003d	e8 00 00 00 00	 call	 ?_Grow@?$basic_string@GU?$char_traits@G@std@@V?$allocator@G@2@@std@@IAE_NI_N@Z ; std::basic_string<unsigned short,std::char_traits<unsigned short>,std::allocator<unsigned short> >::_Grow
  00042	84 c0		 test	 al, al
  00044	74 20		 je	 SHORT $L26160

; 613  : 			{	// make room and assign new stuff
; 614  : 			_Traits::copy(_Myptr(), _Ptr, _Num);

  00046	83 7b 18 08	 cmp	 DWORD PTR [ebx+24], 8
  0004a	72 05		 jb	 SHORT $L59824
  0004c	8b 43 04	 mov	 eax, DWORD PTR [ebx+4]
  0004f	eb 03		 jmp	 SHORT $L59825
$L59824:
  00051	8d 43 04	 lea	 eax, DWORD PTR [ebx+4]
$L59825:

; 615  : 			_Eos(_Num);

  00054	ff 74 24 14	 push	 DWORD PTR __Num$[esp+8]
  00058	8b cf		 mov	 ecx, edi
  0005a	8b f8		 mov	 edi, eax
  0005c	66 f3 a5	 rep movsw
  0005f	8b cb		 mov	 ecx, ebx
  00061	e8 00 00 00 00	 call	 ?_Eos@?$basic_string@GU?$char_traits@G@std@@V?$allocator@G@2@@std@@IAEXI@Z ; std::basic_string<unsigned short,std::char_traits<unsigned short>,std::allocator<unsigned short> >::_Eos
$L26160:

; 616  : 			}
; 617  : 		return (*this);

  00066	8b c3		 mov	 eax, ebx
  00068	5f		 pop	 edi
$L26158:
  00069	5e		 pop	 esi
  0006a	5b		 pop	 ebx

; 618  : 		}

  0006b	c2 08 00	 ret	 8
?assign@?$basic_string@GU?$char_traits@G@std@@V?$allocator@G@2@@std@@QAEAAV12@PBGI@Z ENDP ; std::basic_string<unsigned short,std::char_traits<unsigned short>,std::allocator<unsigned short> >::assign
; Function compile flags: /Ogsy
_TEXT	ENDS
;	COMDAT ?assign@?$basic_string@GU?$char_traits@G@std@@V?$allocator@G@2@@std@@QAEAAV12@PBG@Z
_TEXT	SEGMENT
_this$ = 8						; size = 4
__Ptr$ = 12						; size = 4
?assign@?$basic_string@GU?$char_traits@G@std@@V?$allocator@G@2@@std@@QAEAAV12@PBG@Z PROC NEAR ; std::basic_string<unsigned short,std::char_traits<unsigned short>,std::allocator<unsigned short> >::assign, COMDAT

; 622  : 		return (assign(_Ptr, _Traits::length(_Ptr)));

  00000	ff 74 24 08	 push	 DWORD PTR __Ptr$[esp-4]
  00004	e8 00 00 00 00	 call	 _wcslen
  00009	59		 pop	 ecx
  0000a	8b 4c 24 04	 mov	 ecx, DWORD PTR _this$[esp-4]
  0000e	50		 push	 eax
  0000f	ff 74 24 0c	 push	 DWORD PTR __Ptr$[esp]
  00013	e8 00 00 00 00	 call	 ?assign@?$basic_string@GU?$char_traits@G@std@@V?$allocator@G@2@@std@@QAEAAV12@PBGI@Z ; std::basic_string<unsigned short,std::char_traits<unsigned short>,std::allocator<unsigned short> >::assign

; 623  : 		}

  00018	c2 08 00	 ret	 8
?assign@?$basic_string@GU?$char_traits@G@std@@V?$allocator@G@2@@std@@QAEAAV12@PBG@Z ENDP ; std::basic_string<unsigned short,std::char_traits<unsigned short>,std::allocator<unsigned short> >::assign
; Function compile flags: /Ogsy
; File c:\program files (x86)\microsoft visual studio .net 2003\vc7\include\xlocnum
_TEXT	ENDS
;	COMDAT ?grouping@?$numpunct@D@std@@QBE?AV?$basic_string@DU?$char_traits@D@std@@V?$allocator@D@2@@2@XZ
_TEXT	SEGMENT
$T59846 = -4						; size = 4
___$ReturnUdt$ = 8					; size = 4
?grouping@?$numpunct@D@std@@QBE?AV?$basic_string@DU?$char_traits@D@std@@V?$allocator@D@2@@2@XZ PROC NEAR ; std::numpunct<char>::grouping, COMDAT
; _this$ = ecx

; 48   : 		{	// return grouping string

  00000	55		 push	 ebp
  00001	8b ec		 mov	 ebp, esp
  00003	51		 push	 ecx

; 49   : 		return (do_grouping());

  00004	ff 75 08	 push	 DWORD PTR ___$ReturnUdt$[ebp]
  00007	8b 01		 mov	 eax, DWORD PTR [ecx]
  00009	83 65 fc 00	 and	 DWORD PTR $T59846[ebp], 0
  0000d	ff 50 0c	 call	 DWORD PTR [eax+12]
  00010	8b 45 08	 mov	 eax, DWORD PTR ___$ReturnUdt$[ebp]

; 50   : 		}

  00013	c9		 leave
  00014	c2 04 00	 ret	 4
?grouping@?$numpunct@D@std@@QBE?AV?$basic_string@DU?$char_traits@D@std@@V?$allocator@D@2@@2@XZ ENDP ; std::numpunct<char>::grouping
; Function compile flags: /Ogsy
_TEXT	ENDS
;	COMDAT ?grouping@?$numpunct@G@std@@QBE?AV?$basic_string@DU?$char_traits@D@std@@V?$allocator@D@2@@2@XZ
_TEXT	SEGMENT
$T59851 = -4						; size = 4
___$ReturnUdt$ = 8					; size = 4
?grouping@?$numpunct@G@std@@QBE?AV?$basic_string@DU?$char_traits@D@std@@V?$allocator@D@2@@2@XZ PROC NEAR ; std::numpunct<unsigned short>::grouping, COMDAT
; _this$ = ecx

; 48   : 		{	// return grouping string

  00000	55		 push	 ebp
  00001	8b ec		 mov	 ebp, esp
  00003	51		 push	 ecx

; 49   : 		return (do_grouping());

  00004	ff 75 08	 push	 DWORD PTR ___$ReturnUdt$[ebp]
  00007	8b 01		 mov	 eax, DWORD PTR [ecx]
  00009	83 65 fc 00	 and	 DWORD PTR $T59851[ebp], 0
  0000d	ff 50 0c	 call	 DWORD PTR [eax+12]
  00010	8b 45 08	 mov	 eax, DWORD PTR ___$ReturnUdt$[ebp]

; 50   : 		}

  00013	c9		 leave
  00014	c2 04 00	 ret	 4
?grouping@?$numpunct@G@std@@QBE?AV?$basic_string@DU?$char_traits@D@std@@V?$allocator@D@2@@2@XZ ENDP ; std::numpunct<unsigned short>::grouping
; Function compile flags: /Ogsy
; File c:\program files (x86)\microsoft visual studio .net 2003\vc7\include\xstring
_TEXT	ENDS
;	COMDAT ??0?$basic_string@GU?$char_traits@G@std@@V?$allocator@G@2@@std@@QAE@PBG@Z
_TEXT	SEGMENT
__Ptr$ = 8						; size = 4
??0?$basic_string@GU?$char_traits@G@std@@V?$allocator@G@2@@std@@QAE@PBG@Z PROC NEAR ; std::basic_string<unsigned short,std::char_traits<unsigned short>,std::allocator<unsigned short> >::basic_string<unsigned short,std::char_traits<unsigned short>,std::allocator<unsigned short> >, COMDAT
; _this$ = ecx

; 360  : 		{	// construct from [_Ptr, <null>)

  00000	56		 push	 esi
  00001	8b f1		 mov	 esi, ecx

; 361  : 		_Tidy();

  00003	6a 00		 push	 0
  00005	c7 46 18 07 00
	00 00		 mov	 DWORD PTR [esi+24], 7
  0000c	e8 00 00 00 00	 call	 ?_Eos@?$basic_string@GU?$char_traits@G@std@@V?$allocator@G@2@@std@@IAEXI@Z ; std::basic_string<unsigned short,std::char_traits<unsigned short>,std::allocator<unsigned short> >::_Eos

; 362  : 		assign(_Ptr);

  00011	ff 74 24 08	 push	 DWORD PTR __Ptr$[esp]
  00015	56		 push	 esi
  00016	e8 00 00 00 00	 call	 ?assign@?$basic_string@GU?$char_traits@G@std@@V?$allocator@G@2@@std@@QAEAAV12@PBG@Z ; std::basic_string<unsigned short,std::char_traits<unsigned short>,std::allocator<unsigned short> >::assign

; 363  : 		}

  0001b	8b c6		 mov	 eax, esi
  0001d	5e		 pop	 esi
  0001e	c2 04 00	 ret	 4
??0?$basic_string@GU?$char_traits@G@std@@V?$allocator@G@2@@std@@QAE@PBG@Z ENDP ; std::basic_string<unsigned short,std::char_traits<unsigned short>,std::allocator<unsigned short> >::basic_string<unsigned short,std::char_traits<unsigned short>,std::allocator<unsigned short> >
; Function compile flags: /Ogsy
_TEXT	ENDS
;	COMDAT ??0?$basic_string@DU?$char_traits@D@std@@V?$allocator@D@2@@std@@QAE@PBD@Z
_TEXT	SEGMENT
__Ptr$ = 8						; size = 4
??0?$basic_string@DU?$char_traits@D@std@@V?$allocator@D@2@@std@@QAE@PBD@Z PROC NEAR ; std::basic_string<char,std::char_traits<char>,std::allocator<char> >::basic_string<char,std::char_traits<char>,std::allocator<char> >, COMDAT
; _this$ = ecx

; 360  : 		{	// construct from [_Ptr, <null>)

  00000	56		 push	 esi
  00001	8b f1		 mov	 esi, ecx

; 361  : 		_Tidy();

  00003	6a 00		 push	 0
  00005	c7 46 18 0f 00
	00 00		 mov	 DWORD PTR [esi+24], 15	; 0000000fH
  0000c	e8 00 00 00 00	 call	 ?_Eos@?$basic_string@DU?$char_traits@D@std@@V?$allocator@D@2@@std@@IAEXI@Z ; std::basic_string<char,std::char_traits<char>,std::allocator<char> >::_Eos

; 362  : 		assign(_Ptr);

  00011	ff 74 24 08	 push	 DWORD PTR __Ptr$[esp]
  00015	8b ce		 mov	 ecx, esi
  00017	e8 00 00 00 00	 call	 ?assign@?$basic_string@DU?$char_traits@D@std@@V?$allocator@D@2@@std@@QAEAAV12@PBD@Z ; std::basic_string<char,std::char_traits<char>,std::allocator<char> >::assign

; 363  : 		}

  0001c	8b c6		 mov	 eax, esi
  0001e	5e		 pop	 esi
  0001f	c2 04 00	 ret	 4
??0?$basic_string@DU?$char_traits@D@std@@V?$allocator@D@2@@std@@QAE@PBD@Z ENDP ; std::basic_string<char,std::char_traits<char>,std::allocator<char> >::basic_string<char,std::char_traits<char>,std::allocator<char> >
; Function compile flags: /Ogsy
; File c:\program files (x86)\microsoft visual studio .net 2003\vc7\include\xlocnum
_TEXT	ENDS
;	COMDAT ?do_truename@?$numpunct@D@std@@MBE?AV?$basic_string@DU?$char_traits@D@std@@V?$allocator@D@2@@2@XZ
_TEXT	SEGMENT
$T59933 = -4						; size = 4
___$ReturnUdt$ = 8					; size = 4
?do_truename@?$numpunct@D@std@@MBE?AV?$basic_string@DU?$char_traits@D@std@@V?$allocator@D@2@@2@XZ PROC NEAR ; std::numpunct<char>::do_truename, COMDAT
; _this$ = ecx

; 131  : 		{	// return name for true

  00000	55		 push	 ebp
  00001	8b ec		 mov	 ebp, esp
  00003	51		 push	 ecx

; 132  : 		return (string_type(_Truename));

  00004	ff 71 14	 push	 DWORD PTR [ecx+20]
  00007	8b 4d 08	 mov	 ecx, DWORD PTR ___$ReturnUdt$[ebp]
  0000a	83 65 fc 00	 and	 DWORD PTR $T59933[ebp], 0
  0000e	e8 00 00 00 00	 call	 ??0?$basic_string@DU?$char_traits@D@std@@V?$allocator@D@2@@std@@QAE@PBD@Z ; std::basic_string<char,std::char_traits<char>,std::allocator<char> >::basic_string<char,std::char_traits<char>,std::allocator<char> >
  00013	8b 45 08	 mov	 eax, DWORD PTR ___$ReturnUdt$[ebp]

; 133  : 		}

  00016	c9		 leave
  00017	c2 04 00	 ret	 4
?do_truename@?$numpunct@D@std@@MBE?AV?$basic_string@DU?$char_traits@D@std@@V?$allocator@D@2@@2@XZ ENDP ; std::numpunct<char>::do_truename
; Function compile flags: /Ogsy
_TEXT	ENDS
;	COMDAT ?do_falsename@?$numpunct@D@std@@MBE?AV?$basic_string@DU?$char_traits@D@std@@V?$allocator@D@2@@2@XZ
_TEXT	SEGMENT
$T59938 = -4						; size = 4
___$ReturnUdt$ = 8					; size = 4
?do_falsename@?$numpunct@D@std@@MBE?AV?$basic_string@DU?$char_traits@D@std@@V?$allocator@D@2@@2@XZ PROC NEAR ; std::numpunct<char>::do_falsename, COMDAT
; _this$ = ecx

; 126  : 		{	// return name for false

  00000	55		 push	 ebp
  00001	8b ec		 mov	 ebp, esp
  00003	51		 push	 ecx

; 127  : 		return (string_type(_Falsename));

  00004	ff 71 10	 push	 DWORD PTR [ecx+16]
  00007	8b 4d 08	 mov	 ecx, DWORD PTR ___$ReturnUdt$[ebp]
  0000a	83 65 fc 00	 and	 DWORD PTR $T59938[ebp], 0
  0000e	e8 00 00 00 00	 call	 ??0?$basic_string@DU?$char_traits@D@std@@V?$allocator@D@2@@std@@QAE@PBD@Z ; std::basic_string<char,std::char_traits<char>,std::allocator<char> >::basic_string<char,std::char_traits<char>,std::allocator<char> >
  00013	8b 45 08	 mov	 eax, DWORD PTR ___$ReturnUdt$[ebp]

; 128  : 		}

  00016	c9		 leave
  00017	c2 04 00	 ret	 4
?do_falsename@?$numpunct@D@std@@MBE?AV?$basic_string@DU?$char_traits@D@std@@V?$allocator@D@2@@2@XZ ENDP ; std::numpunct<char>::do_falsename
; Function compile flags: /Ogsy
_TEXT	ENDS
;	COMDAT ?do_grouping@?$numpunct@D@std@@MBE?AV?$basic_string@DU?$char_traits@D@std@@V?$allocator@D@2@@2@XZ
_TEXT	SEGMENT
$T59943 = -4						; size = 4
___$ReturnUdt$ = 8					; size = 4
?do_grouping@?$numpunct@D@std@@MBE?AV?$basic_string@DU?$char_traits@D@std@@V?$allocator@D@2@@2@XZ PROC NEAR ; std::numpunct<char>::do_grouping, COMDAT
; _this$ = ecx

; 121  : 		{	// return grouping string

  00000	55		 push	 ebp
  00001	8b ec		 mov	 ebp, esp
  00003	51		 push	 ecx

; 122  : 		return (string(_Grouping));

  00004	ff 71 08	 push	 DWORD PTR [ecx+8]
  00007	8b 4d 08	 mov	 ecx, DWORD PTR ___$ReturnUdt$[ebp]
  0000a	83 65 fc 00	 and	 DWORD PTR $T59943[ebp], 0
  0000e	e8 00 00 00 00	 call	 ??0?$basic_string@DU?$char_traits@D@std@@V?$allocator@D@2@@std@@QAE@PBD@Z ; std::basic_string<char,std::char_traits<char>,std::allocator<char> >::basic_string<char,std::char_traits<char>,std::allocator<char> >
  00013	8b 45 08	 mov	 eax, DWORD PTR ___$ReturnUdt$[ebp]

; 123  : 		}

  00016	c9		 leave
  00017	c2 04 00	 ret	 4
?do_grouping@?$numpunct@D@std@@MBE?AV?$basic_string@DU?$char_traits@D@std@@V?$allocator@D@2@@2@XZ ENDP ; std::numpunct<char>::do_grouping
; Function compile flags: /Ogsy
_TEXT	ENDS
;	COMDAT ?truename@?$numpunct@D@std@@QBE?AV?$basic_string@DU?$char_traits@D@std@@V?$allocator@D@2@@2@XZ
_TEXT	SEGMENT
$T59948 = -4						; size = 4
___$ReturnUdt$ = 8					; size = 4
?truename@?$numpunct@D@std@@QBE?AV?$basic_string@DU?$char_traits@D@std@@V?$allocator@D@2@@2@XZ PROC NEAR ; std::numpunct<char>::truename, COMDAT
; _this$ = ecx

; 58   : 		{	// return name for true

  00000	55		 push	 ebp
  00001	8b ec		 mov	 ebp, esp
  00003	51		 push	 ecx

; 59   : 		return (do_truename());

  00004	ff 75 08	 push	 DWORD PTR ___$ReturnUdt$[ebp]
  00007	8b 01		 mov	 eax, DWORD PTR [ecx]
  00009	83 65 fc 00	 and	 DWORD PTR $T59948[ebp], 0
  0000d	ff 50 14	 call	 DWORD PTR [eax+20]
  00010	8b 45 08	 mov	 eax, DWORD PTR ___$ReturnUdt$[ebp]

; 60   : 		}

  00013	c9		 leave
  00014	c2 04 00	 ret	 4
?truename@?$numpunct@D@std@@QBE?AV?$basic_string@DU?$char_traits@D@std@@V?$allocator@D@2@@2@XZ ENDP ; std::numpunct<char>::truename
; Function compile flags: /Ogsy
_TEXT	ENDS
;	COMDAT ?falsename@?$numpunct@D@std@@QBE?AV?$basic_string@DU?$char_traits@D@std@@V?$allocator@D@2@@2@XZ
_TEXT	SEGMENT
$T59953 = -4						; size = 4
___$ReturnUdt$ = 8					; size = 4
?falsename@?$numpunct@D@std@@QBE?AV?$basic_string@DU?$char_traits@D@std@@V?$allocator@D@2@@2@XZ PROC NEAR ; std::numpunct<char>::falsename, COMDAT
; _this$ = ecx

; 53   : 		{	// return name for false

  00000	55		 push	 ebp
  00001	8b ec		 mov	 ebp, esp
  00003	51		 push	 ecx

; 54   : 		return (do_falsename());

  00004	ff 75 08	 push	 DWORD PTR ___$ReturnUdt$[ebp]
  00007	8b 01		 mov	 eax, DWORD PTR [ecx]
  00009	83 65 fc 00	 and	 DWORD PTR $T59953[ebp], 0
  0000d	ff 50 10	 call	 DWORD PTR [eax+16]
  00010	8b 45 08	 mov	 eax, DWORD PTR ___$ReturnUdt$[ebp]

; 55   : 		}

  00013	c9		 leave
  00014	c2 04 00	 ret	 4
?falsename@?$numpunct@D@std@@QBE?AV?$basic_string@DU?$char_traits@D@std@@V?$allocator@D@2@@2@XZ ENDP ; std::numpunct<char>::falsename
; Function compile flags: /Ogsy
_TEXT	ENDS
;	COMDAT ?do_truename@?$numpunct@G@std@@MBE?AV?$basic_string@GU?$char_traits@G@std@@V?$allocator@G@2@@2@XZ
_TEXT	SEGMENT
$T59958 = -4						; size = 4
___$ReturnUdt$ = 8					; size = 4
?do_truename@?$numpunct@G@std@@MBE?AV?$basic_string@GU?$char_traits@G@std@@V?$allocator@G@2@@2@XZ PROC NEAR ; std::numpunct<unsigned short>::do_truename, COMDAT
; _this$ = ecx

; 131  : 		{	// return name for true

  00000	55		 push	 ebp
  00001	8b ec		 mov	 ebp, esp
  00003	51		 push	 ecx

; 132  : 		return (string_type(_Truename));

  00004	ff 71 14	 push	 DWORD PTR [ecx+20]
  00007	8b 4d 08	 mov	 ecx, DWORD PTR ___$ReturnUdt$[ebp]
  0000a	83 65 fc 00	 and	 DWORD PTR $T59958[ebp], 0
  0000e	e8 00 00 00 00	 call	 ??0?$basic_string@GU?$char_traits@G@std@@V?$allocator@G@2@@std@@QAE@PBG@Z ; std::basic_string<unsigned short,std::char_traits<unsigned short>,std::allocator<unsigned short> >::basic_string<unsigned short,std::char_traits<unsigned short>,std::allocator<unsigned short> >
  00013	8b 45 08	 mov	 eax, DWORD PTR ___$ReturnUdt$[ebp]

; 133  : 		}

  00016	c9		 leave
  00017	c2 04 00	 ret	 4
?do_truename@?$numpunct@G@std@@MBE?AV?$basic_string@GU?$char_traits@G@std@@V?$allocator@G@2@@2@XZ ENDP ; std::numpunct<unsigned short>::do_truename
; Function compile flags: /Ogsy
_TEXT	ENDS
;	COMDAT ?do_falsename@?$numpunct@G@std@@MBE?AV?$basic_string@GU?$char_traits@G@std@@V?$allocator@G@2@@2@XZ
_TEXT	SEGMENT
$T59963 = -4						; size = 4
___$ReturnUdt$ = 8					; size = 4
?do_falsename@?$numpunct@G@std@@MBE?AV?$basic_string@GU?$char_traits@G@std@@V?$allocator@G@2@@2@XZ PROC NEAR ; std::numpunct<unsigned short>::do_falsename, COMDAT
; _this$ = ecx

; 126  : 		{	// return name for false

  00000	55		 push	 ebp
  00001	8b ec		 mov	 ebp, esp
  00003	51		 push	 ecx

; 127  : 		return (string_type(_Falsename));

  00004	ff 71 10	 push	 DWORD PTR [ecx+16]
  00007	8b 4d 08	 mov	 ecx, DWORD PTR ___$ReturnUdt$[ebp]
  0000a	83 65 fc 00	 and	 DWORD PTR $T59963[ebp], 0
  0000e	e8 00 00 00 00	 call	 ??0?$basic_string@GU?$char_traits@G@std@@V?$allocator@G@2@@std@@QAE@PBG@Z ; std::basic_string<unsigned short,std::char_traits<unsigned short>,std::allocator<unsigned short> >::basic_string<unsigned short,std::char_traits<unsigned short>,std::allocator<unsigned short> >
  00013	8b 45 08	 mov	 eax, DWORD PTR ___$ReturnUdt$[ebp]

; 128  : 		}

  00016	c9		 leave
  00017	c2 04 00	 ret	 4
?do_falsename@?$numpunct@G@std@@MBE?AV?$basic_string@GU?$char_traits@G@std@@V?$allocator@G@2@@2@XZ ENDP ; std::numpunct<unsigned short>::do_falsename
; Function compile flags: /Ogsy
_TEXT	ENDS
;	COMDAT ?do_grouping@?$numpunct@G@std@@MBE?AV?$basic_string@DU?$char_traits@D@std@@V?$allocator@D@2@@2@XZ
_TEXT	SEGMENT
$T59968 = -4						; size = 4
___$ReturnUdt$ = 8					; size = 4
?do_grouping@?$numpunct@G@std@@MBE?AV?$basic_string@DU?$char_traits@D@std@@V?$allocator@D@2@@2@XZ PROC NEAR ; std::numpunct<unsigned short>::do_grouping, COMDAT
; _this$ = ecx

; 121  : 		{	// return grouping string

  00000	55		 push	 ebp
  00001	8b ec		 mov	 ebp, esp
  00003	51		 push	 ecx

; 122  : 		return (string(_Grouping));

  00004	ff 71 08	 push	 DWORD PTR [ecx+8]
  00007	8b 4d 08	 mov	 ecx, DWORD PTR ___$ReturnUdt$[ebp]
  0000a	83 65 fc 00	 and	 DWORD PTR $T59968[ebp], 0
  0000e	e8 00 00 00 00	 call	 ??0?$basic_string@DU?$char_traits@D@std@@V?$allocator@D@2@@std@@QAE@PBD@Z ; std::basic_string<char,std::char_traits<char>,std::allocator<char> >::basic_string<char,std::char_traits<char>,std::allocator<char> >
  00013	8b 45 08	 mov	 eax, DWORD PTR ___$ReturnUdt$[ebp]

; 123  : 		}

  00016	c9		 leave
  00017	c2 04 00	 ret	 4
?do_grouping@?$numpunct@G@std@@MBE?AV?$basic_string@DU?$char_traits@D@std@@V?$allocator@D@2@@2@XZ ENDP ; std::numpunct<unsigned short>::do_grouping
_TEXT	ENDS
;	COMDAT xdata$x
; File c:\program files (x86)\microsoft visual studio .net 2003\vc7\include\xstring
xdata$x	SEGMENT
$T60069	DD	0ffffffffH
	DD	FLAT:$L59985
	DD	0ffffffffH
	DD	FLAT:$L59986
$T60056	DD	019930520H
	DD	02H
	DD	FLAT:$T60069
	DD	2 DUP(00H)
	DD	2 DUP(00H)
; Function compile flags: /Ogsy
; File c:\program files (x86)\microsoft visual studio .net 2003\vc7\include\xlocnum
xdata$x	ENDS
;	COMDAT ?_Iput@?$num_put@DV?$ostreambuf_iterator@DU?$char_traits@D@std@@@std@@@std@@ABA?AV?$ostreambuf_iterator@DU?$char_traits@D@std@@@2@V32@AAVios_base@2@DPADI@Z
_TEXT	SEGMENT
$T59984 = -68						; size = 8
$T59983 = -68						; size = 8
$T59973 = -60						; size = 4
__Punct_fac$ = -56					; size = 4
$T59982 = -52						; size = 8
$T59981 = -52						; size = 8
__Prefix$ = -48						; size = 4
__Grouping$ = -44					; size = 28
__$ArrayPad$ = -16					; size = 4
__$EHRec$ = -12						; size = 12
__$ReturnAddr$ = 4					; size = 4
_this$ = 8						; size = 4
___$ReturnUdt$ = 12					; size = 4
__Dest$ = 16						; size = 8
__Iosbase$ = 24						; size = 4
__Fill$ = 28						; size = 1
__Buf$ = 32						; size = 4
__Count$ = 36						; size = 4
?_Iput@?$num_put@DV?$ostreambuf_iterator@DU?$char_traits@D@std@@@std@@@std@@ABA?AV?$ostreambuf_iterator@DU?$char_traits@D@std@@@2@V32@AAVios_base@2@DPADI@Z PROC NEAR ; std::num_put<char,std::ostreambuf_iterator<char,std::char_traits<char> > >::_Iput, COMDAT

; 1192 : 		{	// put formatted integer to _Dest

  00000	b8 00 00 00 00	 mov	 eax, __ehhandler$?_Iput@?$num_put@DV?$ostreambuf_iterator@DU?$char_traits@D@std@@@std@@@std@@ABA?AV?$ostreambuf_iterator@DU?$char_traits@D@std@@@2@V32@AAVios_base@2@DPADI@Z
  00005	e8 00 00 00 00	 call	 __EH_prolog
  0000a	83 ec 38	 sub	 esp, 56			; 00000038H
  0000d	a1 00 00 00 00	 mov	 eax, DWORD PTR ___security_cookie

; 1193 : 		const _Mypunct& _Punct_fac = _USE(_Iosbase.getloc(), _Mypunct);

  00012	8b 4d 18	 mov	 ecx, DWORD PTR __Iosbase$[ebp]
  00015	89 45 f0	 mov	 DWORD PTR __$ArrayPad$[ebp], eax
  00018	8d 45 c4	 lea	 eax, DWORD PTR $T59973[ebp]
  0001b	50		 push	 eax
  0001c	e8 00 00 00 00	 call	 ?getloc@ios_base@std@@QBE?AVlocale@2@XZ ; std::ios_base::getloc
  00021	83 65 fc 00	 and	 DWORD PTR __$EHRec$[ebp+8], 0
  00025	50		 push	 eax
  00026	e8 00 00 00 00	 call	 ??$use_facet@V?$numpunct@D@std@@@std@@YAABV?$numpunct@D@0@ABVlocale@0@@Z ; std::use_facet<std::numpunct<char> >
  0002b	83 4d fc ff	 or	 DWORD PTR __$EHRec$[ebp+8], -1
  0002f	59		 pop	 ecx
  00030	8d 4d c4	 lea	 ecx, DWORD PTR $T59973[ebp]
  00033	89 45 c8	 mov	 DWORD PTR __Punct_fac$[ebp], eax
  00036	e8 00 00 00 00	 call	 ??1locale@std@@QAE@XZ	; std::locale::~locale

; 1194 : 		const string _Grouping = _Punct_fac.grouping();

  0003b	8b 4d c8	 mov	 ecx, DWORD PTR __Punct_fac$[ebp]
  0003e	8d 45 d4	 lea	 eax, DWORD PTR __Grouping$[ebp]
  00041	50		 push	 eax
  00042	e8 00 00 00 00	 call	 ?grouping@?$numpunct@D@std@@QBE?AV?$basic_string@DU?$char_traits@D@std@@V?$allocator@D@2@@2@XZ ; std::numpunct<char>::grouping

; 1195 : 		const size_t _Prefix = *_Buf == '+' || *_Buf == '-' ? 1
; 1196 : 			: *_Buf == '0' && (_Buf[1] == 'x' || _Buf[1] == 'X') ? 2
; 1197 : 			: 0;

  00047	8b 4d 20	 mov	 ecx, DWORD PTR __Buf$[ebp]
  0004a	33 d2		 xor	 edx, edx
  0004c	42		 inc	 edx
  0004d	89 55 fc	 mov	 DWORD PTR __$EHRec$[ebp+8], edx
  00050	8a 01		 mov	 al, BYTE PTR [ecx]
  00052	3c 2b		 cmp	 al, 43			; 0000002bH
  00054	74 22		 je	 SHORT $L59974
  00056	3c 2d		 cmp	 al, 45			; 0000002dH
  00058	74 1e		 je	 SHORT $L59974
  0005a	3c 30		 cmp	 al, 48			; 00000030H
  0005c	75 14		 jne	 SHORT $L59976
  0005e	8a 41 01	 mov	 al, BYTE PTR [ecx+1]
  00061	3c 78		 cmp	 al, 120			; 00000078H
  00063	74 04		 je	 SHORT $L59975
  00065	3c 58		 cmp	 al, 88			; 00000058H
  00067	75 09		 jne	 SHORT $L59976
$L59975:
  00069	c7 45 d0 02 00
	00 00		 mov	 DWORD PTR __Prefix$[ebp], 2
  00070	eb 09		 jmp	 SHORT $L59978
$L59976:
  00072	83 65 d0 00	 and	 DWORD PTR __Prefix$[ebp], 0
  00076	eb 03		 jmp	 SHORT $L59978
$L59974:
  00078	89 55 d0	 mov	 DWORD PTR __Prefix$[ebp], edx
$L59978:

; 1198 : 
; 1199 : 		if (*_Grouping.c_str() != CHAR_MAX && '\0' < *_Grouping.c_str())

  0007b	83 7d ec 10	 cmp	 DWORD PTR __Grouping$[ebp+24], 16 ; 00000010H
  0007f	53		 push	 ebx
  00080	56		 push	 esi
  00081	8b 75 d8	 mov	 esi, DWORD PTR __Grouping$[ebp+4]
  00084	57		 push	 edi
  00085	8b c6		 mov	 eax, esi
  00087	73 03		 jae	 SHORT $L59999
  00089	8d 45 d8	 lea	 eax, DWORD PTR __Grouping$[ebp+4]
$L59999:
  0008c	80 38 7f	 cmp	 BYTE PTR [eax], 127	; 0000007fH
  0008f	74 61		 je	 SHORT $L25772
  00091	83 7d ec 10	 cmp	 DWORD PTR __Grouping$[ebp+24], 16 ; 00000010H
  00095	8b c6		 mov	 eax, esi
  00097	73 03		 jae	 SHORT $L60013
  00099	8d 45 d8	 lea	 eax, DWORD PTR __Grouping$[ebp+4]
$L60013:
  0009c	80 38 00	 cmp	 BYTE PTR [eax], 0
  0009f	7e 51		 jle	 SHORT $L25772

; 1200 : 			{	// grouping specified, add thousands separators
; 1201 : 			const char *_Pg = _Grouping.c_str();

  000a1	83 7d ec 10	 cmp	 DWORD PTR __Grouping$[ebp+24], 16 ; 00000010H
  000a5	73 03		 jae	 SHORT $L60027
  000a7	8d 75 d8	 lea	 esi, DWORD PTR __Grouping$[ebp+4]
$L60027:

; 1202 : 			size_t _Off = _Count;

  000aa	8b 7d 24	 mov	 edi, DWORD PTR __Count$[ebp]

; 1203 : 			while (*_Pg != CHAR_MAX && '\0' < *_Pg
; 1204 : 				&& (size_t)*_Pg < _Off - _Prefix)

  000ad	eb 3d		 jmp	 SHORT $L60068
$L25771:
  000af	84 c0		 test	 al, al
  000b1	7e 3f		 jle	 SHORT $L25772
  000b3	8b d7		 mov	 edx, edi
  000b5	2b 55 d0	 sub	 edx, DWORD PTR __Prefix$[ebp]
  000b8	0f be c0	 movsx	 eax, al
  000bb	3b c2		 cmp	 eax, edx
  000bd	73 33		 jae	 SHORT $L25772

; 1205 : 				{	// add a comma to mark thousands separator
; 1206 : 				_Off -= *_Pg;

  000bf	2b f8		 sub	 edi, eax

; 1207 : 				::memmove(&_Buf[_Off + 1], &_Buf[_Off],
; 1208 : 					_Count + 1 - _Off);

  000c1	8b 45 24	 mov	 eax, DWORD PTR __Count$[ebp]
  000c4	2b c7		 sub	 eax, edi
  000c6	40		 inc	 eax
  000c7	50		 push	 eax
  000c8	8d 1c 0f	 lea	 ebx, DWORD PTR [edi+ecx]
  000cb	8d 44 0f 01	 lea	 eax, DWORD PTR [edi+ecx+1]
  000cf	53		 push	 ebx
  000d0	50		 push	 eax
  000d1	e8 00 00 00 00	 call	 _memmove
  000d6	83 c4 0c	 add	 esp, 12			; 0000000cH

; 1209 : 				_Buf[_Off] = ',', ++_Count;

  000d9	ff 45 24	 inc	 DWORD PTR __Count$[ebp]
  000dc	8d 46 01	 lea	 eax, DWORD PTR [esi+1]
  000df	c6 03 2c	 mov	 BYTE PTR [ebx], 44	; 0000002cH

; 1210 : 				if ('\0' < _Pg[1])

  000e2	80 38 00	 cmp	 BYTE PTR [eax], 0
  000e5	7e 02		 jle	 SHORT $L25774

; 1211 : 					++_Pg;	// not last group, advance

  000e7	8b f0		 mov	 esi, eax
$L25774:

; 1203 : 			while (*_Pg != CHAR_MAX && '\0' < *_Pg
; 1204 : 				&& (size_t)*_Pg < _Off - _Prefix)

  000e9	8b 4d 20	 mov	 ecx, DWORD PTR __Buf$[ebp]
$L60068:
  000ec	8a 06		 mov	 al, BYTE PTR [esi]
  000ee	3c 7f		 cmp	 al, 127			; 0000007fH
  000f0	75 bd		 jne	 SHORT $L25771
$L25772:

; 1212 : 				}
; 1213 : 			}
; 1214 : 
; 1215 : 		size_t _Fillcount = _Iosbase.width() <= 0
; 1216 : 			|| (size_t)_Iosbase.width() <= _Count
; 1217 : 				? 0 : (size_t)_Iosbase.width() - _Count;

  000f2	8b 45 18	 mov	 eax, DWORD PTR __Iosbase$[ebp]
  000f5	8b 70 18	 mov	 esi, DWORD PTR [eax+24]
  000f8	85 f6		 test	 esi, esi
  000fa	7e 0a		 jle	 SHORT $L59979
  000fc	3b 75 24	 cmp	 esi, DWORD PTR __Count$[ebp]
  000ff	76 05		 jbe	 SHORT $L59979
  00101	2b 75 24	 sub	 esi, DWORD PTR __Count$[ebp]
  00104	eb 02		 jmp	 SHORT $L59980
$L59979:
  00106	33 f6		 xor	 esi, esi
$L59980:

; 1218 : 
; 1219 : 		ios_base::fmtflags _Adjustfield =
; 1220 : 			_Iosbase.flags() & ios_base::adjustfield;

  00108	8b 40 10	 mov	 eax, DWORD PTR [eax+16]
  0010b	25 c0 01 00 00	 and	 eax, 448		; 000001c0H

; 1221 : 		if (_Adjustfield != ios_base::left
; 1222 : 			&& _Adjustfield != ios_base::internal)

  00110	83 f8 40	 cmp	 eax, 64			; 00000040H
  00113	74 56		 je	 SHORT $L60060
  00115	3d 00 01 00 00	 cmp	 eax, 256		; 00000100H
  0011a	74 18		 je	 SHORT $L60058

; 1223 : 			{	// put leading fill
; 1224 : 			_Dest = _Rep(_Dest, _Fill, _Fillcount);

  0011c	ff 75 1c	 push	 DWORD PTR __Fill$[ebp]
  0011f	8b c6		 mov	 eax, esi
  00121	ff 75 14	 push	 DWORD PTR __Dest$[ebp+4]
  00124	8d 7d cc	 lea	 edi, DWORD PTR $T59981[ebp]
  00127	ff 75 10	 push	 DWORD PTR __Dest$[ebp]
  0012a	e8 00 00 00 00	 call	 ?_Rep@?$num_put@DV?$ostreambuf_iterator@DU?$char_traits@D@std@@@std@@@std@@ABA?AV?$ostreambuf_iterator@DU?$char_traits@D@std@@@2@V32@DI@Z ; std::num_put<char,std::ostreambuf_iterator<char,std::char_traits<char> > >::_Rep
  0012f	83 c4 0c	 add	 esp, 12			; 0000000cH

; 1225 : 			_Fillcount = 0;
; 1226 : 			}
; 1227 : 		else if (_Adjustfield == ios_base::internal)

  00132	eb 2e		 jmp	 SHORT $L60066
$L60058:

; 1228 : 			{	// put internal fill
; 1229 : 			_Dest = _Putc(_Dest, _Buf, _Prefix);	// put prefix

  00134	ff 75 14	 push	 DWORD PTR __Dest$[ebp+4]
  00137	8b 7d d0	 mov	 edi, DWORD PTR __Prefix$[ebp]
  0013a	ff 75 10	 push	 DWORD PTR __Dest$[ebp]
  0013d	8b c7		 mov	 eax, edi
  0013f	8d 5d cc	 lea	 ebx, DWORD PTR $T59982[ebp]
  00142	e8 00 00 00 00	 call	 ?_Putc@?$num_put@DV?$ostreambuf_iterator@DU?$char_traits@D@std@@@std@@@std@@ABA?AV?$ostreambuf_iterator@DU?$char_traits@D@std@@@2@V32@PBDI@Z ; std::num_put<char,std::ostreambuf_iterator<char,std::char_traits<char> > >::_Putc

; 1230 : 			_Buf += _Prefix, _Count -= _Prefix;
; 1231 : 			_Dest = _Rep(_Dest, _Fill, _Fillcount), _Fillcount = 0;

  00147	ff 75 1c	 push	 DWORD PTR __Fill$[ebp]
  0014a	01 7d 20	 add	 DWORD PTR __Buf$[ebp], edi
  0014d	ff 70 04	 push	 DWORD PTR [eax+4]
  00150	29 7d 24	 sub	 DWORD PTR __Count$[ebp], edi
  00153	ff 30		 push	 DWORD PTR [eax]
  00155	8b c6		 mov	 eax, esi
  00157	8d 7d bc	 lea	 edi, DWORD PTR $T59983[ebp]
  0015a	e8 00 00 00 00	 call	 ?_Rep@?$num_put@DV?$ostreambuf_iterator@DU?$char_traits@D@std@@@std@@@std@@ABA?AV?$ostreambuf_iterator@DU?$char_traits@D@std@@@2@V32@DI@Z ; std::num_put<char,std::ostreambuf_iterator<char,std::char_traits<char> > >::_Rep
  0015f	83 c4 14	 add	 esp, 20			; 00000014H
$L60066:
  00162	8b 18		 mov	 ebx, DWORD PTR [eax]
  00164	8b 78 04	 mov	 edi, DWORD PTR [eax+4]
  00167	33 f6		 xor	 esi, esi
  00169	eb 06		 jmp	 SHORT $L25782
$L60060:
  0016b	8b 7d 14	 mov	 edi, DWORD PTR __Dest$[ebp+4]
  0016e	8b 5d 10	 mov	 ebx, DWORD PTR __Dest$[ebp]
$L25782:

; 1232 : 			}
; 1233 : 
; 1234 : 		_Dest = _Putgrouped(_Dest, _Buf, _Count,
; 1235 : 			_Punct_fac.thousands_sep());	// put field

  00171	8b 4d c8	 mov	 ecx, DWORD PTR __Punct_fac$[ebp]
  00174	8b 01		 mov	 eax, DWORD PTR [ecx]
  00176	ff 50 08	 call	 DWORD PTR [eax+8]
  00179	50		 push	 eax
  0017a	ff 75 24	 push	 DWORD PTR __Count$[ebp]
  0017d	8d 45 bc	 lea	 eax, DWORD PTR $T59984[ebp]
  00180	ff 75 20	 push	 DWORD PTR __Buf$[ebp]
  00183	57		 push	 edi
  00184	53		 push	 ebx
  00185	50		 push	 eax
  00186	ff 75 08	 push	 DWORD PTR _this$[ebp]
  00189	e8 00 00 00 00	 call	 ?_Putgrouped@?$num_put@DV?$ostreambuf_iterator@DU?$char_traits@D@std@@@std@@@std@@ABA?AV?$ostreambuf_iterator@DU?$char_traits@D@std@@@2@V32@PBDID@Z ; std::num_put<char,std::ostreambuf_iterator<char,std::char_traits<char> > >::_Putgrouped
  0018e	8b 08		 mov	 ecx, DWORD PTR [eax]
  00190	8b 40 04	 mov	 eax, DWORD PTR [eax+4]

; 1236 : 		_Iosbase.width(0);
; 1237 : 		return (_Rep(_Dest, _Fill, _Fillcount));	// put trailing fill

  00193	ff 75 1c	 push	 DWORD PTR __Fill$[ebp]
  00196	8b 55 18	 mov	 edx, DWORD PTR __Iosbase$[ebp]
  00199	8b 7d 0c	 mov	 edi, DWORD PTR ___$ReturnUdt$[ebp]
  0019c	83 62 18 00	 and	 DWORD PTR [edx+24], 0
  001a0	50		 push	 eax
  001a1	51		 push	 ecx
  001a2	8b c6		 mov	 eax, esi
  001a4	e8 00 00 00 00	 call	 ?_Rep@?$num_put@DV?$ostreambuf_iterator@DU?$char_traits@D@std@@@std@@@std@@ABA?AV?$ostreambuf_iterator@DU?$char_traits@D@std@@@2@V32@DI@Z ; std::num_put<char,std::ostreambuf_iterator<char,std::char_traits<char> > >::_Rep
  001a9	83 c4 28	 add	 esp, 40			; 00000028H
  001ac	6a 00		 push	 0
  001ae	6a 01		 push	 1
  001b0	8d 4d d4	 lea	 ecx, DWORD PTR __Grouping$[ebp]
  001b3	e8 00 00 00 00	 call	 ?_Tidy@?$basic_string@DU?$char_traits@D@std@@V?$allocator@D@2@@std@@IAEX_NI@Z ; std::basic_string<char,std::char_traits<char>,std::allocator<char> >::_Tidy

; 1238 : 		}

  001b8	8b 4d f4	 mov	 ecx, DWORD PTR __$EHRec$[ebp]
  001bb	8b c7		 mov	 eax, edi
  001bd	5f		 pop	 edi
  001be	5e		 pop	 esi
  001bf	64 89 0d 00 00
	00 00		 mov	 DWORD PTR fs:__except_list, ecx
  001c6	8b 4d f0	 mov	 ecx, DWORD PTR __$ArrayPad$[ebp]
  001c9	5b		 pop	 ebx
  001ca	e8 00 00 00 00	 call	 @__security_check_cookie@4
  001cf	c9		 leave
  001d0	c3		 ret	 0
_TEXT	ENDS
;	COMDAT text$x
text$x	SEGMENT
$L59985:
  00000	8d 4d c4	 lea	 ecx, DWORD PTR $T59973[ebp]
  00003	e9 00 00 00 00	 jmp	 ??1locale@std@@QAE@XZ	; std::locale::~locale
$L59986:
  00008	8d 4d d4	 lea	 ecx, DWORD PTR __Grouping$[ebp]
  0000b	e9 00 00 00 00	 jmp	 ??1?$basic_string@DU?$char_traits@D@std@@V?$allocator@D@2@@std@@QAE@XZ ; std::basic_string<char,std::char_traits<char>,std::allocator<char> >::~basic_string<char,std::char_traits<char>,std::allocator<char> >
__ehhandler$?_Iput@?$num_put@DV?$ostreambuf_iterator@DU?$char_traits@D@std@@@std@@@std@@ABA?AV?$ostreambuf_iterator@DU?$char_traits@D@std@@@2@V32@AAVios_base@2@DPADI@Z:
  00010	b8 00 00 00 00	 mov	 eax, OFFSET FLAT:$T60056
  00015	e9 00 00 00 00	 jmp	 ___CxxFrameHandler
text$x	ENDS
?_Iput@?$num_put@DV?$ostreambuf_iterator@DU?$char_traits@D@std@@@std@@@std@@ABA?AV?$ostreambuf_iterator@DU?$char_traits@D@std@@@2@V32@AAVios_base@2@DPADI@Z ENDP ; std::num_put<char,std::ostreambuf_iterator<char,std::char_traits<char> > >::_Iput
;	COMDAT xdata$x
; File c:\program files (x86)\microsoft visual studio .net 2003\vc7\include\xstring
xdata$x	SEGMENT
$T60276	DD	0ffffffffH
	DD	FLAT:$L60094
	DD	0ffffffffH
	DD	FLAT:$L60095
	DD	01H
	DD	FLAT:$L60096
$T60265	DD	019930520H
	DD	03H
	DD	FLAT:$T60276
	DD	2 DUP(00H)
	DD	2 DUP(00H)
; Function compile flags: /Ogsy
; File c:\program files (x86)\microsoft visual studio .net 2003\vc7\include\xlocnum
xdata$x	ENDS
;	COMDAT ?_Fput@?$num_put@DV?$ostreambuf_iterator@DU?$char_traits@D@std@@@std@@@std@@ABA?AV?$ostreambuf_iterator@DU?$char_traits@D@std@@@2@V32@AAVios_base@2@DPBDIIII@Z
_TEXT	SEGMENT
$T60088 = -116						; size = 8
$T60086 = -116						; size = 8
__Punct_fac$ = -112					; size = 4
$T60075 = -108						; size = 4
$T60092 = -104						; size = 8
$T60091 = -104						; size = 8
$T60087 = -104						; size = 8
$T60085 = -104						; size = 8
$T60084 = -104						; size = 8
$T60093 = -96						; size = 8
__Kseparator$ = -92					; size = 1
$T60083 = -88						; size = 8
$T60082 = -88						; size = 8
$T60081 = -88						; size = 8
__Prefix$ = -84						; size = 4
__Fillcount$ = -80					; size = 4
__Enders$ = -76						; size = 3
__Grouping$ = -72					; size = 28
__Groupstring$ = -44					; size = 28
__$ArrayPad$ = -16					; size = 4
__$EHRec$ = -12						; size = 12
__$ReturnAddr$ = 4					; size = 4
_this$ = 8						; size = 4
___$ReturnUdt$ = 12					; size = 4
__Dest$ = 16						; size = 8
__Iosbase$ = 24						; size = 4
__Fill$ = 28						; size = 1
__Expoffset$25744 = 32					; size = 4
__Buf$ = 32						; size = 4
__Beforepoint$ = 36					; size = 4
__Afterpoint$ = 40					; size = 4
__Trailing$ = 44					; size = 4
__Count$ = 48						; size = 4
?_Fput@?$num_put@DV?$ostreambuf_iterator@DU?$char_traits@D@std@@@std@@@std@@ABA?AV?$ostreambuf_iterator@DU?$char_traits@D@std@@@2@V32@AAVios_base@2@DPBDIIII@Z PROC NEAR ; std::num_put<char,std::ostreambuf_iterator<char,std::char_traits<char> > >::_Fput, COMDAT

; 1061 : 		{	// put formatted floating-point to _Dest

  00000	b8 00 00 00 00	 mov	 eax, __ehhandler$?_Fput@?$num_put@DV?$ostreambuf_iterator@DU?$char_traits@D@std@@@std@@@std@@ABA?AV?$ostreambuf_iterator@DU?$char_traits@D@std@@@2@V32@AAVios_base@2@DPBDIIII@Z
  00005	e8 00 00 00 00	 call	 __EH_prolog
  0000a	83 ec 68	 sub	 esp, 104		; 00000068H
  0000d	a1 00 00 00 00	 mov	 eax, DWORD PTR ___security_cookie
  00012	53		 push	 ebx
  00013	56		 push	 esi
  00014	57		 push	 edi

; 1062 : 		const _Mypunct& _Punct_fac = _USE(_Iosbase.getloc(), _Mypunct);

  00015	8b 7d 18	 mov	 edi, DWORD PTR __Iosbase$[ebp]
  00018	89 45 f0	 mov	 DWORD PTR __$ArrayPad$[ebp], eax
  0001b	8d 45 94	 lea	 eax, DWORD PTR $T60075[ebp]
  0001e	50		 push	 eax
  0001f	8b cf		 mov	 ecx, edi
  00021	e8 00 00 00 00	 call	 ?getloc@ios_base@std@@QBE?AVlocale@2@XZ ; std::ios_base::getloc
  00026	83 65 fc 00	 and	 DWORD PTR __$EHRec$[ebp+8], 0
  0002a	50		 push	 eax
  0002b	e8 00 00 00 00	 call	 ??$use_facet@V?$numpunct@D@std@@@std@@YAABV?$numpunct@D@0@ABVlocale@0@@Z ; std::use_facet<std::numpunct<char> >
  00030	83 4d fc ff	 or	 DWORD PTR __$EHRec$[ebp+8], -1
  00034	59		 pop	 ecx
  00035	8b f0		 mov	 esi, eax
  00037	8d 4d 94	 lea	 ecx, DWORD PTR $T60075[ebp]
  0003a	89 75 90	 mov	 DWORD PTR __Punct_fac$[ebp], esi
  0003d	e8 00 00 00 00	 call	 ??1locale@std@@QAE@XZ	; std::locale::~locale

; 1063 : 		const string _Grouping = _Punct_fac.grouping();

  00042	8d 45 b8	 lea	 eax, DWORD PTR __Grouping$[ebp]
  00045	50		 push	 eax
  00046	8b ce		 mov	 ecx, esi
  00048	e8 00 00 00 00	 call	 ?grouping@?$numpunct@D@std@@QBE?AV?$basic_string@DU?$char_traits@D@std@@V?$allocator@D@2@@2@XZ ; std::numpunct<char>::grouping
  0004d	33 db		 xor	 ebx, ebx
  0004f	43		 inc	 ebx
  00050	89 5d fc	 mov	 DWORD PTR __$EHRec$[ebp+8], ebx

; 1064 : 		const _Elem _Kseparator = _Punct_fac.thousands_sep();

  00053	8b 06		 mov	 eax, DWORD PTR [esi]
  00055	8b ce		 mov	 ecx, esi
  00057	ff 50 08	 call	 DWORD PTR [eax+8]

; 1065 : 		string _Groupstring;

  0005a	6a 00		 push	 0
  0005c	8d 4d d4	 lea	 ecx, DWORD PTR __Groupstring$[ebp]
  0005f	88 45 a4	 mov	 BYTE PTR __Kseparator$[ebp], al
  00062	c7 45 ec 0f 00
	00 00		 mov	 DWORD PTR __Groupstring$[ebp+24], 15 ; 0000000fH
  00069	e8 00 00 00 00	 call	 ?_Eos@?$basic_string@DU?$char_traits@D@std@@V?$allocator@D@2@@std@@IAEXI@Z ; std::basic_string<char,std::char_traits<char>,std::allocator<char> >::_Eos

; 1066 : 		const _Elem _E0 = _MAKLOCCHR(_Elem, '0', _Cvt);
; 1067 : 		size_t _Prefix = _Buf[0] == '+' || _Buf[0] == '-' ? 1 : 0;

  0006e	8b 75 20	 mov	 esi, DWORD PTR __Buf$[ebp]
  00071	c6 45 fc 02	 mov	 BYTE PTR __$EHRec$[ebp+8], 2
  00075	8a 06		 mov	 al, BYTE PTR [esi]
  00077	3c 2b		 cmp	 al, 43			; 0000002bH
  00079	74 0a		 je	 SHORT $L60076
  0007b	3c 2d		 cmp	 al, 45			; 0000002dH
  0007d	74 06		 je	 SHORT $L60076
  0007f	83 65 ac 00	 and	 DWORD PTR __Prefix$[ebp], 0
  00083	eb 03		 jmp	 SHORT $L60077
$L60076:
  00085	89 5d ac	 mov	 DWORD PTR __Prefix$[ebp], ebx
$L60077:

; 1068 : 
; 1069 : 		char _Enders[3];
; 1070 : 		_Enders[0] = ::localeconv()->decimal_point[0];

  00088	e8 00 00 00 00	 call	 _localeconv
  0008d	8b 00		 mov	 eax, DWORD PTR [eax]
  0008f	8a 00		 mov	 al, BYTE PTR [eax]

; 1071 : 		_Enders[1] = 'e';
; 1072 : 		_Enders[2] = '\0';
; 1073 : 
; 1074 : 		if (*_Grouping.c_str() != CHAR_MAX && '\0' < *_Grouping.c_str())

  00091	6a 10		 push	 16			; 00000010H
  00093	5b		 pop	 ebx
  00094	39 5d d0	 cmp	 DWORD PTR __Grouping$[ebp+24], ebx
  00097	88 45 b4	 mov	 BYTE PTR __Enders$[ebp], al
  0009a	8b 45 bc	 mov	 eax, DWORD PTR __Grouping$[ebp+4]
  0009d	c6 45 b5 65	 mov	 BYTE PTR __Enders$[ebp+1], 101 ; 00000065H
  000a1	c6 45 b6 00	 mov	 BYTE PTR __Enders$[ebp+2], 0
  000a5	73 03		 jae	 SHORT $L60168
  000a7	8d 45 bc	 lea	 eax, DWORD PTR __Grouping$[ebp+4]
$L60168:
  000aa	80 38 7f	 cmp	 BYTE PTR [eax], 127	; 0000007fH
  000ad	0f 84 05 01 00
	00		 je	 $L60268
  000b3	39 5d d0	 cmp	 DWORD PTR __Grouping$[ebp+24], ebx
  000b6	8b 45 bc	 mov	 eax, DWORD PTR __Grouping$[ebp+4]
  000b9	73 03		 jae	 SHORT $L60182
  000bb	8d 45 bc	 lea	 eax, DWORD PTR __Grouping$[ebp+4]
$L60182:
  000be	80 38 00	 cmp	 BYTE PTR [eax], 0
  000c1	0f 8e f1 00 00
	00		 jle	 $L60268

; 1075 : 			{	// grouping specified, add thousands separators
; 1076 : 			_Groupstring.append(_Buf, _Count);	// assemble field into string

  000c7	ff 75 30	 push	 DWORD PTR __Count$[ebp]
  000ca	8d 4d d4	 lea	 ecx, DWORD PTR __Groupstring$[ebp]
  000cd	56		 push	 esi
  000ce	e8 00 00 00 00	 call	 ?append@?$basic_string@DU?$char_traits@D@std@@V?$allocator@D@2@@std@@QAEAAV12@PBDI@Z ; std::basic_string<char,std::char_traits<char>,std::allocator<char> >::append

; 1077 : 			const char *_Ptr = (const char *)::memchr(_Buf,
; 1078 : 				'e', _Count);	// find exponent

  000d3	ff 75 30	 push	 DWORD PTR __Count$[ebp]
  000d6	6a 65		 push	 101			; 00000065H
  000d8	56		 push	 esi
  000d9	e8 00 00 00 00	 call	 _memchr
  000de	83 c4 0c	 add	 esp, 12			; 0000000cH

; 1079 : 			if (_Ptr == 0)

  000e1	85 c0		 test	 eax, eax

; 1080 : 				_Groupstring.append(_Trailing, '0');

  000e3	6a 30		 push	 48			; 00000030H
  000e5	ff 75 2c	 push	 DWORD PTR __Trailing$[ebp]
  000e8	8d 4d d4	 lea	 ecx, DWORD PTR __Groupstring$[ebp]
  000eb	75 07		 jne	 SHORT $L25710
  000ed	e8 00 00 00 00	 call	 ?append@?$basic_string@DU?$char_traits@D@std@@V?$allocator@D@2@@std@@QAEAAV12@ID@Z ; std::basic_string<char,std::char_traits<char>,std::allocator<char> >::append

; 1081 : 			else

  000f2	eb 08		 jmp	 SHORT $L25711
$L25710:

; 1082 : 				_Groupstring.insert(_Ptr - _Buf, _Trailing, '0');

  000f4	2b c6		 sub	 eax, esi
  000f6	50		 push	 eax
  000f7	e8 00 00 00 00	 call	 ?insert@?$basic_string@DU?$char_traits@D@std@@V?$allocator@D@2@@std@@QAEAAV12@IID@Z ; std::basic_string<char,std::char_traits<char>,std::allocator<char> >::insert
$L25711:

; 1083 : 
; 1084 : 			_Ptr = (const char *)::memchr(_Buf,
; 1085 : 				_Enders[0], _Count);	// find decimal point

  000fc	0f be 45 b4	 movsx	 eax, BYTE PTR __Enders$[ebp]
  00100	ff 75 30	 push	 DWORD PTR __Count$[ebp]
  00103	50		 push	 eax
  00104	56		 push	 esi
  00105	e8 00 00 00 00	 call	 _memchr
  0010a	83 c4 0c	 add	 esp, 12			; 0000000cH

; 1086 : 			if (_Ptr == 0)

  0010d	85 c0		 test	 eax, eax

; 1087 : 				_Groupstring.append(_Beforepoint, '0');

  0010f	8d 4d d4	 lea	 ecx, DWORD PTR __Groupstring$[ebp]
  00112	6a 30		 push	 48			; 00000030H
  00114	75 0a		 jne	 SHORT $L25713
  00116	ff 75 24	 push	 DWORD PTR __Beforepoint$[ebp]
  00119	e8 00 00 00 00	 call	 ?append@?$basic_string@DU?$char_traits@D@std@@V?$allocator@D@2@@std@@QAEAAV12@ID@Z ; std::basic_string<char,std::char_traits<char>,std::allocator<char> >::append

; 1088 : 			else

  0011e	eb 1e		 jmp	 SHORT $L25714
$L25713:

; 1089 : 				{	// fill in zeros around decimal point
; 1090 : 				_Groupstring.insert(_Ptr - _Buf + 1, _Afterpoint, '0');

  00120	ff 75 28	 push	 DWORD PTR __Afterpoint$[ebp]
  00123	8b f8		 mov	 edi, eax
  00125	2b fe		 sub	 edi, esi
  00127	8d 47 01	 lea	 eax, DWORD PTR [edi+1]
  0012a	50		 push	 eax
  0012b	e8 00 00 00 00	 call	 ?insert@?$basic_string@DU?$char_traits@D@std@@V?$allocator@D@2@@std@@QAEAAV12@IID@Z ; std::basic_string<char,std::char_traits<char>,std::allocator<char> >::insert

; 1091 : 				_Groupstring.insert(_Ptr - _Buf, _Beforepoint, '0');

  00130	6a 30		 push	 48			; 00000030H
  00132	ff 75 24	 push	 DWORD PTR __Beforepoint$[ebp]
  00135	8d 4d d4	 lea	 ecx, DWORD PTR __Groupstring$[ebp]
  00138	57		 push	 edi
  00139	e8 00 00 00 00	 call	 ?insert@?$basic_string@DU?$char_traits@D@std@@V?$allocator@D@2@@std@@QAEAAV12@IID@Z ; std::basic_string<char,std::char_traits<char>,std::allocator<char> >::insert
$L25714:

; 1092 : 				}
; 1093 : 
; 1094 : 			const char *_Pg = _Grouping.c_str();

  0013e	39 5d d0	 cmp	 DWORD PTR __Grouping$[ebp+24], ebx
  00141	8b 75 bc	 mov	 esi, DWORD PTR __Grouping$[ebp+4]
  00144	73 03		 jae	 SHORT $L60196
  00146	8d 75 bc	 lea	 esi, DWORD PTR __Grouping$[ebp+4]
$L60196:

; 1095 : 			size_t _Off = ::strcspn(&_Groupstring[0], &_Enders[0]);

  00149	39 5d ec	 cmp	 DWORD PTR __Groupstring$[ebp+24], ebx
  0014c	8b 45 d8	 mov	 eax, DWORD PTR __Groupstring$[ebp+4]
  0014f	73 03		 jae	 SHORT $L60210
  00151	8d 45 d8	 lea	 eax, DWORD PTR __Groupstring$[ebp+4]
$L60210:
  00154	8d 4d b4	 lea	 ecx, DWORD PTR __Enders$[ebp]
  00157	51		 push	 ecx
  00158	50		 push	 eax
  00159	e8 00 00 00 00	 call	 _strcspn
  0015e	59		 pop	 ecx
  0015f	59		 pop	 ecx
  00160	8b f8		 mov	 edi, eax

; 1096 : 			while (*_Pg != CHAR_MAX && '\0' < *_Pg
; 1097 : 				&& (size_t)*_Pg < _Off - _Prefix)

  00162	eb 29		 jmp	 SHORT $L25722
$L25718:
  00164	84 c0		 test	 al, al
  00166	7e 2b		 jle	 SHORT $L25719
  00168	8b cf		 mov	 ecx, edi
  0016a	2b 4d ac	 sub	 ecx, DWORD PTR __Prefix$[ebp]
  0016d	0f be c0	 movsx	 eax, al
  00170	3b c1		 cmp	 eax, ecx
  00172	73 1f		 jae	 SHORT $L25719

; 1098 : 				{	// add a comma to mark thousands separator
; 1099 : 				_Groupstring.insert(_Off -= *_Pg, (size_t)1, ',');

  00174	6a 2c		 push	 44			; 0000002cH
  00176	2b f8		 sub	 edi, eax
  00178	6a 01		 push	 1
  0017a	57		 push	 edi
  0017b	8d 4d d4	 lea	 ecx, DWORD PTR __Groupstring$[ebp]
  0017e	e8 00 00 00 00	 call	 ?insert@?$basic_string@DU?$char_traits@D@std@@V?$allocator@D@2@@std@@QAEAAV12@IID@Z ; std::basic_string<char,std::char_traits<char>,std::allocator<char> >::insert
  00183	8d 46 01	 lea	 eax, DWORD PTR [esi+1]

; 1100 : 				if ('\0' < _Pg[1])

  00186	80 38 00	 cmp	 BYTE PTR [eax], 0
  00189	7e 02		 jle	 SHORT $L25722

; 1101 : 					++_Pg;	// not last group, advance

  0018b	8b f0		 mov	 esi, eax
$L25722:

; 1096 : 			while (*_Pg != CHAR_MAX && '\0' < *_Pg
; 1097 : 				&& (size_t)*_Pg < _Off - _Prefix)

  0018d	8a 06		 mov	 al, BYTE PTR [esi]
  0018f	3c 7f		 cmp	 al, 127			; 0000007fH
  00191	75 d1		 jne	 SHORT $L25718
$L25719:

; 1102 : 				}
; 1103 : 
; 1104 : 			_Buf = &_Groupstring[0];

  00193	39 5d ec	 cmp	 DWORD PTR __Groupstring$[ebp+24], ebx
  00196	8b 45 d8	 mov	 eax, DWORD PTR __Groupstring$[ebp+4]
  00199	73 03		 jae	 SHORT $L60225
  0019b	8d 45 d8	 lea	 eax, DWORD PTR __Groupstring$[ebp+4]
$L60225:

; 1105 : 			_Beforepoint = 0;
; 1106 : 			_Afterpoint = 0;
; 1107 : 			_Trailing = 0;
; 1108 : 			_Count = _Groupstring.size();

  0019e	8b 7d 18	 mov	 edi, DWORD PTR __Iosbase$[ebp]
  001a1	89 45 20	 mov	 DWORD PTR __Buf$[ebp], eax
  001a4	8b 75 20	 mov	 esi, DWORD PTR __Buf$[ebp]
  001a7	33 c0		 xor	 eax, eax
  001a9	89 45 24	 mov	 DWORD PTR __Beforepoint$[ebp], eax
  001ac	89 45 28	 mov	 DWORD PTR __Afterpoint$[ebp], eax
  001af	89 45 2c	 mov	 DWORD PTR __Trailing$[ebp], eax
  001b2	8b 45 e8	 mov	 eax, DWORD PTR __Groupstring$[ebp+20]
  001b5	89 45 30	 mov	 DWORD PTR __Count$[ebp], eax
$L60268:

; 1109 : 			}
; 1110 : 
; 1111 : 		size_t _Fillcount = _Beforepoint + _Afterpoint + _Trailing + _Count;

  001b8	8b 4d 28	 mov	 ecx, DWORD PTR __Afterpoint$[ebp]
  001bb	8b 45 24	 mov	 eax, DWORD PTR __Beforepoint$[ebp]
  001be	03 c1		 add	 eax, ecx
  001c0	03 45 2c	 add	 eax, DWORD PTR __Trailing$[ebp]

; 1112 : 		_Fillcount = _Iosbase.width() <= 0
; 1113 : 			|| (size_t)_Iosbase.width() <= _Fillcount
; 1114 : 				? 0 : (size_t)_Iosbase.width() - _Fillcount;

  001c3	8b 4f 18	 mov	 ecx, DWORD PTR [edi+24]
  001c6	03 45 30	 add	 eax, DWORD PTR __Count$[ebp]
  001c9	85 c9		 test	 ecx, ecx
  001cb	7e 0b		 jle	 SHORT $L60078
  001cd	3b c8		 cmp	 ecx, eax
  001cf	76 07		 jbe	 SHORT $L60078
  001d1	2b c8		 sub	 ecx, eax
  001d3	89 4d b0	 mov	 DWORD PTR __Fillcount$[ebp], ecx
  001d6	eb 04		 jmp	 SHORT $L60079
$L60078:
  001d8	83 65 b0 00	 and	 DWORD PTR __Fillcount$[ebp], 0
$L60079:

; 1115 : 		ios_base::fmtflags _Adjustfield =
; 1116 : 			_Iosbase.flags() & ios_base::adjustfield;

  001dc	8b 47 10	 mov	 eax, DWORD PTR [edi+16]
  001df	25 c0 01 00 00	 and	 eax, 448		; 000001c0H

; 1117 : 		if (_Adjustfield != ios_base::left
; 1118 : 			&& _Adjustfield != ios_base::internal)

  001e4	83 f8 40	 cmp	 eax, 64			; 00000040H
  001e7	74 5f		 je	 SHORT $L60270
  001e9	3d 00 01 00 00	 cmp	 eax, 256		; 00000100H
  001ee	74 0b		 je	 SHORT $L60267

; 1119 : 			{	// put leading fill
; 1120 : 			_Dest = _Rep(_Dest, _Fill, _Fillcount);

  001f0	ff 75 1c	 push	 DWORD PTR __Fill$[ebp]
  001f3	ff 75 14	 push	 DWORD PTR __Dest$[ebp+4]
  001f6	ff 75 10	 push	 DWORD PTR __Dest$[ebp]

; 1121 : 			_Fillcount = 0;
; 1122 : 			}
; 1123 : 		else if (_Adjustfield == ios_base::internal)

  001f9	eb 34		 jmp	 SHORT $L60275
$L60267:

; 1124 : 			{	// put internal fill
; 1125 : 			if (0 < _Prefix)

  001fb	83 7d ac 00	 cmp	 DWORD PTR __Prefix$[ebp], 0
  001ff	76 23		 jbe	 SHORT $L60269

; 1126 : 				{	// but first put sign
; 1127 : 				_Dest = _Putc(_Dest, _Buf, 1);

  00201	ff 75 14	 push	 DWORD PTR __Dest$[ebp+4]
  00204	33 c0		 xor	 eax, eax
  00206	ff 75 10	 push	 DWORD PTR __Dest$[ebp]
  00209	40		 inc	 eax
  0020a	8b ce		 mov	 ecx, esi
  0020c	8d 5d a8	 lea	 ebx, DWORD PTR $T60081[ebp]
  0020f	e8 00 00 00 00	 call	 ?_Putc@?$num_put@DV?$ostreambuf_iterator@DU?$char_traits@D@std@@@std@@@std@@ABA?AV?$ostreambuf_iterator@DU?$char_traits@D@std@@@2@V32@PBDI@Z ; std::num_put<char,std::ostreambuf_iterator<char,std::char_traits<char> > >::_Putc
  00214	59		 pop	 ecx

; 1128 : 				++_Buf, --_Count;

  00215	46		 inc	 esi
  00216	ff 4d 30	 dec	 DWORD PTR __Count$[ebp]
  00219	59		 pop	 ecx
  0021a	8b 08		 mov	 ecx, DWORD PTR [eax]
  0021c	8b 40 04	 mov	 eax, DWORD PTR [eax+4]
  0021f	89 75 20	 mov	 DWORD PTR __Buf$[ebp], esi
  00222	eb 06		 jmp	 SHORT $L25731
$L60269:
  00224	8b 45 14	 mov	 eax, DWORD PTR __Dest$[ebp+4]
  00227	8b 4d 10	 mov	 ecx, DWORD PTR __Dest$[ebp]
$L25731:

; 1129 : 				}
; 1130 : 			_Dest = _Rep(_Dest, _Fill, _Fillcount);

  0022a	ff 75 1c	 push	 DWORD PTR __Fill$[ebp]
  0022d	50		 push	 eax
  0022e	51		 push	 ecx
$L60275:
  0022f	8b 45 b0	 mov	 eax, DWORD PTR __Fillcount$[ebp]
  00232	8d 7d a8	 lea	 edi, DWORD PTR $T60082[ebp]
  00235	e8 00 00 00 00	 call	 ?_Rep@?$num_put@DV?$ostreambuf_iterator@DU?$char_traits@D@std@@@std@@@std@@ABA?AV?$ostreambuf_iterator@DU?$char_traits@D@std@@@2@V32@DI@Z ; std::num_put<char,std::ostreambuf_iterator<char,std::char_traits<char> > >::_Rep
  0023a	8b 38		 mov	 edi, DWORD PTR [eax]
  0023c	8b 58 04	 mov	 ebx, DWORD PTR [eax+4]
  0023f	83 c4 0c	 add	 esp, 12			; 0000000cH

; 1131 : 			_Fillcount = 0;

  00242	83 65 b0 00	 and	 DWORD PTR __Fillcount$[ebp], 0
  00246	eb 06		 jmp	 SHORT $L25730
$L60270:

; 1121 : 			_Fillcount = 0;
; 1122 : 			}
; 1123 : 		else if (_Adjustfield == ios_base::internal)

  00248	8b 5d 14	 mov	 ebx, DWORD PTR __Dest$[ebp+4]
  0024b	8b 7d 10	 mov	 edi, DWORD PTR __Dest$[ebp]
$L25730:

; 1132 : 			}
; 1133 : 
; 1134 : 		const char *_Ptr = (const char *)::memchr(_Buf,
; 1135 : 			_Enders[0], _Count);	// find decimal point

  0024e	0f be 45 b4	 movsx	 eax, BYTE PTR __Enders$[ebp]
  00252	ff 75 30	 push	 DWORD PTR __Count$[ebp]
  00255	50		 push	 eax
  00256	56		 push	 esi
  00257	e8 00 00 00 00	 call	 _memchr
  0025c	83 c4 0c	 add	 esp, 12			; 0000000cH

; 1136 : 		if (_Ptr != 0)

  0025f	85 c0		 test	 eax, eax
  00261	74 70		 je	 SHORT $L25736

; 1137 : 			{	// has decimal point, put pieces and zero fills
; 1138 : 			size_t _Fracoffset = _Ptr - _Buf + 1;
; 1139 : 			_Dest = _Putgrouped(_Dest, _Buf, _Fracoffset - 1, _Kseparator);

  00263	ff 75 a4	 push	 DWORD PTR __Kseparator$[ebp]
  00266	2b c6		 sub	 eax, esi
  00268	40		 inc	 eax
  00269	8b f0		 mov	 esi, eax
  0026b	8d 46 ff	 lea	 eax, DWORD PTR [esi-1]
  0026e	50		 push	 eax
  0026f	ff 75 20	 push	 DWORD PTR __Buf$[ebp]
  00272	8d 45 a8	 lea	 eax, DWORD PTR $T60083[ebp]
  00275	53		 push	 ebx
  00276	57		 push	 edi
  00277	50		 push	 eax
  00278	ff 75 08	 push	 DWORD PTR _this$[ebp]
  0027b	e8 00 00 00 00	 call	 ?_Putgrouped@?$num_put@DV?$ostreambuf_iterator@DU?$char_traits@D@std@@@std@@@std@@ABA?AV?$ostreambuf_iterator@DU?$char_traits@D@std@@@2@V32@PBDID@Z ; std::num_put<char,std::ostreambuf_iterator<char,std::char_traits<char> > >::_Putgrouped

; 1140 : 			_Dest = _Rep(_Dest, _E0, _Beforepoint);

  00280	6a 30		 push	 48			; 00000030H
  00282	ff 70 04	 push	 DWORD PTR [eax+4]
  00285	8d 7d 98	 lea	 edi, DWORD PTR $T60084[ebp]
  00288	ff 30		 push	 DWORD PTR [eax]
  0028a	8b 45 24	 mov	 eax, DWORD PTR __Beforepoint$[ebp]
  0028d	e8 00 00 00 00	 call	 ?_Rep@?$num_put@DV?$ostreambuf_iterator@DU?$char_traits@D@std@@@std@@@std@@ABA?AV?$ostreambuf_iterator@DU?$char_traits@D@std@@@2@V32@DI@Z ; std::num_put<char,std::ostreambuf_iterator<char,std::char_traits<char> > >::_Rep

; 1141 : 			_Dest = _Rep(_Dest, _Punct_fac.decimal_point(), 1);

  00292	8b 4d 90	 mov	 ecx, DWORD PTR __Punct_fac$[ebp]
  00295	8b 38		 mov	 edi, DWORD PTR [eax]
  00297	8b 58 04	 mov	 ebx, DWORD PTR [eax+4]
  0029a	8b 01		 mov	 eax, DWORD PTR [ecx]
  0029c	83 c4 28	 add	 esp, 40			; 00000028H
  0029f	ff 50 04	 call	 DWORD PTR [eax+4]
  002a2	50		 push	 eax
  002a3	53		 push	 ebx
  002a4	33 c0		 xor	 eax, eax
  002a6	57		 push	 edi
  002a7	40		 inc	 eax
  002a8	8d 7d 98	 lea	 edi, DWORD PTR $T60085[ebp]
  002ab	e8 00 00 00 00	 call	 ?_Rep@?$num_put@DV?$ostreambuf_iterator@DU?$char_traits@D@std@@@std@@@std@@ABA?AV?$ostreambuf_iterator@DU?$char_traits@D@std@@@2@V32@DI@Z ; std::num_put<char,std::ostreambuf_iterator<char,std::char_traits<char> > >::_Rep

; 1142 : 			_Dest = _Rep(_Dest, _E0, _Afterpoint);

  002b0	6a 30		 push	 48			; 00000030H
  002b2	ff 70 04	 push	 DWORD PTR [eax+4]
  002b5	8d 7d 8c	 lea	 edi, DWORD PTR $T60086[ebp]
  002b8	ff 30		 push	 DWORD PTR [eax]
  002ba	8b 45 28	 mov	 eax, DWORD PTR __Afterpoint$[ebp]
  002bd	e8 00 00 00 00	 call	 ?_Rep@?$num_put@DV?$ostreambuf_iterator@DU?$char_traits@D@std@@@std@@@std@@ABA?AV?$ostreambuf_iterator@DU?$char_traits@D@std@@@2@V32@DI@Z ; std::num_put<char,std::ostreambuf_iterator<char,std::char_traits<char> > >::_Rep

; 1143 : 			_Buf += _Fracoffset, _Count -= _Fracoffset;

  002c2	01 75 20	 add	 DWORD PTR __Buf$[ebp], esi
  002c5	8b 38		 mov	 edi, DWORD PTR [eax]
  002c7	8b 58 04	 mov	 ebx, DWORD PTR [eax+4]
  002ca	83 c4 18	 add	 esp, 24			; 00000018H
  002cd	29 75 30	 sub	 DWORD PTR __Count$[ebp], esi
  002d0	8b 75 20	 mov	 esi, DWORD PTR __Buf$[ebp]
$L25736:

; 1144 : 			}
; 1145 : 
; 1146 : 		if ((_Ptr = (const char *)::memchr(_Buf, 'e', _Count)) != 0)

  002d3	ff 75 30	 push	 DWORD PTR __Count$[ebp]
  002d6	6a 65		 push	 101			; 00000065H
  002d8	56		 push	 esi
  002d9	e8 00 00 00 00	 call	 _memchr
  002de	83 c4 0c	 add	 esp, 12			; 0000000cH
  002e1	85 c0		 test	 eax, eax
  002e3	74 65		 je	 SHORT $L60271

; 1147 : 			{	// has exponent field, put it out
; 1148 : 			size_t _Expoffset = _Ptr - _Buf + 1;
; 1149 : 			_Dest = _Putgrouped(_Dest, _Buf, _Expoffset - 1, _Kseparator);

  002e5	ff 75 a4	 push	 DWORD PTR __Kseparator$[ebp]
  002e8	2b c6		 sub	 eax, esi
  002ea	40		 inc	 eax
  002eb	89 45 20	 mov	 DWORD PTR __Expoffset$25744[ebp], eax
  002ee	48		 dec	 eax
  002ef	50		 push	 eax
  002f0	56		 push	 esi
  002f1	53		 push	 ebx
  002f2	57		 push	 edi
  002f3	8d 45 98	 lea	 eax, DWORD PTR $T60087[ebp]
  002f6	50		 push	 eax
  002f7	ff 75 08	 push	 DWORD PTR _this$[ebp]
  002fa	e8 00 00 00 00	 call	 ?_Putgrouped@?$num_put@DV?$ostreambuf_iterator@DU?$char_traits@D@std@@@std@@@std@@ABA?AV?$ostreambuf_iterator@DU?$char_traits@D@std@@@2@V32@PBDID@Z ; std::num_put<char,std::ostreambuf_iterator<char,std::char_traits<char> > >::_Putgrouped

; 1150 : 			_Dest = _Rep(_Dest, _E0, _Trailing), _Trailing = 0;

  002ff	6a 30		 push	 48			; 00000030H
  00301	ff 70 04	 push	 DWORD PTR [eax+4]
  00304	8d 7d 8c	 lea	 edi, DWORD PTR $T60088[ebp]
  00307	ff 30		 push	 DWORD PTR [eax]
  00309	8b 45 2c	 mov	 eax, DWORD PTR __Trailing$[ebp]
  0030c	e8 00 00 00 00	 call	 ?_Rep@?$num_put@DV?$ostreambuf_iterator@DU?$char_traits@D@std@@@std@@@std@@ABA?AV?$ostreambuf_iterator@DU?$char_traits@D@std@@@2@V32@DI@Z ; std::num_put<char,std::ostreambuf_iterator<char,std::char_traits<char> > >::_Rep

; 1151 : 			_Dest = _Putc(_Dest, _Iosbase.flags() & ios_base::uppercase
; 1152 : 				? "E" : "e", 1);

  00311	8b 4d 18	 mov	 ecx, DWORD PTR __Iosbase$[ebp]
  00314	83 65 2c 00	 and	 DWORD PTR __Trailing$[ebp], 0
  00318	83 c4 28	 add	 esp, 40			; 00000028H
  0031b	f6 41 10 04	 test	 BYTE PTR [ecx+16], 4
  0031f	b9 00 00 00 00	 mov	 ecx, OFFSET FLAT:??_C@_01DDCIFGEA@E?$AA@
  00324	75 05		 jne	 SHORT $L60090
  00326	b9 00 00 00 00	 mov	 ecx, OFFSET FLAT:??_C@_01KGKMHCOC@e?$AA@
$L60090:
  0032b	ff 70 04	 push	 DWORD PTR [eax+4]
  0032e	8d 5d 98	 lea	 ebx, DWORD PTR $T60091[ebp]
  00331	ff 30		 push	 DWORD PTR [eax]
  00333	33 c0		 xor	 eax, eax
  00335	40		 inc	 eax
  00336	e8 00 00 00 00	 call	 ?_Putc@?$num_put@DV?$ostreambuf_iterator@DU?$char_traits@D@std@@@std@@@std@@ABA?AV?$ostreambuf_iterator@DU?$char_traits@D@std@@@2@V32@PBDI@Z ; std::num_put<char,std::ostreambuf_iterator<char,std::char_traits<char> > >::_Putc
  0033b	8b 38		 mov	 edi, DWORD PTR [eax]
  0033d	8b 58 04	 mov	 ebx, DWORD PTR [eax+4]

; 1153 : 			_Buf += _Expoffset, _Count -= _Expoffset;

  00340	8b 45 20	 mov	 eax, DWORD PTR __Expoffset$25744[ebp]
  00343	59		 pop	 ecx
  00344	03 f0		 add	 esi, eax
  00346	29 45 30	 sub	 DWORD PTR __Count$[ebp], eax
  00349	59		 pop	 ecx
$L60271:

; 1154 : 			}
; 1155 : 
; 1156 : 		_Dest = _Putgrouped(_Dest, _Buf, _Count,
; 1157 : 			_Kseparator);	// put leftover field

  0034a	ff 75 a4	 push	 DWORD PTR __Kseparator$[ebp]
  0034d	8d 45 98	 lea	 eax, DWORD PTR $T60092[ebp]
  00350	ff 75 30	 push	 DWORD PTR __Count$[ebp]
  00353	56		 push	 esi
  00354	53		 push	 ebx
  00355	57		 push	 edi
  00356	50		 push	 eax
  00357	ff 75 08	 push	 DWORD PTR _this$[ebp]
  0035a	e8 00 00 00 00	 call	 ?_Putgrouped@?$num_put@DV?$ostreambuf_iterator@DU?$char_traits@D@std@@@std@@@std@@ABA?AV?$ostreambuf_iterator@DU?$char_traits@D@std@@@2@V32@PBDID@Z ; std::num_put<char,std::ostreambuf_iterator<char,std::char_traits<char> > >::_Putgrouped

; 1158 : 		_Dest = _Rep(_Dest, _E0, _Trailing);	// put trailing zeros

  0035f	6a 30		 push	 48			; 00000030H
  00361	ff 70 04	 push	 DWORD PTR [eax+4]
  00364	8d 7d a0	 lea	 edi, DWORD PTR $T60093[ebp]
  00367	ff 30		 push	 DWORD PTR [eax]
  00369	8b 45 2c	 mov	 eax, DWORD PTR __Trailing$[ebp]
  0036c	e8 00 00 00 00	 call	 ?_Rep@?$num_put@DV?$ostreambuf_iterator@DU?$char_traits@D@std@@@std@@@std@@ABA?AV?$ostreambuf_iterator@DU?$char_traits@D@std@@@2@V32@DI@Z ; std::num_put<char,std::ostreambuf_iterator<char,std::char_traits<char> > >::_Rep
  00371	8b 08		 mov	 ecx, DWORD PTR [eax]
  00373	8b 40 04	 mov	 eax, DWORD PTR [eax+4]

; 1159 : 		_Iosbase.width(0);
; 1160 : 		return (_Rep(_Dest, _Fill, _Fillcount));	// put trailing fill

  00376	ff 75 1c	 push	 DWORD PTR __Fill$[ebp]
  00379	8b 55 18	 mov	 edx, DWORD PTR __Iosbase$[ebp]
  0037c	8b 7d 0c	 mov	 edi, DWORD PTR ___$ReturnUdt$[ebp]
  0037f	50		 push	 eax
  00380	8b 45 b0	 mov	 eax, DWORD PTR __Fillcount$[ebp]
  00383	33 f6		 xor	 esi, esi
  00385	51		 push	 ecx
  00386	89 72 18	 mov	 DWORD PTR [edx+24], esi
  00389	e8 00 00 00 00	 call	 ?_Rep@?$num_put@DV?$ostreambuf_iterator@DU?$char_traits@D@std@@@std@@@std@@ABA?AV?$ostreambuf_iterator@DU?$char_traits@D@std@@@2@V32@DI@Z ; std::num_put<char,std::ostreambuf_iterator<char,std::char_traits<char> > >::_Rep
  0038e	83 c4 34	 add	 esp, 52			; 00000034H
  00391	56		 push	 esi
  00392	6a 01		 push	 1
  00394	8d 4d d4	 lea	 ecx, DWORD PTR __Groupstring$[ebp]
  00397	e8 00 00 00 00	 call	 ?_Tidy@?$basic_string@DU?$char_traits@D@std@@V?$allocator@D@2@@std@@IAEX_NI@Z ; std::basic_string<char,std::char_traits<char>,std::allocator<char> >::_Tidy
  0039c	56		 push	 esi
  0039d	6a 01		 push	 1
  0039f	8d 4d b8	 lea	 ecx, DWORD PTR __Grouping$[ebp]
  003a2	e8 00 00 00 00	 call	 ?_Tidy@?$basic_string@DU?$char_traits@D@std@@V?$allocator@D@2@@std@@IAEX_NI@Z ; std::basic_string<char,std::char_traits<char>,std::allocator<char> >::_Tidy

; 1161 : 		}

  003a7	8b 4d f4	 mov	 ecx, DWORD PTR __$EHRec$[ebp]
  003aa	8b c7		 mov	 eax, edi
  003ac	5f		 pop	 edi
  003ad	5e		 pop	 esi
  003ae	64 89 0d 00 00
	00 00		 mov	 DWORD PTR fs:__except_list, ecx
  003b5	8b 4d f0	 mov	 ecx, DWORD PTR __$ArrayPad$[ebp]
  003b8	5b		 pop	 ebx
  003b9	e8 00 00 00 00	 call	 @__security_check_cookie@4
  003be	c9		 leave
  003bf	c3		 ret	 0
_TEXT	ENDS
;	COMDAT text$x
text$x	SEGMENT
$L60094:
  00000	8d 4d 94	 lea	 ecx, DWORD PTR $T60075[ebp]
  00003	e9 00 00 00 00	 jmp	 ??1locale@std@@QAE@XZ	; std::locale::~locale
$L60095:
  00008	8d 4d b8	 lea	 ecx, DWORD PTR __Grouping$[ebp]
  0000b	e9 00 00 00 00	 jmp	 ??1?$basic_string@DU?$char_traits@D@std@@V?$allocator@D@2@@std@@QAE@XZ ; std::basic_string<char,std::char_traits<char>,std::allocator<char> >::~basic_string<char,std::char_traits<char>,std::allocator<char> >
$L60096:
  00010	8d 4d d4	 lea	 ecx, DWORD PTR __Groupstring$[ebp]
  00013	e9 00 00 00 00	 jmp	 ??1?$basic_string@DU?$char_traits@D@std@@V?$allocator@D@2@@std@@QAE@XZ ; std::basic_string<char,std::char_traits<char>,std::allocator<char> >::~basic_string<char,std::char_traits<char>,std::allocator<char> >
__ehhandler$?_Fput@?$num_put@DV?$ostreambuf_iterator@DU?$char_traits@D@std@@@std@@@std@@ABA?AV?$ostreambuf_iterator@DU?$char_traits@D@std@@@2@V32@AAVios_base@2@DPBDIIII@Z:
  00018	b8 00 00 00 00	 mov	 eax, OFFSET FLAT:$T60265
  0001d	e9 00 00 00 00	 jmp	 ___CxxFrameHandler
text$x	ENDS
?_Fput@?$num_put@DV?$ostreambuf_iterator@DU?$char_traits@D@std@@@std@@@std@@ABA?AV?$ostreambuf_iterator@DU?$char_traits@D@std@@@2@V32@AAVios_base@2@DPBDIIII@Z ENDP ; std::num_put<char,std::ostreambuf_iterator<char,std::char_traits<char> > >::_Fput
;	COMDAT xdata$x
; File c:\program files (x86)\microsoft visual studio .net 2003\vc7\include\xstring
xdata$x	SEGMENT
$T60378	DD	0ffffffffH
	DD	FLAT:$L60294
	DD	0ffffffffH
	DD	FLAT:$L60295
$T60365	DD	019930520H
	DD	02H
	DD	FLAT:$T60378
	DD	2 DUP(00H)
	DD	2 DUP(00H)
; Function compile flags: /Ogsy
; File c:\program files (x86)\microsoft visual studio .net 2003\vc7\include\xlocnum
xdata$x	ENDS
;	COMDAT ?_Iput@?$num_put@GV?$ostreambuf_iterator@GU?$char_traits@G@std@@@std@@@std@@ABA?AV?$ostreambuf_iterator@GU?$char_traits@G@std@@@2@V32@AAVios_base@2@GPADI@Z
_TEXT	SEGMENT
$T60293 = -68						; size = 8
$T60292 = -68						; size = 8
$T60282 = -60						; size = 4
__Punct_fac$ = -56					; size = 4
$T60291 = -52						; size = 8
$T60290 = -52						; size = 8
__Prefix$ = -48						; size = 4
__Grouping$ = -44					; size = 28
__$ArrayPad$ = -16					; size = 4
__$EHRec$ = -12						; size = 12
__$ReturnAddr$ = 4					; size = 4
_this$ = 8						; size = 4
___$ReturnUdt$ = 12					; size = 4
__Dest$ = 16						; size = 8
__Iosbase$ = 24						; size = 4
__Fill$ = 28						; size = 2
__Buf$ = 32						; size = 4
__Count$ = 36						; size = 4
?_Iput@?$num_put@GV?$ostreambuf_iterator@GU?$char_traits@G@std@@@std@@@std@@ABA?AV?$ostreambuf_iterator@GU?$char_traits@G@std@@@2@V32@AAVios_base@2@GPADI@Z PROC NEAR ; std::num_put<unsigned short,std::ostreambuf_iterator<unsigned short,std::char_traits<unsigned short> > >::_Iput, COMDAT

; 1192 : 		{	// put formatted integer to _Dest

  00000	b8 00 00 00 00	 mov	 eax, __ehhandler$?_Iput@?$num_put@GV?$ostreambuf_iterator@GU?$char_traits@G@std@@@std@@@std@@ABA?AV?$ostreambuf_iterator@GU?$char_traits@G@std@@@2@V32@AAVios_base@2@GPADI@Z
  00005	e8 00 00 00 00	 call	 __EH_prolog
  0000a	83 ec 38	 sub	 esp, 56			; 00000038H
  0000d	a1 00 00 00 00	 mov	 eax, DWORD PTR ___security_cookie

; 1193 : 		const _Mypunct& _Punct_fac = _USE(_Iosbase.getloc(), _Mypunct);

  00012	8b 4d 18	 mov	 ecx, DWORD PTR __Iosbase$[ebp]
  00015	89 45 f0	 mov	 DWORD PTR __$ArrayPad$[ebp], eax
  00018	8d 45 c4	 lea	 eax, DWORD PTR $T60282[ebp]
  0001b	50		 push	 eax
  0001c	e8 00 00 00 00	 call	 ?getloc@ios_base@std@@QBE?AVlocale@2@XZ ; std::ios_base::getloc
  00021	83 65 fc 00	 and	 DWORD PTR __$EHRec$[ebp+8], 0
  00025	50		 push	 eax
  00026	e8 00 00 00 00	 call	 ??$use_facet@V?$numpunct@G@std@@@std@@YAABV?$numpunct@G@0@ABVlocale@0@@Z ; std::use_facet<std::numpunct<unsigned short> >
  0002b	83 4d fc ff	 or	 DWORD PTR __$EHRec$[ebp+8], -1
  0002f	59		 pop	 ecx
  00030	8d 4d c4	 lea	 ecx, DWORD PTR $T60282[ebp]
  00033	89 45 c8	 mov	 DWORD PTR __Punct_fac$[ebp], eax
  00036	e8 00 00 00 00	 call	 ??1locale@std@@QAE@XZ	; std::locale::~locale

; 1194 : 		const string _Grouping = _Punct_fac.grouping();

  0003b	8b 4d c8	 mov	 ecx, DWORD PTR __Punct_fac$[ebp]
  0003e	8d 45 d4	 lea	 eax, DWORD PTR __Grouping$[ebp]
  00041	50		 push	 eax
  00042	e8 00 00 00 00	 call	 ?grouping@?$numpunct@G@std@@QBE?AV?$basic_string@DU?$char_traits@D@std@@V?$allocator@D@2@@2@XZ ; std::numpunct<unsigned short>::grouping

; 1195 : 		const size_t _Prefix = *_Buf == '+' || *_Buf == '-' ? 1
; 1196 : 			: *_Buf == '0' && (_Buf[1] == 'x' || _Buf[1] == 'X') ? 2
; 1197 : 			: 0;

  00047	8b 4d 20	 mov	 ecx, DWORD PTR __Buf$[ebp]
  0004a	33 d2		 xor	 edx, edx
  0004c	42		 inc	 edx
  0004d	89 55 fc	 mov	 DWORD PTR __$EHRec$[ebp+8], edx
  00050	8a 01		 mov	 al, BYTE PTR [ecx]
  00052	3c 2b		 cmp	 al, 43			; 0000002bH
  00054	74 22		 je	 SHORT $L60283
  00056	3c 2d		 cmp	 al, 45			; 0000002dH
  00058	74 1e		 je	 SHORT $L60283
  0005a	3c 30		 cmp	 al, 48			; 00000030H
  0005c	75 14		 jne	 SHORT $L60285
  0005e	8a 41 01	 mov	 al, BYTE PTR [ecx+1]
  00061	3c 78		 cmp	 al, 120			; 00000078H
  00063	74 04		 je	 SHORT $L60284
  00065	3c 58		 cmp	 al, 88			; 00000058H
  00067	75 09		 jne	 SHORT $L60285
$L60284:
  00069	c7 45 d0 02 00
	00 00		 mov	 DWORD PTR __Prefix$[ebp], 2
  00070	eb 09		 jmp	 SHORT $L60287
$L60285:
  00072	83 65 d0 00	 and	 DWORD PTR __Prefix$[ebp], 0
  00076	eb 03		 jmp	 SHORT $L60287
$L60283:
  00078	89 55 d0	 mov	 DWORD PTR __Prefix$[ebp], edx
$L60287:

; 1198 : 
; 1199 : 		if (*_Grouping.c_str() != CHAR_MAX && '\0' < *_Grouping.c_str())

  0007b	83 7d ec 10	 cmp	 DWORD PTR __Grouping$[ebp+24], 16 ; 00000010H
  0007f	53		 push	 ebx
  00080	8b 5d d8	 mov	 ebx, DWORD PTR __Grouping$[ebp+4]
  00083	56		 push	 esi
  00084	57		 push	 edi
  00085	8b c3		 mov	 eax, ebx
  00087	73 03		 jae	 SHORT $L60308
  00089	8d 45 d8	 lea	 eax, DWORD PTR __Grouping$[ebp+4]
$L60308:
  0008c	80 38 7f	 cmp	 BYTE PTR [eax], 127	; 0000007fH
  0008f	74 61		 je	 SHORT $L60372
  00091	83 7d ec 10	 cmp	 DWORD PTR __Grouping$[ebp+24], 16 ; 00000010H
  00095	8b c3		 mov	 eax, ebx
  00097	73 03		 jae	 SHORT $L60322
  00099	8d 45 d8	 lea	 eax, DWORD PTR __Grouping$[ebp+4]
$L60322:
  0009c	80 38 00	 cmp	 BYTE PTR [eax], 0
  0009f	7e 51		 jle	 SHORT $L60372

; 1200 : 			{	// grouping specified, add thousands separators
; 1201 : 			const char *_Pg = _Grouping.c_str();

  000a1	83 7d ec 10	 cmp	 DWORD PTR __Grouping$[ebp+24], 16 ; 00000010H
  000a5	73 03		 jae	 SHORT $L60336
  000a7	8d 5d d8	 lea	 ebx, DWORD PTR __Grouping$[ebp+4]
$L60336:

; 1202 : 			size_t _Off = _Count;

  000aa	8b 75 24	 mov	 esi, DWORD PTR __Count$[ebp]

; 1203 : 			while (*_Pg != CHAR_MAX && '\0' < *_Pg
; 1204 : 				&& (size_t)*_Pg < _Off - _Prefix)

  000ad	eb 3d		 jmp	 SHORT $L60377
$L25653:
  000af	84 c0		 test	 al, al
  000b1	7e 3f		 jle	 SHORT $L60372
  000b3	8b d6		 mov	 edx, esi
  000b5	2b 55 d0	 sub	 edx, DWORD PTR __Prefix$[ebp]
  000b8	0f be c0	 movsx	 eax, al
  000bb	3b c2		 cmp	 eax, edx
  000bd	73 33		 jae	 SHORT $L60372

; 1205 : 				{	// add a comma to mark thousands separator
; 1206 : 				_Off -= *_Pg;

  000bf	2b f0		 sub	 esi, eax

; 1207 : 				::memmove(&_Buf[_Off + 1], &_Buf[_Off],
; 1208 : 					_Count + 1 - _Off);

  000c1	8b 45 24	 mov	 eax, DWORD PTR __Count$[ebp]
  000c4	2b c6		 sub	 eax, esi
  000c6	40		 inc	 eax
  000c7	50		 push	 eax
  000c8	8d 3c 0e	 lea	 edi, DWORD PTR [esi+ecx]
  000cb	8d 44 0e 01	 lea	 eax, DWORD PTR [esi+ecx+1]
  000cf	57		 push	 edi
  000d0	50		 push	 eax
  000d1	e8 00 00 00 00	 call	 _memmove
  000d6	83 c4 0c	 add	 esp, 12			; 0000000cH

; 1209 : 				_Buf[_Off] = ',', ++_Count;

  000d9	ff 45 24	 inc	 DWORD PTR __Count$[ebp]
  000dc	8d 43 01	 lea	 eax, DWORD PTR [ebx+1]
  000df	c6 07 2c	 mov	 BYTE PTR [edi], 44	; 0000002cH

; 1210 : 				if ('\0' < _Pg[1])

  000e2	80 38 00	 cmp	 BYTE PTR [eax], 0
  000e5	7e 02		 jle	 SHORT $L25656

; 1211 : 					++_Pg;	// not last group, advance

  000e7	8b d8		 mov	 ebx, eax
$L25656:

; 1203 : 			while (*_Pg != CHAR_MAX && '\0' < *_Pg
; 1204 : 				&& (size_t)*_Pg < _Off - _Prefix)

  000e9	8b 4d 20	 mov	 ecx, DWORD PTR __Buf$[ebp]
$L60377:
  000ec	8a 03		 mov	 al, BYTE PTR [ebx]
  000ee	3c 7f		 cmp	 al, 127			; 0000007fH
  000f0	75 bd		 jne	 SHORT $L25653
$L60372:

; 1212 : 				}
; 1213 : 			}
; 1214 : 
; 1215 : 		size_t _Fillcount = _Iosbase.width() <= 0
; 1216 : 			|| (size_t)_Iosbase.width() <= _Count
; 1217 : 				? 0 : (size_t)_Iosbase.width() - _Count;

  000f2	8b 45 18	 mov	 eax, DWORD PTR __Iosbase$[ebp]
  000f5	8b 58 18	 mov	 ebx, DWORD PTR [eax+24]
  000f8	85 db		 test	 ebx, ebx
  000fa	7e 0a		 jle	 SHORT $L60288
  000fc	3b 5d 24	 cmp	 ebx, DWORD PTR __Count$[ebp]
  000ff	76 05		 jbe	 SHORT $L60288
  00101	2b 5d 24	 sub	 ebx, DWORD PTR __Count$[ebp]
  00104	eb 02		 jmp	 SHORT $L60289
$L60288:
  00106	33 db		 xor	 ebx, ebx
$L60289:

; 1218 : 
; 1219 : 		ios_base::fmtflags _Adjustfield =
; 1220 : 			_Iosbase.flags() & ios_base::adjustfield;

  00108	8b 40 10	 mov	 eax, DWORD PTR [eax+16]
  0010b	25 c0 01 00 00	 and	 eax, 448		; 000001c0H

; 1221 : 		if (_Adjustfield != ios_base::left
; 1222 : 			&& _Adjustfield != ios_base::internal)

  00110	83 f8 40	 cmp	 eax, 64			; 00000040H
  00113	74 5a		 je	 SHORT $L60369
  00115	3d 00 01 00 00	 cmp	 eax, 256		; 00000100H
  0011a	74 18		 je	 SHORT $L60367

; 1223 : 			{	// put leading fill
; 1224 : 			_Dest = _Rep(_Dest, _Fill, _Fillcount);

  0011c	ff 75 1c	 push	 DWORD PTR __Fill$[ebp]
  0011f	8b c3		 mov	 eax, ebx
  00121	ff 75 14	 push	 DWORD PTR __Dest$[ebp+4]
  00124	8d 7d cc	 lea	 edi, DWORD PTR $T60290[ebp]
  00127	ff 75 10	 push	 DWORD PTR __Dest$[ebp]
  0012a	e8 00 00 00 00	 call	 ?_Rep@?$num_put@GV?$ostreambuf_iterator@GU?$char_traits@G@std@@@std@@@std@@ABA?AV?$ostreambuf_iterator@GU?$char_traits@G@std@@@2@V32@GI@Z ; std::num_put<unsigned short,std::ostreambuf_iterator<unsigned short,std::char_traits<unsigned short> > >::_Rep
  0012f	83 c4 0c	 add	 esp, 12			; 0000000cH

; 1225 : 			_Fillcount = 0;
; 1226 : 			}
; 1227 : 		else if (_Adjustfield == ios_base::internal)

  00132	eb 32		 jmp	 SHORT $L60375
$L60367:

; 1228 : 			{	// put internal fill
; 1229 : 			_Dest = _Putc(_Dest, _Buf, _Prefix);	// put prefix

  00134	ff 75 14	 push	 DWORD PTR __Dest$[ebp+4]
  00137	8b 75 d0	 mov	 esi, DWORD PTR __Prefix$[ebp]
  0013a	ff 75 10	 push	 DWORD PTR __Dest$[ebp]
  0013d	8b 55 08	 mov	 edx, DWORD PTR _this$[ebp]
  00140	8d 45 cc	 lea	 eax, DWORD PTR $T60291[ebp]
  00143	50		 push	 eax
  00144	8b c6		 mov	 eax, esi
  00146	e8 00 00 00 00	 call	 ?_Putc@?$num_put@GV?$ostreambuf_iterator@GU?$char_traits@G@std@@@std@@@std@@ABA?AV?$ostreambuf_iterator@GU?$char_traits@G@std@@@2@V32@PBDI@Z ; std::num_put<unsigned short,std::ostreambuf_iterator<unsigned short,std::char_traits<unsigned short> > >::_Putc

; 1230 : 			_Buf += _Prefix, _Count -= _Prefix;
; 1231 : 			_Dest = _Rep(_Dest, _Fill, _Fillcount), _Fillcount = 0;

  0014b	ff 75 1c	 push	 DWORD PTR __Fill$[ebp]
  0014e	01 75 20	 add	 DWORD PTR __Buf$[ebp], esi
  00151	ff 70 04	 push	 DWORD PTR [eax+4]
  00154	29 75 24	 sub	 DWORD PTR __Count$[ebp], esi
  00157	ff 30		 push	 DWORD PTR [eax]
  00159	8b c3		 mov	 eax, ebx
  0015b	8d 7d bc	 lea	 edi, DWORD PTR $T60292[ebp]
  0015e	e8 00 00 00 00	 call	 ?_Rep@?$num_put@GV?$ostreambuf_iterator@GU?$char_traits@G@std@@@std@@@std@@ABA?AV?$ostreambuf_iterator@GU?$char_traits@G@std@@@2@V32@GI@Z ; std::num_put<unsigned short,std::ostreambuf_iterator<unsigned short,std::char_traits<unsigned short> > >::_Rep
  00163	83 c4 18	 add	 esp, 24			; 00000018H
$L60375:
  00166	8b 38		 mov	 edi, DWORD PTR [eax]
  00168	8b 70 04	 mov	 esi, DWORD PTR [eax+4]
  0016b	33 db		 xor	 ebx, ebx
  0016d	eb 06		 jmp	 SHORT $L25664
$L60369:
  0016f	8b 75 14	 mov	 esi, DWORD PTR __Dest$[ebp+4]
  00172	8b 7d 10	 mov	 edi, DWORD PTR __Dest$[ebp]
$L25664:

; 1232 : 			}
; 1233 : 
; 1234 : 		_Dest = _Putgrouped(_Dest, _Buf, _Count,
; 1235 : 			_Punct_fac.thousands_sep());	// put field

  00175	8b 4d c8	 mov	 ecx, DWORD PTR __Punct_fac$[ebp]
  00178	8b 01		 mov	 eax, DWORD PTR [ecx]
  0017a	ff 50 08	 call	 DWORD PTR [eax+8]
  0017d	50		 push	 eax
  0017e	ff 75 24	 push	 DWORD PTR __Count$[ebp]
  00181	8d 45 bc	 lea	 eax, DWORD PTR $T60293[ebp]
  00184	ff 75 20	 push	 DWORD PTR __Buf$[ebp]
  00187	56		 push	 esi
  00188	57		 push	 edi
  00189	50		 push	 eax
  0018a	ff 75 08	 push	 DWORD PTR _this$[ebp]
  0018d	e8 00 00 00 00	 call	 ?_Putgrouped@?$num_put@GV?$ostreambuf_iterator@GU?$char_traits@G@std@@@std@@@std@@ABA?AV?$ostreambuf_iterator@GU?$char_traits@G@std@@@2@V32@PBDIG@Z ; std::num_put<unsigned short,std::ostreambuf_iterator<unsigned short,std::char_traits<unsigned short> > >::_Putgrouped
  00192	8b 08		 mov	 ecx, DWORD PTR [eax]
  00194	8b 40 04	 mov	 eax, DWORD PTR [eax+4]

; 1236 : 		_Iosbase.width(0);
; 1237 : 		return (_Rep(_Dest, _Fill, _Fillcount));	// put trailing fill

  00197	ff 75 1c	 push	 DWORD PTR __Fill$[ebp]
  0019a	8b 55 18	 mov	 edx, DWORD PTR __Iosbase$[ebp]
  0019d	8b 7d 0c	 mov	 edi, DWORD PTR ___$ReturnUdt$[ebp]
  001a0	83 62 18 00	 and	 DWORD PTR [edx+24], 0
  001a4	50		 push	 eax
  001a5	51		 push	 ecx
  001a6	8b c3		 mov	 eax, ebx
  001a8	e8 00 00 00 00	 call	 ?_Rep@?$num_put@GV?$ostreambuf_iterator@GU?$char_traits@G@std@@@std@@@std@@ABA?AV?$ostreambuf_iterator@GU?$char_traits@G@std@@@2@V32@GI@Z ; std::num_put<unsigned short,std::ostreambuf_iterator<unsigned short,std::char_traits<unsigned short> > >::_Rep
  001ad	83 c4 28	 add	 esp, 40			; 00000028H
  001b0	6a 00		 push	 0
  001b2	6a 01		 push	 1
  001b4	8d 4d d4	 lea	 ecx, DWORD PTR __Grouping$[ebp]
  001b7	e8 00 00 00 00	 call	 ?_Tidy@?$basic_string@DU?$char_traits@D@std@@V?$allocator@D@2@@std@@IAEX_NI@Z ; std::basic_string<char,std::char_traits<char>,std::allocator<char> >::_Tidy

; 1238 : 		}

  001bc	8b 4d f4	 mov	 ecx, DWORD PTR __$EHRec$[ebp]
  001bf	8b c7		 mov	 eax, edi
  001c1	5f		 pop	 edi
  001c2	5e		 pop	 esi
  001c3	64 89 0d 00 00
	00 00		 mov	 DWORD PTR fs:__except_list, ecx
  001ca	8b 4d f0	 mov	 ecx, DWORD PTR __$ArrayPad$[ebp]
  001cd	5b		 pop	 ebx
  001ce	e8 00 00 00 00	 call	 @__security_check_cookie@4
  001d3	c9		 leave
  001d4	c3		 ret	 0
_TEXT	ENDS
;	COMDAT text$x
text$x	SEGMENT
$L60294:
  00000	8d 4d c4	 lea	 ecx, DWORD PTR $T60282[ebp]
  00003	e9 00 00 00 00	 jmp	 ??1locale@std@@QAE@XZ	; std::locale::~locale
$L60295:
  00008	8d 4d d4	 lea	 ecx, DWORD PTR __Grouping$[ebp]
  0000b	e9 00 00 00 00	 jmp	 ??1?$basic_string@DU?$char_traits@D@std@@V?$allocator@D@2@@std@@QAE@XZ ; std::basic_string<char,std::char_traits<char>,std::allocator<char> >::~basic_string<char,std::char_traits<char>,std::allocator<char> >
__ehhandler$?_Iput@?$num_put@GV?$ostreambuf_iterator@GU?$char_traits@G@std@@@std@@@std@@ABA?AV?$ostreambuf_iterator@GU?$char_traits@G@std@@@2@V32@AAVios_base@2@GPADI@Z:
  00010	b8 00 00 00 00	 mov	 eax, OFFSET FLAT:$T60365
  00015	e9 00 00 00 00	 jmp	 ___CxxFrameHandler
text$x	ENDS
?_Iput@?$num_put@GV?$ostreambuf_iterator@GU?$char_traits@G@std@@@std@@@std@@ABA?AV?$ostreambuf_iterator@GU?$char_traits@G@std@@@2@V32@AAVios_base@2@GPADI@Z ENDP ; std::num_put<unsigned short,std::ostreambuf_iterator<unsigned short,std::char_traits<unsigned short> > >::_Iput
;	COMDAT xdata$x
; File c:\program files (x86)\microsoft visual studio .net 2003\vc7\include\xstring
xdata$x	SEGMENT
$T60583	DD	0ffffffffH
	DD	FLAT:$L60403
	DD	0ffffffffH
	DD	FLAT:$L60404
	DD	01H
	DD	FLAT:$L60405
$T60571	DD	019930520H
	DD	03H
	DD	FLAT:$T60583
	DD	2 DUP(00H)
	DD	2 DUP(00H)
; Function compile flags: /Ogsy
; File c:\program files (x86)\microsoft visual studio .net 2003\vc7\include\xlocnum
xdata$x	ENDS
;	COMDAT ?_Fput@?$num_put@GV?$ostreambuf_iterator@GU?$char_traits@G@std@@@std@@@std@@ABA?AV?$ostreambuf_iterator@GU?$char_traits@G@std@@@2@V32@AAVios_base@2@GPBDIIII@Z
_TEXT	SEGMENT
$T60395 = -120						; size = 8
__Punct_fac$ = -116					; size = 4
$T60402 = -112						; size = 8
$T60397 = -112						; size = 8
$T60392 = -112						; size = 8
$T60384 = -104						; size = 4
$T60401 = -100						; size = 8
$T60400 = -100						; size = 8
$T60396 = -100						; size = 8
$T60394 = -100						; size = 8
$T60393 = -100						; size = 8
__Kseparator$ = -92					; size = 2
$T60391 = -88						; size = 8
$T60390 = -88						; size = 8
__Fracoffset$25617 = -84				; size = 4
__Prefix$ = -84						; size = 4
__E0$ = -80						; size = 2
__Enders$ = -76						; size = 3
__Grouping$ = -72					; size = 28
__Groupstring$ = -44					; size = 28
__$ArrayPad$ = -16					; size = 4
__$EHRec$ = -12						; size = 12
__$ReturnAddr$ = 4					; size = 4
_this$ = 8						; size = 4
___$ReturnUdt$ = 12					; size = 4
__Dest$ = 16						; size = 8
__Iosbase$ = 24						; size = 4
__Fill$ = 28						; size = 2
__Fillcount$ = 32					; size = 4
__Buf$ = 32						; size = 4
__Expoffset$25624 = 36					; size = 4
__Beforepoint$ = 36					; size = 4
__Afterpoint$ = 40					; size = 4
__Trailing$ = 44					; size = 4
__Count$ = 48						; size = 4
?_Fput@?$num_put@GV?$ostreambuf_iterator@GU?$char_traits@G@std@@@std@@@std@@ABA?AV?$ostreambuf_iterator@GU?$char_traits@G@std@@@2@V32@AAVios_base@2@GPBDIIII@Z PROC NEAR ; std::num_put<unsigned short,std::ostreambuf_iterator<unsigned short,std::char_traits<unsigned short> > >::_Fput, COMDAT

; 1061 : 		{	// put formatted floating-point to _Dest

  00000	b8 00 00 00 00	 mov	 eax, __ehhandler$?_Fput@?$num_put@GV?$ostreambuf_iterator@GU?$char_traits@G@std@@@std@@@std@@ABA?AV?$ostreambuf_iterator@GU?$char_traits@G@std@@@2@V32@AAVios_base@2@GPBDIIII@Z
  00005	e8 00 00 00 00	 call	 __EH_prolog
  0000a	83 ec 6c	 sub	 esp, 108		; 0000006cH
  0000d	a1 00 00 00 00	 mov	 eax, DWORD PTR ___security_cookie

; 1062 : 		const _Mypunct& _Punct_fac = _USE(_Iosbase.getloc(), _Mypunct);

  00012	8b 4d 18	 mov	 ecx, DWORD PTR __Iosbase$[ebp]
  00015	53		 push	 ebx
  00016	56		 push	 esi
  00017	89 45 f0	 mov	 DWORD PTR __$ArrayPad$[ebp], eax
  0001a	57		 push	 edi
  0001b	8d 45 98	 lea	 eax, DWORD PTR $T60384[ebp]
  0001e	50		 push	 eax
  0001f	e8 00 00 00 00	 call	 ?getloc@ios_base@std@@QBE?AVlocale@2@XZ ; std::ios_base::getloc
  00024	33 ff		 xor	 edi, edi
  00026	50		 push	 eax
  00027	89 7d fc	 mov	 DWORD PTR __$EHRec$[ebp+8], edi
  0002a	e8 00 00 00 00	 call	 ??$use_facet@V?$numpunct@G@std@@@std@@YAABV?$numpunct@G@0@ABVlocale@0@@Z ; std::use_facet<std::numpunct<unsigned short> >
  0002f	83 4d fc ff	 or	 DWORD PTR __$EHRec$[ebp+8], -1
  00033	59		 pop	 ecx
  00034	8b f0		 mov	 esi, eax
  00036	8d 4d 98	 lea	 ecx, DWORD PTR $T60384[ebp]
  00039	89 75 8c	 mov	 DWORD PTR __Punct_fac$[ebp], esi
  0003c	e8 00 00 00 00	 call	 ??1locale@std@@QAE@XZ	; std::locale::~locale

; 1063 : 		const string _Grouping = _Punct_fac.grouping();

  00041	8d 45 b8	 lea	 eax, DWORD PTR __Grouping$[ebp]
  00044	50		 push	 eax
  00045	8b ce		 mov	 ecx, esi
  00047	e8 00 00 00 00	 call	 ?grouping@?$numpunct@G@std@@QBE?AV?$basic_string@DU?$char_traits@D@std@@V?$allocator@D@2@@2@XZ ; std::numpunct<unsigned short>::grouping
  0004c	c7 45 fc 01 00
	00 00		 mov	 DWORD PTR __$EHRec$[ebp+8], 1

; 1064 : 		const _Elem _Kseparator = _Punct_fac.thousands_sep();

  00053	8b 06		 mov	 eax, DWORD PTR [esi]
  00055	8b ce		 mov	 ecx, esi
  00057	ff 50 08	 call	 DWORD PTR [eax+8]

; 1065 : 		string _Groupstring;

  0005a	57		 push	 edi
  0005b	8d 4d d4	 lea	 ecx, DWORD PTR __Groupstring$[ebp]
  0005e	c7 45 ec 0f 00
	00 00		 mov	 DWORD PTR __Groupstring$[ebp+24], 15 ; 0000000fH
  00065	89 45 a4	 mov	 DWORD PTR __Kseparator$[ebp], eax
  00068	e8 00 00 00 00	 call	 ?_Eos@?$basic_string@DU?$char_traits@D@std@@V?$allocator@D@2@@std@@IAEXI@Z ; std::basic_string<char,std::char_traits<char>,std::allocator<char> >::_Eos

; 1066 : 		const _Elem _E0 = _MAKLOCCHR(_Elem, '0', _Cvt);

  0006d	8b 45 08	 mov	 eax, DWORD PTR _this$[ebp]
  00070	83 c0 08	 add	 eax, 8
  00073	50		 push	 eax
  00074	57		 push	 edi
  00075	6a 30		 push	 48			; 00000030H
  00077	5f		 pop	 edi
  00078	57		 push	 edi
  00079	c6 45 fc 02	 mov	 BYTE PTR __$EHRec$[ebp+8], 2
  0007d	e8 00 00 00 00	 call	 ??$_Maklocchr@G@std@@YAGDPAGABU_Cvtvec@@@Z ; std::_Maklocchr<unsigned short>

; 1067 : 		size_t _Prefix = _Buf[0] == '+' || _Buf[0] == '-' ? 1 : 0;

  00082	8b 5d 20	 mov	 ebx, DWORD PTR __Buf$[ebp]
  00085	83 c4 0c	 add	 esp, 12			; 0000000cH
  00088	89 45 b0	 mov	 DWORD PTR __E0$[ebp], eax
  0008b	8a 03		 mov	 al, BYTE PTR [ebx]
  0008d	3c 2b		 cmp	 al, 43			; 0000002bH
  0008f	74 0a		 je	 SHORT $L60385
  00091	3c 2d		 cmp	 al, 45			; 0000002dH
  00093	74 06		 je	 SHORT $L60385
  00095	83 65 ac 00	 and	 DWORD PTR __Prefix$[ebp], 0
  00099	eb 07		 jmp	 SHORT $L60386
$L60385:
  0009b	c7 45 ac 01 00
	00 00		 mov	 DWORD PTR __Prefix$[ebp], 1
$L60386:

; 1068 : 
; 1069 : 		char _Enders[3];
; 1070 : 		_Enders[0] = ::localeconv()->decimal_point[0];

  000a2	e8 00 00 00 00	 call	 _localeconv

; 1071 : 		_Enders[1] = 'e';
; 1072 : 		_Enders[2] = '\0';
; 1073 : 
; 1074 : 		if (*_Grouping.c_str() != CHAR_MAX && '\0' < *_Grouping.c_str())

  000a7	83 7d d0 10	 cmp	 DWORD PTR __Grouping$[ebp+24], 16 ; 00000010H
  000ab	8b 00		 mov	 eax, DWORD PTR [eax]
  000ad	8a 00		 mov	 al, BYTE PTR [eax]
  000af	88 45 b4	 mov	 BYTE PTR __Enders$[ebp], al
  000b2	8b 45 bc	 mov	 eax, DWORD PTR __Grouping$[ebp+4]
  000b5	c6 45 b5 65	 mov	 BYTE PTR __Enders$[ebp+1], 101 ; 00000065H
  000b9	c6 45 b6 00	 mov	 BYTE PTR __Enders$[ebp+2], 0
  000bd	73 03		 jae	 SHORT $L60473
  000bf	8d 45 bc	 lea	 eax, DWORD PTR __Grouping$[ebp+4]
$L60473:
  000c2	80 38 7f	 cmp	 BYTE PTR [eax], 127	; 0000007fH
  000c5	0f 84 fd 00 00
	00		 je	 $L60574
  000cb	83 7d d0 10	 cmp	 DWORD PTR __Grouping$[ebp+24], 16 ; 00000010H
  000cf	8b 45 bc	 mov	 eax, DWORD PTR __Grouping$[ebp+4]
  000d2	73 03		 jae	 SHORT $L60487
  000d4	8d 45 bc	 lea	 eax, DWORD PTR __Grouping$[ebp+4]
$L60487:
  000d7	80 38 00	 cmp	 BYTE PTR [eax], 0
  000da	0f 8e e8 00 00
	00		 jle	 $L60574

; 1075 : 			{	// grouping specified, add thousands separators
; 1076 : 			_Groupstring.append(_Buf, _Count);	// assemble field into string

  000e0	ff 75 30	 push	 DWORD PTR __Count$[ebp]
  000e3	8d 4d d4	 lea	 ecx, DWORD PTR __Groupstring$[ebp]
  000e6	53		 push	 ebx
  000e7	e8 00 00 00 00	 call	 ?append@?$basic_string@DU?$char_traits@D@std@@V?$allocator@D@2@@std@@QAEAAV12@PBDI@Z ; std::basic_string<char,std::char_traits<char>,std::allocator<char> >::append

; 1077 : 			const char *_Ptr = (const char *)::memchr(_Buf,
; 1078 : 				'e', _Count);	// find exponent

  000ec	ff 75 30	 push	 DWORD PTR __Count$[ebp]
  000ef	6a 65		 push	 101			; 00000065H
  000f1	53		 push	 ebx
  000f2	e8 00 00 00 00	 call	 _memchr
  000f7	83 c4 0c	 add	 esp, 12			; 0000000cH

; 1079 : 			if (_Ptr == 0)

  000fa	85 c0		 test	 eax, eax

; 1080 : 				_Groupstring.append(_Trailing, '0');

  000fc	57		 push	 edi
  000fd	ff 75 2c	 push	 DWORD PTR __Trailing$[ebp]
  00100	8d 4d d4	 lea	 ecx, DWORD PTR __Groupstring$[ebp]
  00103	75 07		 jne	 SHORT $L25590
  00105	e8 00 00 00 00	 call	 ?append@?$basic_string@DU?$char_traits@D@std@@V?$allocator@D@2@@std@@QAEAAV12@ID@Z ; std::basic_string<char,std::char_traits<char>,std::allocator<char> >::append

; 1081 : 			else

  0010a	eb 08		 jmp	 SHORT $L25591
$L25590:

; 1082 : 				_Groupstring.insert(_Ptr - _Buf, _Trailing, '0');

  0010c	2b c3		 sub	 eax, ebx
  0010e	50		 push	 eax
  0010f	e8 00 00 00 00	 call	 ?insert@?$basic_string@DU?$char_traits@D@std@@V?$allocator@D@2@@std@@QAEAAV12@IID@Z ; std::basic_string<char,std::char_traits<char>,std::allocator<char> >::insert
$L25591:

; 1083 : 
; 1084 : 			_Ptr = (const char *)::memchr(_Buf,
; 1085 : 				_Enders[0], _Count);	// find decimal point

  00114	0f be 45 b4	 movsx	 eax, BYTE PTR __Enders$[ebp]
  00118	ff 75 30	 push	 DWORD PTR __Count$[ebp]
  0011b	50		 push	 eax
  0011c	53		 push	 ebx
  0011d	e8 00 00 00 00	 call	 _memchr
  00122	83 c4 0c	 add	 esp, 12			; 0000000cH

; 1086 : 			if (_Ptr == 0)

  00125	85 c0		 test	 eax, eax

; 1087 : 				_Groupstring.append(_Beforepoint, '0');

  00127	8d 4d d4	 lea	 ecx, DWORD PTR __Groupstring$[ebp]
  0012a	57		 push	 edi
  0012b	75 0a		 jne	 SHORT $L25593
  0012d	ff 75 24	 push	 DWORD PTR __Beforepoint$[ebp]
  00130	e8 00 00 00 00	 call	 ?append@?$basic_string@DU?$char_traits@D@std@@V?$allocator@D@2@@std@@QAEAAV12@ID@Z ; std::basic_string<char,std::char_traits<char>,std::allocator<char> >::append

; 1088 : 			else

  00135	eb 1d		 jmp	 SHORT $L25594
$L25593:

; 1089 : 				{	// fill in zeros around decimal point
; 1090 : 				_Groupstring.insert(_Ptr - _Buf + 1, _Afterpoint, '0');

  00137	ff 75 28	 push	 DWORD PTR __Afterpoint$[ebp]
  0013a	8b f0		 mov	 esi, eax
  0013c	2b f3		 sub	 esi, ebx
  0013e	8d 46 01	 lea	 eax, DWORD PTR [esi+1]
  00141	50		 push	 eax
  00142	e8 00 00 00 00	 call	 ?insert@?$basic_string@DU?$char_traits@D@std@@V?$allocator@D@2@@std@@QAEAAV12@IID@Z ; std::basic_string<char,std::char_traits<char>,std::allocator<char> >::insert

; 1091 : 				_Groupstring.insert(_Ptr - _Buf, _Beforepoint, '0');

  00147	57		 push	 edi
  00148	ff 75 24	 push	 DWORD PTR __Beforepoint$[ebp]
  0014b	8d 4d d4	 lea	 ecx, DWORD PTR __Groupstring$[ebp]
  0014e	56		 push	 esi
  0014f	e8 00 00 00 00	 call	 ?insert@?$basic_string@DU?$char_traits@D@std@@V?$allocator@D@2@@std@@QAEAAV12@IID@Z ; std::basic_string<char,std::char_traits<char>,std::allocator<char> >::insert
$L25594:

; 1092 : 				}
; 1093 : 
; 1094 : 			const char *_Pg = _Grouping.c_str();

  00154	83 7d d0 10	 cmp	 DWORD PTR __Grouping$[ebp+24], 16 ; 00000010H
  00158	8b 75 bc	 mov	 esi, DWORD PTR __Grouping$[ebp+4]
  0015b	73 03		 jae	 SHORT $L60501
  0015d	8d 75 bc	 lea	 esi, DWORD PTR __Grouping$[ebp+4]
$L60501:

; 1095 : 			size_t _Off = ::strcspn(&_Groupstring[0], &_Enders[0]);

  00160	83 7d ec 10	 cmp	 DWORD PTR __Groupstring$[ebp+24], 16 ; 00000010H
  00164	8b 45 d8	 mov	 eax, DWORD PTR __Groupstring$[ebp+4]
  00167	73 03		 jae	 SHORT $L60515
  00169	8d 45 d8	 lea	 eax, DWORD PTR __Groupstring$[ebp+4]
$L60515:
  0016c	8d 4d b4	 lea	 ecx, DWORD PTR __Enders$[ebp]
  0016f	51		 push	 ecx
  00170	50		 push	 eax
  00171	e8 00 00 00 00	 call	 _strcspn
  00176	59		 pop	 ecx
  00177	59		 pop	 ecx
  00178	8b d8		 mov	 ebx, eax

; 1096 : 			while (*_Pg != CHAR_MAX && '\0' < *_Pg
; 1097 : 				&& (size_t)*_Pg < _Off - _Prefix)

  0017a	eb 29		 jmp	 SHORT $L25602
$L25598:
  0017c	84 c0		 test	 al, al
  0017e	7e 2b		 jle	 SHORT $L25599
  00180	8b cb		 mov	 ecx, ebx
  00182	2b 4d ac	 sub	 ecx, DWORD PTR __Prefix$[ebp]
  00185	0f be c0	 movsx	 eax, al
  00188	3b c1		 cmp	 eax, ecx
  0018a	73 1f		 jae	 SHORT $L25599

; 1098 : 				{	// add a comma to mark thousands separator
; 1099 : 				_Groupstring.insert(_Off -= *_Pg, (size_t)1, ',');

  0018c	6a 2c		 push	 44			; 0000002cH
  0018e	2b d8		 sub	 ebx, eax
  00190	6a 01		 push	 1
  00192	53		 push	 ebx
  00193	8d 4d d4	 lea	 ecx, DWORD PTR __Groupstring$[ebp]
  00196	e8 00 00 00 00	 call	 ?insert@?$basic_string@DU?$char_traits@D@std@@V?$allocator@D@2@@std@@QAEAAV12@IID@Z ; std::basic_string<char,std::char_traits<char>,std::allocator<char> >::insert
  0019b	8d 46 01	 lea	 eax, DWORD PTR [esi+1]

; 1100 : 				if ('\0' < _Pg[1])

  0019e	80 38 00	 cmp	 BYTE PTR [eax], 0
  001a1	7e 02		 jle	 SHORT $L25602

; 1101 : 					++_Pg;	// not last group, advance

  001a3	8b f0		 mov	 esi, eax
$L25602:

; 1096 : 			while (*_Pg != CHAR_MAX && '\0' < *_Pg
; 1097 : 				&& (size_t)*_Pg < _Off - _Prefix)

  001a5	8a 06		 mov	 al, BYTE PTR [esi]
  001a7	3c 7f		 cmp	 al, 127			; 0000007fH
  001a9	75 d1		 jne	 SHORT $L25598
$L25599:

; 1102 : 				}
; 1103 : 
; 1104 : 			_Buf = &_Groupstring[0];

  001ab	83 7d ec 10	 cmp	 DWORD PTR __Groupstring$[ebp+24], 16 ; 00000010H
  001af	8b 5d d8	 mov	 ebx, DWORD PTR __Groupstring$[ebp+4]
  001b2	73 03		 jae	 SHORT $L60530
  001b4	8d 5d d8	 lea	 ebx, DWORD PTR __Groupstring$[ebp+4]
$L60530:

; 1105 : 			_Beforepoint = 0;

  001b7	33 c0		 xor	 eax, eax
  001b9	89 45 24	 mov	 DWORD PTR __Beforepoint$[ebp], eax

; 1106 : 			_Afterpoint = 0;

  001bc	89 45 28	 mov	 DWORD PTR __Afterpoint$[ebp], eax

; 1107 : 			_Trailing = 0;

  001bf	89 45 2c	 mov	 DWORD PTR __Trailing$[ebp], eax

; 1108 : 			_Count = _Groupstring.size();

  001c2	8b 45 e8	 mov	 eax, DWORD PTR __Groupstring$[ebp+20]
  001c5	89 45 30	 mov	 DWORD PTR __Count$[ebp], eax
$L60574:

; 1109 : 			}
; 1110 : 
; 1111 : 		size_t _Fillcount = _Beforepoint + _Afterpoint + _Trailing + _Count;

  001c8	8b 4d 28	 mov	 ecx, DWORD PTR __Afterpoint$[ebp]
  001cb	8b 45 24	 mov	 eax, DWORD PTR __Beforepoint$[ebp]

; 1112 : 		_Fillcount = _Iosbase.width() <= 0
; 1113 : 			|| (size_t)_Iosbase.width() <= _Fillcount
; 1114 : 				? 0 : (size_t)_Iosbase.width() - _Fillcount;

  001ce	8b 55 18	 mov	 edx, DWORD PTR __Iosbase$[ebp]
  001d1	03 c1		 add	 eax, ecx
  001d3	03 45 2c	 add	 eax, DWORD PTR __Trailing$[ebp]
  001d6	8b 4a 18	 mov	 ecx, DWORD PTR [edx+24]
  001d9	03 45 30	 add	 eax, DWORD PTR __Count$[ebp]
  001dc	85 c9		 test	 ecx, ecx
  001de	7e 0b		 jle	 SHORT $L60387
  001e0	3b c8		 cmp	 ecx, eax
  001e2	76 07		 jbe	 SHORT $L60387
  001e4	2b c8		 sub	 ecx, eax
  001e6	89 4d 20	 mov	 DWORD PTR __Fillcount$[ebp], ecx
  001e9	eb 04		 jmp	 SHORT $L60388
$L60387:
  001eb	83 65 20 00	 and	 DWORD PTR __Fillcount$[ebp], 0
$L60388:

; 1115 : 		ios_base::fmtflags _Adjustfield =
; 1116 : 			_Iosbase.flags() & ios_base::adjustfield;

  001ef	8b 42 10	 mov	 eax, DWORD PTR [edx+16]
  001f2	25 c0 01 00 00	 and	 eax, 448		; 000001c0H

; 1117 : 		if (_Adjustfield != ios_base::left
; 1118 : 			&& _Adjustfield != ios_base::internal)

  001f7	83 f8 40	 cmp	 eax, 64			; 00000040H
  001fa	74 61		 je	 SHORT $L60576
  001fc	3d 00 01 00 00	 cmp	 eax, 256		; 00000100H
  00201	74 0b		 je	 SHORT $L60573

; 1119 : 			{	// put leading fill
; 1120 : 			_Dest = _Rep(_Dest, _Fill, _Fillcount);

  00203	ff 75 1c	 push	 DWORD PTR __Fill$[ebp]
  00206	ff 75 14	 push	 DWORD PTR __Dest$[ebp+4]
  00209	ff 75 10	 push	 DWORD PTR __Dest$[ebp]

; 1121 : 			_Fillcount = 0;
; 1122 : 			}
; 1123 : 		else if (_Adjustfield == ios_base::internal)

  0020c	eb 36		 jmp	 SHORT $L60582
$L60573:

; 1124 : 			{	// put internal fill
; 1125 : 			if (0 < _Prefix)

  0020e	83 7d ac 00	 cmp	 DWORD PTR __Prefix$[ebp], 0
  00212	76 25		 jbe	 SHORT $L60575

; 1126 : 				{	// but first put sign
; 1127 : 				_Dest = _Putc(_Dest, _Buf, 1);

  00214	ff 75 14	 push	 DWORD PTR __Dest$[ebp+4]
  00217	8b 55 08	 mov	 edx, DWORD PTR _this$[ebp]
  0021a	ff 75 10	 push	 DWORD PTR __Dest$[ebp]
  0021d	8d 45 a8	 lea	 eax, DWORD PTR $T60390[ebp]
  00220	50		 push	 eax
  00221	33 c0		 xor	 eax, eax
  00223	40		 inc	 eax
  00224	8b cb		 mov	 ecx, ebx
  00226	e8 00 00 00 00	 call	 ?_Putc@?$num_put@GV?$ostreambuf_iterator@GU?$char_traits@G@std@@@std@@@std@@ABA?AV?$ostreambuf_iterator@GU?$char_traits@G@std@@@2@V32@PBDI@Z ; std::num_put<unsigned short,std::ostreambuf_iterator<unsigned short,std::char_traits<unsigned short> > >::_Putc
  0022b	8b 08		 mov	 ecx, DWORD PTR [eax]
  0022d	8b 40 04	 mov	 eax, DWORD PTR [eax+4]
  00230	83 c4 0c	 add	 esp, 12			; 0000000cH

; 1128 : 				++_Buf, --_Count;

  00233	43		 inc	 ebx
  00234	ff 4d 30	 dec	 DWORD PTR __Count$[ebp]
  00237	eb 06		 jmp	 SHORT $L25611
$L60575:
  00239	8b 45 14	 mov	 eax, DWORD PTR __Dest$[ebp+4]
  0023c	8b 4d 10	 mov	 ecx, DWORD PTR __Dest$[ebp]
$L25611:

; 1129 : 				}
; 1130 : 			_Dest = _Rep(_Dest, _Fill, _Fillcount);

  0023f	ff 75 1c	 push	 DWORD PTR __Fill$[ebp]
  00242	50		 push	 eax
  00243	51		 push	 ecx
$L60582:
  00244	8b 45 20	 mov	 eax, DWORD PTR __Fillcount$[ebp]
  00247	8d 7d a8	 lea	 edi, DWORD PTR $T60391[ebp]
  0024a	e8 00 00 00 00	 call	 ?_Rep@?$num_put@GV?$ostreambuf_iterator@GU?$char_traits@G@std@@@std@@@std@@ABA?AV?$ostreambuf_iterator@GU?$char_traits@G@std@@@2@V32@GI@Z ; std::num_put<unsigned short,std::ostreambuf_iterator<unsigned short,std::char_traits<unsigned short> > >::_Rep
  0024f	8b 30		 mov	 esi, DWORD PTR [eax]
  00251	8b 78 04	 mov	 edi, DWORD PTR [eax+4]
  00254	83 c4 0c	 add	 esp, 12			; 0000000cH

; 1131 : 			_Fillcount = 0;

  00257	83 65 20 00	 and	 DWORD PTR __Fillcount$[ebp], 0
  0025b	eb 06		 jmp	 SHORT $L25610
$L60576:

; 1121 : 			_Fillcount = 0;
; 1122 : 			}
; 1123 : 		else if (_Adjustfield == ios_base::internal)

  0025d	8b 7d 14	 mov	 edi, DWORD PTR __Dest$[ebp+4]
  00260	8b 75 10	 mov	 esi, DWORD PTR __Dest$[ebp]
$L25610:

; 1132 : 			}
; 1133 : 
; 1134 : 		const char *_Ptr = (const char *)::memchr(_Buf,
; 1135 : 			_Enders[0], _Count);	// find decimal point

  00263	0f be 45 b4	 movsx	 eax, BYTE PTR __Enders$[ebp]
  00267	ff 75 30	 push	 DWORD PTR __Count$[ebp]
  0026a	50		 push	 eax
  0026b	53		 push	 ebx
  0026c	e8 00 00 00 00	 call	 _memchr
  00271	83 c4 0c	 add	 esp, 12			; 0000000cH

; 1136 : 		if (_Ptr != 0)

  00274	85 c0		 test	 eax, eax
  00276	74 6e		 je	 SHORT $L60577

; 1137 : 			{	// has decimal point, put pieces and zero fills
; 1138 : 			size_t _Fracoffset = _Ptr - _Buf + 1;
; 1139 : 			_Dest = _Putgrouped(_Dest, _Buf, _Fracoffset - 1, _Kseparator);

  00278	ff 75 a4	 push	 DWORD PTR __Kseparator$[ebp]
  0027b	2b c3		 sub	 eax, ebx
  0027d	40		 inc	 eax
  0027e	89 45 ac	 mov	 DWORD PTR __Fracoffset$25617[ebp], eax
  00281	48		 dec	 eax
  00282	50		 push	 eax
  00283	53		 push	 ebx
  00284	57		 push	 edi
  00285	56		 push	 esi
  00286	8d 45 90	 lea	 eax, DWORD PTR $T60392[ebp]
  00289	50		 push	 eax
  0028a	ff 75 08	 push	 DWORD PTR _this$[ebp]
  0028d	e8 00 00 00 00	 call	 ?_Putgrouped@?$num_put@GV?$ostreambuf_iterator@GU?$char_traits@G@std@@@std@@@std@@ABA?AV?$ostreambuf_iterator@GU?$char_traits@G@std@@@2@V32@PBDIG@Z ; std::num_put<unsigned short,std::ostreambuf_iterator<unsigned short,std::char_traits<unsigned short> > >::_Putgrouped

; 1140 : 			_Dest = _Rep(_Dest, _E0, _Beforepoint);

  00292	ff 75 b0	 push	 DWORD PTR __E0$[ebp]
  00295	8d 7d 9c	 lea	 edi, DWORD PTR $T60393[ebp]
  00298	ff 70 04	 push	 DWORD PTR [eax+4]
  0029b	ff 30		 push	 DWORD PTR [eax]
  0029d	8b 45 24	 mov	 eax, DWORD PTR __Beforepoint$[ebp]
  002a0	e8 00 00 00 00	 call	 ?_Rep@?$num_put@GV?$ostreambuf_iterator@GU?$char_traits@G@std@@@std@@@std@@ABA?AV?$ostreambuf_iterator@GU?$char_traits@G@std@@@2@V32@GI@Z ; std::num_put<unsigned short,std::ostreambuf_iterator<unsigned short,std::char_traits<unsigned short> > >::_Rep

; 1141 : 			_Dest = _Rep(_Dest, _Punct_fac.decimal_point(), 1);

  002a5	8b 4d 8c	 mov	 ecx, DWORD PTR __Punct_fac$[ebp]
  002a8	8b 30		 mov	 esi, DWORD PTR [eax]
  002aa	8b 78 04	 mov	 edi, DWORD PTR [eax+4]
  002ad	8b 01		 mov	 eax, DWORD PTR [ecx]
  002af	83 c4 28	 add	 esp, 40			; 00000028H
  002b2	ff 50 04	 call	 DWORD PTR [eax+4]
  002b5	50		 push	 eax
  002b6	57		 push	 edi
  002b7	33 c0		 xor	 eax, eax
  002b9	56		 push	 esi
  002ba	40		 inc	 eax
  002bb	8d 7d 9c	 lea	 edi, DWORD PTR $T60394[ebp]
  002be	e8 00 00 00 00	 call	 ?_Rep@?$num_put@GV?$ostreambuf_iterator@GU?$char_traits@G@std@@@std@@@std@@ABA?AV?$ostreambuf_iterator@GU?$char_traits@G@std@@@2@V32@GI@Z ; std::num_put<unsigned short,std::ostreambuf_iterator<unsigned short,std::char_traits<unsigned short> > >::_Rep

; 1142 : 			_Dest = _Rep(_Dest, _E0, _Afterpoint);

  002c3	ff 75 b0	 push	 DWORD PTR __E0$[ebp]
  002c6	8d 7d 88	 lea	 edi, DWORD PTR $T60395[ebp]
  002c9	ff 70 04	 push	 DWORD PTR [eax+4]
  002cc	ff 30		 push	 DWORD PTR [eax]
  002ce	8b 45 28	 mov	 eax, DWORD PTR __Afterpoint$[ebp]
  002d1	e8 00 00 00 00	 call	 ?_Rep@?$num_put@GV?$ostreambuf_iterator@GU?$char_traits@G@std@@@std@@@std@@ABA?AV?$ostreambuf_iterator@GU?$char_traits@G@std@@@2@V32@GI@Z ; std::num_put<unsigned short,std::ostreambuf_iterator<unsigned short,std::char_traits<unsigned short> > >::_Rep
  002d6	8b 30		 mov	 esi, DWORD PTR [eax]
  002d8	8b 78 04	 mov	 edi, DWORD PTR [eax+4]

; 1143 : 			_Buf += _Fracoffset, _Count -= _Fracoffset;

  002db	8b 45 ac	 mov	 eax, DWORD PTR __Fracoffset$25617[ebp]
  002de	83 c4 18	 add	 esp, 24			; 00000018H
  002e1	03 d8		 add	 ebx, eax
  002e3	29 45 30	 sub	 DWORD PTR __Count$[ebp], eax
$L60577:

; 1144 : 			}
; 1145 : 
; 1146 : 		if ((_Ptr = (const char *)::memchr(_Buf, 'e', _Count)) != 0)

  002e6	ff 75 30	 push	 DWORD PTR __Count$[ebp]
  002e9	6a 65		 push	 101			; 00000065H
  002eb	53		 push	 ebx
  002ec	e8 00 00 00 00	 call	 _memchr
  002f1	83 c4 0c	 add	 esp, 12			; 0000000cH
  002f4	85 c0		 test	 eax, eax
  002f6	74 6b		 je	 SHORT $L60578

; 1147 : 			{	// has exponent field, put it out
; 1148 : 			size_t _Expoffset = _Ptr - _Buf + 1;
; 1149 : 			_Dest = _Putgrouped(_Dest, _Buf, _Expoffset - 1, _Kseparator);

  002f8	ff 75 a4	 push	 DWORD PTR __Kseparator$[ebp]
  002fb	2b c3		 sub	 eax, ebx
  002fd	40		 inc	 eax
  002fe	89 45 24	 mov	 DWORD PTR __Expoffset$25624[ebp], eax
  00301	48		 dec	 eax
  00302	50		 push	 eax
  00303	53		 push	 ebx
  00304	57		 push	 edi
  00305	56		 push	 esi
  00306	8d 45 9c	 lea	 eax, DWORD PTR $T60396[ebp]
  00309	50		 push	 eax
  0030a	ff 75 08	 push	 DWORD PTR _this$[ebp]
  0030d	e8 00 00 00 00	 call	 ?_Putgrouped@?$num_put@GV?$ostreambuf_iterator@GU?$char_traits@G@std@@@std@@@std@@ABA?AV?$ostreambuf_iterator@GU?$char_traits@G@std@@@2@V32@PBDIG@Z ; std::num_put<unsigned short,std::ostreambuf_iterator<unsigned short,std::char_traits<unsigned short> > >::_Putgrouped

; 1150 : 			_Dest = _Rep(_Dest, _E0, _Trailing), _Trailing = 0;

  00312	ff 75 b0	 push	 DWORD PTR __E0$[ebp]
  00315	8d 7d 90	 lea	 edi, DWORD PTR $T60397[ebp]
  00318	ff 70 04	 push	 DWORD PTR [eax+4]
  0031b	ff 30		 push	 DWORD PTR [eax]
  0031d	8b 45 2c	 mov	 eax, DWORD PTR __Trailing$[ebp]
  00320	e8 00 00 00 00	 call	 ?_Rep@?$num_put@GV?$ostreambuf_iterator@GU?$char_traits@G@std@@@std@@@std@@ABA?AV?$ostreambuf_iterator@GU?$char_traits@G@std@@@2@V32@GI@Z ; std::num_put<unsigned short,std::ostreambuf_iterator<unsigned short,std::char_traits<unsigned short> > >::_Rep

; 1151 : 			_Dest = _Putc(_Dest, _Iosbase.flags() & ios_base::uppercase
; 1152 : 				? "E" : "e", 1);

  00325	8b 4d 18	 mov	 ecx, DWORD PTR __Iosbase$[ebp]
  00328	83 65 2c 00	 and	 DWORD PTR __Trailing$[ebp], 0
  0032c	83 c4 28	 add	 esp, 40			; 00000028H
  0032f	f6 41 10 04	 test	 BYTE PTR [ecx+16], 4
  00333	b9 00 00 00 00	 mov	 ecx, OFFSET FLAT:??_C@_01DDCIFGEA@E?$AA@
  00338	75 05		 jne	 SHORT $L60399
  0033a	b9 00 00 00 00	 mov	 ecx, OFFSET FLAT:??_C@_01KGKMHCOC@e?$AA@
$L60399:
  0033f	ff 70 04	 push	 DWORD PTR [eax+4]
  00342	8b 55 08	 mov	 edx, DWORD PTR _this$[ebp]
  00345	ff 30		 push	 DWORD PTR [eax]
  00347	8d 45 9c	 lea	 eax, DWORD PTR $T60400[ebp]
  0034a	50		 push	 eax
  0034b	33 c0		 xor	 eax, eax
  0034d	40		 inc	 eax
  0034e	e8 00 00 00 00	 call	 ?_Putc@?$num_put@GV?$ostreambuf_iterator@GU?$char_traits@G@std@@@std@@@std@@ABA?AV?$ostreambuf_iterator@GU?$char_traits@G@std@@@2@V32@PBDI@Z ; std::num_put<unsigned short,std::ostreambuf_iterator<unsigned short,std::char_traits<unsigned short> > >::_Putc
  00353	8b 30		 mov	 esi, DWORD PTR [eax]
  00355	8b 78 04	 mov	 edi, DWORD PTR [eax+4]

; 1153 : 			_Buf += _Expoffset, _Count -= _Expoffset;

  00358	8b 45 24	 mov	 eax, DWORD PTR __Expoffset$25624[ebp]
  0035b	83 c4 0c	 add	 esp, 12			; 0000000cH
  0035e	03 d8		 add	 ebx, eax
  00360	29 45 30	 sub	 DWORD PTR __Count$[ebp], eax
$L60578:

; 1154 : 			}
; 1155 : 
; 1156 : 		_Dest = _Putgrouped(_Dest, _Buf, _Count,
; 1157 : 			_Kseparator);	// put leftover field

  00363	ff 75 a4	 push	 DWORD PTR __Kseparator$[ebp]
  00366	8d 45 9c	 lea	 eax, DWORD PTR $T60401[ebp]
  00369	ff 75 30	 push	 DWORD PTR __Count$[ebp]
  0036c	53		 push	 ebx
  0036d	57		 push	 edi
  0036e	56		 push	 esi
  0036f	50		 push	 eax
  00370	ff 75 08	 push	 DWORD PTR _this$[ebp]
  00373	e8 00 00 00 00	 call	 ?_Putgrouped@?$num_put@GV?$ostreambuf_iterator@GU?$char_traits@G@std@@@std@@@std@@ABA?AV?$ostreambuf_iterator@GU?$char_traits@G@std@@@2@V32@PBDIG@Z ; std::num_put<unsigned short,std::ostreambuf_iterator<unsigned short,std::char_traits<unsigned short> > >::_Putgrouped

; 1158 : 		_Dest = _Rep(_Dest, _E0, _Trailing);	// put trailing zeros

  00378	ff 75 b0	 push	 DWORD PTR __E0$[ebp]
  0037b	8d 7d 90	 lea	 edi, DWORD PTR $T60402[ebp]
  0037e	ff 70 04	 push	 DWORD PTR [eax+4]
  00381	ff 30		 push	 DWORD PTR [eax]
  00383	8b 45 2c	 mov	 eax, DWORD PTR __Trailing$[ebp]
  00386	e8 00 00 00 00	 call	 ?_Rep@?$num_put@GV?$ostreambuf_iterator@GU?$char_traits@G@std@@@std@@@std@@ABA?AV?$ostreambuf_iterator@GU?$char_traits@G@std@@@2@V32@GI@Z ; std::num_put<unsigned short,std::ostreambuf_iterator<unsigned short,std::char_traits<unsigned short> > >::_Rep
  0038b	8b 08		 mov	 ecx, DWORD PTR [eax]
  0038d	8b 40 04	 mov	 eax, DWORD PTR [eax+4]

; 1159 : 		_Iosbase.width(0);
; 1160 : 		return (_Rep(_Dest, _Fill, _Fillcount));	// put trailing fill

  00390	ff 75 1c	 push	 DWORD PTR __Fill$[ebp]
  00393	8b 55 18	 mov	 edx, DWORD PTR __Iosbase$[ebp]
  00396	8b 7d 0c	 mov	 edi, DWORD PTR ___$ReturnUdt$[ebp]
  00399	50		 push	 eax
  0039a	8b 45 20	 mov	 eax, DWORD PTR __Fillcount$[ebp]
  0039d	33 f6		 xor	 esi, esi
  0039f	51		 push	 ecx
  003a0	89 72 18	 mov	 DWORD PTR [edx+24], esi
  003a3	e8 00 00 00 00	 call	 ?_Rep@?$num_put@GV?$ostreambuf_iterator@GU?$char_traits@G@std@@@std@@@std@@ABA?AV?$ostreambuf_iterator@GU?$char_traits@G@std@@@2@V32@GI@Z ; std::num_put<unsigned short,std::ostreambuf_iterator<unsigned short,std::char_traits<unsigned short> > >::_Rep
  003a8	83 c4 34	 add	 esp, 52			; 00000034H
  003ab	56		 push	 esi
  003ac	6a 01		 push	 1
  003ae	8d 4d d4	 lea	 ecx, DWORD PTR __Groupstring$[ebp]
  003b1	e8 00 00 00 00	 call	 ?_Tidy@?$basic_string@DU?$char_traits@D@std@@V?$allocator@D@2@@std@@IAEX_NI@Z ; std::basic_string<char,std::char_traits<char>,std::allocator<char> >::_Tidy
  003b6	56		 push	 esi
  003b7	6a 01		 push	 1
  003b9	8d 4d b8	 lea	 ecx, DWORD PTR __Grouping$[ebp]
  003bc	e8 00 00 00 00	 call	 ?_Tidy@?$basic_string@DU?$char_traits@D@std@@V?$allocator@D@2@@std@@IAEX_NI@Z ; std::basic_string<char,std::char_traits<char>,std::allocator<char> >::_Tidy

; 1161 : 		}

  003c1	8b 4d f4	 mov	 ecx, DWORD PTR __$EHRec$[ebp]
  003c4	8b c7		 mov	 eax, edi
  003c6	5f		 pop	 edi
  003c7	5e		 pop	 esi
  003c8	64 89 0d 00 00
	00 00		 mov	 DWORD PTR fs:__except_list, ecx
  003cf	8b 4d f0	 mov	 ecx, DWORD PTR __$ArrayPad$[ebp]
  003d2	5b		 pop	 ebx
  003d3	e8 00 00 00 00	 call	 @__security_check_cookie@4
  003d8	c9		 leave
  003d9	c3		 ret	 0
_TEXT	ENDS
;	COMDAT text$x
text$x	SEGMENT
$L60403:
  00000	8d 4d 98	 lea	 ecx, DWORD PTR $T60384[ebp]
  00003	e9 00 00 00 00	 jmp	 ??1locale@std@@QAE@XZ	; std::locale::~locale
$L60404:
  00008	8d 4d b8	 lea	 ecx, DWORD PTR __Grouping$[ebp]
  0000b	e9 00 00 00 00	 jmp	 ??1?$basic_string@DU?$char_traits@D@std@@V?$allocator@D@2@@std@@QAE@XZ ; std::basic_string<char,std::char_traits<char>,std::allocator<char> >::~basic_string<char,std::char_traits<char>,std::allocator<char> >
$L60405:
  00010	8d 4d d4	 lea	 ecx, DWORD PTR __Groupstring$[ebp]
  00013	e9 00 00 00 00	 jmp	 ??1?$basic_string@DU?$char_traits@D@std@@V?$allocator@D@2@@std@@QAE@XZ ; std::basic_string<char,std::char_traits<char>,std::allocator<char> >::~basic_string<char,std::char_traits<char>,std::allocator<char> >
__ehhandler$?_Fput@?$num_put@GV?$ostreambuf_iterator@GU?$char_traits@G@std@@@std@@@std@@ABA?AV?$ostreambuf_iterator@GU?$char_traits@G@std@@@2@V32@AAVios_base@2@GPBDIIII@Z:
  00018	b8 00 00 00 00	 mov	 eax, OFFSET FLAT:$T60571
  0001d	e9 00 00 00 00	 jmp	 ___CxxFrameHandler
text$x	ENDS
?_Fput@?$num_put@GV?$ostreambuf_iterator@GU?$char_traits@G@std@@@std@@@std@@ABA?AV?$ostreambuf_iterator@GU?$char_traits@G@std@@@2@V32@AAVios_base@2@GPBDIIII@Z ENDP ; std::num_put<unsigned short,std::ostreambuf_iterator<unsigned short,std::char_traits<unsigned short> > >::_Fput
; Function compile flags: /Ogsy
; File c:\program files (x86)\microsoft visual studio .net 2003\vc7\include\xstring
;	COMDAT ?assign@?$basic_string@DU?$char_traits@D@std@@V?$allocator@D@2@@std@@QAEAAV12@ABV12@@Z
_TEXT	SEGMENT
__Right$ = 8						; size = 4
?assign@?$basic_string@DU?$char_traits@D@std@@V?$allocator@D@2@@std@@QAEAAV12@ABV12@@Z PROC NEAR ; std::basic_string<char,std::char_traits<char>,std::allocator<char> >::assign, COMDAT
; _this$ = ecx

; 585  : 		return (assign(_Right, 0, npos));

  00000	6a ff		 push	 -1
  00002	6a 00		 push	 0
  00004	ff 74 24 0c	 push	 DWORD PTR __Right$[esp+4]
  00008	e8 00 00 00 00	 call	 ?assign@?$basic_string@DU?$char_traits@D@std@@V?$allocator@D@2@@std@@QAEAAV12@ABV12@II@Z ; std::basic_string<char,std::char_traits<char>,std::allocator<char> >::assign

; 586  : 		}

  0000d	c2 04 00	 ret	 4
?assign@?$basic_string@DU?$char_traits@D@std@@V?$allocator@D@2@@std@@QAEAAV12@ABV12@@Z ENDP ; std::basic_string<char,std::char_traits<char>,std::allocator<char> >::assign
; Function compile flags: /Ogsy
; File c:\program files (x86)\microsoft visual studio .net 2003\vc7\include\xlocnum
_TEXT	ENDS
;	COMDAT ?do_put@?$num_put@DV?$ostreambuf_iterator@DU?$char_traits@D@std@@@std@@@std@@MBE?AV?$ostreambuf_iterator@DU?$char_traits@D@std@@@2@V32@AAVios_base@2@DPBX@Z
_TEXT	SEGMENT
__Buf$ = -68						; size = 64
__$ArrayPad$ = -4					; size = 4
__$ReturnAddr$ = 4					; size = 4
___$ReturnUdt$ = 8					; size = 4
__Dest$ = 12						; size = 8
__Iosbase$ = 20						; size = 4
__Fill$ = 24						; size = 1
__Val$ = 28						; size = 4
?do_put@?$num_put@DV?$ostreambuf_iterator@DU?$char_traits@D@std@@@std@@@std@@MBE?AV?$ostreambuf_iterator@DU?$char_traits@D@std@@@2@V32@AAVios_base@2@DPBX@Z PROC NEAR ; std::num_put<char,std::ostreambuf_iterator<char,std::char_traits<char> > >::do_put, COMDAT
; _this$ = ecx

; 1028 : 		{	// put formatted void pointer to _Dest

  00000	55		 push	 ebp
  00001	8b ec		 mov	 ebp, esp
  00003	83 ec 44	 sub	 esp, 68			; 00000044H
  00006	a1 00 00 00 00	 mov	 eax, DWORD PTR ___security_cookie
  0000b	56		 push	 esi

; 1029 : 		char _Buf[2 * _MAX_INT_DIG];
; 1030 : 		return (_Iput(_Dest, _Iosbase, _Fill, _Buf,
; 1031 : 			::sprintf(_Buf, "%p", _Val)));

  0000c	ff 75 1c	 push	 DWORD PTR __Val$[ebp]
  0000f	89 45 fc	 mov	 DWORD PTR __$ArrayPad$[ebp], eax
  00012	8d 45 bc	 lea	 eax, DWORD PTR __Buf$[ebp]
  00015	68 00 00 00 00	 push	 OFFSET FLAT:??_C@_02BBAHNLBA@?$CFp?$AA@
  0001a	50		 push	 eax
  0001b	8b f1		 mov	 esi, ecx
  0001d	e8 00 00 00 00	 call	 _sprintf
  00022	50		 push	 eax
  00023	8d 45 bc	 lea	 eax, DWORD PTR __Buf$[ebp]
  00026	50		 push	 eax
  00027	ff 75 18	 push	 DWORD PTR __Fill$[ebp]
  0002a	ff 75 14	 push	 DWORD PTR __Iosbase$[ebp]
  0002d	ff 75 10	 push	 DWORD PTR __Dest$[ebp+4]
  00030	ff 75 0c	 push	 DWORD PTR __Dest$[ebp]
  00033	ff 75 08	 push	 DWORD PTR ___$ReturnUdt$[ebp]
  00036	56		 push	 esi
  00037	e8 00 00 00 00	 call	 ?_Iput@?$num_put@DV?$ostreambuf_iterator@DU?$char_traits@D@std@@@std@@@std@@ABA?AV?$ostreambuf_iterator@DU?$char_traits@D@std@@@2@V32@AAVios_base@2@DPADI@Z ; std::num_put<char,std::ostreambuf_iterator<char,std::char_traits<char> > >::_Iput

; 1032 : 		}

  0003c	8b 4d fc	 mov	 ecx, DWORD PTR __$ArrayPad$[ebp]
  0003f	8b 45 08	 mov	 eax, DWORD PTR ___$ReturnUdt$[ebp]
  00042	83 c4 2c	 add	 esp, 44			; 0000002cH
  00045	5e		 pop	 esi
  00046	e8 00 00 00 00	 call	 @__security_check_cookie@4
  0004b	c9		 leave
  0004c	c2 18 00	 ret	 24			; 00000018H
?do_put@?$num_put@DV?$ostreambuf_iterator@DU?$char_traits@D@std@@@std@@@std@@MBE?AV?$ostreambuf_iterator@DU?$char_traits@D@std@@@2@V32@AAVios_base@2@DPBX@Z ENDP ; std::num_put<char,std::ostreambuf_iterator<char,std::char_traits<char> > >::do_put
_TEXT	ENDS
PUBLIC	__real@0000000000000000
PUBLIC	__real@4733426172c74d82
PUBLIC	__real@3ddb7cdfd9d7bdbb
PUBLIC	__real@38aa95a5b7f87a0f
PUBLIC	__real@4202a05f20000000
EXTRN	__fltused:NEAR
;	COMDAT __real@0000000000000000
; File c:\program files (x86)\microsoft visual studio .net 2003\vc7\include\xiosbase
CONST	SEGMENT
__real@0000000000000000 DQ 00000000000000000r	; 0
CONST	ENDS
;	COMDAT __real@3ddb7cdfd9d7bdbb
CONST	SEGMENT
__real@3ddb7cdfd9d7bdbb DQ 03ddb7cdfd9d7bdbbr	; 1e-010
CONST	ENDS
;	COMDAT __real@4733426172c74d82
CONST	SEGMENT
__real@4733426172c74d82 DQ 04733426172c74d82r	; 1e+035
CONST	ENDS
;	COMDAT __real@38aa95a5b7f87a0f
CONST	SEGMENT
__real@38aa95a5b7f87a0f DQ 038aa95a5b7f87a0fr	; 1e-035
CONST	ENDS
;	COMDAT __real@4202a05f20000000
CONST	SEGMENT
__real@4202a05f20000000 DQ 04202a05f20000000r	; 1e+010
; Function compile flags: /Ogsy
; File c:\program files (x86)\microsoft visual studio .net 2003\vc7\include\xlocnum
CONST	ENDS
;	COMDAT ?do_put@?$num_put@DV?$ostreambuf_iterator@DU?$char_traits@D@std@@@std@@@std@@MBE?AV?$ostreambuf_iterator@DU?$char_traits@D@std@@@2@V32@AAVios_base@2@DO@Z
_TEXT	SEGMENT
_this$ = -132						; size = 4
__Beforepoint$ = -128					; size = 4
__Afterpoint$ = -124					; size = 4
__Buf$ = -120						; size = 108
__Fmt$ = -12						; size = 8
__Significance$ = -8					; size = 4
__$ArrayPad$ = -4					; size = 4
__$ReturnAddr$ = 4					; size = 4
___$ReturnUdt$ = 8					; size = 4
__Dest$ = 12						; size = 8
__Iosbase$ = 20						; size = 4
__Signed$25535 = 23					; size = 1
__Fill$ = 24						; size = 1
__Val$ = 28						; size = 8
?do_put@?$num_put@DV?$ostreambuf_iterator@DU?$char_traits@D@std@@@std@@@std@@MBE?AV?$ostreambuf_iterator@DU?$char_traits@D@std@@@2@V32@AAVios_base@2@DO@Z PROC NEAR ; std::num_put<char,std::ostreambuf_iterator<char,std::char_traits<char> > >::do_put, COMDAT
; _this$ = ecx

; 988  : 		{	// put formatted long double to _Dest

  00000	55		 push	 ebp
  00001	8b ec		 mov	 ebp, esp
  00003	81 ec 84 00 00
	00		 sub	 esp, 132		; 00000084H
  00009	a1 00 00 00 00	 mov	 eax, DWORD PTR ___security_cookie
  0000e	56		 push	 esi

; 989  : 		char _Buf[_MAX_EXP_DIG + _MAX_SIG_DIG + 64], _Fmt[8];
; 990  : 		streamsize _Precision = _Iosbase.precision() <= 0
; 991  : 			&& !(_Iosbase.flags() & ios_base::fixed)
; 992  : 				? 6 : _Iosbase.precision();	// desired precision

  0000f	8b 75 14	 mov	 esi, DWORD PTR __Iosbase$[ebp]
  00012	89 8d 7c ff ff
	ff		 mov	 DWORD PTR _this$[ebp], ecx
  00018	8b 4e 14	 mov	 ecx, DWORD PTR [esi+20]
  0001b	85 c9		 test	 ecx, ecx
  0001d	89 45 fc	 mov	 DWORD PTR __$ArrayPad$[ebp], eax
  00020	57		 push	 edi
  00021	b8 00 20 00 00	 mov	 eax, 8192		; 00002000H
  00026	7f 08		 jg	 SHORT $L60612
  00028	85 46 10	 test	 DWORD PTR [esi+16], eax
  0002b	75 03		 jne	 SHORT $L60612
  0002d	6a 06		 push	 6
  0002f	59		 pop	 ecx
$L60612:
  00030	8b f9		 mov	 edi, ecx

; 993  : 		int _Significance = _MAX_SIG_DIG < _Precision
; 994  : 			? _MAX_SIG_DIG : (int)_Precision;	// actual sprintf precision

  00032	6a 24		 push	 36			; 00000024H
  00034	59		 pop	 ecx
  00035	3b f9		 cmp	 edi, ecx
  00037	89 4d f8	 mov	 DWORD PTR __Significance$[ebp], ecx
  0003a	7f 03		 jg	 SHORT $L60599
  0003c	89 7d f8	 mov	 DWORD PTR __Significance$[ebp], edi
$L60599:

; 995  : 		_Precision -= _Significance;
; 996  : 		size_t _Beforepoint = 0;	// zeros to add before decimal point
; 997  : 		size_t _Afterpoint = 0;	// zeros to add after decimal point
; 998  : 
; 999  : 		if ((_Iosbase.flags() & ios_base::floatfield) == ios_base::fixed)

  0003f	8b 4e 10	 mov	 ecx, DWORD PTR [esi+16]

; 1000 : 			{	// scale silly fixed-point value
; 1001 : 			bool _Signed = _Val < 0;

  00042	dd 45 1c	 fld	 QWORD PTR __Val$[ebp]
  00045	2b 7d f8	 sub	 edi, DWORD PTR __Significance$[ebp]
  00048	83 65 80 00	 and	 DWORD PTR __Beforepoint$[ebp], 0
  0004c	83 65 84 00	 and	 DWORD PTR __Afterpoint$[ebp], 0
  00050	8b d1		 mov	 edx, ecx
  00052	81 e2 00 30 00
	00		 and	 edx, 12288		; 00003000H
  00058	3b d0		 cmp	 edx, eax
  0005a	0f 85 80 00 00
	00		 jne	 $L60638
  00060	dc 15 00 00 00
	00		 fcom	 QWORD PTR __real@0000000000000000
  00066	df e0		 fnstsw	 ax
  00068	f6 c4 05	 test	 ah, 5
  0006b	7a 15		 jp	 SHORT $L60600

; 1003 : 				_Val = -_Val;

  0006d	d9 c0		 fld	 ST(0)
  0006f	c6 45 17 01	 mov	 BYTE PTR __Signed$25535[ebp], 1
  00073	d9 e0		 fchs
  00075	dd d9		 fstp	 ST(1)
$L25536:
  00077	53		 push	 ebx

; 1004 : 
; 1005 : 			for (; 1e35 <= _Val && _Beforepoint < 5000; _Beforepoint += 10)

  00078	6a 0a		 push	 10			; 0000000aH
  0007a	bb 88 13 00 00	 mov	 ebx, 5000		; 00001388H
  0007f	5a		 pop	 edx
  00080	eb 14		 jmp	 SHORT $L60641
$L60600:

; 1000 : 			{	// scale silly fixed-point value
; 1001 : 			bool _Signed = _Val < 0;

  00082	c6 45 17 00	 mov	 BYTE PTR __Signed$25535[ebp], 0

; 1002 : 			if (_Signed)

  00086	eb ef		 jmp	 SHORT $L25536
$L25537:

; 1004 : 
; 1005 : 			for (; 1e35 <= _Val && _Beforepoint < 5000; _Beforepoint += 10)

  00088	39 5d 80	 cmp	 DWORD PTR __Beforepoint$[ebp], ebx
  0008b	73 18		 jae	 SHORT $L25539

; 1006 : 				_Val /= 1e10;	// drop 10 zeros before decimal point

  0008d	dc 0d 00 00 00
	00		 fmul	 QWORD PTR __real@3ddb7cdfd9d7bdbb
  00093	01 55 80	 add	 DWORD PTR __Beforepoint$[ebp], edx
$L60641:
  00096	dd 05 00 00 00
	00		 fld	 QWORD PTR __real@4733426172c74d82
  0009c	d8 d9		 fcomp	 ST(1)
  0009e	df e0		 fnstsw	 ax
  000a0	f6 c4 41	 test	 ah, 65			; 00000041H
  000a3	7b e3		 jnp	 SHORT $L25537
$L25539:

; 1007 : 
; 1008 : 			if (0 < _Val)

  000a5	d9 ee		 fldz
  000a7	d8 d9		 fcomp	 ST(1)
  000a9	df e0		 fnstsw	 ax
  000ab	f6 c4 05	 test	 ah, 5
  000ae	7a 23		 jp	 SHORT $L25543
  000b0	eb 1d		 jmp	 SHORT $L60642
$L25541:

; 1009 : 				for (; 10 <= _Precision && _Val <= 1e-35
; 1010 : 					&& _Afterpoint < 5000; _Afterpoint += 10)

  000b2	dc 15 00 00 00
	00		 fcom	 QWORD PTR __real@38aa95a5b7f87a0f
  000b8	df e0		 fnstsw	 ax
  000ba	f6 c4 41	 test	 ah, 65			; 00000041H
  000bd	7a 14		 jp	 SHORT $L25543
  000bf	39 5d 84	 cmp	 DWORD PTR __Afterpoint$[ebp], ebx
  000c2	73 0f		 jae	 SHORT $L25543

; 1011 : 					{	// drop 10 zeros after decimal point
; 1012 : 					_Val *= 1e10;

  000c4	dc 0d 00 00 00
	00		 fmul	 QWORD PTR __real@4202a05f20000000

; 1013 : 					_Precision -= 10;

  000ca	2b fa		 sub	 edi, edx
  000cc	01 55 84	 add	 DWORD PTR __Afterpoint$[ebp], edx
$L60642:

; 1009 : 				for (; 10 <= _Precision && _Val <= 1e-35
; 1010 : 					&& _Afterpoint < 5000; _Afterpoint += 10)

  000cf	3b fa		 cmp	 edi, edx
  000d1	7d df		 jge	 SHORT $L25541
$L25543:

; 1014 : 					}
; 1015 : 
; 1016 : 			if (_Signed)

  000d3	80 7d 17 00	 cmp	 BYTE PTR __Signed$25535[ebp], 0
  000d7	5b		 pop	 ebx
  000d8	74 06		 je	 SHORT $L60638

; 1017 : 				_Val = -_Val;

  000da	d9 c0		 fld	 ST(0)
  000dc	d9 e0		 fchs
  000de	dd d9		 fstp	 ST(1)
$L60638:

; 1018 : 			}
; 1019 : 
; 1020 : 		return (_Fput(_Dest, _Iosbase, _Fill, _Buf,
; 1021 : 			_Beforepoint, _Afterpoint, _Precision,
; 1022 : 				::sprintf(_Buf, _Ffmt(_Fmt, 'L', _Iosbase.flags()),
; 1023 : 					_Significance, _Val)));	// convert and put

  000e0	51		 push	 ecx
  000e1	51		 push	 ecx
  000e2	dd 1c 24	 fstp	 QWORD PTR [esp]
  000e5	ff 75 f8	 push	 DWORD PTR __Significance$[ebp]
  000e8	8d 45 f4	 lea	 eax, DWORD PTR __Fmt$[ebp]
  000eb	51		 push	 ecx
  000ec	6a 4c		 push	 76			; 0000004cH
  000ee	50		 push	 eax
  000ef	ff b5 7c ff ff
	ff		 push	 DWORD PTR _this$[ebp]
  000f5	e8 00 00 00 00	 call	 ?_Ffmt@?$num_put@DV?$ostreambuf_iterator@DU?$char_traits@D@std@@@std@@@std@@ABAPADPADDH@Z ; std::num_put<char,std::ostreambuf_iterator<char,std::char_traits<char> > >::_Ffmt
  000fa	83 c4 10	 add	 esp, 16			; 00000010H
  000fd	50		 push	 eax
  000fe	8d 45 88	 lea	 eax, DWORD PTR __Buf$[ebp]
  00101	50		 push	 eax
  00102	e8 00 00 00 00	 call	 _sprintf
  00107	50		 push	 eax
  00108	57		 push	 edi
  00109	ff 75 84	 push	 DWORD PTR __Afterpoint$[ebp]
  0010c	8d 45 88	 lea	 eax, DWORD PTR __Buf$[ebp]
  0010f	ff 75 80	 push	 DWORD PTR __Beforepoint$[ebp]
  00112	50		 push	 eax
  00113	ff 75 18	 push	 DWORD PTR __Fill$[ebp]
  00116	56		 push	 esi
  00117	ff 75 10	 push	 DWORD PTR __Dest$[ebp+4]
  0011a	ff 75 0c	 push	 DWORD PTR __Dest$[ebp]
  0011d	ff 75 08	 push	 DWORD PTR ___$ReturnUdt$[ebp]
  00120	ff b5 7c ff ff
	ff		 push	 DWORD PTR _this$[ebp]
  00126	e8 00 00 00 00	 call	 ?_Fput@?$num_put@DV?$ostreambuf_iterator@DU?$char_traits@D@std@@@std@@@std@@ABA?AV?$ostreambuf_iterator@DU?$char_traits@D@std@@@2@V32@AAVios_base@2@DPBDIIII@Z ; std::num_put<char,std::ostreambuf_iterator<char,std::char_traits<char> > >::_Fput

; 1024 : 		}

  0012b	8b 4d fc	 mov	 ecx, DWORD PTR __$ArrayPad$[ebp]
  0012e	8b 45 08	 mov	 eax, DWORD PTR ___$ReturnUdt$[ebp]
  00131	83 c4 40	 add	 esp, 64			; 00000040H
  00134	5f		 pop	 edi
  00135	5e		 pop	 esi
  00136	e8 00 00 00 00	 call	 @__security_check_cookie@4
  0013b	c9		 leave
  0013c	c2 1c 00	 ret	 28			; 0000001cH
?do_put@?$num_put@DV?$ostreambuf_iterator@DU?$char_traits@D@std@@@std@@@std@@MBE?AV?$ostreambuf_iterator@DU?$char_traits@D@std@@@2@V32@AAVios_base@2@DO@Z ENDP ; std::num_put<char,std::ostreambuf_iterator<char,std::char_traits<char> > >::do_put
; Function compile flags: /Ogsy
_TEXT	ENDS
;	COMDAT ?do_put@?$num_put@DV?$ostreambuf_iterator@DU?$char_traits@D@std@@@std@@@std@@MBE?AV?$ostreambuf_iterator@DU?$char_traits@D@std@@@2@V32@AAVios_base@2@DN@Z
_TEXT	SEGMENT
_this$ = -128						; size = 4
__Beforepoint$ = -124					; size = 4
__Buf$ = -120						; size = 108
__Fmt$ = -12						; size = 8
__Significance$ = -8					; size = 4
__$ArrayPad$ = -4					; size = 4
__$ReturnAddr$ = 4					; size = 4
___$ReturnUdt$ = 8					; size = 4
__Dest$ = 12						; size = 8
__Iosbase$ = 20						; size = 4
__Signed$25513 = 23					; size = 1
__Fill$ = 24						; size = 1
__Val$ = 28						; size = 8
?do_put@?$num_put@DV?$ostreambuf_iterator@DU?$char_traits@D@std@@@std@@@std@@MBE?AV?$ostreambuf_iterator@DU?$char_traits@D@std@@@2@V32@AAVios_base@2@DN@Z PROC NEAR ; std::num_put<char,std::ostreambuf_iterator<char,std::char_traits<char> > >::do_put, COMDAT
; _this$ = ecx

; 948  : 		{	// put formatted double to _Dest

  00000	55		 push	 ebp
  00001	8b ec		 mov	 ebp, esp
  00003	81 ec 80 00 00
	00		 sub	 esp, 128		; 00000080H
  00009	a1 00 00 00 00	 mov	 eax, DWORD PTR ___security_cookie
  0000e	53		 push	 ebx
  0000f	56		 push	 esi

; 949  : 		char _Buf[_MAX_EXP_DIG + _MAX_SIG_DIG + 64], _Fmt[8];
; 950  : 		streamsize _Precision = _Iosbase.precision() <= 0
; 951  : 			&& !(_Iosbase.flags() & ios_base::fixed)
; 952  : 				? 6 : _Iosbase.precision();	// desired precision

  00010	8b 75 14	 mov	 esi, DWORD PTR __Iosbase$[ebp]
  00013	89 4d 80	 mov	 DWORD PTR _this$[ebp], ecx
  00016	8b 4e 14	 mov	 ecx, DWORD PTR [esi+20]
  00019	33 db		 xor	 ebx, ebx
  0001b	3b cb		 cmp	 ecx, ebx
  0001d	89 45 fc	 mov	 DWORD PTR __$ArrayPad$[ebp], eax
  00020	57		 push	 edi
  00021	b8 00 20 00 00	 mov	 eax, 8192		; 00002000H
  00026	7f 08		 jg	 SHORT $L60663
  00028	85 46 10	 test	 DWORD PTR [esi+16], eax
  0002b	75 03		 jne	 SHORT $L60663
  0002d	6a 06		 push	 6
  0002f	59		 pop	 ecx
$L60663:
  00030	8b f9		 mov	 edi, ecx

; 953  : 		int _Significance = _MAX_SIG_DIG < _Precision
; 954  : 			? _MAX_SIG_DIG : (int)_Precision;	// actual sprintf precision

  00032	6a 24		 push	 36			; 00000024H
  00034	59		 pop	 ecx
  00035	3b f9		 cmp	 edi, ecx
  00037	89 4d f8	 mov	 DWORD PTR __Significance$[ebp], ecx
  0003a	7f 03		 jg	 SHORT $L60650
  0003c	89 7d f8	 mov	 DWORD PTR __Significance$[ebp], edi
$L60650:

; 955  : 		_Precision -= _Significance;
; 956  : 		size_t _Beforepoint = 0;	// zeros to add before decimal point
; 957  : 		size_t _Afterpoint = 0;	// zeros to add after decimal point
; 958  : 
; 959  : 		if ((_Iosbase.flags() & ios_base::floatfield) == ios_base::fixed)

  0003f	8b 4e 10	 mov	 ecx, DWORD PTR [esi+16]

; 960  : 			{	// scale silly fixed-point value
; 961  : 			bool _Signed = _Val < 0;

  00042	dd 45 1c	 fld	 QWORD PTR __Val$[ebp]
  00045	2b 7d f8	 sub	 edi, DWORD PTR __Significance$[ebp]
  00048	8b d1		 mov	 edx, ecx
  0004a	81 e2 00 30 00
	00		 and	 edx, 12288		; 00003000H
  00050	3b d0		 cmp	 edx, eax
  00052	89 5d 84	 mov	 DWORD PTR __Beforepoint$[ebp], ebx
  00055	75 7f		 jne	 SHORT $L25522
  00057	dc 15 00 00 00
	00		 fcom	 QWORD PTR __real@0000000000000000
  0005d	df e0		 fnstsw	 ax
  0005f	f6 c4 05	 test	 ah, 5
  00062	7a 0f		 jp	 SHORT $L60651

; 963  : 				_Val = -_Val;

  00064	d9 c0		 fld	 ST(0)
  00066	c6 45 17 01	 mov	 BYTE PTR __Signed$25513[ebp], 1
  0006a	d9 e0		 fchs
  0006c	dd d9		 fstp	 ST(1)
$L25514:

; 964  : 
; 965  : 			for (; 1e35 <= _Val && _Beforepoint < 5000; _Beforepoint += 10)

  0006e	6a 0a		 push	 10			; 0000000aH
  00070	5a		 pop	 edx
  00071	eb 18		 jmp	 SHORT $L60681
$L60651:

; 960  : 			{	// scale silly fixed-point value
; 961  : 			bool _Signed = _Val < 0;

  00073	c6 45 17 00	 mov	 BYTE PTR __Signed$25513[ebp], 0

; 962  : 			if (_Signed)

  00077	eb f5		 jmp	 SHORT $L25514
$L25515:

; 964  : 
; 965  : 			for (; 1e35 <= _Val && _Beforepoint < 5000; _Beforepoint += 10)

  00079	81 7d 84 88 13
	00 00		 cmp	 DWORD PTR __Beforepoint$[ebp], 5000 ; 00001388H
  00080	73 18		 jae	 SHORT $L25517

; 966  : 				_Val /= 1e10;	// drop 10 zeros before decimal point

  00082	dc 0d 00 00 00
	00		 fmul	 QWORD PTR __real@3ddb7cdfd9d7bdbb
  00088	01 55 84	 add	 DWORD PTR __Beforepoint$[ebp], edx
$L60681:
  0008b	dd 05 00 00 00
	00		 fld	 QWORD PTR __real@4733426172c74d82
  00091	d8 d9		 fcomp	 ST(1)
  00093	df e0		 fnstsw	 ax
  00095	f6 c4 41	 test	 ah, 65			; 00000041H
  00098	7b df		 jnp	 SHORT $L25515
$L25517:

; 967  : 
; 968  : 			if (0 < _Val)

  0009a	d9 ee		 fldz
  0009c	d8 d9		 fcomp	 ST(1)
  0009e	df e0		 fnstsw	 ax
  000a0	f6 c4 05	 test	 ah, 5
  000a3	7a 25		 jp	 SHORT $L25521
  000a5	eb 1f		 jmp	 SHORT $L60682
$L25519:

; 969  : 				for (; 10 <= _Precision && _Val <= 1e-35
; 970  : 					&& _Afterpoint < 5000; _Afterpoint += 10)

  000a7	dc 15 00 00 00
	00		 fcom	 QWORD PTR __real@38aa95a5b7f87a0f
  000ad	df e0		 fnstsw	 ax
  000af	f6 c4 41	 test	 ah, 65			; 00000041H
  000b2	7a 16		 jp	 SHORT $L25521
  000b4	81 fb 88 13 00
	00		 cmp	 ebx, 5000		; 00001388H
  000ba	73 0e		 jae	 SHORT $L25521

; 971  : 					{	// drop 10 zeros after decimal point
; 972  : 					_Val *= 1e10;

  000bc	dc 0d 00 00 00
	00		 fmul	 QWORD PTR __real@4202a05f20000000

; 973  : 					_Precision -= 10;

  000c2	2b fa		 sub	 edi, edx
  000c4	03 da		 add	 ebx, edx
$L60682:

; 969  : 				for (; 10 <= _Precision && _Val <= 1e-35
; 970  : 					&& _Afterpoint < 5000; _Afterpoint += 10)

  000c6	3b fa		 cmp	 edi, edx
  000c8	7d dd		 jge	 SHORT $L25519
$L25521:

; 974  : 					}
; 975  : 
; 976  : 			if (_Signed)

  000ca	80 7d 17 00	 cmp	 BYTE PTR __Signed$25513[ebp], 0
  000ce	74 06		 je	 SHORT $L25522

; 977  : 				_Val = -_Val;

  000d0	d9 c0		 fld	 ST(0)
  000d2	d9 e0		 fchs
  000d4	dd d9		 fstp	 ST(1)
$L25522:

; 978  : 			}
; 979  : 
; 980  : 		return (_Fput(_Dest, _Iosbase, _Fill, _Buf,
; 981  : 			_Beforepoint, _Afterpoint, _Precision,
; 982  : 				::sprintf(_Buf, _Ffmt(_Fmt, 0, _Iosbase.flags()),
; 983  : 					_Significance, _Val)));	// convert and put

  000d6	51		 push	 ecx
  000d7	51		 push	 ecx
  000d8	dd 1c 24	 fstp	 QWORD PTR [esp]
  000db	ff 75 f8	 push	 DWORD PTR __Significance$[ebp]
  000de	8d 45 f4	 lea	 eax, DWORD PTR __Fmt$[ebp]
  000e1	51		 push	 ecx
  000e2	6a 00		 push	 0
  000e4	50		 push	 eax
  000e5	ff 75 80	 push	 DWORD PTR _this$[ebp]
  000e8	e8 00 00 00 00	 call	 ?_Ffmt@?$num_put@DV?$ostreambuf_iterator@DU?$char_traits@D@std@@@std@@@std@@ABAPADPADDH@Z ; std::num_put<char,std::ostreambuf_iterator<char,std::char_traits<char> > >::_Ffmt
  000ed	83 c4 10	 add	 esp, 16			; 00000010H
  000f0	50		 push	 eax
  000f1	8d 45 88	 lea	 eax, DWORD PTR __Buf$[ebp]
  000f4	50		 push	 eax
  000f5	e8 00 00 00 00	 call	 _sprintf
  000fa	50		 push	 eax
  000fb	57		 push	 edi
  000fc	53		 push	 ebx
  000fd	ff 75 84	 push	 DWORD PTR __Beforepoint$[ebp]
  00100	8d 45 88	 lea	 eax, DWORD PTR __Buf$[ebp]
  00103	50		 push	 eax
  00104	ff 75 18	 push	 DWORD PTR __Fill$[ebp]
  00107	56		 push	 esi
  00108	ff 75 10	 push	 DWORD PTR __Dest$[ebp+4]
  0010b	ff 75 0c	 push	 DWORD PTR __Dest$[ebp]
  0010e	ff 75 08	 push	 DWORD PTR ___$ReturnUdt$[ebp]
  00111	ff 75 80	 push	 DWORD PTR _this$[ebp]
  00114	e8 00 00 00 00	 call	 ?_Fput@?$num_put@DV?$ostreambuf_iterator@DU?$char_traits@D@std@@@std@@@std@@ABA?AV?$ostreambuf_iterator@DU?$char_traits@D@std@@@2@V32@AAVios_base@2@DPBDIIII@Z ; std::num_put<char,std::ostreambuf_iterator<char,std::char_traits<char> > >::_Fput

; 984  : 		}

  00119	8b 4d fc	 mov	 ecx, DWORD PTR __$ArrayPad$[ebp]
  0011c	8b 45 08	 mov	 eax, DWORD PTR ___$ReturnUdt$[ebp]
  0011f	83 c4 40	 add	 esp, 64			; 00000040H
  00122	5f		 pop	 edi
  00123	5e		 pop	 esi
  00124	5b		 pop	 ebx
  00125	e8 00 00 00 00	 call	 @__security_check_cookie@4
  0012a	c9		 leave
  0012b	c2 1c 00	 ret	 28			; 0000001cH
?do_put@?$num_put@DV?$ostreambuf_iterator@DU?$char_traits@D@std@@@std@@@std@@MBE?AV?$ostreambuf_iterator@DU?$char_traits@D@std@@@2@V32@AAVios_base@2@DN@Z ENDP ; std::num_put<char,std::ostreambuf_iterator<char,std::char_traits<char> > >::do_put
; Function compile flags: /Ogsy
_TEXT	ENDS
;	COMDAT ?do_put@?$num_put@DV?$ostreambuf_iterator@DU?$char_traits@D@std@@@std@@@std@@MBE?AV?$ostreambuf_iterator@DU?$char_traits@D@std@@@2@V32@AAVios_base@2@D_K@Z
_TEXT	SEGMENT
__Buf$ = -76						; size = 64
__Fmt$ = -12						; size = 8
__$ArrayPad$ = -4					; size = 4
__$ReturnAddr$ = 4					; size = 4
___$ReturnUdt$ = 8					; size = 4
__Dest$ = 12						; size = 8
__Iosbase$ = 20						; size = 4
__Fill$ = 24						; size = 1
__Val$ = 28						; size = 8
?do_put@?$num_put@DV?$ostreambuf_iterator@DU?$char_traits@D@std@@@std@@@std@@MBE?AV?$ostreambuf_iterator@DU?$char_traits@D@std@@@2@V32@AAVios_base@2@D_K@Z PROC NEAR ; std::num_put<char,std::ostreambuf_iterator<char,std::char_traits<char> > >::do_put, COMDAT
; _this$ = ecx

; 938  : 		{	// put formatted unsigned long long to _Dest

  00000	55		 push	 ebp
  00001	8b ec		 mov	 ebp, esp
  00003	83 ec 4c	 sub	 esp, 76			; 0000004cH
  00006	a1 00 00 00 00	 mov	 eax, DWORD PTR ___security_cookie
  0000b	56		 push	 esi

; 939  : 		char _Buf[2 * _MAX_INT_DIG], _Fmt[8];
; 940  : 		return (_Iput(_Dest, _Iosbase, _Fill, _Buf,
; 941  : 			::sprintf(_Buf, _Ifmt(_Fmt, "Lu",
; 942  : 				_Iosbase.flags()), _Val)));

  0000c	8b 75 14	 mov	 esi, DWORD PTR __Iosbase$[ebp]
  0000f	57		 push	 edi
  00010	ff 75 20	 push	 DWORD PTR __Val$[ebp+4]
  00013	89 45 fc	 mov	 DWORD PTR __$ArrayPad$[ebp], eax
  00016	ff 75 1c	 push	 DWORD PTR __Val$[ebp]
  00019	8b 46 10	 mov	 eax, DWORD PTR [esi+16]
  0001c	50		 push	 eax
  0001d	68 00 00 00 00	 push	 OFFSET FLAT:??_C@_02CLHGNPPK@Lu?$AA@
  00022	8d 45 f4	 lea	 eax, DWORD PTR __Fmt$[ebp]
  00025	8b f9		 mov	 edi, ecx
  00027	50		 push	 eax
  00028	57		 push	 edi
  00029	e8 00 00 00 00	 call	 ?_Ifmt@?$num_put@DV?$ostreambuf_iterator@DU?$char_traits@D@std@@@std@@@std@@ABAPADPADPBDH@Z ; std::num_put<char,std::ostreambuf_iterator<char,std::char_traits<char> > >::_Ifmt
  0002e	83 c4 10	 add	 esp, 16			; 00000010H
  00031	50		 push	 eax
  00032	8d 45 b4	 lea	 eax, DWORD PTR __Buf$[ebp]
  00035	50		 push	 eax
  00036	e8 00 00 00 00	 call	 _sprintf
  0003b	50		 push	 eax
  0003c	8d 45 b4	 lea	 eax, DWORD PTR __Buf$[ebp]
  0003f	50		 push	 eax
  00040	ff 75 18	 push	 DWORD PTR __Fill$[ebp]
  00043	56		 push	 esi
  00044	ff 75 10	 push	 DWORD PTR __Dest$[ebp+4]
  00047	ff 75 0c	 push	 DWORD PTR __Dest$[ebp]
  0004a	ff 75 08	 push	 DWORD PTR ___$ReturnUdt$[ebp]
  0004d	57		 push	 edi
  0004e	e8 00 00 00 00	 call	 ?_Iput@?$num_put@DV?$ostreambuf_iterator@DU?$char_traits@D@std@@@std@@@std@@ABA?AV?$ostreambuf_iterator@DU?$char_traits@D@std@@@2@V32@AAVios_base@2@DPADI@Z ; std::num_put<char,std::ostreambuf_iterator<char,std::char_traits<char> > >::_Iput

; 943  : 		}

  00053	8b 4d fc	 mov	 ecx, DWORD PTR __$ArrayPad$[ebp]
  00056	8b 45 08	 mov	 eax, DWORD PTR ___$ReturnUdt$[ebp]
  00059	83 c4 30	 add	 esp, 48			; 00000030H
  0005c	5f		 pop	 edi
  0005d	5e		 pop	 esi
  0005e	e8 00 00 00 00	 call	 @__security_check_cookie@4
  00063	c9		 leave
  00064	c2 1c 00	 ret	 28			; 0000001cH
?do_put@?$num_put@DV?$ostreambuf_iterator@DU?$char_traits@D@std@@@std@@@std@@MBE?AV?$ostreambuf_iterator@DU?$char_traits@D@std@@@2@V32@AAVios_base@2@D_K@Z ENDP ; std::num_put<char,std::ostreambuf_iterator<char,std::char_traits<char> > >::do_put
; Function compile flags: /Ogsy
_TEXT	ENDS
;	COMDAT ?do_put@?$num_put@DV?$ostreambuf_iterator@DU?$char_traits@D@std@@@std@@@std@@MBE?AV?$ostreambuf_iterator@DU?$char_traits@D@std@@@2@V32@AAVios_base@2@D_J@Z
_TEXT	SEGMENT
__Buf$ = -76						; size = 64
__Fmt$ = -12						; size = 8
__$ArrayPad$ = -4					; size = 4
__$ReturnAddr$ = 4					; size = 4
___$ReturnUdt$ = 8					; size = 4
__Dest$ = 12						; size = 8
__Iosbase$ = 20						; size = 4
__Fill$ = 24						; size = 1
__Val$ = 28						; size = 8
?do_put@?$num_put@DV?$ostreambuf_iterator@DU?$char_traits@D@std@@@std@@@std@@MBE?AV?$ostreambuf_iterator@DU?$char_traits@D@std@@@2@V32@AAVios_base@2@D_J@Z PROC NEAR ; std::num_put<char,std::ostreambuf_iterator<char,std::char_traits<char> > >::do_put, COMDAT
; _this$ = ecx

; 929  : 		{	// put formatted long long to _Dest

  00000	55		 push	 ebp
  00001	8b ec		 mov	 ebp, esp
  00003	83 ec 4c	 sub	 esp, 76			; 0000004cH
  00006	a1 00 00 00 00	 mov	 eax, DWORD PTR ___security_cookie
  0000b	56		 push	 esi

; 930  : 		char _Buf[2 * _MAX_INT_DIG], _Fmt[8];
; 931  : 		return (_Iput(_Dest, _Iosbase, _Fill, _Buf,
; 932  : 			::sprintf(_Buf, _Ifmt(_Fmt, "Ld",
; 933  : 				_Iosbase.flags()), _Val)));

  0000c	8b 75 14	 mov	 esi, DWORD PTR __Iosbase$[ebp]
  0000f	57		 push	 edi
  00010	ff 75 20	 push	 DWORD PTR __Val$[ebp+4]
  00013	89 45 fc	 mov	 DWORD PTR __$ArrayPad$[ebp], eax
  00016	ff 75 1c	 push	 DWORD PTR __Val$[ebp]
  00019	8b 46 10	 mov	 eax, DWORD PTR [esi+16]
  0001c	50		 push	 eax
  0001d	68 00 00 00 00	 push	 OFFSET FLAT:??_C@_02HIKPPMOK@Ld?$AA@
  00022	8d 45 f4	 lea	 eax, DWORD PTR __Fmt$[ebp]
  00025	8b f9		 mov	 edi, ecx
  00027	50		 push	 eax
  00028	57		 push	 edi
  00029	e8 00 00 00 00	 call	 ?_Ifmt@?$num_put@DV?$ostreambuf_iterator@DU?$char_traits@D@std@@@std@@@std@@ABAPADPADPBDH@Z ; std::num_put<char,std::ostreambuf_iterator<char,std::char_traits<char> > >::_Ifmt
  0002e	83 c4 10	 add	 esp, 16			; 00000010H
  00031	50		 push	 eax
  00032	8d 45 b4	 lea	 eax, DWORD PTR __Buf$[ebp]
  00035	50		 push	 eax
  00036	e8 00 00 00 00	 call	 _sprintf
  0003b	50		 push	 eax
  0003c	8d 45 b4	 lea	 eax, DWORD PTR __Buf$[ebp]
  0003f	50		 push	 eax
  00040	ff 75 18	 push	 DWORD PTR __Fill$[ebp]
  00043	56		 push	 esi
  00044	ff 75 10	 push	 DWORD PTR __Dest$[ebp+4]
  00047	ff 75 0c	 push	 DWORD PTR __Dest$[ebp]
  0004a	ff 75 08	 push	 DWORD PTR ___$ReturnUdt$[ebp]
  0004d	57		 push	 edi
  0004e	e8 00 00 00 00	 call	 ?_Iput@?$num_put@DV?$ostreambuf_iterator@DU?$char_traits@D@std@@@std@@@std@@ABA?AV?$ostreambuf_iterator@DU?$char_traits@D@std@@@2@V32@AAVios_base@2@DPADI@Z ; std::num_put<char,std::ostreambuf_iterator<char,std::char_traits<char> > >::_Iput

; 934  : 		}

  00053	8b 4d fc	 mov	 ecx, DWORD PTR __$ArrayPad$[ebp]
  00056	8b 45 08	 mov	 eax, DWORD PTR ___$ReturnUdt$[ebp]
  00059	83 c4 30	 add	 esp, 48			; 00000030H
  0005c	5f		 pop	 edi
  0005d	5e		 pop	 esi
  0005e	e8 00 00 00 00	 call	 @__security_check_cookie@4
  00063	c9		 leave
  00064	c2 1c 00	 ret	 28			; 0000001cH
?do_put@?$num_put@DV?$ostreambuf_iterator@DU?$char_traits@D@std@@@std@@@std@@MBE?AV?$ostreambuf_iterator@DU?$char_traits@D@std@@@2@V32@AAVios_base@2@D_J@Z ENDP ; std::num_put<char,std::ostreambuf_iterator<char,std::char_traits<char> > >::do_put
; Function compile flags: /Ogsy
_TEXT	ENDS
;	COMDAT ?do_put@?$num_put@DV?$ostreambuf_iterator@DU?$char_traits@D@std@@@std@@@std@@MBE?AV?$ostreambuf_iterator@DU?$char_traits@D@std@@@2@V32@AAVios_base@2@DK@Z
_TEXT	SEGMENT
__Buf$ = -76						; size = 64
__Fmt$ = -12						; size = 6
__$ArrayPad$ = -4					; size = 4
__$ReturnAddr$ = 4					; size = 4
___$ReturnUdt$ = 8					; size = 4
__Dest$ = 12						; size = 8
__Iosbase$ = 20						; size = 4
__Fill$ = 24						; size = 1
__Val$ = 28						; size = 4
?do_put@?$num_put@DV?$ostreambuf_iterator@DU?$char_traits@D@std@@@std@@@std@@MBE?AV?$ostreambuf_iterator@DU?$char_traits@D@std@@@2@V32@AAVios_base@2@DK@Z PROC NEAR ; std::num_put<char,std::ostreambuf_iterator<char,std::char_traits<char> > >::do_put, COMDAT
; _this$ = ecx

; 919  : 		{	// put formatted unsigned long to _Dest

  00000	55		 push	 ebp
  00001	8b ec		 mov	 ebp, esp
  00003	83 ec 4c	 sub	 esp, 76			; 0000004cH
  00006	a1 00 00 00 00	 mov	 eax, DWORD PTR ___security_cookie
  0000b	56		 push	 esi

; 920  : 		char _Buf[2 * _MAX_INT_DIG], _Fmt[6];
; 921  : 		return (_Iput(_Dest, _Iosbase, _Fill, _Buf,
; 922  : 			::sprintf(_Buf, _Ifmt(_Fmt, "lu",
; 923  : 				_Iosbase.flags()), _Val)));

  0000c	8b 75 14	 mov	 esi, DWORD PTR __Iosbase$[ebp]
  0000f	57		 push	 edi
  00010	ff 75 1c	 push	 DWORD PTR __Val$[ebp]
  00013	89 45 fc	 mov	 DWORD PTR __$ArrayPad$[ebp], eax
  00016	8b 46 10	 mov	 eax, DWORD PTR [esi+16]
  00019	50		 push	 eax
  0001a	68 00 00 00 00	 push	 OFFSET FLAT:??_C@_02BDDLJJBK@lu?$AA@
  0001f	8d 45 f4	 lea	 eax, DWORD PTR __Fmt$[ebp]
  00022	8b f9		 mov	 edi, ecx
  00024	50		 push	 eax
  00025	57		 push	 edi
  00026	e8 00 00 00 00	 call	 ?_Ifmt@?$num_put@DV?$ostreambuf_iterator@DU?$char_traits@D@std@@@std@@@std@@ABAPADPADPBDH@Z ; std::num_put<char,std::ostreambuf_iterator<char,std::char_traits<char> > >::_Ifmt
  0002b	83 c4 10	 add	 esp, 16			; 00000010H
  0002e	50		 push	 eax
  0002f	8d 45 b4	 lea	 eax, DWORD PTR __Buf$[ebp]
  00032	50		 push	 eax
  00033	e8 00 00 00 00	 call	 _sprintf
  00038	50		 push	 eax
  00039	8d 45 b4	 lea	 eax, DWORD PTR __Buf$[ebp]
  0003c	50		 push	 eax
  0003d	ff 75 18	 push	 DWORD PTR __Fill$[ebp]
  00040	56		 push	 esi
  00041	ff 75 10	 push	 DWORD PTR __Dest$[ebp+4]
  00044	ff 75 0c	 push	 DWORD PTR __Dest$[ebp]
  00047	ff 75 08	 push	 DWORD PTR ___$ReturnUdt$[ebp]
  0004a	57		 push	 edi
  0004b	e8 00 00 00 00	 call	 ?_Iput@?$num_put@DV?$ostreambuf_iterator@DU?$char_traits@D@std@@@std@@@std@@ABA?AV?$ostreambuf_iterator@DU?$char_traits@D@std@@@2@V32@AAVios_base@2@DPADI@Z ; std::num_put<char,std::ostreambuf_iterator<char,std::char_traits<char> > >::_Iput

; 924  : 		}

  00050	8b 4d fc	 mov	 ecx, DWORD PTR __$ArrayPad$[ebp]
  00053	8b 45 08	 mov	 eax, DWORD PTR ___$ReturnUdt$[ebp]
  00056	83 c4 2c	 add	 esp, 44			; 0000002cH
  00059	5f		 pop	 edi
  0005a	5e		 pop	 esi
  0005b	e8 00 00 00 00	 call	 @__security_check_cookie@4
  00060	c9		 leave
  00061	c2 18 00	 ret	 24			; 00000018H
?do_put@?$num_put@DV?$ostreambuf_iterator@DU?$char_traits@D@std@@@std@@@std@@MBE?AV?$ostreambuf_iterator@DU?$char_traits@D@std@@@2@V32@AAVios_base@2@DK@Z ENDP ; std::num_put<char,std::ostreambuf_iterator<char,std::char_traits<char> > >::do_put
; Function compile flags: /Ogsy
_TEXT	ENDS
;	COMDAT ?do_put@?$num_put@DV?$ostreambuf_iterator@DU?$char_traits@D@std@@@std@@@std@@MBE?AV?$ostreambuf_iterator@DU?$char_traits@D@std@@@2@V32@AAVios_base@2@DJ@Z
_TEXT	SEGMENT
__Buf$ = -76						; size = 64
__Fmt$ = -12						; size = 6
__$ArrayPad$ = -4					; size = 4
__$ReturnAddr$ = 4					; size = 4
___$ReturnUdt$ = 8					; size = 4
__Dest$ = 12						; size = 8
__Iosbase$ = 20						; size = 4
__Fill$ = 24						; size = 1
__Val$ = 28						; size = 4
?do_put@?$num_put@DV?$ostreambuf_iterator@DU?$char_traits@D@std@@@std@@@std@@MBE?AV?$ostreambuf_iterator@DU?$char_traits@D@std@@@2@V32@AAVios_base@2@DJ@Z PROC NEAR ; std::num_put<char,std::ostreambuf_iterator<char,std::char_traits<char> > >::do_put, COMDAT
; _this$ = ecx

; 910  : 		{	// put formatted long to _Dest

  00000	55		 push	 ebp
  00001	8b ec		 mov	 ebp, esp
  00003	83 ec 4c	 sub	 esp, 76			; 0000004cH
  00006	a1 00 00 00 00	 mov	 eax, DWORD PTR ___security_cookie
  0000b	56		 push	 esi

; 911  : 		char _Buf[2 * _MAX_INT_DIG], _Fmt[6];
; 912  : 		return (_Iput(_Dest, _Iosbase, _Fill, _Buf,
; 913  : 			::sprintf(_Buf, _Ifmt(_Fmt, "ld",
; 914  : 				_Iosbase.flags()), _Val)));

  0000c	8b 75 14	 mov	 esi, DWORD PTR __Iosbase$[ebp]
  0000f	57		 push	 edi
  00010	ff 75 1c	 push	 DWORD PTR __Val$[ebp]
  00013	89 45 fc	 mov	 DWORD PTR __$ArrayPad$[ebp], eax
  00016	8b 46 10	 mov	 eax, DWORD PTR [esi+16]
  00019	50		 push	 eax
  0001a	68 00 00 00 00	 push	 OFFSET FLAT:??_C@_02EAOCLKAK@ld?$AA@
  0001f	8d 45 f4	 lea	 eax, DWORD PTR __Fmt$[ebp]
  00022	8b f9		 mov	 edi, ecx
  00024	50		 push	 eax
  00025	57		 push	 edi
  00026	e8 00 00 00 00	 call	 ?_Ifmt@?$num_put@DV?$ostreambuf_iterator@DU?$char_traits@D@std@@@std@@@std@@ABAPADPADPBDH@Z ; std::num_put<char,std::ostreambuf_iterator<char,std::char_traits<char> > >::_Ifmt
  0002b	83 c4 10	 add	 esp, 16			; 00000010H
  0002e	50		 push	 eax
  0002f	8d 45 b4	 lea	 eax, DWORD PTR __Buf$[ebp]
  00032	50		 push	 eax
  00033	e8 00 00 00 00	 call	 _sprintf
  00038	50		 push	 eax
  00039	8d 45 b4	 lea	 eax, DWORD PTR __Buf$[ebp]
  0003c	50		 push	 eax
  0003d	ff 75 18	 push	 DWORD PTR __Fill$[ebp]
  00040	56		 push	 esi
  00041	ff 75 10	 push	 DWORD PTR __Dest$[ebp+4]
  00044	ff 75 0c	 push	 DWORD PTR __Dest$[ebp]
  00047	ff 75 08	 push	 DWORD PTR ___$ReturnUdt$[ebp]
  0004a	57		 push	 edi
  0004b	e8 00 00 00 00	 call	 ?_Iput@?$num_put@DV?$ostreambuf_iterator@DU?$char_traits@D@std@@@std@@@std@@ABA?AV?$ostreambuf_iterator@DU?$char_traits@D@std@@@2@V32@AAVios_base@2@DPADI@Z ; std::num_put<char,std::ostreambuf_iterator<char,std::char_traits<char> > >::_Iput

; 915  : 		}

  00050	8b 4d fc	 mov	 ecx, DWORD PTR __$ArrayPad$[ebp]
  00053	8b 45 08	 mov	 eax, DWORD PTR ___$ReturnUdt$[ebp]
  00056	83 c4 2c	 add	 esp, 44			; 0000002cH
  00059	5f		 pop	 edi
  0005a	5e		 pop	 esi
  0005b	e8 00 00 00 00	 call	 @__security_check_cookie@4
  00060	c9		 leave
  00061	c2 18 00	 ret	 24			; 00000018H
?do_put@?$num_put@DV?$ostreambuf_iterator@DU?$char_traits@D@std@@@std@@@std@@MBE?AV?$ostreambuf_iterator@DU?$char_traits@D@std@@@2@V32@AAVios_base@2@DJ@Z ENDP ; std::num_put<char,std::ostreambuf_iterator<char,std::char_traits<char> > >::do_put
_TEXT	ENDS
;	COMDAT xdata$x
; File c:\program files (x86)\microsoft visual studio .net 2003\vc7\include\xstring
xdata$x	SEGMENT
$T60855	DD	0ffffffffH
	DD	FLAT:$L60725
	DD	0ffffffffH
	DD	FLAT:$L60726
	DD	01H
	DD	FLAT:$L60727
	DD	01H
	DD	FLAT:$L60728
$T60850	DD	019930520H
	DD	04H
	DD	FLAT:$T60855
	DD	2 DUP(00H)
	DD	2 DUP(00H)
; Function compile flags: /Ogsy
; File c:\program files (x86)\microsoft visual studio .net 2003\vc7\include\xlocnum
xdata$x	ENDS
;	COMDAT ?do_put@?$num_put@DV?$ostreambuf_iterator@DU?$char_traits@D@std@@@std@@@std@@MBE?AV?$ostreambuf_iterator@DU?$char_traits@D@std@@@2@V32@AAVios_base@2@D_N@Z
_TEXT	SEGMENT
$T60720 = -80						; size = 28
$T60719 = -80						; size = 28
$T60724 = -52						; size = 8
$T60723 = -52						; size = 8
__Punct_fac$25421 = -48					; size = 4
__Str$25427 = -44					; size = 28
__$ArrayPad$ = -16					; size = 4
__$EHRec$ = -12						; size = 12
__$ReturnAddr$ = 4					; size = 4
___$ReturnUdt$ = 8					; size = 4
__Dest$ = 12						; size = 8
$T60718 = 20						; size = 4
__Iosbase$ = 20						; size = 4
__Fill$ = 24						; size = 1
__Val$ = 28						; size = 1
?do_put@?$num_put@DV?$ostreambuf_iterator@DU?$char_traits@D@std@@@std@@@std@@MBE?AV?$ostreambuf_iterator@DU?$char_traits@D@std@@@2@V32@AAVios_base@2@D_N@Z PROC NEAR ; std::num_put<char,std::ostreambuf_iterator<char,std::char_traits<char> > >::do_put, COMDAT
; _this$ = ecx

; 881  : 		{	// put formatted bool to _Dest

  00000	b8 00 00 00 00	 mov	 eax, __ehhandler$?do_put@?$num_put@DV?$ostreambuf_iterator@DU?$char_traits@D@std@@@std@@@std@@MBE?AV?$ostreambuf_iterator@DU?$char_traits@D@std@@@2@V32@AAVios_base@2@D_N@Z
  00005	e8 00 00 00 00	 call	 __EH_prolog
  0000a	83 ec 44	 sub	 esp, 68			; 00000044H
  0000d	a1 00 00 00 00	 mov	 eax, DWORD PTR ___security_cookie
  00012	56		 push	 esi

; 882  : 		if (!(_Iosbase.flags() & ios_base::boolalpha))

  00013	8b 75 14	 mov	 esi, DWORD PTR __Iosbase$[ebp]
  00016	f6 46 11 40	 test	 BYTE PTR [esi+17], 64	; 00000040H
  0001a	89 45 f0	 mov	 DWORD PTR __$ArrayPad$[ebp], eax
  0001d	75 1f		 jne	 SHORT $L25417

; 883  : 			return (do_put(_Dest, _Iosbase, _Fill, (long)_Val));

  0001f	0f b6 55 1c	 movzx	 edx, BYTE PTR __Val$[ebp]
  00023	8b 01		 mov	 eax, DWORD PTR [ecx]
  00025	52		 push	 edx
  00026	ff 75 18	 push	 DWORD PTR __Fill$[ebp]
  00029	56		 push	 esi
  0002a	ff 75 10	 push	 DWORD PTR __Dest$[ebp+4]
  0002d	ff 75 0c	 push	 DWORD PTR __Dest$[ebp]
  00030	ff 75 08	 push	 DWORD PTR ___$ReturnUdt$[ebp]
  00033	ff 50 1c	 call	 DWORD PTR [eax+28]
  00036	8b 45 08	 mov	 eax, DWORD PTR ___$ReturnUdt$[ebp]
  00039	e9 ff 00 00 00	 jmp	 $L25420
$L25417:
  0003e	53		 push	 ebx
  0003f	57		 push	 edi

; 884  : 		else
; 885  : 			{	// put "false" or "true"
; 886  : 			const _Mypunct& _Punct_fac = _USE(_Iosbase.getloc(), _Mypunct);

  00040	8d 45 14	 lea	 eax, DWORD PTR $T60718[ebp]
  00043	50		 push	 eax
  00044	8b ce		 mov	 ecx, esi
  00046	e8 00 00 00 00	 call	 ?getloc@ios_base@std@@QBE?AVlocale@2@XZ ; std::ios_base::getloc
  0004b	33 db		 xor	 ebx, ebx
  0004d	50		 push	 eax
  0004e	89 5d fc	 mov	 DWORD PTR __$EHRec$[ebp+8], ebx
  00051	e8 00 00 00 00	 call	 ??$use_facet@V?$numpunct@D@std@@@std@@YAABV?$numpunct@D@0@ABVlocale@0@@Z ; std::use_facet<std::numpunct<char> >
  00056	59		 pop	 ecx
  00057	8d 4d 14	 lea	 ecx, DWORD PTR $T60718[ebp]
  0005a	89 45 d0	 mov	 DWORD PTR __Punct_fac$25421[ebp], eax
  0005d	e8 00 00 00 00	 call	 ??1locale@std@@QAE@XZ	; std::locale::~locale

; 887  : 			_Mystr _Str;

  00062	53		 push	 ebx
  00063	8d 4d d4	 lea	 ecx, DWORD PTR __Str$25427[ebp]
  00066	c7 45 ec 0f 00
	00 00		 mov	 DWORD PTR __Str$25427[ebp+24], 15 ; 0000000fH
  0006d	e8 00 00 00 00	 call	 ?_Eos@?$basic_string@DU?$char_traits@D@std@@V?$allocator@D@2@@std@@IAEXI@Z ; std::basic_string<char,std::char_traits<char>,std::allocator<char> >::_Eos
  00072	33 ff		 xor	 edi, edi
  00074	47		 inc	 edi

; 888  : 			if (_Val)

  00075	38 5d 1c	 cmp	 BYTE PTR __Val$[ebp], bl

; 889  : 				_Str.assign(_Punct_fac.truename());

  00078	8d 45 b0	 lea	 eax, DWORD PTR $T60719[ebp]
  0007b	89 7d fc	 mov	 DWORD PTR __$EHRec$[ebp+8], edi
  0007e	8b 4d d0	 mov	 ecx, DWORD PTR __Punct_fac$25421[ebp]
  00081	50		 push	 eax
  00082	74 0b		 je	 SHORT $L25428
  00084	e8 00 00 00 00	 call	 ?truename@?$numpunct@D@std@@QBE?AV?$basic_string@DU?$char_traits@D@std@@V?$allocator@D@2@@2@XZ ; std::numpunct<char>::truename
  00089	c6 45 fc 02	 mov	 BYTE PTR __$EHRec$[ebp+8], 2

; 890  : 			else

  0008d	eb 09		 jmp	 SHORT $L60854
$L25428:

; 891  : 				_Str.assign(_Punct_fac.falsename());

  0008f	e8 00 00 00 00	 call	 ?falsename@?$numpunct@D@std@@QBE?AV?$basic_string@DU?$char_traits@D@std@@V?$allocator@D@2@@2@XZ ; std::numpunct<char>::falsename
  00094	c6 45 fc 03	 mov	 BYTE PTR __$EHRec$[ebp+8], 3
$L60854:
  00098	6a ff		 push	 -1
  0009a	53		 push	 ebx
  0009b	8d 4d d4	 lea	 ecx, DWORD PTR __Str$25427[ebp]
  0009e	50		 push	 eax
  0009f	e8 00 00 00 00	 call	 ?assign@?$basic_string@DU?$char_traits@D@std@@V?$allocator@D@2@@std@@QAEAAV12@ABV12@II@Z ; std::basic_string<char,std::char_traits<char>,std::allocator<char> >::assign
  000a4	53		 push	 ebx
  000a5	8d 4d b0	 lea	 ecx, DWORD PTR $T60720[ebp]
  000a8	57		 push	 edi
  000a9	c6 45 fc 01	 mov	 BYTE PTR __$EHRec$[ebp+8], 1
  000ad	e8 00 00 00 00	 call	 ?_Tidy@?$basic_string@DU?$char_traits@D@std@@V?$allocator@D@2@@std@@IAEX_NI@Z ; std::basic_string<char,std::char_traits<char>,std::allocator<char> >::_Tidy

; 892  : 
; 893  : 			size_t _Fillcount = _Iosbase.width() <= 0
; 894  : 				|| (size_t)_Iosbase.width() <= _Str.size()
; 895  : 					? 0 : (size_t)_Iosbase.width() - _Str.size();

  000b2	8b 46 18	 mov	 eax, DWORD PTR [esi+24]
  000b5	3b c3		 cmp	 eax, ebx
  000b7	7e 0c		 jle	 SHORT $L60721
  000b9	3b 45 e8	 cmp	 eax, DWORD PTR __Str$25427[ebp+20]
  000bc	76 07		 jbe	 SHORT $L60721
  000be	2b 45 e8	 sub	 eax, DWORD PTR __Str$25427[ebp+20]
  000c1	8b f8		 mov	 edi, eax
  000c3	eb 02		 jmp	 SHORT $L60722
$L60721:
  000c5	33 ff		 xor	 edi, edi
$L60722:

; 896  : 
; 897  : 			if ((_Iosbase.flags() & ios_base::adjustfield) != ios_base::left)

  000c7	8b 46 10	 mov	 eax, DWORD PTR [esi+16]
  000ca	25 c0 01 00 00	 and	 eax, 448		; 000001c0H
  000cf	83 f8 40	 cmp	 eax, 64			; 00000040H
  000d2	74 1f		 je	 SHORT $L60851

; 898  : 				{	// put leading fill
; 899  : 				_Dest = _Rep(_Dest, _Fill, _Fillcount);

  000d4	ff 75 18	 push	 DWORD PTR __Fill$[ebp]
  000d7	8b c7		 mov	 eax, edi
  000d9	ff 75 10	 push	 DWORD PTR __Dest$[ebp+4]
  000dc	8d 7d cc	 lea	 edi, DWORD PTR $T60723[ebp]
  000df	ff 75 0c	 push	 DWORD PTR __Dest$[ebp]
  000e2	e8 00 00 00 00	 call	 ?_Rep@?$num_put@DV?$ostreambuf_iterator@DU?$char_traits@D@std@@@std@@@std@@ABA?AV?$ostreambuf_iterator@DU?$char_traits@D@std@@@2@V32@DI@Z ; std::num_put<char,std::ostreambuf_iterator<char,std::char_traits<char> > >::_Rep
  000e7	8b 10		 mov	 edx, DWORD PTR [eax]
  000e9	8b 40 04	 mov	 eax, DWORD PTR [eax+4]
  000ec	83 c4 0c	 add	 esp, 12			; 0000000cH

; 900  : 				_Fillcount = 0;

  000ef	33 ff		 xor	 edi, edi
  000f1	eb 06		 jmp	 SHORT $L25474
$L60851:
  000f3	8b 45 10	 mov	 eax, DWORD PTR __Dest$[ebp+4]
  000f6	8b 55 0c	 mov	 edx, DWORD PTR __Dest$[ebp]
$L25474:

; 901  : 				}
; 902  : 			_Dest = _Put(_Dest, _Str.c_str(), _Str.size());	// put field

  000f9	83 7d ec 10	 cmp	 DWORD PTR __Str$25427[ebp+24], 16 ; 00000010H
  000fd	8b 4d d8	 mov	 ecx, DWORD PTR __Str$25427[ebp+4]
  00100	73 03		 jae	 SHORT $L60840
  00102	8d 4d d8	 lea	 ecx, DWORD PTR __Str$25427[ebp+4]
$L60840:
  00105	50		 push	 eax
  00106	8b 45 e8	 mov	 eax, DWORD PTR __Str$25427[ebp+20]
  00109	52		 push	 edx
  0010a	8d 5d cc	 lea	 ebx, DWORD PTR $T60724[ebp]
  0010d	e8 00 00 00 00	 call	 ?_Put@?$num_put@DV?$ostreambuf_iterator@DU?$char_traits@D@std@@@std@@@std@@ABA?AV?$ostreambuf_iterator@DU?$char_traits@D@std@@@2@V32@PBDI@Z ; std::num_put<char,std::ostreambuf_iterator<char,std::char_traits<char> > >::_Put
  00112	8b 08		 mov	 ecx, DWORD PTR [eax]
  00114	8b 40 04	 mov	 eax, DWORD PTR [eax+4]

; 903  : 			_Iosbase.width(0);
; 904  : 			return (_Rep(_Dest, _Fill, _Fillcount));	// put trailing fill

  00117	ff 75 18	 push	 DWORD PTR __Fill$[ebp]
  0011a	83 66 18 00	 and	 DWORD PTR [esi+24], 0
  0011e	50		 push	 eax
  0011f	8b c7		 mov	 eax, edi
  00121	8b 7d 08	 mov	 edi, DWORD PTR ___$ReturnUdt$[ebp]
  00124	51		 push	 ecx
  00125	e8 00 00 00 00	 call	 ?_Rep@?$num_put@DV?$ostreambuf_iterator@DU?$char_traits@D@std@@@std@@@std@@ABA?AV?$ostreambuf_iterator@DU?$char_traits@D@std@@@2@V32@DI@Z ; std::num_put<char,std::ostreambuf_iterator<char,std::char_traits<char> > >::_Rep
  0012a	83 c4 14	 add	 esp, 20			; 00000014H
  0012d	6a 00		 push	 0
  0012f	6a 01		 push	 1
  00131	8d 4d d4	 lea	 ecx, DWORD PTR __Str$25427[ebp]
  00134	e8 00 00 00 00	 call	 ?_Tidy@?$basic_string@DU?$char_traits@D@std@@V?$allocator@D@2@@std@@IAEX_NI@Z ; std::basic_string<char,std::char_traits<char>,std::allocator<char> >::_Tidy
  00139	8b c7		 mov	 eax, edi
  0013b	5f		 pop	 edi
  0013c	5b		 pop	 ebx
$L25420:

; 905  : 			}
; 906  : 		}

  0013d	8b 4d f4	 mov	 ecx, DWORD PTR __$EHRec$[ebp]
  00140	64 89 0d 00 00
	00 00		 mov	 DWORD PTR fs:__except_list, ecx
  00147	8b 4d f0	 mov	 ecx, DWORD PTR __$ArrayPad$[ebp]
  0014a	5e		 pop	 esi
  0014b	e8 00 00 00 00	 call	 @__security_check_cookie@4
  00150	c9		 leave
  00151	c2 18 00	 ret	 24			; 00000018H
_TEXT	ENDS
;	COMDAT text$x
text$x	SEGMENT
$L60725:
  00000	8d 4d 14	 lea	 ecx, DWORD PTR $T60718[ebp]
  00003	e9 00 00 00 00	 jmp	 ??1locale@std@@QAE@XZ	; std::locale::~locale
$L60726:
  00008	8d 4d d4	 lea	 ecx, DWORD PTR __Str$25427[ebp]
  0000b	e9 00 00 00 00	 jmp	 ??1?$basic_string@DU?$char_traits@D@std@@V?$allocator@D@2@@std@@QAE@XZ ; std::basic_string<char,std::char_traits<char>,std::allocator<char> >::~basic_string<char,std::char_traits<char>,std::allocator<char> >
$L60727:
  00010	8d 4d b0	 lea	 ecx, DWORD PTR $T60719[ebp]
  00013	e9 00 00 00 00	 jmp	 ??1?$basic_string@DU?$char_traits@D@std@@V?$allocator@D@2@@std@@QAE@XZ ; std::basic_string<char,std::char_traits<char>,std::allocator<char> >::~basic_string<char,std::char_traits<char>,std::allocator<char> >
$L60728:
  00018	8d 4d b0	 lea	 ecx, DWORD PTR $T60720[ebp]
  0001b	e9 00 00 00 00	 jmp	 ??1?$basic_string@DU?$char_traits@D@std@@V?$allocator@D@2@@std@@QAE@XZ ; std::basic_string<char,std::char_traits<char>,std::allocator<char> >::~basic_string<char,std::char_traits<char>,std::allocator<char> >
__ehhandler$?do_put@?$num_put@DV?$ostreambuf_iterator@DU?$char_traits@D@std@@@std@@@std@@MBE?AV?$ostreambuf_iterator@DU?$char_traits@D@std@@@2@V32@AAVios_base@2@D_N@Z:
  00020	b8 00 00 00 00	 mov	 eax, OFFSET FLAT:$T60850
  00025	e9 00 00 00 00	 jmp	 ___CxxFrameHandler
text$x	ENDS
?do_put@?$num_put@DV?$ostreambuf_iterator@DU?$char_traits@D@std@@@std@@@std@@MBE?AV?$ostreambuf_iterator@DU?$char_traits@D@std@@@2@V32@AAVios_base@2@D_N@Z ENDP ; std::num_put<char,std::ostreambuf_iterator<char,std::char_traits<char> > >::do_put
; Function compile flags: /Ogsy
;	COMDAT ?do_put@?$num_put@GV?$ostreambuf_iterator@GU?$char_traits@G@std@@@std@@@std@@MBE?AV?$ostreambuf_iterator@GU?$char_traits@G@std@@@2@V32@AAVios_base@2@GPBX@Z
_TEXT	SEGMENT
__Buf$ = -68						; size = 64
__$ArrayPad$ = -4					; size = 4
__$ReturnAddr$ = 4					; size = 4
___$ReturnUdt$ = 8					; size = 4
__Dest$ = 12						; size = 8
__Iosbase$ = 20						; size = 4
__Fill$ = 24						; size = 2
__Val$ = 28						; size = 4
?do_put@?$num_put@GV?$ostreambuf_iterator@GU?$char_traits@G@std@@@std@@@std@@MBE?AV?$ostreambuf_iterator@GU?$char_traits@G@std@@@2@V32@AAVios_base@2@GPBX@Z PROC NEAR ; std::num_put<unsigned short,std::ostreambuf_iterator<unsigned short,std::char_traits<unsigned short> > >::do_put, COMDAT
; _this$ = ecx

; 1028 : 		{	// put formatted void pointer to _Dest

  00000	55		 push	 ebp
  00001	8b ec		 mov	 ebp, esp
  00003	83 ec 44	 sub	 esp, 68			; 00000044H
  00006	a1 00 00 00 00	 mov	 eax, DWORD PTR ___security_cookie
  0000b	56		 push	 esi

; 1029 : 		char _Buf[2 * _MAX_INT_DIG];
; 1030 : 		return (_Iput(_Dest, _Iosbase, _Fill, _Buf,
; 1031 : 			::sprintf(_Buf, "%p", _Val)));

  0000c	ff 75 1c	 push	 DWORD PTR __Val$[ebp]
  0000f	89 45 fc	 mov	 DWORD PTR __$ArrayPad$[ebp], eax
  00012	8d 45 bc	 lea	 eax, DWORD PTR __Buf$[ebp]
  00015	68 00 00 00 00	 push	 OFFSET FLAT:??_C@_02BBAHNLBA@?$CFp?$AA@
  0001a	50		 push	 eax
  0001b	8b f1		 mov	 esi, ecx
  0001d	e8 00 00 00 00	 call	 _sprintf
  00022	50		 push	 eax
  00023	8d 45 bc	 lea	 eax, DWORD PTR __Buf$[ebp]
  00026	50		 push	 eax
  00027	ff 75 18	 push	 DWORD PTR __Fill$[ebp]
  0002a	ff 75 14	 push	 DWORD PTR __Iosbase$[ebp]
  0002d	ff 75 10	 push	 DWORD PTR __Dest$[ebp+4]
  00030	ff 75 0c	 push	 DWORD PTR __Dest$[ebp]
  00033	ff 75 08	 push	 DWORD PTR ___$ReturnUdt$[ebp]
  00036	56		 push	 esi
  00037	e8 00 00 00 00	 call	 ?_Iput@?$num_put@GV?$ostreambuf_iterator@GU?$char_traits@G@std@@@std@@@std@@ABA?AV?$ostreambuf_iterator@GU?$char_traits@G@std@@@2@V32@AAVios_base@2@GPADI@Z ; std::num_put<unsigned short,std::ostreambuf_iterator<unsigned short,std::char_traits<unsigned short> > >::_Iput

; 1032 : 		}

  0003c	8b 4d fc	 mov	 ecx, DWORD PTR __$ArrayPad$[ebp]
  0003f	8b 45 08	 mov	 eax, DWORD PTR ___$ReturnUdt$[ebp]
  00042	83 c4 2c	 add	 esp, 44			; 0000002cH
  00045	5e		 pop	 esi
  00046	e8 00 00 00 00	 call	 @__security_check_cookie@4
  0004b	c9		 leave
  0004c	c2 18 00	 ret	 24			; 00000018H
?do_put@?$num_put@GV?$ostreambuf_iterator@GU?$char_traits@G@std@@@std@@@std@@MBE?AV?$ostreambuf_iterator@GU?$char_traits@G@std@@@2@V32@AAVios_base@2@GPBX@Z ENDP ; std::num_put<unsigned short,std::ostreambuf_iterator<unsigned short,std::char_traits<unsigned short> > >::do_put
; Function compile flags: /Ogsy
_TEXT	ENDS
;	COMDAT ?do_put@?$num_put@GV?$ostreambuf_iterator@GU?$char_traits@G@std@@@std@@@std@@MBE?AV?$ostreambuf_iterator@GU?$char_traits@G@std@@@2@V32@AAVios_base@2@GO@Z
_TEXT	SEGMENT
_this$ = -132						; size = 4
__Beforepoint$ = -128					; size = 4
__Afterpoint$ = -124					; size = 4
__Buf$ = -120						; size = 108
__Fmt$ = -12						; size = 8
__Significance$ = -8					; size = 4
__$ArrayPad$ = -4					; size = 4
__$ReturnAddr$ = 4					; size = 4
___$ReturnUdt$ = 8					; size = 4
__Dest$ = 12						; size = 8
__Iosbase$ = 20						; size = 4
__Signed$25387 = 23					; size = 1
__Fill$ = 24						; size = 2
__Val$ = 28						; size = 8
?do_put@?$num_put@GV?$ostreambuf_iterator@GU?$char_traits@G@std@@@std@@@std@@MBE?AV?$ostreambuf_iterator@GU?$char_traits@G@std@@@2@V32@AAVios_base@2@GO@Z PROC NEAR ; std::num_put<unsigned short,std::ostreambuf_iterator<unsigned short,std::char_traits<unsigned short> > >::do_put, COMDAT
; _this$ = ecx

; 988  : 		{	// put formatted long double to _Dest

  00000	55		 push	 ebp
  00001	8b ec		 mov	 ebp, esp
  00003	81 ec 84 00 00
	00		 sub	 esp, 132		; 00000084H
  00009	a1 00 00 00 00	 mov	 eax, DWORD PTR ___security_cookie
  0000e	56		 push	 esi

; 989  : 		char _Buf[_MAX_EXP_DIG + _MAX_SIG_DIG + 64], _Fmt[8];
; 990  : 		streamsize _Precision = _Iosbase.precision() <= 0
; 991  : 			&& !(_Iosbase.flags() & ios_base::fixed)
; 992  : 				? 6 : _Iosbase.precision();	// desired precision

  0000f	8b 75 14	 mov	 esi, DWORD PTR __Iosbase$[ebp]
  00012	89 8d 7c ff ff
	ff		 mov	 DWORD PTR _this$[ebp], ecx
  00018	8b 4e 14	 mov	 ecx, DWORD PTR [esi+20]
  0001b	85 c9		 test	 ecx, ecx
  0001d	89 45 fc	 mov	 DWORD PTR __$ArrayPad$[ebp], eax
  00020	57		 push	 edi
  00021	b8 00 20 00 00	 mov	 eax, 8192		; 00002000H
  00026	7f 08		 jg	 SHORT $L60880
  00028	85 46 10	 test	 DWORD PTR [esi+16], eax
  0002b	75 03		 jne	 SHORT $L60880
  0002d	6a 06		 push	 6
  0002f	59		 pop	 ecx
$L60880:
  00030	8b f9		 mov	 edi, ecx

; 993  : 		int _Significance = _MAX_SIG_DIG < _Precision
; 994  : 			? _MAX_SIG_DIG : (int)_Precision;	// actual sprintf precision

  00032	6a 24		 push	 36			; 00000024H
  00034	59		 pop	 ecx
  00035	3b f9		 cmp	 edi, ecx
  00037	89 4d f8	 mov	 DWORD PTR __Significance$[ebp], ecx
  0003a	7f 03		 jg	 SHORT $L60868
  0003c	89 7d f8	 mov	 DWORD PTR __Significance$[ebp], edi
$L60868:

; 995  : 		_Precision -= _Significance;
; 996  : 		size_t _Beforepoint = 0;	// zeros to add before decimal point
; 997  : 		size_t _Afterpoint = 0;	// zeros to add after decimal point
; 998  : 
; 999  : 		if ((_Iosbase.flags() & ios_base::floatfield) == ios_base::fixed)

  0003f	8b 4e 10	 mov	 ecx, DWORD PTR [esi+16]

; 1000 : 			{	// scale silly fixed-point value
; 1001 : 			bool _Signed = _Val < 0;

  00042	dd 45 1c	 fld	 QWORD PTR __Val$[ebp]
  00045	2b 7d f8	 sub	 edi, DWORD PTR __Significance$[ebp]
  00048	83 65 80 00	 and	 DWORD PTR __Beforepoint$[ebp], 0
  0004c	83 65 84 00	 and	 DWORD PTR __Afterpoint$[ebp], 0
  00050	8b d1		 mov	 edx, ecx
  00052	81 e2 00 30 00
	00		 and	 edx, 12288		; 00003000H
  00058	3b d0		 cmp	 edx, eax
  0005a	0f 85 80 00 00
	00		 jne	 $L60897
  00060	dc 15 00 00 00
	00		 fcom	 QWORD PTR __real@0000000000000000
  00066	df e0		 fnstsw	 ax
  00068	f6 c4 05	 test	 ah, 5
  0006b	7a 15		 jp	 SHORT $L60869

; 1003 : 				_Val = -_Val;

  0006d	d9 c0		 fld	 ST(0)
  0006f	c6 45 17 01	 mov	 BYTE PTR __Signed$25387[ebp], 1
  00073	d9 e0		 fchs
  00075	dd d9		 fstp	 ST(1)
$L25388:
  00077	53		 push	 ebx

; 1004 : 
; 1005 : 			for (; 1e35 <= _Val && _Beforepoint < 5000; _Beforepoint += 10)

  00078	6a 0a		 push	 10			; 0000000aH
  0007a	bb 88 13 00 00	 mov	 ebx, 5000		; 00001388H
  0007f	5a		 pop	 edx
  00080	eb 14		 jmp	 SHORT $L60900
$L60869:

; 1000 : 			{	// scale silly fixed-point value
; 1001 : 			bool _Signed = _Val < 0;

  00082	c6 45 17 00	 mov	 BYTE PTR __Signed$25387[ebp], 0

; 1002 : 			if (_Signed)

  00086	eb ef		 jmp	 SHORT $L25388
$L25389:

; 1004 : 
; 1005 : 			for (; 1e35 <= _Val && _Beforepoint < 5000; _Beforepoint += 10)

  00088	39 5d 80	 cmp	 DWORD PTR __Beforepoint$[ebp], ebx
  0008b	73 18		 jae	 SHORT $L25391

; 1006 : 				_Val /= 1e10;	// drop 10 zeros before decimal point

  0008d	dc 0d 00 00 00
	00		 fmul	 QWORD PTR __real@3ddb7cdfd9d7bdbb
  00093	01 55 80	 add	 DWORD PTR __Beforepoint$[ebp], edx
$L60900:
  00096	dd 05 00 00 00
	00		 fld	 QWORD PTR __real@4733426172c74d82
  0009c	d8 d9		 fcomp	 ST(1)
  0009e	df e0		 fnstsw	 ax
  000a0	f6 c4 41	 test	 ah, 65			; 00000041H
  000a3	7b e3		 jnp	 SHORT $L25389
$L25391:

; 1007 : 
; 1008 : 			if (0 < _Val)

  000a5	d9 ee		 fldz
  000a7	d8 d9		 fcomp	 ST(1)
  000a9	df e0		 fnstsw	 ax
  000ab	f6 c4 05	 test	 ah, 5
  000ae	7a 23		 jp	 SHORT $L25395
  000b0	eb 1d		 jmp	 SHORT $L60901
$L25393:

; 1009 : 				for (; 10 <= _Precision && _Val <= 1e-35
; 1010 : 					&& _Afterpoint < 5000; _Afterpoint += 10)

  000b2	dc 15 00 00 00
	00		 fcom	 QWORD PTR __real@38aa95a5b7f87a0f
  000b8	df e0		 fnstsw	 ax
  000ba	f6 c4 41	 test	 ah, 65			; 00000041H
  000bd	7a 14		 jp	 SHORT $L25395
  000bf	39 5d 84	 cmp	 DWORD PTR __Afterpoint$[ebp], ebx
  000c2	73 0f		 jae	 SHORT $L25395

; 1011 : 					{	// drop 10 zeros after decimal point
; 1012 : 					_Val *= 1e10;

  000c4	dc 0d 00 00 00
	00		 fmul	 QWORD PTR __real@4202a05f20000000

; 1013 : 					_Precision -= 10;

  000ca	2b fa		 sub	 edi, edx
  000cc	01 55 84	 add	 DWORD PTR __Afterpoint$[ebp], edx
$L60901:

; 1009 : 				for (; 10 <= _Precision && _Val <= 1e-35
; 1010 : 					&& _Afterpoint < 5000; _Afterpoint += 10)

  000cf	3b fa		 cmp	 edi, edx
  000d1	7d df		 jge	 SHORT $L25393
$L25395:

; 1014 : 					}
; 1015 : 
; 1016 : 			if (_Signed)

  000d3	80 7d 17 00	 cmp	 BYTE PTR __Signed$25387[ebp], 0
  000d7	5b		 pop	 ebx
  000d8	74 06		 je	 SHORT $L60897

; 1017 : 				_Val = -_Val;

  000da	d9 c0		 fld	 ST(0)
  000dc	d9 e0		 fchs
  000de	dd d9		 fstp	 ST(1)
$L60897:

; 1018 : 			}
; 1019 : 
; 1020 : 		return (_Fput(_Dest, _Iosbase, _Fill, _Buf,
; 1021 : 			_Beforepoint, _Afterpoint, _Precision,
; 1022 : 				::sprintf(_Buf, _Ffmt(_Fmt, 'L', _Iosbase.flags()),
; 1023 : 					_Significance, _Val)));	// convert and put

  000e0	51		 push	 ecx
  000e1	51		 push	 ecx
  000e2	dd 1c 24	 fstp	 QWORD PTR [esp]
  000e5	ff 75 f8	 push	 DWORD PTR __Significance$[ebp]
  000e8	8d 45 f4	 lea	 eax, DWORD PTR __Fmt$[ebp]
  000eb	51		 push	 ecx
  000ec	6a 4c		 push	 76			; 0000004cH
  000ee	50		 push	 eax
  000ef	ff b5 7c ff ff
	ff		 push	 DWORD PTR _this$[ebp]
  000f5	e8 00 00 00 00	 call	 ?_Ffmt@?$num_put@GV?$ostreambuf_iterator@GU?$char_traits@G@std@@@std@@@std@@ABAPADPADDH@Z ; std::num_put<unsigned short,std::ostreambuf_iterator<unsigned short,std::char_traits<unsigned short> > >::_Ffmt
  000fa	83 c4 10	 add	 esp, 16			; 00000010H
  000fd	50		 push	 eax
  000fe	8d 45 88	 lea	 eax, DWORD PTR __Buf$[ebp]
  00101	50		 push	 eax
  00102	e8 00 00 00 00	 call	 _sprintf
  00107	50		 push	 eax
  00108	57		 push	 edi
  00109	ff 75 84	 push	 DWORD PTR __Afterpoint$[ebp]
  0010c	8d 45 88	 lea	 eax, DWORD PTR __Buf$[ebp]
  0010f	ff 75 80	 push	 DWORD PTR __Beforepoint$[ebp]
  00112	50		 push	 eax
  00113	ff 75 18	 push	 DWORD PTR __Fill$[ebp]
  00116	56		 push	 esi
  00117	ff 75 10	 push	 DWORD PTR __Dest$[ebp+4]
  0011a	ff 75 0c	 push	 DWORD PTR __Dest$[ebp]
  0011d	ff 75 08	 push	 DWORD PTR ___$ReturnUdt$[ebp]
  00120	ff b5 7c ff ff
	ff		 push	 DWORD PTR _this$[ebp]
  00126	e8 00 00 00 00	 call	 ?_Fput@?$num_put@GV?$ostreambuf_iterator@GU?$char_traits@G@std@@@std@@@std@@ABA?AV?$ostreambuf_iterator@GU?$char_traits@G@std@@@2@V32@AAVios_base@2@GPBDIIII@Z ; std::num_put<unsigned short,std::ostreambuf_iterator<unsigned short,std::char_traits<unsigned short> > >::_Fput

; 1024 : 		}

  0012b	8b 4d fc	 mov	 ecx, DWORD PTR __$ArrayPad$[ebp]
  0012e	8b 45 08	 mov	 eax, DWORD PTR ___$ReturnUdt$[ebp]
  00131	83 c4 40	 add	 esp, 64			; 00000040H
  00134	5f		 pop	 edi
  00135	5e		 pop	 esi
  00136	e8 00 00 00 00	 call	 @__security_check_cookie@4
  0013b	c9		 leave
  0013c	c2 1c 00	 ret	 28			; 0000001cH
?do_put@?$num_put@GV?$ostreambuf_iterator@GU?$char_traits@G@std@@@std@@@std@@MBE?AV?$ostreambuf_iterator@GU?$char_traits@G@std@@@2@V32@AAVios_base@2@GO@Z ENDP ; std::num_put<unsigned short,std::ostreambuf_iterator<unsigned short,std::char_traits<unsigned short> > >::do_put
; Function compile flags: /Ogsy
_TEXT	ENDS
;	COMDAT ?do_put@?$num_put@GV?$ostreambuf_iterator@GU?$char_traits@G@std@@@std@@@std@@MBE?AV?$ostreambuf_iterator@GU?$char_traits@G@std@@@2@V32@AAVios_base@2@GN@Z
_TEXT	SEGMENT
_this$ = -128						; size = 4
__Beforepoint$ = -124					; size = 4
__Buf$ = -120						; size = 108
__Fmt$ = -12						; size = 8
__Significance$ = -8					; size = 4
__$ArrayPad$ = -4					; size = 4
__$ReturnAddr$ = 4					; size = 4
___$ReturnUdt$ = 8					; size = 4
__Dest$ = 12						; size = 8
__Iosbase$ = 20						; size = 4
__Signed$25365 = 23					; size = 1
__Fill$ = 24						; size = 2
__Val$ = 28						; size = 8
?do_put@?$num_put@GV?$ostreambuf_iterator@GU?$char_traits@G@std@@@std@@@std@@MBE?AV?$ostreambuf_iterator@GU?$char_traits@G@std@@@2@V32@AAVios_base@2@GN@Z PROC NEAR ; std::num_put<unsigned short,std::ostreambuf_iterator<unsigned short,std::char_traits<unsigned short> > >::do_put, COMDAT
; _this$ = ecx

; 948  : 		{	// put formatted double to _Dest

  00000	55		 push	 ebp
  00001	8b ec		 mov	 ebp, esp
  00003	81 ec 80 00 00
	00		 sub	 esp, 128		; 00000080H
  00009	a1 00 00 00 00	 mov	 eax, DWORD PTR ___security_cookie
  0000e	53		 push	 ebx
  0000f	56		 push	 esi

; 949  : 		char _Buf[_MAX_EXP_DIG + _MAX_SIG_DIG + 64], _Fmt[8];
; 950  : 		streamsize _Precision = _Iosbase.precision() <= 0
; 951  : 			&& !(_Iosbase.flags() & ios_base::fixed)
; 952  : 				? 6 : _Iosbase.precision();	// desired precision

  00010	8b 75 14	 mov	 esi, DWORD PTR __Iosbase$[ebp]
  00013	89 4d 80	 mov	 DWORD PTR _this$[ebp], ecx
  00016	8b 4e 14	 mov	 ecx, DWORD PTR [esi+20]
  00019	33 db		 xor	 ebx, ebx
  0001b	3b cb		 cmp	 ecx, ebx
  0001d	89 45 fc	 mov	 DWORD PTR __$ArrayPad$[ebp], eax
  00020	57		 push	 edi
  00021	b8 00 20 00 00	 mov	 eax, 8192		; 00002000H
  00026	7f 08		 jg	 SHORT $L60920
  00028	85 46 10	 test	 DWORD PTR [esi+16], eax
  0002b	75 03		 jne	 SHORT $L60920
  0002d	6a 06		 push	 6
  0002f	59		 pop	 ecx
$L60920:
  00030	8b f9		 mov	 edi, ecx

; 953  : 		int _Significance = _MAX_SIG_DIG < _Precision
; 954  : 			? _MAX_SIG_DIG : (int)_Precision;	// actual sprintf precision

  00032	6a 24		 push	 36			; 00000024H
  00034	59		 pop	 ecx
  00035	3b f9		 cmp	 edi, ecx
  00037	89 4d f8	 mov	 DWORD PTR __Significance$[ebp], ecx
  0003a	7f 03		 jg	 SHORT $L60908
  0003c	89 7d f8	 mov	 DWORD PTR __Significance$[ebp], edi
$L60908:

; 955  : 		_Precision -= _Significance;
; 956  : 		size_t _Beforepoint = 0;	// zeros to add before decimal point
; 957  : 		size_t _Afterpoint = 0;	// zeros to add after decimal point
; 958  : 
; 959  : 		if ((_Iosbase.flags() & ios_base::floatfield) == ios_base::fixed)

  0003f	8b 4e 10	 mov	 ecx, DWORD PTR [esi+16]

; 960  : 			{	// scale silly fixed-point value
; 961  : 			bool _Signed = _Val < 0;

  00042	dd 45 1c	 fld	 QWORD PTR __Val$[ebp]
  00045	2b 7d f8	 sub	 edi, DWORD PTR __Significance$[ebp]
  00048	8b d1		 mov	 edx, ecx
  0004a	81 e2 00 30 00
	00		 and	 edx, 12288		; 00003000H
  00050	3b d0		 cmp	 edx, eax
  00052	89 5d 84	 mov	 DWORD PTR __Beforepoint$[ebp], ebx
  00055	75 7f		 jne	 SHORT $L25374
  00057	dc 15 00 00 00
	00		 fcom	 QWORD PTR __real@0000000000000000
  0005d	df e0		 fnstsw	 ax
  0005f	f6 c4 05	 test	 ah, 5
  00062	7a 0f		 jp	 SHORT $L60909

; 963  : 				_Val = -_Val;

  00064	d9 c0		 fld	 ST(0)
  00066	c6 45 17 01	 mov	 BYTE PTR __Signed$25365[ebp], 1
  0006a	d9 e0		 fchs
  0006c	dd d9		 fstp	 ST(1)
$L25366:

; 964  : 
; 965  : 			for (; 1e35 <= _Val && _Beforepoint < 5000; _Beforepoint += 10)

  0006e	6a 0a		 push	 10			; 0000000aH
  00070	5a		 pop	 edx
  00071	eb 18		 jmp	 SHORT $L60939
$L60909:

; 960  : 			{	// scale silly fixed-point value
; 961  : 			bool _Signed = _Val < 0;

  00073	c6 45 17 00	 mov	 BYTE PTR __Signed$25365[ebp], 0

; 962  : 			if (_Signed)

  00077	eb f5		 jmp	 SHORT $L25366
$L25367:

; 964  : 
; 965  : 			for (; 1e35 <= _Val && _Beforepoint < 5000; _Beforepoint += 10)

  00079	81 7d 84 88 13
	00 00		 cmp	 DWORD PTR __Beforepoint$[ebp], 5000 ; 00001388H
  00080	73 18		 jae	 SHORT $L25369

; 966  : 				_Val /= 1e10;	// drop 10 zeros before decimal point

  00082	dc 0d 00 00 00
	00		 fmul	 QWORD PTR __real@3ddb7cdfd9d7bdbb
  00088	01 55 84	 add	 DWORD PTR __Beforepoint$[ebp], edx
$L60939:
  0008b	dd 05 00 00 00
	00		 fld	 QWORD PTR __real@4733426172c74d82
  00091	d8 d9		 fcomp	 ST(1)
  00093	df e0		 fnstsw	 ax
  00095	f6 c4 41	 test	 ah, 65			; 00000041H
  00098	7b df		 jnp	 SHORT $L25367
$L25369:

; 967  : 
; 968  : 			if (0 < _Val)

  0009a	d9 ee		 fldz
  0009c	d8 d9		 fcomp	 ST(1)
  0009e	df e0		 fnstsw	 ax
  000a0	f6 c4 05	 test	 ah, 5
  000a3	7a 25		 jp	 SHORT $L25373
  000a5	eb 1f		 jmp	 SHORT $L60940
$L25371:

; 969  : 				for (; 10 <= _Precision && _Val <= 1e-35
; 970  : 					&& _Afterpoint < 5000; _Afterpoint += 10)

  000a7	dc 15 00 00 00
	00		 fcom	 QWORD PTR __real@38aa95a5b7f87a0f
  000ad	df e0		 fnstsw	 ax
  000af	f6 c4 41	 test	 ah, 65			; 00000041H
  000b2	7a 16		 jp	 SHORT $L25373
  000b4	81 fb 88 13 00
	00		 cmp	 ebx, 5000		; 00001388H
  000ba	73 0e		 jae	 SHORT $L25373

; 971  : 					{	// drop 10 zeros after decimal point
; 972  : 					_Val *= 1e10;

  000bc	dc 0d 00 00 00
	00		 fmul	 QWORD PTR __real@4202a05f20000000

; 973  : 					_Precision -= 10;

  000c2	2b fa		 sub	 edi, edx
  000c4	03 da		 add	 ebx, edx
$L60940:

; 969  : 				for (; 10 <= _Precision && _Val <= 1e-35
; 970  : 					&& _Afterpoint < 5000; _Afterpoint += 10)

  000c6	3b fa		 cmp	 edi, edx
  000c8	7d dd		 jge	 SHORT $L25371
$L25373:

; 974  : 					}
; 975  : 
; 976  : 			if (_Signed)

  000ca	80 7d 17 00	 cmp	 BYTE PTR __Signed$25365[ebp], 0
  000ce	74 06		 je	 SHORT $L25374

; 977  : 				_Val = -_Val;

  000d0	d9 c0		 fld	 ST(0)
  000d2	d9 e0		 fchs
  000d4	dd d9		 fstp	 ST(1)
$L25374:

; 978  : 			}
; 979  : 
; 980  : 		return (_Fput(_Dest, _Iosbase, _Fill, _Buf,
; 981  : 			_Beforepoint, _Afterpoint, _Precision,
; 982  : 				::sprintf(_Buf, _Ffmt(_Fmt, 0, _Iosbase.flags()),
; 983  : 					_Significance, _Val)));	// convert and put

  000d6	51		 push	 ecx
  000d7	51		 push	 ecx
  000d8	dd 1c 24	 fstp	 QWORD PTR [esp]
  000db	ff 75 f8	 push	 DWORD PTR __Significance$[ebp]
  000de	8d 45 f4	 lea	 eax, DWORD PTR __Fmt$[ebp]
  000e1	51		 push	 ecx
  000e2	6a 00		 push	 0
  000e4	50		 push	 eax
  000e5	ff 75 80	 push	 DWORD PTR _this$[ebp]
  000e8	e8 00 00 00 00	 call	 ?_Ffmt@?$num_put@GV?$ostreambuf_iterator@GU?$char_traits@G@std@@@std@@@std@@ABAPADPADDH@Z ; std::num_put<unsigned short,std::ostreambuf_iterator<unsigned short,std::char_traits<unsigned short> > >::_Ffmt
  000ed	83 c4 10	 add	 esp, 16			; 00000010H
  000f0	50		 push	 eax
  000f1	8d 45 88	 lea	 eax, DWORD PTR __Buf$[ebp]
  000f4	50		 push	 eax
  000f5	e8 00 00 00 00	 call	 _sprintf
  000fa	50		 push	 eax
  000fb	57		 push	 edi
  000fc	53		 push	 ebx
  000fd	ff 75 84	 push	 DWORD PTR __Beforepoint$[ebp]
  00100	8d 45 88	 lea	 eax, DWORD PTR __Buf$[ebp]
  00103	50		 push	 eax
  00104	ff 75 18	 push	 DWORD PTR __Fill$[ebp]
  00107	56		 push	 esi
  00108	ff 75 10	 push	 DWORD PTR __Dest$[ebp+4]
  0010b	ff 75 0c	 push	 DWORD PTR __Dest$[ebp]
  0010e	ff 75 08	 push	 DWORD PTR ___$ReturnUdt$[ebp]
  00111	ff 75 80	 push	 DWORD PTR _this$[ebp]
  00114	e8 00 00 00 00	 call	 ?_Fput@?$num_put@GV?$ostreambuf_iterator@GU?$char_traits@G@std@@@std@@@std@@ABA?AV?$ostreambuf_iterator@GU?$char_traits@G@std@@@2@V32@AAVios_base@2@GPBDIIII@Z ; std::num_put<unsigned short,std::ostreambuf_iterator<unsigned short,std::char_traits<unsigned short> > >::_Fput

; 984  : 		}

  00119	8b 4d fc	 mov	 ecx, DWORD PTR __$ArrayPad$[ebp]
  0011c	8b 45 08	 mov	 eax, DWORD PTR ___$ReturnUdt$[ebp]
  0011f	83 c4 40	 add	 esp, 64			; 00000040H
  00122	5f		 pop	 edi
  00123	5e		 pop	 esi
  00124	5b		 pop	 ebx
  00125	e8 00 00 00 00	 call	 @__security_check_cookie@4
  0012a	c9		 leave
  0012b	c2 1c 00	 ret	 28			; 0000001cH
?do_put@?$num_put@GV?$ostreambuf_iterator@GU?$char_traits@G@std@@@std@@@std@@MBE?AV?$ostreambuf_iterator@GU?$char_traits@G@std@@@2@V32@AAVios_base@2@GN@Z ENDP ; std::num_put<unsigned short,std::ostreambuf_iterator<unsigned short,std::char_traits<unsigned short> > >::do_put
; Function compile flags: /Ogsy
_TEXT	ENDS
;	COMDAT ?do_put@?$num_put@GV?$ostreambuf_iterator@GU?$char_traits@G@std@@@std@@@std@@MBE?AV?$ostreambuf_iterator@GU?$char_traits@G@std@@@2@V32@AAVios_base@2@G_K@Z
_TEXT	SEGMENT
__Buf$ = -76						; size = 64
__Fmt$ = -12						; size = 8
__$ArrayPad$ = -4					; size = 4
__$ReturnAddr$ = 4					; size = 4
___$ReturnUdt$ = 8					; size = 4
__Dest$ = 12						; size = 8
__Iosbase$ = 20						; size = 4
__Fill$ = 24						; size = 2
__Val$ = 28						; size = 8
?do_put@?$num_put@GV?$ostreambuf_iterator@GU?$char_traits@G@std@@@std@@@std@@MBE?AV?$ostreambuf_iterator@GU?$char_traits@G@std@@@2@V32@AAVios_base@2@G_K@Z PROC NEAR ; std::num_put<unsigned short,std::ostreambuf_iterator<unsigned short,std::char_traits<unsigned short> > >::do_put, COMDAT
; _this$ = ecx

; 938  : 		{	// put formatted unsigned long long to _Dest

  00000	55		 push	 ebp
  00001	8b ec		 mov	 ebp, esp
  00003	83 ec 4c	 sub	 esp, 76			; 0000004cH
  00006	a1 00 00 00 00	 mov	 eax, DWORD PTR ___security_cookie
  0000b	56		 push	 esi

; 939  : 		char _Buf[2 * _MAX_INT_DIG], _Fmt[8];
; 940  : 		return (_Iput(_Dest, _Iosbase, _Fill, _Buf,
; 941  : 			::sprintf(_Buf, _Ifmt(_Fmt, "Lu",
; 942  : 				_Iosbase.flags()), _Val)));

  0000c	8b 75 14	 mov	 esi, DWORD PTR __Iosbase$[ebp]
  0000f	57		 push	 edi
  00010	ff 75 20	 push	 DWORD PTR __Val$[ebp+4]
  00013	89 45 fc	 mov	 DWORD PTR __$ArrayPad$[ebp], eax
  00016	ff 75 1c	 push	 DWORD PTR __Val$[ebp]
  00019	8b 46 10	 mov	 eax, DWORD PTR [esi+16]
  0001c	50		 push	 eax
  0001d	68 00 00 00 00	 push	 OFFSET FLAT:??_C@_02CLHGNPPK@Lu?$AA@
  00022	8d 45 f4	 lea	 eax, DWORD PTR __Fmt$[ebp]
  00025	8b f9		 mov	 edi, ecx
  00027	50		 push	 eax
  00028	57		 push	 edi
  00029	e8 00 00 00 00	 call	 ?_Ifmt@?$num_put@GV?$ostreambuf_iterator@GU?$char_traits@G@std@@@std@@@std@@ABAPADPADPBDH@Z ; std::num_put<unsigned short,std::ostreambuf_iterator<unsigned short,std::char_traits<unsigned short> > >::_Ifmt
  0002e	83 c4 10	 add	 esp, 16			; 00000010H
  00031	50		 push	 eax
  00032	8d 45 b4	 lea	 eax, DWORD PTR __Buf$[ebp]
  00035	50		 push	 eax
  00036	e8 00 00 00 00	 call	 _sprintf
  0003b	50		 push	 eax
  0003c	8d 45 b4	 lea	 eax, DWORD PTR __Buf$[ebp]
  0003f	50		 push	 eax
  00040	ff 75 18	 push	 DWORD PTR __Fill$[ebp]
  00043	56		 push	 esi
  00044	ff 75 10	 push	 DWORD PTR __Dest$[ebp+4]
  00047	ff 75 0c	 push	 DWORD PTR __Dest$[ebp]
  0004a	ff 75 08	 push	 DWORD PTR ___$ReturnUdt$[ebp]
  0004d	57		 push	 edi
  0004e	e8 00 00 00 00	 call	 ?_Iput@?$num_put@GV?$ostreambuf_iterator@GU?$char_traits@G@std@@@std@@@std@@ABA?AV?$ostreambuf_iterator@GU?$char_traits@G@std@@@2@V32@AAVios_base@2@GPADI@Z ; std::num_put<unsigned short,std::ostreambuf_iterator<unsigned short,std::char_traits<unsigned short> > >::_Iput

; 943  : 		}

  00053	8b 4d fc	 mov	 ecx, DWORD PTR __$ArrayPad$[ebp]
  00056	8b 45 08	 mov	 eax, DWORD PTR ___$ReturnUdt$[ebp]
  00059	83 c4 30	 add	 esp, 48			; 00000030H
  0005c	5f		 pop	 edi
  0005d	5e		 pop	 esi
  0005e	e8 00 00 00 00	 call	 @__security_check_cookie@4
  00063	c9		 leave
  00064	c2 1c 00	 ret	 28			; 0000001cH
?do_put@?$num_put@GV?$ostreambuf_iterator@GU?$char_traits@G@std@@@std@@@std@@MBE?AV?$ostreambuf_iterator@GU?$char_traits@G@std@@@2@V32@AAVios_base@2@G_K@Z ENDP ; std::num_put<unsigned short,std::ostreambuf_iterator<unsigned short,std::char_traits<unsigned short> > >::do_put
; Function compile flags: /Ogsy
_TEXT	ENDS
;	COMDAT ?do_put@?$num_put@GV?$ostreambuf_iterator@GU?$char_traits@G@std@@@std@@@std@@MBE?AV?$ostreambuf_iterator@GU?$char_traits@G@std@@@2@V32@AAVios_base@2@G_J@Z
_TEXT	SEGMENT
__Buf$ = -76						; size = 64
__Fmt$ = -12						; size = 8
__$ArrayPad$ = -4					; size = 4
__$ReturnAddr$ = 4					; size = 4
___$ReturnUdt$ = 8					; size = 4
__Dest$ = 12						; size = 8
__Iosbase$ = 20						; size = 4
__Fill$ = 24						; size = 2
__Val$ = 28						; size = 8
?do_put@?$num_put@GV?$ostreambuf_iterator@GU?$char_traits@G@std@@@std@@@std@@MBE?AV?$ostreambuf_iterator@GU?$char_traits@G@std@@@2@V32@AAVios_base@2@G_J@Z PROC NEAR ; std::num_put<unsigned short,std::ostreambuf_iterator<unsigned short,std::char_traits<unsigned short> > >::do_put, COMDAT
; _this$ = ecx

; 929  : 		{	// put formatted long long to _Dest

  00000	55		 push	 ebp
  00001	8b ec		 mov	 ebp, esp
  00003	83 ec 4c	 sub	 esp, 76			; 0000004cH
  00006	a1 00 00 00 00	 mov	 eax, DWORD PTR ___security_cookie
  0000b	56		 push	 esi

; 930  : 		char _Buf[2 * _MAX_INT_DIG], _Fmt[8];
; 931  : 		return (_Iput(_Dest, _Iosbase, _Fill, _Buf,
; 932  : 			::sprintf(_Buf, _Ifmt(_Fmt, "Ld",
; 933  : 				_Iosbase.flags()), _Val)));

  0000c	8b 75 14	 mov	 esi, DWORD PTR __Iosbase$[ebp]
  0000f	57		 push	 edi
  00010	ff 75 20	 push	 DWORD PTR __Val$[ebp+4]
  00013	89 45 fc	 mov	 DWORD PTR __$ArrayPad$[ebp], eax
  00016	ff 75 1c	 push	 DWORD PTR __Val$[ebp]
  00019	8b 46 10	 mov	 eax, DWORD PTR [esi+16]
  0001c	50		 push	 eax
  0001d	68 00 00 00 00	 push	 OFFSET FLAT:??_C@_02HIKPPMOK@Ld?$AA@
  00022	8d 45 f4	 lea	 eax, DWORD PTR __Fmt$[ebp]
  00025	8b f9		 mov	 edi, ecx
  00027	50		 push	 eax
  00028	57		 push	 edi
  00029	e8 00 00 00 00	 call	 ?_Ifmt@?$num_put@GV?$ostreambuf_iterator@GU?$char_traits@G@std@@@std@@@std@@ABAPADPADPBDH@Z ; std::num_put<unsigned short,std::ostreambuf_iterator<unsigned short,std::char_traits<unsigned short> > >::_Ifmt
  0002e	83 c4 10	 add	 esp, 16			; 00000010H
  00031	50		 push	 eax
  00032	8d 45 b4	 lea	 eax, DWORD PTR __Buf$[ebp]
  00035	50		 push	 eax
  00036	e8 00 00 00 00	 call	 _sprintf
  0003b	50		 push	 eax
  0003c	8d 45 b4	 lea	 eax, DWORD PTR __Buf$[ebp]
  0003f	50		 push	 eax
  00040	ff 75 18	 push	 DWORD PTR __Fill$[ebp]
  00043	56		 push	 esi
  00044	ff 75 10	 push	 DWORD PTR __Dest$[ebp+4]
  00047	ff 75 0c	 push	 DWORD PTR __Dest$[ebp]
  0004a	ff 75 08	 push	 DWORD PTR ___$ReturnUdt$[ebp]
  0004d	57		 push	 edi
  0004e	e8 00 00 00 00	 call	 ?_Iput@?$num_put@GV?$ostreambuf_iterator@GU?$char_traits@G@std@@@std@@@std@@ABA?AV?$ostreambuf_iterator@GU?$char_traits@G@std@@@2@V32@AAVios_base@2@GPADI@Z ; std::num_put<unsigned short,std::ostreambuf_iterator<unsigned short,std::char_traits<unsigned short> > >::_Iput

; 934  : 		}

  00053	8b 4d fc	 mov	 ecx, DWORD PTR __$ArrayPad$[ebp]
  00056	8b 45 08	 mov	 eax, DWORD PTR ___$ReturnUdt$[ebp]
  00059	83 c4 30	 add	 esp, 48			; 00000030H
  0005c	5f		 pop	 edi
  0005d	5e		 pop	 esi
  0005e	e8 00 00 00 00	 call	 @__security_check_cookie@4
  00063	c9		 leave
  00064	c2 1c 00	 ret	 28			; 0000001cH
?do_put@?$num_put@GV?$ostreambuf_iterator@GU?$char_traits@G@std@@@std@@@std@@MBE?AV?$ostreambuf_iterator@GU?$char_traits@G@std@@@2@V32@AAVios_base@2@G_J@Z ENDP ; std::num_put<unsigned short,std::ostreambuf_iterator<unsigned short,std::char_traits<unsigned short> > >::do_put
; Function compile flags: /Ogsy
_TEXT	ENDS
;	COMDAT ?do_put@?$num_put@GV?$ostreambuf_iterator@GU?$char_traits@G@std@@@std@@@std@@MBE?AV?$ostreambuf_iterator@GU?$char_traits@G@std@@@2@V32@AAVios_base@2@GK@Z
_TEXT	SEGMENT
__Buf$ = -76						; size = 64
__Fmt$ = -12						; size = 6
__$ArrayPad$ = -4					; size = 4
__$ReturnAddr$ = 4					; size = 4
___$ReturnUdt$ = 8					; size = 4
__Dest$ = 12						; size = 8
__Iosbase$ = 20						; size = 4
__Fill$ = 24						; size = 2
__Val$ = 28						; size = 4
?do_put@?$num_put@GV?$ostreambuf_iterator@GU?$char_traits@G@std@@@std@@@std@@MBE?AV?$ostreambuf_iterator@GU?$char_traits@G@std@@@2@V32@AAVios_base@2@GK@Z PROC NEAR ; std::num_put<unsigned short,std::ostreambuf_iterator<unsigned short,std::char_traits<unsigned short> > >::do_put, COMDAT
; _this$ = ecx

; 919  : 		{	// put formatted unsigned long to _Dest

  00000	55		 push	 ebp
  00001	8b ec		 mov	 ebp, esp
  00003	83 ec 4c	 sub	 esp, 76			; 0000004cH
  00006	a1 00 00 00 00	 mov	 eax, DWORD PTR ___security_cookie
  0000b	56		 push	 esi

; 920  : 		char _Buf[2 * _MAX_INT_DIG], _Fmt[6];
; 921  : 		return (_Iput(_Dest, _Iosbase, _Fill, _Buf,
; 922  : 			::sprintf(_Buf, _Ifmt(_Fmt, "lu",
; 923  : 				_Iosbase.flags()), _Val)));

  0000c	8b 75 14	 mov	 esi, DWORD PTR __Iosbase$[ebp]
  0000f	57		 push	 edi
  00010	ff 75 1c	 push	 DWORD PTR __Val$[ebp]
  00013	89 45 fc	 mov	 DWORD PTR __$ArrayPad$[ebp], eax
  00016	8b 46 10	 mov	 eax, DWORD PTR [esi+16]
  00019	50		 push	 eax
  0001a	68 00 00 00 00	 push	 OFFSET FLAT:??_C@_02BDDLJJBK@lu?$AA@
  0001f	8d 45 f4	 lea	 eax, DWORD PTR __Fmt$[ebp]
  00022	8b f9		 mov	 edi, ecx
  00024	50		 push	 eax
  00025	57		 push	 edi
  00026	e8 00 00 00 00	 call	 ?_Ifmt@?$num_put@GV?$ostreambuf_iterator@GU?$char_traits@G@std@@@std@@@std@@ABAPADPADPBDH@Z ; std::num_put<unsigned short,std::ostreambuf_iterator<unsigned short,std::char_traits<unsigned short> > >::_Ifmt
  0002b	83 c4 10	 add	 esp, 16			; 00000010H
  0002e	50		 push	 eax
  0002f	8d 45 b4	 lea	 eax, DWORD PTR __Buf$[ebp]
  00032	50		 push	 eax
  00033	e8 00 00 00 00	 call	 _sprintf
  00038	50		 push	 eax
  00039	8d 45 b4	 lea	 eax, DWORD PTR __Buf$[ebp]
  0003c	50		 push	 eax
  0003d	ff 75 18	 push	 DWORD PTR __Fill$[ebp]
  00040	56		 push	 esi
  00041	ff 75 10	 push	 DWORD PTR __Dest$[ebp+4]
  00044	ff 75 0c	 push	 DWORD PTR __Dest$[ebp]
  00047	ff 75 08	 push	 DWORD PTR ___$ReturnUdt$[ebp]
  0004a	57		 push	 edi
  0004b	e8 00 00 00 00	 call	 ?_Iput@?$num_put@GV?$ostreambuf_iterator@GU?$char_traits@G@std@@@std@@@std@@ABA?AV?$ostreambuf_iterator@GU?$char_traits@G@std@@@2@V32@AAVios_base@2@GPADI@Z ; std::num_put<unsigned short,std::ostreambuf_iterator<unsigned short,std::char_traits<unsigned short> > >::_Iput

; 924  : 		}

  00050	8b 4d fc	 mov	 ecx, DWORD PTR __$ArrayPad$[ebp]
  00053	8b 45 08	 mov	 eax, DWORD PTR ___$ReturnUdt$[ebp]
  00056	83 c4 2c	 add	 esp, 44			; 0000002cH
  00059	5f		 pop	 edi
  0005a	5e		 pop	 esi
  0005b	e8 00 00 00 00	 call	 @__security_check_cookie@4
  00060	c9		 leave
  00061	c2 18 00	 ret	 24			; 00000018H
?do_put@?$num_put@GV?$ostreambuf_iterator@GU?$char_traits@G@std@@@std@@@std@@MBE?AV?$ostreambuf_iterator@GU?$char_traits@G@std@@@2@V32@AAVios_base@2@GK@Z ENDP ; std::num_put<unsigned short,std::ostreambuf_iterator<unsigned short,std::char_traits<unsigned short> > >::do_put
; Function compile flags: /Ogsy
_TEXT	ENDS
;	COMDAT ?do_put@?$num_put@GV?$ostreambuf_iterator@GU?$char_traits@G@std@@@std@@@std@@MBE?AV?$ostreambuf_iterator@GU?$char_traits@G@std@@@2@V32@AAVios_base@2@GJ@Z
_TEXT	SEGMENT
__Buf$ = -76						; size = 64
__Fmt$ = -12						; size = 6
__$ArrayPad$ = -4					; size = 4
__$ReturnAddr$ = 4					; size = 4
___$ReturnUdt$ = 8					; size = 4
__Dest$ = 12						; size = 8
__Iosbase$ = 20						; size = 4
__Fill$ = 24						; size = 2
__Val$ = 28						; size = 4
?do_put@?$num_put@GV?$ostreambuf_iterator@GU?$char_traits@G@std@@@std@@@std@@MBE?AV?$ostreambuf_iterator@GU?$char_traits@G@std@@@2@V32@AAVios_base@2@GJ@Z PROC NEAR ; std::num_put<unsigned short,std::ostreambuf_iterator<unsigned short,std::char_traits<unsigned short> > >::do_put, COMDAT
; _this$ = ecx

; 910  : 		{	// put formatted long to _Dest

  00000	55		 push	 ebp
  00001	8b ec		 mov	 ebp, esp
  00003	83 ec 4c	 sub	 esp, 76			; 0000004cH
  00006	a1 00 00 00 00	 mov	 eax, DWORD PTR ___security_cookie
  0000b	56		 push	 esi

; 911  : 		char _Buf[2 * _MAX_INT_DIG], _Fmt[6];
; 912  : 		return (_Iput(_Dest, _Iosbase, _Fill, _Buf,
; 913  : 			::sprintf(_Buf, _Ifmt(_Fmt, "ld",
; 914  : 				_Iosbase.flags()), _Val)));

  0000c	8b 75 14	 mov	 esi, DWORD PTR __Iosbase$[ebp]
  0000f	57		 push	 edi
  00010	ff 75 1c	 push	 DWORD PTR __Val$[ebp]
  00013	89 45 fc	 mov	 DWORD PTR __$ArrayPad$[ebp], eax
  00016	8b 46 10	 mov	 eax, DWORD PTR [esi+16]
  00019	50		 push	 eax
  0001a	68 00 00 00 00	 push	 OFFSET FLAT:??_C@_02EAOCLKAK@ld?$AA@
  0001f	8d 45 f4	 lea	 eax, DWORD PTR __Fmt$[ebp]
  00022	8b f9		 mov	 edi, ecx
  00024	50		 push	 eax
  00025	57		 push	 edi
  00026	e8 00 00 00 00	 call	 ?_Ifmt@?$num_put@GV?$ostreambuf_iterator@GU?$char_traits@G@std@@@std@@@std@@ABAPADPADPBDH@Z ; std::num_put<unsigned short,std::ostreambuf_iterator<unsigned short,std::char_traits<unsigned short> > >::_Ifmt
  0002b	83 c4 10	 add	 esp, 16			; 00000010H
  0002e	50		 push	 eax
  0002f	8d 45 b4	 lea	 eax, DWORD PTR __Buf$[ebp]
  00032	50		 push	 eax
  00033	e8 00 00 00 00	 call	 _sprintf
  00038	50		 push	 eax
  00039	8d 45 b4	 lea	 eax, DWORD PTR __Buf$[ebp]
  0003c	50		 push	 eax
  0003d	ff 75 18	 push	 DWORD PTR __Fill$[ebp]
  00040	56		 push	 esi
  00041	ff 75 10	 push	 DWORD PTR __Dest$[ebp+4]
  00044	ff 75 0c	 push	 DWORD PTR __Dest$[ebp]
  00047	ff 75 08	 push	 DWORD PTR ___$ReturnUdt$[ebp]
  0004a	57		 push	 edi
  0004b	e8 00 00 00 00	 call	 ?_Iput@?$num_put@GV?$ostreambuf_iterator@GU?$char_traits@G@std@@@std@@@std@@ABA?AV?$ostreambuf_iterator@GU?$char_traits@G@std@@@2@V32@AAVios_base@2@GPADI@Z ; std::num_put<unsigned short,std::ostreambuf_iterator<unsigned short,std::char_traits<unsigned short> > >::_Iput

; 915  : 		}

  00050	8b 4d fc	 mov	 ecx, DWORD PTR __$ArrayPad$[ebp]
  00053	8b 45 08	 mov	 eax, DWORD PTR ___$ReturnUdt$[ebp]
  00056	83 c4 2c	 add	 esp, 44			; 0000002cH
  00059	5f		 pop	 edi
  0005a	5e		 pop	 esi
  0005b	e8 00 00 00 00	 call	 @__security_check_cookie@4
  00060	c9		 leave
  00061	c2 18 00	 ret	 24			; 00000018H
?do_put@?$num_put@GV?$ostreambuf_iterator@GU?$char_traits@G@std@@@std@@@std@@MBE?AV?$ostreambuf_iterator@GU?$char_traits@G@std@@@2@V32@AAVios_base@2@GJ@Z ENDP ; std::num_put<unsigned short,std::ostreambuf_iterator<unsigned short,std::char_traits<unsigned short> > >::do_put
_TEXT	ENDS
;	COMDAT xdata$x
; File c:\program files (x86)\microsoft visual studio .net 2003\vc7\include\xiosbase
xdata$x	SEGMENT
$T61021	DD	0ffffffffH
	DD	FLAT:$L60983
	DD	00H
	DD	FLAT:$L60984
	DD	00H
	DD	00H
	DD	00H
	DD	00H
$T61023	DD	00H
	DD	00H
	DD	00H
	DD	FLAT:$L60982
$T61022	DD	02H
	DD	02H
	DD	03H
	DD	01H
	DD	FLAT:$T61023
$T61017	DD	019930520H
	DD	04H
	DD	FLAT:$T61021
	DD	01H
	DD	FLAT:$T61022
	DD	2 DUP(00H)
; Function compile flags: /Ogsy
; File c:\program files (x86)\microsoft visual studio .net 2003\vc7\include\ostream
xdata$x	ENDS
;	COMDAT ??6?$basic_ostream@DU?$char_traits@D@std@@@std@@QAEAAV01@I@Z
_TEXT	SEGMENT
$T60979 = -40						; size = 8
$T60978 = -40						; size = 8
__Ok$ = -32						; size = 8
$T60992 = -24						; size = 1
$T60975 = -24						; size = 4
__State$ = -20						; size = 4
__$EHRec$ = -16						; size = 16
_this$ = 8						; size = 4
__Val$ = 12						; size = 4
??6?$basic_ostream@DU?$char_traits@D@std@@@std@@QAEAAV01@I@Z PROC NEAR ; std::basic_ostream<char,std::char_traits<char> >::operator<<, COMDAT

; 253  : 		{	// insert an unsigned int

  00000	b8 00 00 00 00	 mov	 eax, __ehhandler$??6?$basic_ostream@DU?$char_traits@D@std@@@std@@QAEAAV01@I@Z
  00005	e8 00 00 00 00	 call	 __EH_prolog
  0000a	83 ec 1c	 sub	 esp, 28			; 0000001cH
  0000d	53		 push	 ebx
  0000e	56		 push	 esi
  0000f	57		 push	 edi
  00010	8b 7d 08	 mov	 edi, DWORD PTR _this$[ebp]

; 254  : 		ios_base::iostate _State = ios_base::goodbit;
; 255  : 		const sentry _Ok(*this);

  00013	8d 45 e0	 lea	 eax, DWORD PTR __Ok$[ebp]
  00016	89 65 f0	 mov	 DWORD PTR __$EHRec$[ebp], esp
  00019	33 db		 xor	 ebx, ebx
  0001b	50		 push	 eax
  0001c	89 5d ec	 mov	 DWORD PTR __State$[ebp], ebx
  0001f	e8 00 00 00 00	 call	 ??0sentry@?$basic_ostream@DU?$char_traits@D@std@@@std@@QAE@AAV12@@Z ; std::basic_ostream<char,std::char_traits<char> >::sentry::sentry
  00024	89 5d fc	 mov	 DWORD PTR __$EHRec$[ebp+12], ebx

; 256  : 
; 257  : 		if (_Ok)

  00027	38 5d e4	 cmp	 BYTE PTR __Ok$[ebp+4], bl
  0002a	0f 84 87 00 00
	00		 je	 $L24508

; 258  : 			{	// state okay, use facet to insert
; 259  : 			const _Nput& _Nput_fac = _USE(ios_base::getloc(), _Nput);

  00030	8d 45 e8	 lea	 eax, DWORD PTR $T60975[ebp]
  00033	50		 push	 eax
  00034	8b 07		 mov	 eax, DWORD PTR [edi]
  00036	8b 48 04	 mov	 ecx, DWORD PTR [eax+4]
  00039	03 cf		 add	 ecx, edi
  0003b	e8 00 00 00 00	 call	 ?getloc@ios_base@std@@QBE?AVlocale@2@XZ ; std::ios_base::getloc
  00040	50		 push	 eax
  00041	c6 45 fc 01	 mov	 BYTE PTR __$EHRec$[ebp+12], 1
  00045	e8 00 00 00 00	 call	 ??$use_facet@V?$num_put@DV?$ostreambuf_iterator@DU?$char_traits@D@std@@@std@@@std@@@std@@YAABV?$num_put@DV?$ostreambuf_iterator@DU?$char_traits@D@std@@@std@@@0@ABVlocale@0@@Z ; std::use_facet<std::num_put<char,std::ostreambuf_iterator<char,std::char_traits<char> > > >
  0004a	59		 pop	 ecx
  0004b	8d 4d e8	 lea	 ecx, DWORD PTR $T60975[ebp]
  0004e	8b f0		 mov	 esi, eax
  00050	e8 00 00 00 00	 call	 ??1locale@std@@QAE@XZ	; std::locale::~locale

; 260  : 
; 261  : 			_TRY_IO_BEGIN
; 262  : 			if (_Nput_fac.put(_Iter(_Myios::rdbuf()), *this,
; 263  : 				_Myios::fill(), (unsigned long)_Val).failed())

  00055	ff 75 0c	 push	 DWORD PTR __Val$[ebp]
  00058	c6 45 fc 02	 mov	 BYTE PTR __$EHRec$[ebp+12], 2
  0005c	8b 0f		 mov	 ecx, DWORD PTR [edi]
  0005e	8b 41 04	 mov	 eax, DWORD PTR [ecx+4]
  00061	8b 49 04	 mov	 ecx, DWORD PTR [ecx+4]
  00064	03 cf		 add	 ecx, edi
  00066	8a 51 30	 mov	 dl, BYTE PTR [ecx+48]
  00069	8b 49 28	 mov	 ecx, DWORD PTR [ecx+40]
  0006c	88 55 e8	 mov	 BYTE PTR $T60992[ebp], dl
  0006f	ff 75 e8	 push	 DWORD PTR $T60992[ebp]
  00072	03 c7		 add	 eax, edi
  00074	50		 push	 eax
  00075	51		 push	 ecx
  00076	88 5d d8	 mov	 BYTE PTR $T60978[ebp], bl
  00079	ff 75 d8	 push	 DWORD PTR $T60978[ebp]
  0007c	8d 45 d8	 lea	 eax, DWORD PTR $T60979[ebp]
  0007f	50		 push	 eax
  00080	8b ce		 mov	 ecx, esi
  00082	e8 00 00 00 00	 call	 ?put@?$num_put@DV?$ostreambuf_iterator@DU?$char_traits@D@std@@@std@@@std@@QBE?AV?$ostreambuf_iterator@DU?$char_traits@D@std@@@2@V32@AAVios_base@2@DK@Z ; std::num_put<char,std::ostreambuf_iterator<char,std::char_traits<char> > >::put
  00087	38 18		 cmp	 BYTE PTR [eax], bl
  00089	74 2c		 je	 SHORT $L24508

; 264  : 				_State |= ios_base::badbit;

  0008b	c7 45 ec 04 00
	00 00		 mov	 DWORD PTR __State$[ebp], 4
  00092	eb 23		 jmp	 SHORT $L24508
$L60982:

; 265  : 			_CATCH_IO_END

  00094	8b 45 08	 mov	 eax, DWORD PTR _this$[ebp]
  00097	8b 08		 mov	 ecx, DWORD PTR [eax]
  00099	8b 49 04	 mov	 ecx, DWORD PTR [ecx+4]
  0009c	03 c8		 add	 ecx, eax
  0009e	8b 41 08	 mov	 eax, DWORD PTR [ecx+8]
  000a1	6a 01		 push	 1
  000a3	83 c8 04	 or	 eax, 4
  000a6	50		 push	 eax
  000a7	e8 00 00 00 00	 call	 ?clear@?$basic_ios@DU?$char_traits@D@std@@@std@@QAEXH_N@Z ; std::basic_ios<char,std::char_traits<char> >::clear
  000ac	b8 00 00 00 00	 mov	 eax, $L61018
  000b1	c3		 ret	 0
$L61018:
  000b2	8b 7d 08	 mov	 edi, DWORD PTR _this$[ebp]
  000b5	33 db		 xor	 ebx, ebx
$L24508:
  000b7	89 5d fc	 mov	 DWORD PTR __$EHRec$[ebp+12], ebx

; 266  : 			}
; 267  : 
; 268  : 		_Myios::setstate(_State);

  000ba	8b 07		 mov	 eax, DWORD PTR [edi]
  000bc	8b 48 04	 mov	 ecx, DWORD PTR [eax+4]
  000bf	53		 push	 ebx
  000c0	ff 75 ec	 push	 DWORD PTR __State$[ebp]
  000c3	03 cf		 add	 ecx, edi
  000c5	e8 00 00 00 00	 call	 ?setstate@?$basic_ios@DU?$char_traits@D@std@@@std@@QAEXH_N@Z ; std::basic_ios<char,std::char_traits<char> >::setstate

; 269  : 		return (*this);

  000ca	83 4d fc ff	 or	 DWORD PTR __$EHRec$[ebp+12], -1
  000ce	8d 45 e0	 lea	 eax, DWORD PTR __Ok$[ebp]
  000d1	50		 push	 eax
  000d2	e8 00 00 00 00	 call	 ??1sentry@?$basic_ostream@DU?$char_traits@D@std@@@std@@QAE@XZ ; std::basic_ostream<char,std::char_traits<char> >::sentry::~sentry

; 270  : 		}

  000d7	8b 4d f4	 mov	 ecx, DWORD PTR __$EHRec$[ebp+4]
  000da	8b c7		 mov	 eax, edi
  000dc	5f		 pop	 edi
  000dd	5e		 pop	 esi
  000de	64 89 0d 00 00
	00 00		 mov	 DWORD PTR fs:__except_list, ecx
  000e5	5b		 pop	 ebx
  000e6	c9		 leave
  000e7	c2 08 00	 ret	 8
_TEXT	ENDS
;	COMDAT text$x
text$x	SEGMENT
$L60983:
  00000	8d 45 e0	 lea	 eax, DWORD PTR __Ok$[ebp]
  00003	50		 push	 eax
  00004	e8 00 00 00 00	 call	 ??1sentry@?$basic_ostream@DU?$char_traits@D@std@@@std@@QAE@XZ ; std::basic_ostream<char,std::char_traits<char> >::sentry::~sentry
  00009	c3		 ret	 0
$L60984:
  0000a	8d 4d e8	 lea	 ecx, DWORD PTR $T60975[ebp]
  0000d	e9 00 00 00 00	 jmp	 ??1locale@std@@QAE@XZ	; std::locale::~locale
__ehhandler$??6?$basic_ostream@DU?$char_traits@D@std@@@std@@QAEAAV01@I@Z:
  00012	b8 00 00 00 00	 mov	 eax, OFFSET FLAT:$T61017
  00017	e9 00 00 00 00	 jmp	 ___CxxFrameHandler
text$x	ENDS
??6?$basic_ostream@DU?$char_traits@D@std@@@std@@QAEAAV01@I@Z ENDP ; std::basic_ostream<char,std::char_traits<char> >::operator<<
; Function compile flags: /Ogsy
; File c:\program files (x86)\microsoft visual studio .net 2003\vc7\include\xstring
;	COMDAT ??0?$basic_string@DU?$char_traits@D@std@@V?$allocator@D@2@@std@@QAE@ABV01@@Z
_TEXT	SEGMENT
__Right$ = 8						; size = 4
??0?$basic_string@DU?$char_traits@D@std@@V?$allocator@D@2@@std@@QAE@ABV01@@Z PROC NEAR ; std::basic_string<char,std::char_traits<char>,std::allocator<char> >::basic_string<char,std::char_traits<char>,std::allocator<char> >, COMDAT
; _this$ = ecx

; 323  : 		{	// construct by copying _Right

  00000	56		 push	 esi
  00001	8b f1		 mov	 esi, ecx

; 324  : 		_Tidy();

  00003	6a 00		 push	 0
  00005	c7 46 18 0f 00
	00 00		 mov	 DWORD PTR [esi+24], 15	; 0000000fH
  0000c	e8 00 00 00 00	 call	 ?_Eos@?$basic_string@DU?$char_traits@D@std@@V?$allocator@D@2@@std@@IAEXI@Z ; std::basic_string<char,std::char_traits<char>,std::allocator<char> >::_Eos

; 325  : 		assign(_Right, 0, npos);

  00011	6a ff		 push	 -1
  00013	6a 00		 push	 0
  00015	ff 74 24 10	 push	 DWORD PTR __Right$[esp+8]
  00019	8b ce		 mov	 ecx, esi
  0001b	e8 00 00 00 00	 call	 ?assign@?$basic_string@DU?$char_traits@D@std@@V?$allocator@D@2@@std@@QAEAAV12@ABV12@II@Z ; std::basic_string<char,std::char_traits<char>,std::allocator<char> >::assign

; 326  : 		}

  00020	8b c6		 mov	 eax, esi
  00022	5e		 pop	 esi
  00023	c2 04 00	 ret	 4
??0?$basic_string@DU?$char_traits@D@std@@V?$allocator@D@2@@std@@QAE@ABV01@@Z ENDP ; std::basic_string<char,std::char_traits<char>,std::allocator<char> >::basic_string<char,std::char_traits<char>,std::allocator<char> >
_TEXT	ENDS
;	COMDAT xdata$x
; File c:\program files (x86)\microsoft visual studio .net 2003\vc7\include\xiosbase
xdata$x	SEGMENT
$T63142	DD	0ffffffffH
	DD	FLAT:$L63111
	DD	00H
	DD	00H
	DD	00H
	DD	00H
$T63144	DD	00H
	DD	00H
	DD	00H
	DD	FLAT:$L63110
$T63143	DD	01H
	DD	01H
	DD	02H
	DD	01H
	DD	FLAT:$T63144
$T63138	DD	019930520H
	DD	03H
	DD	FLAT:$T63142
	DD	01H
	DD	FLAT:$T63143
	DD	2 DUP(00H)
; Function compile flags: /Ogsy
; File c:\program files (x86)\microsoft visual studio .net 2003\vc7\include\ostream
xdata$x	ENDS
;	COMDAT ?put@?$basic_ostream@DU?$char_traits@D@std@@@std@@QAEAAV12@D@Z
_TEXT	SEGMENT
__Ok$ = -28						; size = 8
__State$ = -20						; size = 4
__$EHRec$ = -16						; size = 16
_this$ = 8						; size = 4
__Ch$ = 12						; size = 1
?put@?$basic_ostream@DU?$char_traits@D@std@@@std@@QAEAAV12@D@Z PROC NEAR ; std::basic_ostream<char,std::char_traits<char> >::put, COMDAT

; 471  : 		{	// insert a character

  00000	b8 00 00 00 00	 mov	 eax, __ehhandler$?put@?$basic_ostream@DU?$char_traits@D@std@@@std@@QAEAAV12@D@Z
  00005	e8 00 00 00 00	 call	 __EH_prolog
  0000a	83 ec 10	 sub	 esp, 16			; 00000010H
  0000d	53		 push	 ebx
  0000e	56		 push	 esi
  0000f	57		 push	 edi
  00010	8b 7d 08	 mov	 edi, DWORD PTR _this$[ebp]

; 472  : 		ios_base::iostate _State = ios_base::goodbit;
; 473  : 		const sentry _Ok(*this);

  00013	8d 45 e4	 lea	 eax, DWORD PTR __Ok$[ebp]
  00016	89 65 f0	 mov	 DWORD PTR __$EHRec$[ebp], esp
  00019	33 db		 xor	 ebx, ebx
  0001b	50		 push	 eax
  0001c	89 5d ec	 mov	 DWORD PTR __State$[ebp], ebx
  0001f	e8 00 00 00 00	 call	 ??0sentry@?$basic_ostream@DU?$char_traits@D@std@@@std@@QAE@AAV12@@Z ; std::basic_ostream<char,std::char_traits<char> >::sentry::sentry
  00024	89 5d fc	 mov	 DWORD PTR __$EHRec$[ebp+12], ebx

; 474  : 
; 475  : 		if (!_Ok)

  00027	38 5d e8	 cmp	 BYTE PTR __Ok$[ebp+4], bl

; 476  : 			_State |= ios_base::badbit;
; 477  : 		else

  0002a	74 1a		 je	 SHORT $L63141

; 478  : 			{	// state okay, insert character
; 479  : 			_TRY_IO_BEGIN
; 480  : 			if (_Traits::eq_int_type(_Traits::eof(),
; 481  : 				_Myios::rdbuf()->sputc(_Ch)))

  0002c	ff 75 0c	 push	 DWORD PTR __Ch$[ebp]
  0002f	c6 45 fc 01	 mov	 BYTE PTR __$EHRec$[ebp+12], 1
  00033	8b 07		 mov	 eax, DWORD PTR [edi]
  00035	8b 40 04	 mov	 eax, DWORD PTR [eax+4]
  00038	8b 4c 38 28	 mov	 ecx, DWORD PTR [eax+edi+40]
  0003c	e8 00 00 00 00	 call	 ?sputc@?$basic_streambuf@DU?$char_traits@D@std@@@std@@QAEHD@Z ; std::basic_streambuf<char,std::char_traits<char> >::sputc
  00041	83 f8 ff	 cmp	 eax, -1
  00044	75 2c		 jne	 SHORT $L22937
$L63141:

; 482  : 				_State |= ios_base::badbit;

  00046	c7 45 ec 04 00
	00 00		 mov	 DWORD PTR __State$[ebp], 4
  0004d	eb 23		 jmp	 SHORT $L22937
$L63110:

; 483  : 			_CATCH_IO_END

  0004f	8b 45 08	 mov	 eax, DWORD PTR _this$[ebp]
  00052	8b 08		 mov	 ecx, DWORD PTR [eax]
  00054	8b 49 04	 mov	 ecx, DWORD PTR [ecx+4]
  00057	03 c8		 add	 ecx, eax
  00059	8b 41 08	 mov	 eax, DWORD PTR [ecx+8]
  0005c	6a 01		 push	 1
  0005e	83 c8 04	 or	 eax, 4
  00061	50		 push	 eax
  00062	e8 00 00 00 00	 call	 ?clear@?$basic_ios@DU?$char_traits@D@std@@@std@@QAEXH_N@Z ; std::basic_ios<char,std::char_traits<char> >::clear
  00067	b8 00 00 00 00	 mov	 eax, $L63139
  0006c	c3		 ret	 0
$L63139:
  0006d	8b 7d 08	 mov	 edi, DWORD PTR _this$[ebp]
  00070	33 db		 xor	 ebx, ebx
$L22937:
  00072	89 5d fc	 mov	 DWORD PTR __$EHRec$[ebp+12], ebx

; 484  : 			}
; 485  : 
; 486  : 		_Myios::setstate(_State);

  00075	8b 07		 mov	 eax, DWORD PTR [edi]
  00077	8b 48 04	 mov	 ecx, DWORD PTR [eax+4]
  0007a	53		 push	 ebx
  0007b	ff 75 ec	 push	 DWORD PTR __State$[ebp]
  0007e	03 cf		 add	 ecx, edi
  00080	e8 00 00 00 00	 call	 ?setstate@?$basic_ios@DU?$char_traits@D@std@@@std@@QAEXH_N@Z ; std::basic_ios<char,std::char_traits<char> >::setstate

; 487  : 		return (*this);

  00085	83 4d fc ff	 or	 DWORD PTR __$EHRec$[ebp+12], -1
  00089	8d 45 e4	 lea	 eax, DWORD PTR __Ok$[ebp]
  0008c	50		 push	 eax
  0008d	e8 00 00 00 00	 call	 ??1sentry@?$basic_ostream@DU?$char_traits@D@std@@@std@@QAE@XZ ; std::basic_ostream<char,std::char_traits<char> >::sentry::~sentry

; 488  : 		}

  00092	8b 4d f4	 mov	 ecx, DWORD PTR __$EHRec$[ebp+4]
  00095	8b c7		 mov	 eax, edi
  00097	5f		 pop	 edi
  00098	5e		 pop	 esi
  00099	64 89 0d 00 00
	00 00		 mov	 DWORD PTR fs:__except_list, ecx
  000a0	5b		 pop	 ebx
  000a1	c9		 leave
  000a2	c2 08 00	 ret	 8
_TEXT	ENDS
;	COMDAT text$x
text$x	SEGMENT
$L63111:
  00000	8d 45 e4	 lea	 eax, DWORD PTR __Ok$[ebp]
  00003	50		 push	 eax
  00004	e8 00 00 00 00	 call	 ??1sentry@?$basic_ostream@DU?$char_traits@D@std@@@std@@QAE@XZ ; std::basic_ostream<char,std::char_traits<char> >::sentry::~sentry
  00009	c3		 ret	 0
__ehhandler$?put@?$basic_ostream@DU?$char_traits@D@std@@@std@@QAEAAV12@D@Z:
  0000a	b8 00 00 00 00	 mov	 eax, OFFSET FLAT:$T63138
  0000f	e9 00 00 00 00	 jmp	 ___CxxFrameHandler
text$x	ENDS
?put@?$basic_ostream@DU?$char_traits@D@std@@@std@@QAEAAV12@D@Z ENDP ; std::basic_ostream<char,std::char_traits<char> >::put
; Function compile flags: /Ogsy
;	COMDAT ?endl@std@@YAAAV?$basic_ostream@DU?$char_traits@D@std@@@1@AAV21@@Z
_TEXT	SEGMENT
__Ostr$ = 8						; size = 4
?endl@std@@YAAAV?$basic_ostream@DU?$char_traits@D@std@@@1@AAV21@@Z PROC NEAR ; std::endl, COMDAT

; 921  : 	{	// insert newline and flush byte stream

  00000	56		 push	 esi

; 922  : 	_Ostr.put('\n');

  00001	8b 74 24 08	 mov	 esi, DWORD PTR __Ostr$[esp]
  00005	6a 0a		 push	 10			; 0000000aH
  00007	56		 push	 esi
  00008	e8 00 00 00 00	 call	 ?put@?$basic_ostream@DU?$char_traits@D@std@@@std@@QAEAAV12@D@Z ; std::basic_ostream<char,std::char_traits<char> >::put

; 923  : 	_Ostr.flush();

  0000d	e8 00 00 00 00	 call	 ?flush@?$basic_ostream@DU?$char_traits@D@std@@@std@@QAEAAV12@XZ ; std::basic_ostream<char,std::char_traits<char> >::flush

; 924  : 	return (_Ostr);

  00012	8b c6		 mov	 eax, esi
  00014	5e		 pop	 esi

; 925  : 	}

  00015	c3		 ret	 0
?endl@std@@YAAAV?$basic_ostream@DU?$char_traits@D@std@@@1@AAV21@@Z ENDP ; std::endl
_TEXT	ENDS
;	COMDAT xdata$x
; File c:\program files (x86)\microsoft visual studio .net 2003\vc7\include\xiosbase
xdata$x	SEGMENT
$T63182	DD	0ffffffffH
	DD	FLAT:$L63152
$T63180	DD	019930520H
	DD	01H
	DD	FLAT:$T63182
	DD	2 DUP(00H)
	DD	2 DUP(00H)
; Function compile flags: /Ogsy
; File c:\program files (x86)\microsoft visual studio .net 2003\vc7\include\ostream
xdata$x	ENDS
;	COMDAT ??0sentry@?$basic_ostream@GU?$char_traits@G@std@@@std@@QAE@AAV12@@Z
_TEXT	SEGMENT
__$EHRec$ = -12						; size = 12
_this$ = 8						; size = 4
??0sentry@?$basic_ostream@GU?$char_traits@G@std@@@std@@QAE@AAV12@@Z PROC NEAR ; std::basic_ostream<unsigned short,std::char_traits<unsigned short> >::sentry::sentry, COMDAT
; __Ostr$ = edi

; 88   : 			{	// construct locking and testing stream

  00000	b8 00 00 00 00	 mov	 eax, __ehhandler$??0sentry@?$basic_ostream@GU?$char_traits@G@std@@@std@@QAE@AAV12@@Z
  00005	e8 00 00 00 00	 call	 __EH_prolog
  0000a	56		 push	 esi
  0000b	8b 75 08	 mov	 esi, DWORD PTR _this$[ebp]
  0000e	8b c7		 mov	 eax, edi
  00010	e8 00 00 00 00	 call	 ??0_Sentry_base@?$basic_ostream@GU?$char_traits@G@std@@@std@@QAE@AAV12@@Z ; std::basic_ostream<unsigned short,std::char_traits<unsigned short> >::_Sentry_base::_Sentry_base
  00015	83 65 fc 00	 and	 DWORD PTR __$EHRec$[ebp+8], 0

; 89   : 			if (_Ostr.good() && _Ostr.tie() != 0)

  00019	8b 07		 mov	 eax, DWORD PTR [edi]
  0001b	8b 40 04	 mov	 eax, DWORD PTR [eax+4]
  0001e	03 c7		 add	 eax, edi
  00020	83 78 08 00	 cmp	 DWORD PTR [eax+8], 0
  00024	75 0e		 jne	 SHORT $L22789
  00026	8b 40 2c	 mov	 eax, DWORD PTR [eax+44]
  00029	85 c0		 test	 eax, eax
  0002b	74 07		 je	 SHORT $L22789

; 90   : 				_Ostr.tie()->flush();

  0002d	8b c8		 mov	 ecx, eax
  0002f	e8 00 00 00 00	 call	 ?flush@?$basic_ostream@GU?$char_traits@G@std@@@std@@QAEAAV12@XZ ; std::basic_ostream<unsigned short,std::char_traits<unsigned short> >::flush
$L22789:

; 91   : 			_Ok = _Ostr.good();	// store test only after flushing tie

  00034	8b 07		 mov	 eax, DWORD PTR [edi]
  00036	8b 40 04	 mov	 eax, DWORD PTR [eax+4]
  00039	83 7c 38 08 00	 cmp	 DWORD PTR [eax+edi+8], 0

; 92   : 			}

  0003e	8b 4d f4	 mov	 ecx, DWORD PTR __$EHRec$[ebp]
  00041	0f 94 c0	 sete	 al
  00044	88 46 04	 mov	 BYTE PTR [esi+4], al
  00047	8b c6		 mov	 eax, esi
  00049	5e		 pop	 esi
  0004a	64 89 0d 00 00
	00 00		 mov	 DWORD PTR fs:__except_list, ecx
  00051	c9		 leave
  00052	c2 04 00	 ret	 4
_TEXT	ENDS
;	COMDAT text$x
text$x	SEGMENT
$L63152:
  00000	8b 45 08	 mov	 eax, DWORD PTR _this$[ebp]
  00003	e9 00 00 00 00	 jmp	 ??1_Sentry_base@?$basic_ostream@GU?$char_traits@G@std@@@std@@QAE@XZ ; std::basic_ostream<unsigned short,std::char_traits<unsigned short> >::_Sentry_base::~_Sentry_base
__ehhandler$??0sentry@?$basic_ostream@GU?$char_traits@G@std@@@std@@QAE@AAV12@@Z:
  00008	b8 00 00 00 00	 mov	 eax, OFFSET FLAT:$T63180
  0000d	e9 00 00 00 00	 jmp	 ___CxxFrameHandler
text$x	ENDS
??0sentry@?$basic_ostream@GU?$char_traits@G@std@@@std@@QAE@AAV12@@Z ENDP ; std::basic_ostream<unsigned short,std::char_traits<unsigned short> >::sentry::sentry
;	COMDAT xdata$x
; File c:\program files (x86)\microsoft visual studio .net 2003\vc7\include\xiosbase
xdata$x	SEGMENT
$T63283	DD	0ffffffffH
	DD	FLAT:$L63196
	DD	00H
	DD	00H
	DD	00H
	DD	00H
$T63285	DD	00H
	DD	00H
	DD	00H
	DD	FLAT:$L63195
$T63284	DD	01H
	DD	01H
	DD	02H
	DD	01H
	DD	FLAT:$T63285
$T63272	DD	019930520H
	DD	03H
	DD	FLAT:$T63283
	DD	01H
	DD	FLAT:$T63284
	DD	2 DUP(00H)
; Function compile flags: /Ogsy
; File c:\program files (x86)\microsoft visual studio .net 2003\vc7\include\ostream
xdata$x	ENDS
;	COMDAT ??$?6GU?$char_traits@G@std@@@std@@YAAAV?$basic_ostream@GU?$char_traits@G@std@@@0@AAV10@PBG@Z
_TEXT	SEGMENT
__Ok$ = -28						; size = 8
__State$ = -20						; size = 4
__$EHRec$ = -16						; size = 16
__Ostr$ = 8						; size = 4
__Val$ = 12						; size = 4
??$?6GU?$char_traits@G@std@@@std@@YAAAV?$basic_ostream@GU?$char_traits@G@std@@@0@AAV10@PBG@Z PROC NEAR ; std::operator<<<unsigned short,std::char_traits<unsigned short> >, COMDAT

; 785  : 	{	// insert NTCS

  00000	b8 00 00 00 00	 mov	 eax, __ehhandler$??$?6GU?$char_traits@G@std@@@std@@YAAAV?$basic_ostream@GU?$char_traits@G@std@@@0@AAV10@PBG@Z
  00005	e8 00 00 00 00	 call	 __EH_prolog
  0000a	83 ec 10	 sub	 esp, 16			; 00000010H
  0000d	53		 push	 ebx
  0000e	56		 push	 esi
  0000f	57		 push	 edi
  00010	8b 7d 08	 mov	 edi, DWORD PTR __Ostr$[ebp]
  00013	89 65 f0	 mov	 DWORD PTR __$EHRec$[ebp], esp

; 786  : 	typedef basic_ostream<_Elem, _Traits> _Myos;
; 787  : 	ios_base::iostate _State = ios_base::goodbit;
; 788  : 	streamsize _Count = (streamsize)_Traits::length(_Val);	// may overflow

  00016	ff 75 0c	 push	 DWORD PTR __Val$[ebp]
  00019	33 db		 xor	 ebx, ebx
  0001b	89 5d ec	 mov	 DWORD PTR __State$[ebp], ebx
  0001e	e8 00 00 00 00	 call	 _wcslen
  00023	8b f0		 mov	 esi, eax

; 789  : 	streamsize _Pad = _Ostr.width() <= 0 || _Ostr.width() <= _Count
; 790  : 		? 0 : _Ostr.width() - _Count;

  00025	8b 07		 mov	 eax, DWORD PTR [edi]
  00027	8b 40 04	 mov	 eax, DWORD PTR [eax+4]
  0002a	8b 44 38 18	 mov	 eax, DWORD PTR [eax+edi+24]
  0002e	3b c3		 cmp	 eax, ebx
  00030	59		 pop	 ecx
  00031	7e 08		 jle	 SHORT $L63188
  00033	3b c6		 cmp	 eax, esi
  00035	7e 04		 jle	 SHORT $L63188
  00037	2b c6		 sub	 eax, esi
  00039	8b d8		 mov	 ebx, eax
$L63188:

; 791  : 	const typename _Myos::sentry _Ok(_Ostr);

  0003b	8d 45 e4	 lea	 eax, DWORD PTR __Ok$[ebp]
  0003e	50		 push	 eax
  0003f	e8 00 00 00 00	 call	 ??0sentry@?$basic_ostream@GU?$char_traits@G@std@@@std@@QAE@AAV12@@Z ; std::basic_ostream<unsigned short,std::char_traits<unsigned short> >::sentry::sentry
  00044	83 65 fc 00	 and	 DWORD PTR __$EHRec$[ebp+12], 0

; 792  : 
; 793  : 	if (!_Ok)

  00048	80 7d e8 00	 cmp	 BYTE PTR __Ok$[ebp+4], 0
  0004c	75 0c		 jne	 SHORT $L26214

; 794  : 		_State |= ios_base::badbit;

  0004e	c7 45 ec 04 00
	00 00		 mov	 DWORD PTR __State$[ebp], 4

; 795  : 	else

  00055	e9 bc 00 00 00	 jmp	 $L63256
$L26214:

; 796  : 		{	// state okay, insert
; 797  : 		_TRY_IO_BEGIN

  0005a	c6 45 fc 01	 mov	 BYTE PTR __$EHRec$[ebp+12], 1

; 798  : 		if ((_Ostr.flags() & ios_base::adjustfield) != ios_base::left)

  0005e	8b 07		 mov	 eax, DWORD PTR [edi]
  00060	8b 40 04	 mov	 eax, DWORD PTR [eax+4]
  00063	8b 44 38 10	 mov	 eax, DWORD PTR [eax+edi+16]
  00067	25 c0 01 00 00	 and	 eax, 448		; 000001c0H
  0006c	83 f8 40	 cmp	 eax, 64			; 00000040H
  0006f	74 2c		 je	 SHORT $L63275
$L26218:

; 799  : 			for (; 0 < _Pad; --_Pad)	// pad on left

  00071	85 db		 test	 ebx, ebx
  00073	7e 22		 jle	 SHORT $L26220

; 800  : 				if (_Traits::eq_int_type(_Traits::eof(),
; 801  : 					_Ostr.rdbuf()->sputc(_Ostr.fill())))

  00075	8b 07		 mov	 eax, DWORD PTR [edi]
  00077	8b 40 04	 mov	 eax, DWORD PTR [eax+4]
  0007a	03 c7		 add	 eax, edi
  0007c	33 d2		 xor	 edx, edx
  0007e	66 8b 50 30	 mov	 dx, WORD PTR [eax+48]
  00082	8b 40 28	 mov	 eax, DWORD PTR [eax+40]
  00085	8b c8		 mov	 ecx, eax
  00087	52		 push	 edx
  00088	e8 00 00 00 00	 call	 ?sputc@?$basic_streambuf@GU?$char_traits@G@std@@@std@@QAEGG@Z ; std::basic_streambuf<unsigned short,std::char_traits<unsigned short> >::sputc
  0008d	66 3d ff ff	 cmp	 ax, 65535		; 0000ffffH
  00091	75 34		 jne	 SHORT $L26219

; 802  : 					{	// insertion failed, quit
; 803  : 					_State |= ios_base::badbit;

  00093	83 4d ec 04	 or	 DWORD PTR __State$[ebp], 4
$L26220:

; 804  : 					break;
; 805  : 					}
; 806  : 
; 807  : 		if (_State == ios_base::goodbit
; 808  : 			&& _Ostr.rdbuf()->sputn(_Val, _Count) != _Count)

  00097	83 7d ec 00	 cmp	 DWORD PTR __State$[ebp], 0
  0009b	75 1d		 jne	 SHORT $L26228
$L63275:
  0009d	8b 07		 mov	 eax, DWORD PTR [edi]
  0009f	8b 40 04	 mov	 eax, DWORD PTR [eax+4]
  000a2	8b 4c 38 28	 mov	 ecx, DWORD PTR [eax+edi+40]
  000a6	8b 01		 mov	 eax, DWORD PTR [ecx]
  000a8	56		 push	 esi
  000a9	ff 75 0c	 push	 DWORD PTR __Val$[ebp]
  000ac	ff 50 1c	 call	 DWORD PTR [eax+28]
  000af	3b c6		 cmp	 eax, esi
  000b1	74 17		 je	 SHORT $L63276

; 809  : 			_State |= ios_base::badbit;

  000b3	c7 45 ec 04 00
	00 00		 mov	 DWORD PTR __State$[ebp], 4
$L26228:

; 818  : 					}
; 819  : 		_Ostr.width(0);

  000ba	8b 07		 mov	 eax, DWORD PTR [edi]
  000bc	8b 40 04	 mov	 eax, DWORD PTR [eax+4]
  000bf	03 c7		 add	 eax, edi
  000c1	83 60 18 00	 and	 DWORD PTR [eax+24], 0
  000c5	eb 4f		 jmp	 SHORT $L63256
$L26219:

; 799  : 			for (; 0 < _Pad; --_Pad)	// pad on left

  000c7	4b		 dec	 ebx
  000c8	eb a7		 jmp	 SHORT $L26218
$L63276:

; 810  : 
; 811  : 		if (_State == ios_base::goodbit)
; 812  : 			for (; 0 < _Pad; --_Pad)	// pad on right

  000ca	85 db		 test	 ebx, ebx
  000cc	7e ec		 jle	 SHORT $L26228

; 813  : 				if (_Traits::eq_int_type(_Traits::eof(),
; 814  : 					_Ostr.rdbuf()->sputc(_Ostr.fill())))

  000ce	8b 07		 mov	 eax, DWORD PTR [edi]
  000d0	8b 40 04	 mov	 eax, DWORD PTR [eax+4]
  000d3	03 c7		 add	 eax, edi
  000d5	33 d2		 xor	 edx, edx
  000d7	66 8b 50 30	 mov	 dx, WORD PTR [eax+48]
  000db	8b 40 28	 mov	 eax, DWORD PTR [eax+40]
  000de	8b c8		 mov	 ecx, eax
  000e0	52		 push	 edx
  000e1	e8 00 00 00 00	 call	 ?sputc@?$basic_streambuf@GU?$char_traits@G@std@@@std@@QAEGG@Z ; std::basic_streambuf<unsigned short,std::char_traits<unsigned short> >::sputc
  000e6	66 3d ff ff	 cmp	 ax, 65535		; 0000ffffH
  000ea	75 06		 jne	 SHORT $L26227

; 815  : 					{	// insertion failed, quit
; 816  : 					_State |= ios_base::badbit;

  000ec	83 4d ec 04	 or	 DWORD PTR __State$[ebp], 4

; 817  : 					break;

  000f0	eb c8		 jmp	 SHORT $L26228
$L26227:

; 810  : 
; 811  : 		if (_State == ios_base::goodbit)
; 812  : 			for (; 0 < _Pad; --_Pad)	// pad on right

  000f2	4b		 dec	 ebx
  000f3	eb d5		 jmp	 SHORT $L63276
$L63195:

; 820  : 		_CATCH_IO_(_Ostr)

  000f5	8b 45 08	 mov	 eax, DWORD PTR __Ostr$[ebp]
  000f8	8b 08		 mov	 ecx, DWORD PTR [eax]
  000fa	8b 49 04	 mov	 ecx, DWORD PTR [ecx+4]
  000fd	03 c8		 add	 ecx, eax
  000ff	8b 41 08	 mov	 eax, DWORD PTR [ecx+8]
  00102	6a 01		 push	 1
  00104	83 c8 04	 or	 eax, 4
  00107	50		 push	 eax
  00108	e8 00 00 00 00	 call	 ?clear@?$basic_ios@GU?$char_traits@G@std@@@std@@QAEXH_N@Z ; std::basic_ios<unsigned short,std::char_traits<unsigned short> >::clear
  0010d	b8 00 00 00 00	 mov	 eax, $L63280
  00112	c3		 ret	 0
$L63280:

; 818  : 					}
; 819  : 		_Ostr.width(0);

  00113	8b 7d 08	 mov	 edi, DWORD PTR __Ostr$[ebp]
$L63256:

; 820  : 		_CATCH_IO_(_Ostr)

  00116	83 65 fc 00	 and	 DWORD PTR __$EHRec$[ebp+12], 0

; 821  : 		}
; 822  : 
; 823  : 	_Ostr.setstate(_State);

  0011a	8b 07		 mov	 eax, DWORD PTR [edi]
  0011c	8b 48 04	 mov	 ecx, DWORD PTR [eax+4]
  0011f	6a 00		 push	 0
  00121	ff 75 ec	 push	 DWORD PTR __State$[ebp]
  00124	03 cf		 add	 ecx, edi
  00126	e8 00 00 00 00	 call	 ?setstate@?$basic_ios@GU?$char_traits@G@std@@@std@@QAEXH_N@Z ; std::basic_ios<unsigned short,std::char_traits<unsigned short> >::setstate

; 824  : 	return (_Ostr);

  0012b	83 4d fc ff	 or	 DWORD PTR __$EHRec$[ebp+12], -1
  0012f	8d 45 e4	 lea	 eax, DWORD PTR __Ok$[ebp]
  00132	50		 push	 eax
  00133	e8 00 00 00 00	 call	 ??1sentry@?$basic_ostream@GU?$char_traits@G@std@@@std@@QAE@XZ ; std::basic_ostream<unsigned short,std::char_traits<unsigned short> >::sentry::~sentry

; 825  : 	}

  00138	8b 4d f4	 mov	 ecx, DWORD PTR __$EHRec$[ebp+4]
  0013b	8b c7		 mov	 eax, edi
  0013d	5f		 pop	 edi
  0013e	5e		 pop	 esi
  0013f	64 89 0d 00 00
	00 00		 mov	 DWORD PTR fs:__except_list, ecx
  00146	5b		 pop	 ebx
  00147	c9		 leave
  00148	c3		 ret	 0
_TEXT	ENDS
;	COMDAT text$x
text$x	SEGMENT
$L63196:
  00000	8d 45 e4	 lea	 eax, DWORD PTR __Ok$[ebp]
  00003	50		 push	 eax
  00004	e8 00 00 00 00	 call	 ??1sentry@?$basic_ostream@GU?$char_traits@G@std@@@std@@QAE@XZ ; std::basic_ostream<unsigned short,std::char_traits<unsigned short> >::sentry::~sentry
  00009	c3		 ret	 0
__ehhandler$??$?6GU?$char_traits@G@std@@@std@@YAAAV?$basic_ostream@GU?$char_traits@G@std@@@0@AAV10@PBG@Z:
  0000a	b8 00 00 00 00	 mov	 eax, OFFSET FLAT:$T63272
  0000f	e9 00 00 00 00	 jmp	 ___CxxFrameHandler
text$x	ENDS
??$?6GU?$char_traits@G@std@@@std@@YAAAV?$basic_ostream@GU?$char_traits@G@std@@@0@AAV10@PBG@Z ENDP ; std::operator<<<unsigned short,std::char_traits<unsigned short> >
;	COMDAT xdata$x
; File c:\program files (x86)\microsoft visual studio .net 2003\vc7\include\xiosbase
xdata$x	SEGMENT
$T63342	DD	0ffffffffH
	DD	FLAT:$L63300
	DD	00H
	DD	FLAT:$L63301
	DD	00H
	DD	00H
	DD	00H
	DD	00H
$T63344	DD	00H
	DD	00H
	DD	00H
	DD	FLAT:$L63299
$T63343	DD	02H
	DD	02H
	DD	03H
	DD	01H
	DD	FLAT:$T63344
$T63338	DD	019930520H
	DD	04H
	DD	FLAT:$T63342
	DD	01H
	DD	FLAT:$T63343
	DD	2 DUP(00H)
; Function compile flags: /Ogsy
; File c:\program files (x86)\microsoft visual studio .net 2003\vc7\include\ostream
xdata$x	ENDS
;	COMDAT ??6?$basic_ostream@GU?$char_traits@G@std@@@std@@QAEAAV01@H@Z
_TEXT	SEGMENT
__Ok$ = -36						; size = 8
$T63296 = -28						; size = 8
$T63295 = -28						; size = 8
$T63290 = -24						; size = 4
__State$ = -20						; size = 4
__$EHRec$ = -16						; size = 16
_this$ = 8						; size = 4
__Val$ = 12						; size = 4
??6?$basic_ostream@GU?$char_traits@G@std@@@std@@QAEAAV01@H@Z PROC NEAR ; std::basic_ostream<unsigned short,std::char_traits<unsigned short> >::operator<<, COMDAT

; 228  : 		{	// insert an int

  00000	b8 00 00 00 00	 mov	 eax, __ehhandler$??6?$basic_ostream@GU?$char_traits@G@std@@@std@@QAEAAV01@H@Z
  00005	e8 00 00 00 00	 call	 __EH_prolog
  0000a	83 ec 18	 sub	 esp, 24			; 00000018H
  0000d	53		 push	 ebx
  0000e	56		 push	 esi
  0000f	57		 push	 edi
  00010	8b 7d 08	 mov	 edi, DWORD PTR _this$[ebp]

; 229  : 		ios_base::iostate _State = ios_base::goodbit;
; 230  : 		const sentry _Ok(*this);

  00013	8d 45 dc	 lea	 eax, DWORD PTR __Ok$[ebp]
  00016	89 65 f0	 mov	 DWORD PTR __$EHRec$[ebp], esp
  00019	33 db		 xor	 ebx, ebx
  0001b	50		 push	 eax
  0001c	89 5d ec	 mov	 DWORD PTR __State$[ebp], ebx
  0001f	e8 00 00 00 00	 call	 ??0sentry@?$basic_ostream@GU?$char_traits@G@std@@@std@@QAE@AAV12@@Z ; std::basic_ostream<unsigned short,std::char_traits<unsigned short> >::sentry::sentry
  00024	89 5d fc	 mov	 DWORD PTR __$EHRec$[ebp+12], ebx

; 231  : 
; 232  : 		if (_Ok)

  00027	38 5d e0	 cmp	 BYTE PTR __Ok$[ebp+4], bl
  0002a	0f 84 85 00 00
	00		 je	 $L24318

; 233  : 			{	// state okay, use facet to insert
; 234  : 			const _Nput& _Nput_fac = _USE(ios_base::getloc(), _Nput);

  00030	8d 45 e8	 lea	 eax, DWORD PTR $T63290[ebp]
  00033	50		 push	 eax
  00034	8b 07		 mov	 eax, DWORD PTR [edi]
  00036	8b 48 04	 mov	 ecx, DWORD PTR [eax+4]
  00039	03 cf		 add	 ecx, edi
  0003b	e8 00 00 00 00	 call	 ?getloc@ios_base@std@@QBE?AVlocale@2@XZ ; std::ios_base::getloc
  00040	50		 push	 eax
  00041	c6 45 fc 01	 mov	 BYTE PTR __$EHRec$[ebp+12], 1
  00045	e8 00 00 00 00	 call	 ??$use_facet@V?$num_put@GV?$ostreambuf_iterator@GU?$char_traits@G@std@@@std@@@std@@@std@@YAABV?$num_put@GV?$ostreambuf_iterator@GU?$char_traits@G@std@@@std@@@0@ABVlocale@0@@Z ; std::use_facet<std::num_put<unsigned short,std::ostreambuf_iterator<unsigned short,std::char_traits<unsigned short> > > >
  0004a	59		 pop	 ecx
  0004b	8d 4d e8	 lea	 ecx, DWORD PTR $T63290[ebp]
  0004e	8b f0		 mov	 esi, eax
  00050	e8 00 00 00 00	 call	 ??1locale@std@@QAE@XZ	; std::locale::~locale

; 235  : 			ios_base::fmtflags _Bfl =
; 236  : 				ios_base::flags() & ios_base::basefield;

  00055	8b 0f		 mov	 ecx, DWORD PTR [edi]

; 237  : 			long _Tmp = (_Bfl == ios_base::oct
; 238  : 				|| _Bfl == ios_base::hex)
; 239  : 				? (long)(unsigned int)_Val : (long)_Val;
; 240  : 
; 241  : 			_TRY_IO_BEGIN
; 242  : 			if (_Nput_fac.put(_Iter(_Myios::rdbuf()), *this,
; 243  : 				_Myios::fill(), _Tmp).failed())

  00057	ff 75 0c	 push	 DWORD PTR __Val$[ebp]
  0005a	c6 45 fc 02	 mov	 BYTE PTR __$EHRec$[ebp+12], 2
  0005e	8b 41 04	 mov	 eax, DWORD PTR [ecx+4]
  00061	8b 49 04	 mov	 ecx, DWORD PTR [ecx+4]
  00064	03 cf		 add	 ecx, edi
  00066	33 d2		 xor	 edx, edx
  00068	66 8b 51 30	 mov	 dx, WORD PTR [ecx+48]
  0006c	8b 49 28	 mov	 ecx, DWORD PTR [ecx+40]
  0006f	03 c7		 add	 eax, edi
  00071	88 5d e4	 mov	 BYTE PTR $T63295[ebp], bl
  00074	52		 push	 edx
  00075	50		 push	 eax
  00076	51		 push	 ecx
  00077	ff 75 e4	 push	 DWORD PTR $T63295[ebp]
  0007a	8d 45 e4	 lea	 eax, DWORD PTR $T63296[ebp]
  0007d	50		 push	 eax
  0007e	8b ce		 mov	 ecx, esi
  00080	e8 00 00 00 00	 call	 ?put@?$num_put@GV?$ostreambuf_iterator@GU?$char_traits@G@std@@@std@@@std@@QBE?AV?$ostreambuf_iterator@GU?$char_traits@G@std@@@2@V32@AAVios_base@2@GJ@Z ; std::num_put<unsigned short,std::ostreambuf_iterator<unsigned short,std::char_traits<unsigned short> > >::put
  00085	38 18		 cmp	 BYTE PTR [eax], bl
  00087	74 2c		 je	 SHORT $L24318

; 244  : 				_State |= ios_base::badbit;

  00089	c7 45 ec 04 00
	00 00		 mov	 DWORD PTR __State$[ebp], 4
  00090	eb 23		 jmp	 SHORT $L24318
$L63299:

; 245  : 			_CATCH_IO_END

  00092	8b 45 08	 mov	 eax, DWORD PTR _this$[ebp]
  00095	8b 08		 mov	 ecx, DWORD PTR [eax]
  00097	8b 49 04	 mov	 ecx, DWORD PTR [ecx+4]
  0009a	03 c8		 add	 ecx, eax
  0009c	8b 41 08	 mov	 eax, DWORD PTR [ecx+8]
  0009f	6a 01		 push	 1
  000a1	83 c8 04	 or	 eax, 4
  000a4	50		 push	 eax
  000a5	e8 00 00 00 00	 call	 ?clear@?$basic_ios@GU?$char_traits@G@std@@@std@@QAEXH_N@Z ; std::basic_ios<unsigned short,std::char_traits<unsigned short> >::clear
  000aa	b8 00 00 00 00	 mov	 eax, $L63339
  000af	c3		 ret	 0
$L63339:
  000b0	8b 7d 08	 mov	 edi, DWORD PTR _this$[ebp]
  000b3	33 db		 xor	 ebx, ebx
$L24318:
  000b5	89 5d fc	 mov	 DWORD PTR __$EHRec$[ebp+12], ebx

; 246  : 			}
; 247  : 
; 248  : 		_Myios::setstate(_State);

  000b8	8b 07		 mov	 eax, DWORD PTR [edi]
  000ba	8b 48 04	 mov	 ecx, DWORD PTR [eax+4]
  000bd	53		 push	 ebx
  000be	ff 75 ec	 push	 DWORD PTR __State$[ebp]
  000c1	03 cf		 add	 ecx, edi
  000c3	e8 00 00 00 00	 call	 ?setstate@?$basic_ios@GU?$char_traits@G@std@@@std@@QAEXH_N@Z ; std::basic_ios<unsigned short,std::char_traits<unsigned short> >::setstate

; 249  : 		return (*this);

  000c8	83 4d fc ff	 or	 DWORD PTR __$EHRec$[ebp+12], -1
  000cc	8d 45 dc	 lea	 eax, DWORD PTR __Ok$[ebp]
  000cf	50		 push	 eax
  000d0	e8 00 00 00 00	 call	 ??1sentry@?$basic_ostream@GU?$char_traits@G@std@@@std@@QAE@XZ ; std::basic_ostream<unsigned short,std::char_traits<unsigned short> >::sentry::~sentry

; 250  : 		}

  000d5	8b 4d f4	 mov	 ecx, DWORD PTR __$EHRec$[ebp+4]
  000d8	8b c7		 mov	 eax, edi
  000da	5f		 pop	 edi
  000db	5e		 pop	 esi
  000dc	64 89 0d 00 00
	00 00		 mov	 DWORD PTR fs:__except_list, ecx
  000e3	5b		 pop	 ebx
  000e4	c9		 leave
  000e5	c2 08 00	 ret	 8
_TEXT	ENDS
;	COMDAT text$x
text$x	SEGMENT
$L63300:
  00000	8d 45 dc	 lea	 eax, DWORD PTR __Ok$[ebp]
  00003	50		 push	 eax
  00004	e8 00 00 00 00	 call	 ??1sentry@?$basic_ostream@GU?$char_traits@G@std@@@std@@QAE@XZ ; std::basic_ostream<unsigned short,std::char_traits<unsigned short> >::sentry::~sentry
  00009	c3		 ret	 0
$L63301:
  0000a	8d 4d e8	 lea	 ecx, DWORD PTR $T63290[ebp]
  0000d	e9 00 00 00 00	 jmp	 ??1locale@std@@QAE@XZ	; std::locale::~locale
__ehhandler$??6?$basic_ostream@GU?$char_traits@G@std@@@std@@QAEAAV01@H@Z:
  00012	b8 00 00 00 00	 mov	 eax, OFFSET FLAT:$T63338
  00017	e9 00 00 00 00	 jmp	 ___CxxFrameHandler
text$x	ENDS
??6?$basic_ostream@GU?$char_traits@G@std@@@std@@QAEAAV01@H@Z ENDP ; std::basic_ostream<unsigned short,std::char_traits<unsigned short> >::operator<<
;	COMDAT xdata$x
; File c:\program files (x86)\microsoft visual studio .net 2003\vc7\include\xiosbase
xdata$x	SEGMENT
$T65756	DD	0ffffffffH
	DD	FLAT:$L65725
	DD	00H
	DD	00H
	DD	00H
	DD	00H
$T65758	DD	00H
	DD	00H
	DD	00H
	DD	FLAT:$L65724
$T65757	DD	01H
	DD	01H
	DD	02H
	DD	01H
	DD	FLAT:$T65758
$T65752	DD	019930520H
	DD	03H
	DD	FLAT:$T65756
	DD	01H
	DD	FLAT:$T65757
	DD	2 DUP(00H)
; Function compile flags: /Ogsy
; File c:\program files (x86)\microsoft visual studio .net 2003\vc7\include\ostream
xdata$x	ENDS
;	COMDAT ?put@?$basic_ostream@GU?$char_traits@G@std@@@std@@QAEAAV12@G@Z
_TEXT	SEGMENT
__Ok$ = -28						; size = 8
__State$ = -20						; size = 4
__$EHRec$ = -16						; size = 16
_this$ = 8						; size = 4
__Ch$ = 12						; size = 2
?put@?$basic_ostream@GU?$char_traits@G@std@@@std@@QAEAAV12@G@Z PROC NEAR ; std::basic_ostream<unsigned short,std::char_traits<unsigned short> >::put, COMDAT

; 471  : 		{	// insert a character

  00000	b8 00 00 00 00	 mov	 eax, __ehhandler$?put@?$basic_ostream@GU?$char_traits@G@std@@@std@@QAEAAV12@G@Z
  00005	e8 00 00 00 00	 call	 __EH_prolog
  0000a	83 ec 10	 sub	 esp, 16			; 00000010H
  0000d	53		 push	 ebx
  0000e	56		 push	 esi
  0000f	57		 push	 edi
  00010	8b 7d 08	 mov	 edi, DWORD PTR _this$[ebp]

; 472  : 		ios_base::iostate _State = ios_base::goodbit;
; 473  : 		const sentry _Ok(*this);

  00013	8d 45 e4	 lea	 eax, DWORD PTR __Ok$[ebp]
  00016	89 65 f0	 mov	 DWORD PTR __$EHRec$[ebp], esp
  00019	33 db		 xor	 ebx, ebx
  0001b	50		 push	 eax
  0001c	89 5d ec	 mov	 DWORD PTR __State$[ebp], ebx
  0001f	e8 00 00 00 00	 call	 ??0sentry@?$basic_ostream@GU?$char_traits@G@std@@@std@@QAE@AAV12@@Z ; std::basic_ostream<unsigned short,std::char_traits<unsigned short> >::sentry::sentry
  00024	89 5d fc	 mov	 DWORD PTR __$EHRec$[ebp+12], ebx

; 474  : 
; 475  : 		if (!_Ok)

  00027	38 5d e8	 cmp	 BYTE PTR __Ok$[ebp+4], bl

; 476  : 			_State |= ios_base::badbit;
; 477  : 		else

  0002a	74 1b		 je	 SHORT $L65755

; 478  : 			{	// state okay, insert character
; 479  : 			_TRY_IO_BEGIN
; 480  : 			if (_Traits::eq_int_type(_Traits::eof(),
; 481  : 				_Myios::rdbuf()->sputc(_Ch)))

  0002c	ff 75 0c	 push	 DWORD PTR __Ch$[ebp]
  0002f	c6 45 fc 01	 mov	 BYTE PTR __$EHRec$[ebp+12], 1
  00033	8b 07		 mov	 eax, DWORD PTR [edi]
  00035	8b 40 04	 mov	 eax, DWORD PTR [eax+4]
  00038	8b 4c 38 28	 mov	 ecx, DWORD PTR [eax+edi+40]
  0003c	e8 00 00 00 00	 call	 ?sputc@?$basic_streambuf@GU?$char_traits@G@std@@@std@@QAEGG@Z ; std::basic_streambuf<unsigned short,std::char_traits<unsigned short> >::sputc
  00041	66 3d ff ff	 cmp	 ax, 65535		; 0000ffffH
  00045	75 2c		 jne	 SHORT $L22766
$L65755:

; 482  : 				_State |= ios_base::badbit;

  00047	c7 45 ec 04 00
	00 00		 mov	 DWORD PTR __State$[ebp], 4
  0004e	eb 23		 jmp	 SHORT $L22766
$L65724:

; 483  : 			_CATCH_IO_END

  00050	8b 45 08	 mov	 eax, DWORD PTR _this$[ebp]
  00053	8b 08		 mov	 ecx, DWORD PTR [eax]
  00055	8b 49 04	 mov	 ecx, DWORD PTR [ecx+4]
  00058	03 c8		 add	 ecx, eax
  0005a	8b 41 08	 mov	 eax, DWORD PTR [ecx+8]
  0005d	6a 01		 push	 1
  0005f	83 c8 04	 or	 eax, 4
  00062	50		 push	 eax
  00063	e8 00 00 00 00	 call	 ?clear@?$basic_ios@GU?$char_traits@G@std@@@std@@QAEXH_N@Z ; std::basic_ios<unsigned short,std::char_traits<unsigned short> >::clear
  00068	b8 00 00 00 00	 mov	 eax, $L65753
  0006d	c3		 ret	 0
$L65753:
  0006e	8b 7d 08	 mov	 edi, DWORD PTR _this$[ebp]
  00071	33 db		 xor	 ebx, ebx
$L22766:
  00073	89 5d fc	 mov	 DWORD PTR __$EHRec$[ebp+12], ebx

; 484  : 			}
; 485  : 
; 486  : 		_Myios::setstate(_State);

  00076	8b 07		 mov	 eax, DWORD PTR [edi]
  00078	8b 48 04	 mov	 ecx, DWORD PTR [eax+4]
  0007b	53		 push	 ebx
  0007c	ff 75 ec	 push	 DWORD PTR __State$[ebp]
  0007f	03 cf		 add	 ecx, edi
  00081	e8 00 00 00 00	 call	 ?setstate@?$basic_ios@GU?$char_traits@G@std@@@std@@QAEXH_N@Z ; std::basic_ios<unsigned short,std::char_traits<unsigned short> >::setstate

; 487  : 		return (*this);

  00086	83 4d fc ff	 or	 DWORD PTR __$EHRec$[ebp+12], -1
  0008a	8d 45 e4	 lea	 eax, DWORD PTR __Ok$[ebp]
  0008d	50		 push	 eax
  0008e	e8 00 00 00 00	 call	 ??1sentry@?$basic_ostream@GU?$char_traits@G@std@@@std@@QAE@XZ ; std::basic_ostream<unsigned short,std::char_traits<unsigned short> >::sentry::~sentry

; 488  : 		}

  00093	8b 4d f4	 mov	 ecx, DWORD PTR __$EHRec$[ebp+4]
  00096	8b c7		 mov	 eax, edi
  00098	5f		 pop	 edi
  00099	5e		 pop	 esi
  0009a	64 89 0d 00 00
	00 00		 mov	 DWORD PTR fs:__except_list, ecx
  000a1	5b		 pop	 ebx
  000a2	c9		 leave
  000a3	c2 08 00	 ret	 8
_TEXT	ENDS
;	COMDAT text$x
text$x	SEGMENT
$L65725:
  00000	8d 45 e4	 lea	 eax, DWORD PTR __Ok$[ebp]
  00003	50		 push	 eax
  00004	e8 00 00 00 00	 call	 ??1sentry@?$basic_ostream@GU?$char_traits@G@std@@@std@@QAE@XZ ; std::basic_ostream<unsigned short,std::char_traits<unsigned short> >::sentry::~sentry
  00009	c3		 ret	 0
__ehhandler$?put@?$basic_ostream@GU?$char_traits@G@std@@@std@@QAEAAV12@G@Z:
  0000a	b8 00 00 00 00	 mov	 eax, OFFSET FLAT:$T65752
  0000f	e9 00 00 00 00	 jmp	 ___CxxFrameHandler
text$x	ENDS
?put@?$basic_ostream@GU?$char_traits@G@std@@@std@@QAEAAV12@G@Z ENDP ; std::basic_ostream<unsigned short,std::char_traits<unsigned short> >::put
; Function compile flags: /Ogsy
;	COMDAT ?endl@std@@YAAAV?$basic_ostream@GU?$char_traits@G@std@@@1@AAV21@@Z
_TEXT	SEGMENT
__Ostr$ = 8						; size = 4
?endl@std@@YAAAV?$basic_ostream@GU?$char_traits@G@std@@@1@AAV21@@Z PROC NEAR ; std::endl, COMDAT

; 930  : 	{	// insert newline and flush wide stream

  00000	56		 push	 esi

; 931  : 	_Ostr.put('\n');

  00001	8b 74 24 08	 mov	 esi, DWORD PTR __Ostr$[esp]
  00005	6a 0a		 push	 10			; 0000000aH
  00007	56		 push	 esi
  00008	e8 00 00 00 00	 call	 ?put@?$basic_ostream@GU?$char_traits@G@std@@@std@@QAEAAV12@G@Z ; std::basic_ostream<unsigned short,std::char_traits<unsigned short> >::put

; 932  : 	_Ostr.flush();

  0000d	8b ce		 mov	 ecx, esi
  0000f	e8 00 00 00 00	 call	 ?flush@?$basic_ostream@GU?$char_traits@G@std@@@std@@QAEAAV12@XZ ; std::basic_ostream<unsigned short,std::char_traits<unsigned short> >::flush

; 933  : 	return (_Ostr);

  00014	8b c6		 mov	 eax, esi
  00016	5e		 pop	 esi

; 934  : 	}

  00017	c3		 ret	 0
?endl@std@@YAAAV?$basic_ostream@GU?$char_traits@G@std@@@1@AAV21@@Z ENDP ; std::endl
; Function compile flags: /Ogsy
text$x	ENDS
;	COMDAT ??_GOPSW@@QAEPAXI@Z
_TEXT	SEGMENT
_this$ = 8						; size = 4
___flags$ = 12						; size = 4
??_GOPSW@@QAEPAXI@Z PROC NEAR				; OPSW::`scalar deleting destructor', COMDAT
  00000	ff 74 24 04	 push	 DWORD PTR _this$[esp-4]
  00004	e8 00 00 00 00	 call	 ??1OPSW@@QAE@XZ		; OPSW::~OPSW
  00009	f6 44 24 08 01	 test	 BYTE PTR ___flags$[esp-4], 1
  0000e	74 0a		 je	 SHORT $L24299
  00010	ff 74 24 04	 push	 DWORD PTR _this$[esp-4]
  00014	e8 00 00 00 00	 call	 ??3@YAXPAX@Z		; operator delete
  00019	59		 pop	 ecx
$L24299:
  0001a	8b 44 24 04	 mov	 eax, DWORD PTR _this$[esp-4]
  0001e	c2 08 00	 ret	 8
??_GOPSW@@QAEPAXI@Z ENDP				; OPSW::`scalar deleting destructor'
; Function compile flags: /Ogsy
;	COMDAT ??_GMMLfile@@QAEPAXI@Z
_TEXT	SEGMENT
_this$ = 8						; size = 4
___flags$ = 12						; size = 4
??_GMMLfile@@QAEPAXI@Z PROC NEAR			; MMLfile::`scalar deleting destructor', COMDAT
  00000	ff 74 24 04	 push	 DWORD PTR _this$[esp-4]
  00004	e8 00 00 00 00	 call	 ??1MMLfile@@QAE@XZ	; MMLfile::~MMLfile
  00009	f6 44 24 08 01	 test	 BYTE PTR ___flags$[esp-4], 1
  0000e	74 0a		 je	 SHORT $L24296
  00010	ff 74 24 04	 push	 DWORD PTR _this$[esp-4]
  00014	e8 00 00 00 00	 call	 ??3@YAXPAX@Z		; operator delete
  00019	59		 pop	 ecx
$L24296:
  0001a	8b 44 24 04	 mov	 eax, DWORD PTR _this$[esp-4]
  0001e	c2 08 00	 ret	 8
??_GMMLfile@@QAEPAXI@Z ENDP				; MMLfile::`scalar deleting destructor'
text$x	ENDS
PUBLIC	_main
xdata$x	SEGMENT
$T112124 DD	0ffffffffH
	DD	00H
	DD	00H
	DD	FLAT:$L111971
	DD	00H
	DD	FLAT:$L111973
	DD	00H
	DD	FLAT:$L111974
	DD	00H
	DD	FLAT:$L111975
	DD	0ffffffffH
	DD	00H
$T112126 DD	00H
	DD	FLAT:??_R0H@8
	DD	0ffffffd4H
	DD	FLAT:$L111970
$T112125 DD	00H
	DD	04H
	DD	05H
	DD	01H
	DD	FLAT:$T112126
$T112117 DD	019930520H
	DD	06H
	DD	FLAT:$T112124
	DD	01H
	DD	FLAT:$T112125
	DD	2 DUP(00H)
; Function compile flags: /Ogsy
; File f:\nes\nsdl\src\nsc\nsc.cpp
xdata$x	ENDS
_TEXT	SEGMENT
_no$24278 = -44						; size = 4
$T111955 = -40						; size = 8
$T111953 = -40						; size = 8
$T111949 = -36						; size = 4
$T111945 = -36						; size = 4
$T111941 = -36						; size = 4
$T111938 = -36						; size = 4
_iResult$ = -32						; size = 4
_cSND$ = -28						; size = 4
_cMML$ = -24						; size = 4
$T111950 = -20						; size = 4
$T111948 = -20						; size = 4
$T111939 = -20						; size = 4
__$EHRec$ = -16						; size = 16
_argc$ = 8						; size = 4
_argv$ = 12						; size = 4
_main	PROC NEAR

; 68   : {

  00016	b8 00 00 00 00	 mov	 eax, __ehhandler$_main
  0001b	e8 00 00 00 00	 call	 __EH_prolog
  00020	83 ec 20	 sub	 esp, 32			; 00000020H
  00023	53		 push	 ebx
  00024	56		 push	 esi
  00025	57		 push	 edi
  00026	89 65 f0	 mov	 DWORD PTR __$EHRec$[ebp], esp

; 69   : 	unsigned	int	i;
; 70   : 				int	iResult	= EXIT_SUCCESS;

  00029	33 ff		 xor	 edi, edi

; 71   : 	MMLfile			*cMML	= NULL;
; 72   :     MusicFile		*cSND	= NULL;
; 73   : 
; 74   : 	try {
; 75   : 
; 76   : #ifdef	_WIN32
; 77   : 		locale::global(std::locale(""));

  0002b	6a 3f		 push	 63			; 0000003fH
  0002d	68 00 00 00 00	 push	 OFFSET FLAT:??_C@_00CNPNBAHC@?$AA@
  00032	8d 4d dc	 lea	 ecx, DWORD PTR $T111938[ebp]
  00035	89 7d e0	 mov	 DWORD PTR _iResult$[ebp], edi
  00038	89 7d e8	 mov	 DWORD PTR _cMML$[ebp], edi
  0003b	89 7d e4	 mov	 DWORD PTR _cSND$[ebp], edi
  0003e	89 7d fc	 mov	 DWORD PTR __$EHRec$[ebp+12], edi
  00041	e8 00 00 00 00	 call	 ??0locale@std@@QAE@PBDH@Z ; std::locale::locale
  00046	50		 push	 eax
  00047	8d 45 ec	 lea	 eax, DWORD PTR $T111939[ebp]
  0004a	50		 push	 eax
  0004b	c6 45 fc 01	 mov	 BYTE PTR __$EHRec$[ebp+12], 1
  0004f	e8 00 00 00 00	 call	 ?global@locale@std@@SA?AV12@ABV12@@Z ; std::locale::global
  00054	59		 pop	 ecx
  00055	59		 pop	 ecx
  00056	8d 4d ec	 lea	 ecx, DWORD PTR $T111939[ebp]
  00059	e8 00 00 00 00	 call	 ??1locale@std@@QAE@XZ	; std::locale::~locale
  0005e	8d 4d dc	 lea	 ecx, DWORD PTR $T111938[ebp]
  00061	c6 45 fc 00	 mov	 BYTE PTR __$EHRec$[ebp+12], 0
  00065	e8 00 00 00 00	 call	 ??1locale@std@@QAE@XZ	; std::locale::~locale

; 78   : #else
; 79   : //		setlocale(LC_ALL, "ja_JP.UTF-8");
; 80   : 		setlocale(LC_ALL, "");
; 81   : #endif
; 82   : 
; 83   : 
; 84   : //		locale::global(std::locale(""));	//g++ A^C G[B
; 85   : 
; 86   : 
; 87   : 		//==================================
; 88   : 		_COUT	<<	_T("MML Compiler for NES Sound Driver & Library (NSD.Lib)\n")
; 89   : 					_T("    Version 1.28\n")
; 90   : 					_T("        Copyright (c) 2012-2018 S.W.\n")	<<	endl;

  0006a	68 00 00 00 00	 push	 OFFSET FLAT:??_C@_1NK@KENGHJLD@?$AAM?$AAM?$AAL?$AA?5?$AAC?$AAo?$AAm?$AAp?$AAi?$AAl?$AAe?$AAr?$AA?5?$AAf?$AAo?$AAr?$AA?5?$AAN?$AAE?$AAS@
  0006f	be 00 00 00 00	 mov	 esi, OFFSET FLAT:?wcout@std@@3V?$basic_ostream@GU?$char_traits@G@std@@@1@A ; std::wcout
  00074	56		 push	 esi
  00075	e8 00 00 00 00	 call	 ??$?6GU?$char_traits@G@std@@@std@@YAAAV?$basic_ostream@GU?$char_traits@G@std@@@0@AAV10@PBG@Z ; std::operator<<<unsigned short,std::char_traits<unsigned short> >
  0007a	59		 pop	 ecx
  0007b	59		 pop	 ecx
  0007c	50		 push	 eax
  0007d	e8 00 00 00 00	 call	 ?endl@std@@YAAAV?$basic_ostream@GU?$char_traits@G@std@@@1@AAV21@@Z ; std::endl
  00082	59		 pop	 ecx

; 91   : 
; 92   : 
; 93   : 		//==================================
; 94   : 		//NX
; 95   : 		cOptionSW	= new OPSW(argc,argv);							//IvV

  00083	68 ac 00 00 00	 push	 172			; 000000acH
  00088	e8 00 00 00 00	 call	 ??2@YAPAXI@Z		; operator new
  0008d	59		 pop	 ecx
  0008e	89 45 dc	 mov	 DWORD PTR $T111941[ebp], eax
  00091	3b c7		 cmp	 eax, edi
  00093	c6 45 fc 02	 mov	 BYTE PTR __$EHRec$[ebp+12], 2
  00097	74 0e		 je	 SHORT $L111942
  00099	ff 75 0c	 push	 DWORD PTR _argv$[ebp]
  0009c	ff 75 08	 push	 DWORD PTR _argc$[ebp]
  0009f	50		 push	 eax
  000a0	e8 00 00 00 00	 call	 ??0OPSW@@QAE@HQAPAD@Z	; OPSW::OPSW
  000a5	eb 02		 jmp	 SHORT $L111943
$L111942:
  000a7	33 c0		 xor	 eax, eax
$L111943:

; 96   : 		_COUT << _T("------------------------------------------------------------") << endl;

  000a9	bb 00 00 00 00	 mov	 ebx, OFFSET FLAT:??_C@_1HK@PLEACAAO@?$AA?9?$AA?9?$AA?9?$AA?9?$AA?9?$AA?9?$AA?9?$AA?9?$AA?9?$AA?9?$AA?9?$AA?9?$AA?9?$AA?9?$AA?9?$AA?9?$AA?9?$AA?9?$AA?9?$AA?9@
  000ae	53		 push	 ebx
  000af	c6 45 fc 00	 mov	 BYTE PTR __$EHRec$[ebp+12], 0
  000b3	56		 push	 esi
  000b4	a3 00 00 00 00	 mov	 DWORD PTR ?cOptionSW@@3PAVOPSW@@A, eax ; cOptionSW
  000b9	e8 00 00 00 00	 call	 ??$?6GU?$char_traits@G@std@@@std@@YAAAV?$basic_ostream@GU?$char_traits@G@std@@@0@AAV10@PBG@Z ; std::operator<<<unsigned short,std::char_traits<unsigned short> >
  000be	59		 pop	 ecx
  000bf	59		 pop	 ecx
  000c0	50		 push	 eax
  000c1	e8 00 00 00 00	 call	 ?endl@std@@YAAAV?$basic_ostream@GU?$char_traits@G@std@@@1@AAV21@@Z ; std::endl
  000c6	59		 pop	 ecx

; 97   : 		_COUT << _T("*Object creating process") << endl;

  000c7	68 00 00 00 00	 push	 OFFSET FLAT:??_C@_1DC@NFNOFJGE@?$AA?$CK?$AAO?$AAb?$AAj?$AAe?$AAc?$AAt?$AA?5?$AAc?$AAr?$AAe?$AAa?$AAt?$AAi?$AAn?$AAg?$AA?5?$AAp?$AAr?$AAo@
  000cc	56		 push	 esi
  000cd	e8 00 00 00 00	 call	 ??$?6GU?$char_traits@G@std@@@std@@YAAAV?$basic_ostream@GU?$char_traits@G@std@@@0@AAV10@PBG@Z ; std::operator<<<unsigned short,std::char_traits<unsigned short> >
  000d2	59		 pop	 ecx
  000d3	59		 pop	 ecx
  000d4	50		 push	 eax
  000d5	e8 00 00 00 00	 call	 ?endl@std@@YAAAV?$basic_ostream@GU?$char_traits@G@std@@@1@AAV21@@Z ; std::endl
  000da	59		 pop	 ecx

; 98   : 
; 99   : 		cMML = new MMLfile(cOptionSW->strMMLname.c_str());

  000db	68 a8 00 00 00	 push	 168			; 000000a8H
  000e0	e8 00 00 00 00	 call	 ??2@YAPAXI@Z		; operator new
  000e5	59		 pop	 ecx
  000e6	89 45 dc	 mov	 DWORD PTR $T111945[ebp], eax
  000e9	3b c7		 cmp	 eax, edi
  000eb	c6 45 fc 03	 mov	 BYTE PTR __$EHRec$[ebp+12], 3
  000ef	74 1e		 je	 SHORT $L111947
  000f1	a1 00 00 00 00	 mov	 eax, DWORD PTR ?cOptionSW@@3PAVOPSW@@A ; cOptionSW
  000f6	83 78 24 10	 cmp	 DWORD PTR [eax+36], 16	; 00000010H
  000fa	72 05		 jb	 SHORT $L112000
  000fc	8b 40 10	 mov	 eax, DWORD PTR [eax+16]
  000ff	eb 03		 jmp	 SHORT $L112001
$L112000:
  00101	83 c0 10	 add	 eax, 16			; 00000010H
$L112001:
  00104	50		 push	 eax
  00105	ff 75 dc	 push	 DWORD PTR $T111945[ebp]
  00108	e8 00 00 00 00	 call	 ??0MMLfile@@QAE@PBD@Z	; MMLfile::MMLfile
  0010d	8b f8		 mov	 edi, eax
$L111947:

; 100  : 		cSND = new MusicFile(cMML, cOptionSW->strCodeName);

  0010f	68 24 02 00 00	 push	 548			; 00000224H
  00114	c6 45 fc 00	 mov	 BYTE PTR __$EHRec$[ebp+12], 0
  00118	89 7d e8	 mov	 DWORD PTR _cMML$[ebp], edi
  0011b	e8 00 00 00 00	 call	 ??2@YAPAXI@Z		; operator new
  00120	59		 pop	 ecx
  00121	89 45 dc	 mov	 DWORD PTR $T111949[ebp], eax
  00124	85 c0		 test	 eax, eax
  00126	c6 45 fc 04	 mov	 BYTE PTR __$EHRec$[ebp+12], 4
  0012a	74 2b		 je	 SHORT $L111951
  0012c	a1 00 00 00 00	 mov	 eax, DWORD PTR ?cOptionSW@@3PAVOPSW@@A ; cOptionSW
  00131	6a 01		 push	 1
  00133	68 00 00 00 00	 push	 OFFSET FLAT:??_C@_1CI@BGPJBPBK@?$AA?$DN?$AA?$DN?$AA?$DN?$AA?$DN?$AA?5?$AA?$FL?$AA?5?$AAM?$AAu?$AAs?$AAi?$AAc?$AA?5?$AA?$FN?$AA?5?$AA?$DN?$AA?$DN?$AA?$DN?$AA?$DN?$AA?$AA@
  00138	83 ec 1c	 sub	 esp, 28			; 0000001cH
  0013b	83 c0 60	 add	 eax, 96			; 00000060H
  0013e	8b cc		 mov	 ecx, esp
  00140	89 65 ec	 mov	 DWORD PTR $T111950[ebp], esp
  00143	50		 push	 eax
  00144	e8 00 00 00 00	 call	 ??0?$basic_string@DU?$char_traits@D@std@@V?$allocator@D@2@@std@@QAE@ABV01@@Z ; std::basic_string<char,std::char_traits<char>,std::allocator<char> >::basic_string<char,std::char_traits<char>,std::allocator<char> >
  00149	57		 push	 edi
  0014a	ff 75 dc	 push	 DWORD PTR $T111949[ebp]
  0014d	e8 00 00 00 00	 call	 ??0MusicFile@@QAE@PAVMMLfile@@V?$basic_string@DU?$char_traits@D@std@@V?$allocator@D@2@@std@@QBG@Z ; MusicFile::MusicFile
  00152	89 45 ec	 mov	 DWORD PTR $T111948[ebp], eax
  00155	eb 04		 jmp	 SHORT $L111952
$L111951:
  00157	83 65 ec 00	 and	 DWORD PTR $T111948[ebp], 0
$L111952:
  0015b	c6 45 fc 00	 mov	 BYTE PTR __$EHRec$[ebp+12], 0
  0015f	8b 45 ec	 mov	 eax, DWORD PTR $T111948[ebp]

; 101  : 
; 102  : 		_COUT << endl;

  00162	bf 00 00 00 00	 mov	 edi, OFFSET FLAT:?wcout@std@@3V?$basic_ostream@GU?$char_traits@G@std@@@1@A
  00167	57		 push	 edi
  00168	89 45 e4	 mov	 DWORD PTR _cSND$[ebp], eax
  0016b	e8 00 00 00 00	 call	 ?endl@std@@YAAAV?$basic_ostream@GU?$char_traits@G@std@@@1@AAV21@@Z ; std::endl
  00170	59		 pop	 ecx

; 103  : 
; 104  : 
; 105  : 
; 106  : 		//==================================
; 107  : 		//Optimize & Tick Count
; 108  : 		_COUT << _T("------------------------------------------------------------") << endl;

  00171	53		 push	 ebx
  00172	56		 push	 esi
  00173	e8 00 00 00 00	 call	 ??$?6GU?$char_traits@G@std@@@std@@YAAAV?$basic_ostream@GU?$char_traits@G@std@@@0@AAV10@PBG@Z ; std::operator<<<unsigned short,std::char_traits<unsigned short> >
  00178	59		 pop	 ecx
  00179	59		 pop	 ecx
  0017a	50		 push	 eax
  0017b	e8 00 00 00 00	 call	 ?endl@std@@YAAAV?$basic_ostream@GU?$char_traits@G@std@@@1@AAV21@@Z ; std::endl
  00180	59		 pop	 ecx

; 109  : 		_COUT << _T("*Optimize & Tick counting process") << endl;

  00181	68 00 00 00 00	 push	 OFFSET FLAT:??_C@_1EE@BGEBAFOM@?$AA?$CK?$AAO?$AAp?$AAt?$AAi?$AAm?$AAi?$AAz?$AAe?$AA?5?$AA?$CG?$AA?5?$AAT?$AAi?$AAc?$AAk?$AA?5?$AAc?$AAo?$AAu@
  00186	56		 push	 esi
  00187	e8 00 00 00 00	 call	 ??$?6GU?$char_traits@G@std@@@std@@YAAAV?$basic_ostream@GU?$char_traits@G@std@@@0@AAV10@PBG@Z ; std::operator<<<unsigned short,std::char_traits<unsigned short> >
  0018c	59		 pop	 ecx
  0018d	59		 pop	 ecx
  0018e	50		 push	 eax
  0018f	e8 00 00 00 00	 call	 ?endl@std@@YAAAV?$basic_ostream@GU?$char_traits@G@std@@@1@AAV21@@Z ; std::endl
  00194	59		 pop	 ecx

; 110  : 
; 111  : 		cSND->TickCount();

  00195	ff 75 ec	 push	 DWORD PTR $T111948[ebp]
  00198	e8 00 00 00 00	 call	 ?TickCount@MusicFile@@QAEXXZ ; MusicFile::TickCount

; 112  : 
; 113  : 		_COUT << endl;

  0019d	57		 push	 edi
  0019e	e8 00 00 00 00	 call	 ?endl@std@@YAAAV?$basic_ostream@GU?$char_traits@G@std@@@1@AAV21@@Z ; std::endl
  001a3	59		 pop	 ecx

; 114  : 
; 115  : 
; 116  : 
; 117  : 		//==================================
; 118  : 		//AhX
; 119  : 		_COUT << _T("------------------------------------------------------------") << endl;

  001a4	53		 push	 ebx
  001a5	56		 push	 esi
  001a6	e8 00 00 00 00	 call	 ??$?6GU?$char_traits@G@std@@@std@@YAAAV?$basic_ostream@GU?$char_traits@G@std@@@0@AAV10@PBG@Z ; std::operator<<<unsigned short,std::char_traits<unsigned short> >
  001ab	59		 pop	 ecx
  001ac	59		 pop	 ecx
  001ad	50		 push	 eax
  001ae	e8 00 00 00 00	 call	 ?endl@std@@YAAAV?$basic_ostream@GU?$char_traits@G@std@@@1@AAV21@@Z ; std::endl
  001b3	59		 pop	 ecx

; 120  : 		_COUT << _T("*Address settlement process") << endl;

  001b4	68 00 00 00 00	 push	 OFFSET FLAT:??_C@_1DI@JGLJCCJP@?$AA?$CK?$AAA?$AAd?$AAd?$AAr?$AAe?$AAs?$AAs?$AA?5?$AAs?$AAe?$AAt?$AAt?$AAl?$AAe?$AAm?$AAe?$AAn?$AAt?$AA?5@
  001b9	56		 push	 esi
  001ba	e8 00 00 00 00	 call	 ??$?6GU?$char_traits@G@std@@@std@@YAAAV?$basic_ostream@GU?$char_traits@G@std@@@0@AAV10@PBG@Z ; std::operator<<<unsigned short,std::char_traits<unsigned short> >
  001bf	59		 pop	 ecx
  001c0	59		 pop	 ecx
  001c1	50		 push	 eax
  001c2	e8 00 00 00 00	 call	 ?endl@std@@YAAAV?$basic_ostream@GU?$char_traits@G@std@@@1@AAV21@@Z ; std::endl
  001c7	59		 pop	 ecx

; 121  : 
; 122  : 		//AhXvZ  TCYo
; 123  : 		i = cSND->SetOffset(0);

  001c8	8b 4d ec	 mov	 ecx, DWORD PTR $T111948[ebp]
  001cb	6a 00		 push	 0
  001cd	e8 00 00 00 00	 call	 ?SetOffset@MusicItem@@QAEII@Z ; MusicItem::SetOffset

; 124  : 		cout << "  Music Size = " << setfill(' ')  << setw(5) << i << " [Byte]" << endl;

  001d2	68 00 00 00 00	 push	 OFFSET FLAT:??_C@_0BA@DKKDKJML@?5?5Music?5Size?5?$DN?5?$AA@
  001d7	68 00 00 00 00	 push	 OFFSET FLAT:?cout@std@@3V?$basic_ostream@DU?$char_traits@D@std@@@1@A ; std::cout
  001dc	8b d8		 mov	 ebx, eax
  001de	e8 00 00 00 00	 call	 ??$?6U?$char_traits@D@std@@@std@@YAAAV?$basic_ostream@DU?$char_traits@D@std@@@0@AAV10@PBD@Z ; std::operator<<<std::char_traits<char> >
  001e3	8b f0		 mov	 esi, eax
  001e5	8b 06		 mov	 eax, DWORD PTR [esi]
  001e7	8b 40 04	 mov	 eax, DWORD PTR [eax+4]
  001ea	59		 pop	 ecx
  001eb	03 c6		 add	 eax, esi
  001ed	59		 pop	 ecx
  001ee	c6 40 30 20	 mov	 BYTE PTR [eax+48], 32	; 00000020H
  001f2	8d 45 d8	 lea	 eax, DWORD PTR $T111953[ebp]
  001f5	6a 05		 push	 5
  001f7	50		 push	 eax
  001f8	e8 00 00 00 00	 call	 ?setw@std@@YA?AU?$_Smanip@H@1@H@Z ; std::setw
  001fd	59		 pop	 ecx
  001fe	59		 pop	 ecx
  001ff	8b c8		 mov	 ecx, eax
  00201	e8 00 00 00 00	 call	 ??$?6DU?$char_traits@D@std@@H@std@@YAAAV?$basic_ostream@DU?$char_traits@D@std@@@0@AAV10@ABU?$_Smanip@H@0@@Z ; std::operator<<<char,std::char_traits<char>,int>
  00206	53		 push	 ebx
  00207	50		 push	 eax
  00208	e8 00 00 00 00	 call	 ??6?$basic_ostream@DU?$char_traits@D@std@@@std@@QAEAAV01@I@Z ; std::basic_ostream<char,std::char_traits<char> >::operator<<
  0020d	bf 00 00 00 00	 mov	 edi, OFFSET FLAT:??_C@_07FBHPMLEN@?5?$FLByte?$FN?$AA@
  00212	57		 push	 edi
  00213	50		 push	 eax
  00214	e8 00 00 00 00	 call	 ??$?6U?$char_traits@D@std@@@std@@YAAAV?$basic_ostream@DU?$char_traits@D@std@@@0@AAV10@PBD@Z ; std::operator<<<std::char_traits<char> >
  00219	59		 pop	 ecx
  0021a	59		 pop	 ecx
  0021b	50		 push	 eax
  0021c	e8 00 00 00 00	 call	 ?endl@std@@YAAAV?$basic_ostream@DU?$char_traits@D@std@@@1@AAV21@@Z ; std::endl
  00221	59		 pop	 ecx

; 125  : 
; 126  : 		i = cSND->SetDPCMOffset(i);

  00222	53		 push	 ebx
  00223	8b 5d ec	 mov	 ebx, DWORD PTR $T111948[ebp]
  00226	e8 00 00 00 00	 call	 ?SetDPCMOffset@MusicFile@@QAEII@Z ; MusicFile::SetDPCMOffset

; 127  : 		cout << "  DPCM Size  = " << setfill(' ')  << setw(5) << i << " [Byte]" << endl;

  0022b	68 00 00 00 00	 push	 OFFSET FLAT:??_C@_0BA@IEMDIJBO@?5?5DPCM?5Size?5?5?$DN?5?$AA@
  00230	68 00 00 00 00	 push	 OFFSET FLAT:?cout@std@@3V?$basic_ostream@DU?$char_traits@D@std@@@1@A ; std::cout
  00235	8b d8		 mov	 ebx, eax
  00237	e8 00 00 00 00	 call	 ??$?6U?$char_traits@D@std@@@std@@YAAAV?$basic_ostream@DU?$char_traits@D@std@@@0@AAV10@PBD@Z ; std::operator<<<std::char_traits<char> >
  0023c	8b f0		 mov	 esi, eax
  0023e	8b 06		 mov	 eax, DWORD PTR [esi]
  00240	8b 40 04	 mov	 eax, DWORD PTR [eax+4]
  00243	59		 pop	 ecx
  00244	03 c6		 add	 eax, esi
  00246	59		 pop	 ecx
  00247	c6 40 30 20	 mov	 BYTE PTR [eax+48], 32	; 00000020H
  0024b	8d 45 d8	 lea	 eax, DWORD PTR $T111955[ebp]
  0024e	6a 05		 push	 5
  00250	50		 push	 eax
  00251	e8 00 00 00 00	 call	 ?setw@std@@YA?AU?$_Smanip@H@1@H@Z ; std::setw
  00256	59		 pop	 ecx
  00257	59		 pop	 ecx
  00258	8b c8		 mov	 ecx, eax
  0025a	e8 00 00 00 00	 call	 ??$?6DU?$char_traits@D@std@@H@std@@YAAAV?$basic_ostream@DU?$char_traits@D@std@@@0@AAV10@ABU?$_Smanip@H@0@@Z ; std::operator<<<char,std::char_traits<char>,int>
  0025f	53		 push	 ebx
  00260	50		 push	 eax
  00261	e8 00 00 00 00	 call	 ??6?$basic_ostream@DU?$char_traits@D@std@@@std@@QAEAAV01@I@Z ; std::basic_ostream<char,std::char_traits<char> >::operator<<
  00266	57		 push	 edi
  00267	50		 push	 eax
  00268	e8 00 00 00 00	 call	 ??$?6U?$char_traits@D@std@@@std@@YAAAV?$basic_ostream@DU?$char_traits@D@std@@@0@AAV10@PBD@Z ; std::operator<<<std::char_traits<char> >
  0026d	59		 pop	 ecx
  0026e	59		 pop	 ecx
  0026f	50		 push	 eax
  00270	e8 00 00 00 00	 call	 ?endl@std@@YAAAV?$basic_ostream@DU?$char_traits@D@std@@@1@AAV21@@Z ; std::endl

; 128  : 
; 129  : 		//AhXIyR[hAhX
; 130  : 		cSND->Fix_Address();

  00275	8b 7d ec	 mov	 edi, DWORD PTR $T111948[ebp]
  00278	59		 pop	 ecx
  00279	8b df		 mov	 ebx, edi
  0027b	e8 00 00 00 00	 call	 ?Fix_Address@MusicFile@@QAEXXZ ; MusicFile::Fix_Address

; 131  : 
; 132  : 		_COUT << endl;

  00280	68 00 00 00 00	 push	 OFFSET FLAT:?wcout@std@@3V?$basic_ostream@GU?$char_traits@G@std@@@1@A
  00285	e8 00 00 00 00	 call	 ?endl@std@@YAAAV?$basic_ostream@GU?$char_traits@G@std@@@1@AAV21@@Z ; std::endl

; 133  : 
; 134  : 
; 135  : 
; 136  : 		//==================================
; 137  : 		//
; 138  : 		if((cOptionSW->saveNSF == true) || ((cOptionSW->saveNSF == false)&&(cOptionSW->saveASM == false))){

  0028a	a1 00 00 00 00	 mov	 eax, DWORD PTR ?cOptionSW@@3PAVOPSW@@A ; cOptionSW
  0028f	59		 pop	 ecx
  00290	8a 48 02	 mov	 cl, BYTE PTR [eax+2]
  00293	80 f9 01	 cmp	 cl, 1
  00296	74 09		 je	 SHORT $L24274
  00298	84 c9		 test	 cl, cl
  0029a	75 20		 jne	 SHORT $L24273
  0029c	38 48 03	 cmp	 BYTE PTR [eax+3], cl
  0029f	75 1b		 jne	 SHORT $L24273
$L24274:

; 139  : 			cSND->saveNSF(cOptionSW->strNSFname.c_str());

  002a1	83 78 40 10	 cmp	 DWORD PTR [eax+64], 16	; 00000010H
  002a5	72 05		 jb	 SHORT $L112090
  002a7	8b 40 2c	 mov	 eax, DWORD PTR [eax+44]
  002aa	eb 03		 jmp	 SHORT $L112091
$L112090:
  002ac	83 c0 2c	 add	 eax, 44			; 0000002cH
$L112091:
  002af	50		 push	 eax
  002b0	8b cf		 mov	 ecx, edi
  002b2	e8 00 00 00 00	 call	 ?saveNSF@MusicFile@@QAEXPBD@Z ; MusicFile::saveNSF
  002b7	a1 00 00 00 00	 mov	 eax, DWORD PTR ?cOptionSW@@3PAVOPSW@@A ; cOptionSW
$L24273:

; 140  : 		}
; 141  : 
; 142  : 		if(cOptionSW->saveASM == true){

  002bc	80 78 03 01	 cmp	 BYTE PTR [eax+3], 1
  002c0	75 14		 jne	 SHORT $L24275

; 143  : 			cSND->saveASM(cOptionSW->strASMname.c_str());

  002c2	83 78 5c 10	 cmp	 DWORD PTR [eax+92], 16	; 00000010H
  002c6	72 05		 jb	 SHORT $L112105
  002c8	8b 40 48	 mov	 eax, DWORD PTR [eax+72]
  002cb	eb 03		 jmp	 SHORT $L112106
$L112105:
  002cd	83 c0 48	 add	 eax, 72			; 00000048H
$L112106:
  002d0	50		 push	 eax
  002d1	e8 00 00 00 00	 call	 ?saveASM@MusicFile@@QAEXPBD@Z ; MusicFile::saveASM
$L24275:

; 144  : 		}
; 145  : 
; 146  : 		_COUT << endl;

  002d6	68 00 00 00 00	 push	 OFFSET FLAT:?wcout@std@@3V?$basic_ostream@GU?$char_traits@G@std@@@1@A
  002db	e8 00 00 00 00	 call	 ?endl@std@@YAAAV?$basic_ostream@GU?$char_traits@G@std@@@1@AAV21@@Z ; std::endl
  002e0	59		 pop	 ecx
$L23933:

; 158  : 
; 159  : 	//==================================
; 160  : 	//NX
; 161  : 	if (cSND)

  002e1	8b 45 e4	 mov	 eax, DWORD PTR _cSND$[ebp]
  002e4	83 4d fc ff	 or	 DWORD PTR __$EHRec$[ebp+12], -1
  002e8	85 c0		 test	 eax, eax
  002ea	74 10		 je	 SHORT $L111959

; 162  : 		delete	cSND;

  002ec	8b 48 3c	 mov	 ecx, DWORD PTR [eax+60]
  002ef	8b 49 04	 mov	 ecx, DWORD PTR [ecx+4]
  002f2	8d 4c 01 3c	 lea	 ecx, DWORD PTR [ecx+eax+60]
  002f6	8b 01		 mov	 eax, DWORD PTR [ecx]
  002f8	6a 01		 push	 1
  002fa	ff 10		 call	 DWORD PTR [eax]
$L111959:

; 163  : 	if (cMML)

  002fc	83 7d e8 00	 cmp	 DWORD PTR _cMML$[ebp], 0
  00300	74 0a		 je	 SHORT $L111963

; 164  : 		delete	cMML;

  00302	6a 01		 push	 1
  00304	ff 75 e8	 push	 DWORD PTR _cMML$[ebp]
  00307	e8 00 00 00 00	 call	 ??_GMMLfile@@QAEPAXI@Z
$L111963:

; 165  : 	if (cOptionSW)

  0030c	a1 00 00 00 00	 mov	 eax, DWORD PTR ?cOptionSW@@3PAVOPSW@@A ; cOptionSW
  00311	85 c0		 test	 eax, eax
  00313	74 08		 je	 SHORT $L111967

; 166  : 		delete	cOptionSW;

  00315	6a 01		 push	 1
  00317	50		 push	 eax
  00318	e8 00 00 00 00	 call	 ??_GOPSW@@QAEPAXI@Z
$L111967:

; 167  : 
; 168  : 	return(iResult);
; 169  : }

  0031d	8b 4d f4	 mov	 ecx, DWORD PTR __$EHRec$[ebp+4]
  00320	8b 45 e0	 mov	 eax, DWORD PTR _iResult$[ebp]
  00323	5f		 pop	 edi
  00324	5e		 pop	 esi
  00325	64 89 0d 00 00
	00 00		 mov	 DWORD PTR fs:__except_list, ecx
  0032c	5b		 pop	 ebx
  0032d	c9		 leave
  0032e	c3		 ret	 0
$L111970:

; 147  : 
; 148  : 
; 149  : 
; 150  : 		//==================================
; 151  : 
; 152  : 	} catch (int no) {
; 153  : 		if (no != EXIT_SUCCESS){

  0032f	83 7d d4 00	 cmp	 DWORD PTR _no$24278[ebp], 0
  00333	74 28		 je	 SHORT $L24279

; 154  :             _COUT	<<	_T("Error!:") << no << endl;

  00335	ff 75 d4	 push	 DWORD PTR _no$24278[ebp]
  00338	68 00 00 00 00	 push	 OFFSET FLAT:??_C@_1BA@BJOMPAID@?$AAE?$AAr?$AAr?$AAo?$AAr?$AA?$CB?$AA?3?$AA?$AA@
  0033d	68 00 00 00 00	 push	 OFFSET FLAT:?wcout@std@@3V?$basic_ostream@GU?$char_traits@G@std@@@1@A ; std::wcout
  00342	e8 00 00 00 00	 call	 ??$?6GU?$char_traits@G@std@@@std@@YAAAV?$basic_ostream@GU?$char_traits@G@std@@@0@AAV10@PBG@Z ; std::operator<<<unsigned short,std::char_traits<unsigned short> >
  00347	59		 pop	 ecx
  00348	59		 pop	 ecx
  00349	50		 push	 eax
  0034a	e8 00 00 00 00	 call	 ??6?$basic_ostream@GU?$char_traits@G@std@@@std@@QAEAAV01@H@Z ; std::basic_ostream<unsigned short,std::char_traits<unsigned short> >::operator<<
  0034f	50		 push	 eax
  00350	e8 00 00 00 00	 call	 ?endl@std@@YAAAV?$basic_ostream@GU?$char_traits@G@std@@@1@AAV21@@Z ; std::endl
  00355	59		 pop	 ecx

; 155  : 			iResult	= EXIT_FAILURE;

  00356	c7 45 e0 01 00
	00 00		 mov	 DWORD PTR _iResult$[ebp], 1
$L24279:

; 156  : 		}
; 157  : 	}

  0035d	b8 00 00 00 00	 mov	 eax, $L23933
  00362	c3		 ret	 0
_TEXT	ENDS
text$x	SEGMENT
$L111971:
  00f29	8d 4d dc	 lea	 ecx, DWORD PTR $T111938[ebp]
  00f2c	e9 00 00 00 00	 jmp	 ??1locale@std@@QAE@XZ	; std::locale::~locale
$L111973:
  00f31	ff 75 dc	 push	 DWORD PTR $T111941[ebp]
  00f34	e8 00 00 00 00	 call	 ??3@YAXPAX@Z		; operator delete
  00f39	59		 pop	 ecx
  00f3a	c3		 ret	 0
$L111974:
  00f3b	ff 75 dc	 push	 DWORD PTR $T111945[ebp]
  00f3e	e8 00 00 00 00	 call	 ??3@YAXPAX@Z		; operator delete
  00f43	59		 pop	 ecx
  00f44	c3		 ret	 0
$L111975:
  00f45	ff 75 dc	 push	 DWORD PTR $T111949[ebp]
  00f48	e8 00 00 00 00	 call	 ??3@YAXPAX@Z		; operator delete
  00f4d	59		 pop	 ecx
  00f4e	c3		 ret	 0
__ehhandler$_main:
  00f4f	b8 00 00 00 00	 mov	 eax, OFFSET FLAT:$T112117
  00f54	e9 00 00 00 00	 jmp	 ___CxxFrameHandler
text$x	ENDS
_main	ENDP
PUBLIC	?id@?$numpunct@D@std@@2V0locale@2@A		; std::numpunct<char>::id
PUBLIC	?id@?$numpunct@G@std@@2V0locale@2@A		; std::numpunct<unsigned short>::id
PUBLIC	?id@?$num_put@DV?$ostreambuf_iterator@DU?$char_traits@D@std@@@std@@@std@@2V0locale@2@A ; std::num_put<char,std::ostreambuf_iterator<char,std::char_traits<char> > >::id
PUBLIC	?id@?$num_put@GV?$ostreambuf_iterator@GU?$char_traits@G@std@@@std@@@std@@2V0locale@2@A ; std::num_put<unsigned short,std::ostreambuf_iterator<unsigned short,std::char_traits<unsigned short> > >::id
PUBLIC	?id@?$codecvt@DDH@std@@2V0locale@2@A		; std::codecvt<char,char,int>::id
;	COMDAT ?id@?$numpunct@D@std@@2V0locale@2@A
; File c:\program files (x86)\microsoft visual studio .net 2003\vc7\include\xlocnum
_BSS	SEGMENT
?id@?$numpunct@D@std@@2V0locale@2@A DD 01H DUP (?)	; std::numpunct<char>::id
_BSS	ENDS
;	COMDAT ?id@?$numpunct@G@std@@2V0locale@2@A
_BSS	SEGMENT
?id@?$numpunct@G@std@@2V0locale@2@A DD 01H DUP (?)	; std::numpunct<unsigned short>::id
_BSS	ENDS
;	COMDAT ?id@?$num_put@DV?$ostreambuf_iterator@DU?$char_traits@D@std@@@std@@@std@@2V0locale@2@A
_BSS	SEGMENT
?id@?$num_put@DV?$ostreambuf_iterator@DU?$char_traits@D@std@@@std@@@std@@2V0locale@2@A DD 01H DUP (?) ; std::num_put<char,std::ostreambuf_iterator<char,std::char_traits<char> > >::id
_BSS	ENDS
;	COMDAT ?id@?$num_put@GV?$ostreambuf_iterator@GU?$char_traits@G@std@@@std@@@std@@2V0locale@2@A
_BSS	SEGMENT
?id@?$num_put@GV?$ostreambuf_iterator@GU?$char_traits@G@std@@@std@@@std@@2V0locale@2@A DD 01H DUP (?) ; std::num_put<unsigned short,std::ostreambuf_iterator<unsigned short,std::char_traits<unsigned short> > >::id
_BSS	ENDS
;	COMDAT ?id@?$codecvt@DDH@std@@2V0locale@2@A
_BSS	SEGMENT
?id@?$codecvt@DDH@std@@2V0locale@2@A DD 01H DUP (?)	; std::codecvt<char,char,int>::id
_BSS	ENDS
END
