PUBLIC	??1?$map@IPAUpatch_scrap@@U?$less@I@std@@V?$allocator@U?$pair@$$CBIPAUpatch_scrap@@@std@@@3@@std@@QAE@XZ ; std::map<unsigned int,patch_scrap *,std::less<unsigned int>,std::allocator<std::pair<unsigned int const ,patch_scrap *> > >::~map<unsigned int,patch_scrap *,std::less<unsigned int>,std::allocator<std::pair<unsigned int const ,patch_scrap *> > >
PUBLIC	??6?$basic_ostream@DU?$char_traits@D@std@@@std@@QAEAAV01@_N@Z ; std::basic_ostream<char,std::char_traits<char> >::operator<<
PUBLIC	??0?$map@IPAUpatch_scrap@@U?$less@I@std@@V?$allocator@U?$pair@$$CBIPAUpatch_scrap@@@std@@@3@@std@@QAE@XZ ; std::map<unsigned int,patch_scrap *,std::less<unsigned int>,std::allocator<std::pair<unsigned int const ,patch_scrap *> > >::map<unsigned int,patch_scrap *,std::less<unsigned int>,std::allocator<std::pair<unsigned int const ,patch_scrap *> > >
PUBLIC	??A?$map@IPAUpatch_scrap@@U?$less@I@std@@V?$allocator@U?$pair@$$CBIPAUpatch_scrap@@@std@@@3@@std@@QAEAAPAUpatch_scrap@@ABI@Z ; std::map<unsigned int,patch_scrap *,std::less<unsigned int>,std::allocator<std::pair<unsigned int const ,patch_scrap *> > >::operator[]
PUBLIC	??1?$_Tree@V?$_Tmap_traits@IPAUpatch_scrap@@U?$less@I@std@@V?$allocator@U?$pair@$$CBIPAUpatch_scrap@@@std@@@3@$0A@@std@@@std@@QAE@XZ ; std::_Tree<std::_Tmap_traits<unsigned int,patch_scrap *,std::less<unsigned int>,std::allocator<std::pair<unsigned int const ,patch_scrap *> >,0> >::~_Tree<std::_Tmap_traits<unsigned int,patch_scrap *,std::less<unsigned int>,std::allocator<std::pair<unsigned int const ,patch_scrap *> >,0> >
PUBLIC	?begin@?$_Tree@V?$_Tmap_traits@IPAUpatch_scrap@@U?$less@I@std@@V?$allocator@U?$pair@$$CBIPAUpatch_scrap@@@std@@@3@$0A@@std@@@std@@QAE?AViterator@12@XZ ; std::_Tree<std::_Tmap_traits<unsigned int,patch_scrap *,std::less<unsigned int>,std::allocator<std::pair<unsigned int const ,patch_scrap *> >,0> >::begin
PUBLIC	?end@?$_Tree@V?$_Tmap_traits@IPAUpatch_scrap@@U?$less@I@std@@V?$allocator@U?$pair@$$CBIPAUpatch_scrap@@@std@@@3@$0A@@std@@@std@@QAE?AViterator@12@XZ ; std::_Tree<std::_Tmap_traits<unsigned int,patch_scrap *,std::less<unsigned int>,std::allocator<std::pair<unsigned int const ,patch_scrap *> >,0> >::end
PUBLIC	?empty@?$_Tree@V?$_Tmap_traits@IPAUpatch_scrap@@U?$less@I@std@@V?$allocator@U?$pair@$$CBIPAUpatch_scrap@@@std@@@3@$0A@@std@@@std@@QBE_NXZ ; std::_Tree<std::_Tmap_traits<unsigned int,patch_scrap *,std::less<unsigned int>,std::allocator<std::pair<unsigned int const ,patch_scrap *> >,0> >::empty
PUBLIC	?clear@?$_Tree@V?$_Tmap_traits@IPAUpatch_scrap@@U?$less@I@std@@V?$allocator@U?$pair@$$CBIPAUpatch_scrap@@@std@@@3@$0A@@std@@@std@@QAEXXZ ; std::_Tree<std::_Tmap_traits<unsigned int,patch_scrap *,std::less<unsigned int>,std::allocator<std::pair<unsigned int const ,patch_scrap *> >,0> >::clear
PUBLIC	?count@?$_Tree@V?$_Tmap_traits@IPAUpatch_scrap@@U?$less@I@std@@V?$allocator@U?$pair@$$CBIPAUpatch_scrap@@@std@@@3@$0A@@std@@@std@@QBEIABI@Z ; std::_Tree<std::_Tmap_traits<unsigned int,patch_scrap *,std::less<unsigned int>,std::allocator<std::pair<unsigned int const ,patch_scrap *> >,0> >::count
PUBLIC	??0iterator@?$_Tree@V?$_Tmap_traits@IPAUpatch_scrap@@U?$less@I@std@@V?$allocator@U?$pair@$$CBIPAUpatch_scrap@@@std@@@3@$0A@@std@@@std@@QAE@XZ ; std::_Tree<std::_Tmap_traits<unsigned int,patch_scrap *,std::less<unsigned int>,std::allocator<std::pair<unsigned int const ,patch_scrap *> >,0> >::iterator::iterator
PUBLIC	??Citerator@?$_Tree@V?$_Tmap_traits@IPAUpatch_scrap@@U?$less@I@std@@V?$allocator@U?$pair@$$CBIPAUpatch_scrap@@@std@@@3@$0A@@std@@@std@@QBEPAU?$pair@$$CBIPAUpatch_scrap@@@2@XZ ; std::_Tree<std::_Tmap_traits<unsigned int,patch_scrap *,std::less<unsigned int>,std::allocator<std::pair<unsigned int const ,patch_scrap *> >,0> >::iterator::operator->
PUBLIC	??Eiterator@?$_Tree@V?$_Tmap_traits@IPAUpatch_scrap@@U?$less@I@std@@V?$allocator@U?$pair@$$CBIPAUpatch_scrap@@@std@@@3@$0A@@std@@@std@@QAE?AV012@H@Z ; std::_Tree<std::_Tmap_traits<unsigned int,patch_scrap *,std::less<unsigned int>,std::allocator<std::pair<unsigned int const ,patch_scrap *> >,0> >::iterator::operator++
PUBLIC	??9const_iterator@?$_Tree@V?$_Tmap_traits@IPAUpatch_scrap@@U?$less@I@std@@V?$allocator@U?$pair@$$CBIPAUpatch_scrap@@@std@@@3@$0A@@std@@@std@@QBE_NABV012@@Z ; std::_Tree<std::_Tmap_traits<unsigned int,patch_scrap *,std::less<unsigned int>,std::allocator<std::pair<unsigned int const ,patch_scrap *> >,0> >::const_iterator::operator!=
PUBLIC	?_Key@?$_Tree@V?$_Tmap_traits@IPAUpatch_scrap@@U?$less@I@std@@V?$allocator@U?$pair@$$CBIPAUpatch_scrap@@@std@@@3@$0A@@std@@@std@@KAABIPAU_Node@?$_Tree_nod@V?$_Tmap_traits@IPAUpatch_scrap@@U?$less@I@std@@V?$allocator@U?$pair@$$CBIPAUpatch_scrap@@@std@@@3@$0A@@std@@@2@@Z ; std::_Tree<std::_Tmap_traits<unsigned int,patch_scrap *,std::less<unsigned int>,std::allocator<std::pair<unsigned int const ,patch_scrap *> >,0> >::_Key
PUBLIC	??0?$_Tree@V?$_Tmap_traits@IPAUpatch_scrap@@U?$less@I@std@@V?$allocator@U?$pair@$$CBIPAUpatch_scrap@@@std@@@3@$0A@@std@@@std@@QAE@ABU?$less@I@1@ABV?$allocator@U?$pair@$$CBIPAUpatch_scrap@@@std@@@1@@Z ; std::_Tree<std::_Tmap_traits<unsigned int,patch_scrap *,std::less<unsigned int>,std::allocator<std::pair<unsigned int const ,patch_scrap *> >,0> >::_Tree<std::_Tmap_traits<unsigned int,patch_scrap *,std::less<unsigned int>,std::allocator<std::pair<unsigned int const ,patch_scrap *> >,0> >
PUBLIC	?size@?$_Tree@V?$_Tmap_traits@IPAUpatch_scrap@@U?$less@I@std@@V?$allocator@U?$pair@$$CBIPAUpatch_scrap@@@std@@@3@$0A@@std@@@std@@QBEIXZ ; std::_Tree<std::_Tmap_traits<unsigned int,patch_scrap *,std::less<unsigned int>,std::allocator<std::pair<unsigned int const ,patch_scrap *> >,0> >::size
PUBLIC	?insert@?$_Tree@V?$_Tmap_traits@IPAUpatch_scrap@@U?$less@I@std@@V?$allocator@U?$pair@$$CBIPAUpatch_scrap@@@std@@@3@$0A@@std@@@std@@QAE?AViterator@12@V312@ABU?$pair@$$CBIPAUpatch_scrap@@@2@@Z ; std::_Tree<std::_Tmap_traits<unsigned int,patch_scrap *,std::less<unsigned int>,std::allocator<std::pair<unsigned int const ,patch_scrap *> >,0> >::insert
PUBLIC	?lower_bound@?$_Tree@V?$_Tmap_traits@IPAUpatch_scrap@@U?$less@I@std@@V?$allocator@U?$pair@$$CBIPAUpatch_scrap@@@std@@@3@$0A@@std@@@std@@QAE?AViterator@12@ABI@Z ; std::_Tree<std::_Tmap_traits<unsigned int,patch_scrap *,std::less<unsigned int>,std::allocator<std::pair<unsigned int const ,patch_scrap *> >,0> >::lower_bound
PUBLIC	?equal_range@?$_Tree@V?$_Tmap_traits@IPAUpatch_scrap@@U?$less@I@std@@V?$allocator@U?$pair@$$CBIPAUpatch_scrap@@@std@@@3@$0A@@std@@@std@@QBE?AU?$pair@Vconst_iterator@?$_Tree@V?$_Tmap_traits@IPAUpatch_scrap@@U?$less@I@std@@V?$allocator@U?$pair@$$CBIPAUpatch_scrap@@@std@@@3@$0A@@std@@@std@@V123@@2@ABI@Z ; std::_Tree<std::_Tmap_traits<unsigned int,patch_scrap *,std::less<unsigned int>,std::allocator<std::pair<unsigned int const ,patch_scrap *> >,0> >::equal_range
PUBLIC	?_Erase@?$_Tree@V?$_Tmap_traits@IPAUpatch_scrap@@U?$less@I@std@@V?$allocator@U?$pair@$$CBIPAUpatch_scrap@@@std@@@3@$0A@@std@@@std@@IAEXPAU_Node@?$_Tree_nod@V?$_Tmap_traits@IPAUpatch_scrap@@U?$less@I@std@@V?$allocator@U?$pair@$$CBIPAUpatch_scrap@@@std@@@3@$0A@@std@@@2@@Z ; std::_Tree<std::_Tmap_traits<unsigned int,patch_scrap *,std::less<unsigned int>,std::allocator<std::pair<unsigned int const ,patch_scrap *> >,0> >::_Erase
PUBLIC	?_Lmost@?$_Tree@V?$_Tmap_traits@IPAUpatch_scrap@@U?$less@I@std@@V?$allocator@U?$pair@$$CBIPAUpatch_scrap@@@std@@@3@$0A@@std@@@std@@IAEAAPAU_Node@?$_Tree_nod@V?$_Tmap_traits@IPAUpatch_scrap@@U?$less@I@std@@V?$allocator@U?$pair@$$CBIPAUpatch_scrap@@@std@@@3@$0A@@std@@@2@XZ ; std::_Tree<std::_Tmap_traits<unsigned int,patch_scrap *,std::less<unsigned int>,std::allocator<std::pair<unsigned int const ,patch_scrap *> >,0> >::_Lmost
PUBLIC	?_Rmost@?$_Tree@V?$_Tmap_traits@IPAUpatch_scrap@@U?$less@I@std@@V?$allocator@U?$pair@$$CBIPAUpatch_scrap@@@std@@@3@$0A@@std@@@std@@IAEAAPAU_Node@?$_Tree_nod@V?$_Tmap_traits@IPAUpatch_scrap@@U?$less@I@std@@V?$allocator@U?$pair@$$CBIPAUpatch_scrap@@@std@@@3@$0A@@std@@@2@XZ ; std::_Tree<std::_Tmap_traits<unsigned int,patch_scrap *,std::less<unsigned int>,std::allocator<std::pair<unsigned int const ,patch_scrap *> >,0> >::_Rmost
PUBLIC	?_Root@?$_Tree@V?$_Tmap_traits@IPAUpatch_scrap@@U?$less@I@std@@V?$allocator@U?$pair@$$CBIPAUpatch_scrap@@@std@@@3@$0A@@std@@@std@@IAEAAPAU_Node@?$_Tree_nod@V?$_Tmap_traits@IPAUpatch_scrap@@U?$less@I@std@@V?$allocator@U?$pair@$$CBIPAUpatch_scrap@@@std@@@3@$0A@@std@@@2@XZ ; std::_Tree<std::_Tmap_traits<unsigned int,patch_scrap *,std::less<unsigned int>,std::allocator<std::pair<unsigned int const ,patch_scrap *> >,0> >::_Root
PUBLIC	?_Tidy@?$_Tree@V?$_Tmap_traits@IPAUpatch_scrap@@U?$less@I@std@@V?$allocator@U?$pair@$$CBIPAUpatch_scrap@@@std@@@3@$0A@@std@@@std@@IAEXXZ ; std::_Tree<std::_Tmap_traits<unsigned int,patch_scrap *,std::less<unsigned int>,std::allocator<std::pair<unsigned int const ,patch_scrap *> >,0> >::_Tidy
PUBLIC	??0?$allocator@U?$pair@$$CBIPAUpatch_scrap@@@std@@@std@@QAE@XZ ; std::allocator<std::pair<unsigned int const ,patch_scrap *> >::allocator<std::pair<unsigned int const ,patch_scrap *> >
PUBLIC	??R?$less@I@std@@QBE_NABI0@Z			; std::less<unsigned int>::operator()
PUBLIC	??0iterator@?$_Tree@V?$_Tmap_traits@IPAUpatch_scrap@@U?$less@I@std@@V?$allocator@U?$pair@$$CBIPAUpatch_scrap@@@std@@@3@$0A@@std@@@std@@QAE@PAU_Node@?$_Tree_nod@V?$_Tmap_traits@IPAUpatch_scrap@@U?$less@I@std@@V?$allocator@U?$pair@$$CBIPAUpatch_scrap@@@std@@@3@$0A@@std@@@2@@Z ; std::_Tree<std::_Tmap_traits<unsigned int,patch_scrap *,std::less<unsigned int>,std::allocator<std::pair<unsigned int const ,patch_scrap *> >,0> >::iterator::iterator
PUBLIC	??Diterator@?$_Tree@V?$_Tmap_traits@IPAUpatch_scrap@@U?$less@I@std@@V?$allocator@U?$pair@$$CBIPAUpatch_scrap@@@std@@@3@$0A@@std@@@std@@QBEAAU?$pair@$$CBIPAUpatch_scrap@@@2@XZ ; std::_Tree<std::_Tmap_traits<unsigned int,patch_scrap *,std::less<unsigned int>,std::allocator<std::pair<unsigned int const ,patch_scrap *> >,0> >::iterator::operator*
PUBLIC	??Eiterator@?$_Tree@V?$_Tmap_traits@IPAUpatch_scrap@@U?$less@I@std@@V?$allocator@U?$pair@$$CBIPAUpatch_scrap@@@std@@@3@$0A@@std@@@std@@QAEAAV012@XZ ; std::_Tree<std::_Tmap_traits<unsigned int,patch_scrap *,std::less<unsigned int>,std::allocator<std::pair<unsigned int const ,patch_scrap *> >,0> >::iterator::operator++
PUBLIC	??0const_iterator@?$_Tree@V?$_Tmap_traits@IPAUpatch_scrap@@U?$less@I@std@@V?$allocator@U?$pair@$$CBIPAUpatch_scrap@@@std@@@3@$0A@@std@@@std@@QAE@XZ ; std::_Tree<std::_Tmap_traits<unsigned int,patch_scrap *,std::less<unsigned int>,std::allocator<std::pair<unsigned int const ,patch_scrap *> >,0> >::const_iterator::const_iterator
PUBLIC	??8const_iterator@?$_Tree@V?$_Tmap_traits@IPAUpatch_scrap@@U?$less@I@std@@V?$allocator@U?$pair@$$CBIPAUpatch_scrap@@@std@@@3@$0A@@std@@@std@@QBE_NABV012@@Z ; std::_Tree<std::_Tmap_traits<unsigned int,patch_scrap *,std::less<unsigned int>,std::allocator<std::pair<unsigned int const ,patch_scrap *> >,0> >::const_iterator::operator==
PUBLIC	?_Mynode@const_iterator@?$_Tree@V?$_Tmap_traits@IPAUpatch_scrap@@U?$less@I@std@@V?$allocator@U?$pair@$$CBIPAUpatch_scrap@@@std@@@3@$0A@@std@@@std@@QBEPAU_Node@?$_Tree_nod@V?$_Tmap_traits@IPAUpatch_scrap@@U?$less@I@std@@V?$allocator@U?$pair@$$CBIPAUpatch_scrap@@@std@@@3@$0A@@std@@@3@XZ ; std::_Tree<std::_Tmap_traits<unsigned int,patch_scrap *,std::less<unsigned int>,std::allocator<std::pair<unsigned int const ,patch_scrap *> >,0> >::const_iterator::_Mynode
PUBLIC	??0?$pair@$$CBIPAUpatch_scrap@@@std@@QAE@ABIABQAUpatch_scrap@@@Z ; std::pair<unsigned int const ,patch_scrap *>::pair<unsigned int const ,patch_scrap *>
PUBLIC	?put@?$num_put@DV?$ostreambuf_iterator@DU?$char_traits@D@std@@@std@@@std@@QBE?AV?$ostreambuf_iterator@DU?$char_traits@D@std@@@2@V32@AAVios_base@2@D_N@Z ; std::num_put<char,std::ostreambuf_iterator<char,std::char_traits<char> > >::put
PUBLIC	?_Isnil@?$_Tree@V?$_Tmap_traits@IPAUpatch_scrap@@U?$less@I@std@@V?$allocator@U?$pair@$$CBIPAUpatch_scrap@@@std@@@3@$0A@@std@@@std@@KAAADPAU_Node@?$_Tree_nod@V?$_Tmap_traits@IPAUpatch_scrap@@U?$less@I@std@@V?$allocator@U?$pair@$$CBIPAUpatch_scrap@@@std@@@3@$0A@@std@@@2@@Z ; std::_Tree<std::_Tmap_traits<unsigned int,patch_scrap *,std::less<unsigned int>,std::allocator<std::pair<unsigned int const ,patch_scrap *> >,0> >::_Isnil
PUBLIC	?_Left@?$_Tree@V?$_Tmap_traits@IPAUpatch_scrap@@U?$less@I@std@@V?$allocator@U?$pair@$$CBIPAUpatch_scrap@@@std@@@3@$0A@@std@@@std@@KAAAPAU_Node@?$_Tree_nod@V?$_Tmap_traits@IPAUpatch_scrap@@U?$less@I@std@@V?$allocator@U?$pair@$$CBIPAUpatch_scrap@@@std@@@3@$0A@@std@@@2@PAU342@@Z ; std::_Tree<std::_Tmap_traits<unsigned int,patch_scrap *,std::less<unsigned int>,std::allocator<std::pair<unsigned int const ,patch_scrap *> >,0> >::_Left
PUBLIC	?_Parent@?$_Tree@V?$_Tmap_traits@IPAUpatch_scrap@@U?$less@I@std@@V?$allocator@U?$pair@$$CBIPAUpatch_scrap@@@std@@@3@$0A@@std@@@std@@KAAAPAU_Node@?$_Tree_nod@V?$_Tmap_traits@IPAUpatch_scrap@@U?$less@I@std@@V?$allocator@U?$pair@$$CBIPAUpatch_scrap@@@std@@@3@$0A@@std@@@2@PAU342@@Z ; std::_Tree<std::_Tmap_traits<unsigned int,patch_scrap *,std::less<unsigned int>,std::allocator<std::pair<unsigned int const ,patch_scrap *> >,0> >::_Parent
PUBLIC	?_Right@?$_Tree@V?$_Tmap_traits@IPAUpatch_scrap@@U?$less@I@std@@V?$allocator@U?$pair@$$CBIPAUpatch_scrap@@@std@@@3@$0A@@std@@@std@@KAAAPAU_Node@?$_Tree_nod@V?$_Tmap_traits@IPAUpatch_scrap@@U?$less@I@std@@V?$allocator@U?$pair@$$CBIPAUpatch_scrap@@@std@@@3@$0A@@std@@@2@PAU342@@Z ; std::_Tree<std::_Tmap_traits<unsigned int,patch_scrap *,std::less<unsigned int>,std::allocator<std::pair<unsigned int const ,patch_scrap *> >,0> >::_Right
PUBLIC	?_Myval@?$_Tree@V?$_Tmap_traits@IPAUpatch_scrap@@U?$less@I@std@@V?$allocator@U?$pair@$$CBIPAUpatch_scrap@@@std@@@3@$0A@@std@@@std@@KAAAU?$pair@$$CBIPAUpatch_scrap@@@2@PAU_Node@?$_Tree_nod@V?$_Tmap_traits@IPAUpatch_scrap@@U?$less@I@std@@V?$allocator@U?$pair@$$CBIPAUpatch_scrap@@@std@@@3@$0A@@std@@@2@@Z ; std::_Tree<std::_Tmap_traits<unsigned int,patch_scrap *,std::less<unsigned int>,std::allocator<std::pair<unsigned int const ,patch_scrap *> >,0> >::_Myval
PUBLIC	?insert@?$_Tree@V?$_Tmap_traits@IPAUpatch_scrap@@U?$less@I@std@@V?$allocator@U?$pair@$$CBIPAUpatch_scrap@@@std@@@3@$0A@@std@@@std@@QAE?AU?$pair@Viterator@?$_Tree@V?$_Tmap_traits@IPAUpatch_scrap@@U?$less@I@std@@V?$allocator@U?$pair@$$CBIPAUpatch_scrap@@@std@@@3@$0A@@std@@@std@@_N@2@ABU?$pair@$$CBIPAUpatch_scrap@@@2@@Z ; std::_Tree<std::_Tmap_traits<unsigned int,patch_scrap *,std::less<unsigned int>,std::allocator<std::pair<unsigned int const ,patch_scrap *> >,0> >::insert
PUBLIC	?erase@?$_Tree@V?$_Tmap_traits@IPAUpatch_scrap@@U?$less@I@std@@V?$allocator@U?$pair@$$CBIPAUpatch_scrap@@@std@@@3@$0A@@std@@@std@@QAE?AViterator@12@V312@0@Z ; std::_Tree<std::_Tmap_traits<unsigned int,patch_scrap *,std::less<unsigned int>,std::allocator<std::pair<unsigned int const ,patch_scrap *> >,0> >::erase
PUBLIC	?lower_bound@?$_Tree@V?$_Tmap_traits@IPAUpatch_scrap@@U?$less@I@std@@V?$allocator@U?$pair@$$CBIPAUpatch_scrap@@@std@@@3@$0A@@std@@@std@@QBE?AVconst_iterator@12@ABI@Z ; std::_Tree<std::_Tmap_traits<unsigned int,patch_scrap *,std::less<unsigned int>,std::allocator<std::pair<unsigned int const ,patch_scrap *> >,0> >::lower_bound
PUBLIC	?upper_bound@?$_Tree@V?$_Tmap_traits@IPAUpatch_scrap@@U?$less@I@std@@V?$allocator@U?$pair@$$CBIPAUpatch_scrap@@@std@@@3@$0A@@std@@@std@@QBE?AVconst_iterator@12@ABI@Z ; std::_Tree<std::_Tmap_traits<unsigned int,patch_scrap *,std::less<unsigned int>,std::allocator<std::pair<unsigned int const ,patch_scrap *> >,0> >::upper_bound
PUBLIC	?_Init@?$_Tree@V?$_Tmap_traits@IPAUpatch_scrap@@U?$less@I@std@@V?$allocator@U?$pair@$$CBIPAUpatch_scrap@@@std@@@3@$0A@@std@@@std@@IAEXXZ ; std::_Tree<std::_Tmap_traits<unsigned int,patch_scrap *,std::less<unsigned int>,std::allocator<std::pair<unsigned int const ,patch_scrap *> >,0> >::_Init
PUBLIC	?_Insert@?$_Tree@V?$_Tmap_traits@IPAUpatch_scrap@@U?$less@I@std@@V?$allocator@U?$pair@$$CBIPAUpatch_scrap@@@std@@@3@$0A@@std@@@std@@IAE?AViterator@12@_NPAU_Node@?$_Tree_nod@V?$_Tmap_traits@IPAUpatch_scrap@@U?$less@I@std@@V?$allocator@U?$pair@$$CBIPAUpatch_scrap@@@std@@@3@$0A@@std@@@2@ABU?$pair@$$CBIPAUpatch_scrap@@@2@@Z ; std::_Tree<std::_Tmap_traits<unsigned int,patch_scrap *,std::less<unsigned int>,std::allocator<std::pair<unsigned int const ,patch_scrap *> >,0> >::_Insert
PUBLIC	?_Lbound@?$_Tree@V?$_Tmap_traits@IPAUpatch_scrap@@U?$less@I@std@@V?$allocator@U?$pair@$$CBIPAUpatch_scrap@@@std@@@3@$0A@@std@@@std@@IBEPAU_Node@?$_Tree_nod@V?$_Tmap_traits@IPAUpatch_scrap@@U?$less@I@std@@V?$allocator@U?$pair@$$CBIPAUpatch_scrap@@@std@@@3@$0A@@std@@@2@ABI@Z ; std::_Tree<std::_Tmap_traits<unsigned int,patch_scrap *,std::less<unsigned int>,std::allocator<std::pair<unsigned int const ,patch_scrap *> >,0> >::_Lbound
PUBLIC	??0?$_Tree_val@V?$_Tmap_traits@IPAUpatch_scrap@@U?$less@I@std@@V?$allocator@U?$pair@$$CBIPAUpatch_scrap@@@std@@@3@$0A@@std@@@std@@IAE@ABU?$less@I@1@V?$allocator@U?$pair@$$CBIPAUpatch_scrap@@@std@@@1@@Z ; std::_Tree_val<std::_Tmap_traits<unsigned int,patch_scrap *,std::less<unsigned int>,std::allocator<std::pair<unsigned int const ,patch_scrap *> >,0> >::_Tree_val<std::_Tmap_traits<unsigned int,patch_scrap *,std::less<unsigned int>,std::allocator<std::pair<unsigned int const ,patch_scrap *> >,0> >
PUBLIC	?_Kfn@?$_Tmap_traits@IPAUpatch_scrap@@U?$less@I@std@@V?$allocator@U?$pair@$$CBIPAUpatch_scrap@@@std@@@3@$0A@@std@@SAABIABU?$pair@$$CBIPAUpatch_scrap@@@2@@Z ; std::_Tmap_traits<unsigned int,patch_scrap *,std::less<unsigned int>,std::allocator<std::pair<unsigned int const ,patch_scrap *> >,0>::_Kfn
PUBLIC	??0?$allocator@U?$pair@$$CBIPAUpatch_scrap@@@std@@@std@@QAE@ABV01@@Z ; std::allocator<std::pair<unsigned int const ,patch_scrap *> >::allocator<std::pair<unsigned int const ,patch_scrap *> >
PUBLIC	?deallocate@?$allocator@U_Node@?$_Tree_nod@V?$_Tmap_traits@IPAUpatch_scrap@@U?$less@I@std@@V?$allocator@U?$pair@$$CBIPAUpatch_scrap@@@std@@@3@$0A@@std@@@std@@@std@@QAEXPAU_Node@?$_Tree_nod@V?$_Tmap_traits@IPAUpatch_scrap@@U?$less@I@std@@V?$allocator@U?$pair@$$CBIPAUpatch_scrap@@@std@@@3@$0A@@std@@@2@I@Z ; std::allocator<std::_Tree_nod<std::_Tmap_traits<unsigned int,patch_scrap *,std::less<unsigned int>,std::allocator<std::pair<unsigned int const ,patch_scrap *> >,0> >::_Node>::deallocate
PUBLIC	?destroy@?$allocator@U_Node@?$_Tree_nod@V?$_Tmap_traits@IPAUpatch_scrap@@U?$less@I@std@@V?$allocator@U?$pair@$$CBIPAUpatch_scrap@@@std@@@3@$0A@@std@@@std@@@std@@QAEXPAU_Node@?$_Tree_nod@V?$_Tmap_traits@IPAUpatch_scrap@@U?$less@I@std@@V?$allocator@U?$pair@$$CBIPAUpatch_scrap@@@std@@@3@$0A@@std@@@2@@Z ; std::allocator<std::_Tree_nod<std::_Tmap_traits<unsigned int,patch_scrap *,std::less<unsigned int>,std::allocator<std::pair<unsigned int const ,patch_scrap *> >,0> >::_Node>::destroy
PUBLIC	?destroy@?$allocator@PAU_Node@?$_Tree_nod@V?$_Tmap_traits@IPAUpatch_scrap@@U?$less@I@std@@V?$allocator@U?$pair@$$CBIPAUpatch_scrap@@@std@@@3@$0A@@std@@@std@@@std@@QAEXPAPAU_Node@?$_Tree_nod@V?$_Tmap_traits@IPAUpatch_scrap@@U?$less@I@std@@V?$allocator@U?$pair@$$CBIPAUpatch_scrap@@@std@@@3@$0A@@std@@@2@@Z ; std::allocator<std::_Tree_nod<std::_Tmap_traits<unsigned int,patch_scrap *,std::less<unsigned int>,std::allocator<std::pair<unsigned int const ,patch_scrap *> >,0> >::_Node *>::destroy
PUBLIC	??Fiterator@?$_Tree@V?$_Tmap_traits@IPAUpatch_scrap@@U?$less@I@std@@V?$allocator@U?$pair@$$CBIPAUpatch_scrap@@@std@@@3@$0A@@std@@@std@@QAEAAV012@XZ ; std::_Tree<std::_Tmap_traits<unsigned int,patch_scrap *,std::less<unsigned int>,std::allocator<std::pair<unsigned int const ,patch_scrap *> >,0> >::iterator::operator--
PUBLIC	??0const_iterator@?$_Tree@V?$_Tmap_traits@IPAUpatch_scrap@@U?$less@I@std@@V?$allocator@U?$pair@$$CBIPAUpatch_scrap@@@std@@@3@$0A@@std@@@std@@QAE@PAU_Node@?$_Tree_nod@V?$_Tmap_traits@IPAUpatch_scrap@@U?$less@I@std@@V?$allocator@U?$pair@$$CBIPAUpatch_scrap@@@std@@@3@$0A@@std@@@2@@Z ; std::_Tree<std::_Tmap_traits<unsigned int,patch_scrap *,std::less<unsigned int>,std::allocator<std::pair<unsigned int const ,patch_scrap *> >,0> >::const_iterator::const_iterator
PUBLIC	??Dconst_iterator@?$_Tree@V?$_Tmap_traits@IPAUpatch_scrap@@U?$less@I@std@@V?$allocator@U?$pair@$$CBIPAUpatch_scrap@@@std@@@3@$0A@@std@@@std@@QBEABU?$pair@$$CBIPAUpatch_scrap@@@2@XZ ; std::_Tree<std::_Tmap_traits<unsigned int,patch_scrap *,std::less<unsigned int>,std::allocator<std::pair<unsigned int const ,patch_scrap *> >,0> >::const_iterator::operator*
PUBLIC	??Econst_iterator@?$_Tree@V?$_Tmap_traits@IPAUpatch_scrap@@U?$less@I@std@@V?$allocator@U?$pair@$$CBIPAUpatch_scrap@@@std@@@3@$0A@@std@@@std@@QAEAAV012@XZ ; std::_Tree<std::_Tmap_traits<unsigned int,patch_scrap *,std::less<unsigned int>,std::allocator<std::pair<unsigned int const ,patch_scrap *> >,0> >::const_iterator::operator++
PUBLIC	??0?$pair@Vconst_iterator@?$_Tree@V?$_Tmap_traits@IPAUpatch_scrap@@U?$less@I@std@@V?$allocator@U?$pair@$$CBIPAUpatch_scrap@@@std@@@3@$0A@@std@@@std@@V123@@std@@QAE@ABVconst_iterator@?$_Tree@V?$_Tmap_traits@IPAUpatch_scrap@@U?$less@I@std@@V?$allocator@U?$pair@$$CBIPAUpatch_scrap@@@std@@@3@$0A@@std@@@1@0@Z ; std::pair<std::_Tree<std::_Tmap_traits<unsigned int,patch_scrap *,std::less<unsigned int>,std::allocator<std::pair<unsigned int const ,patch_scrap *> >,0> >::const_iterator,std::_Tree<std::_Tmap_traits<unsigned int,patch_scrap *,std::less<unsigned int>,std::allocator<std::pair<unsigned int const ,patch_scrap *> >,0> >::const_iterator>::pair<std::_Tree<std::_Tmap_traits<unsigned int,patch_scrap *,std::less<unsigned int>,std::allocator<std::pair<unsigned int const ,patch_scrap *> >,0> >::const_iterator,std::_Tree<std::_Tmap_traits<unsigned int,patch_scrap *,std::less<unsigned int>,std::allocator<std::pair<unsigned int const ,patch_scrap *> >,0> >::const_iterator>
PUBLIC	?_Color@?$_Tree@V?$_Tmap_traits@IPAUpatch_scrap@@U?$less@I@std@@V?$allocator@U?$pair@$$CBIPAUpatch_scrap@@@std@@@3@$0A@@std@@@std@@KAAADPAU_Node@?$_Tree_nod@V?$_Tmap_traits@IPAUpatch_scrap@@U?$less@I@std@@V?$allocator@U?$pair@$$CBIPAUpatch_scrap@@@std@@@3@$0A@@std@@@2@@Z ; std::_Tree<std::_Tmap_traits<unsigned int,patch_scrap *,std::less<unsigned int>,std::allocator<std::pair<unsigned int const ,patch_scrap *> >,0> >::_Color
PUBLIC	?max_size@?$_Tree@V?$_Tmap_traits@IPAUpatch_scrap@@U?$less@I@std@@V?$allocator@U?$pair@$$CBIPAUpatch_scrap@@@std@@@3@$0A@@std@@@std@@QBEIXZ ; std::_Tree<std::_Tmap_traits<unsigned int,patch_scrap *,std::less<unsigned int>,std::allocator<std::pair<unsigned int const ,patch_scrap *> >,0> >::max_size
PUBLIC	?erase@?$_Tree@V?$_Tmap_traits@IPAUpatch_scrap@@U?$less@I@std@@V?$allocator@U?$pair@$$CBIPAUpatch_scrap@@@std@@@3@$0A@@std@@@std@@QAE?AViterator@12@V312@@Z ; std::_Tree<std::_Tmap_traits<unsigned int,patch_scrap *,std::less<unsigned int>,std::allocator<std::pair<unsigned int const ,patch_scrap *> >,0> >::erase
PUBLIC	?_Lrotate@?$_Tree@V?$_Tmap_traits@IPAUpatch_scrap@@U?$less@I@std@@V?$allocator@U?$pair@$$CBIPAUpatch_scrap@@@std@@@3@$0A@@std@@@std@@IAEXPAU_Node@?$_Tree_nod@V?$_Tmap_traits@IPAUpatch_scrap@@U?$less@I@std@@V?$allocator@U?$pair@$$CBIPAUpatch_scrap@@@std@@@3@$0A@@std@@@2@@Z ; std::_Tree<std::_Tmap_traits<unsigned int,patch_scrap *,std::less<unsigned int>,std::allocator<std::pair<unsigned int const ,patch_scrap *> >,0> >::_Lrotate
PUBLIC	?_Root@?$_Tree@V?$_Tmap_traits@IPAUpatch_scrap@@U?$less@I@std@@V?$allocator@U?$pair@$$CBIPAUpatch_scrap@@@std@@@3@$0A@@std@@@std@@IBEAAPAU_Node@?$_Tree_nod@V?$_Tmap_traits@IPAUpatch_scrap@@U?$less@I@std@@V?$allocator@U?$pair@$$CBIPAUpatch_scrap@@@std@@@3@$0A@@std@@@2@XZ ; std::_Tree<std::_Tmap_traits<unsigned int,patch_scrap *,std::less<unsigned int>,std::allocator<std::pair<unsigned int const ,patch_scrap *> >,0> >::_Root
PUBLIC	?_Rrotate@?$_Tree@V?$_Tmap_traits@IPAUpatch_scrap@@U?$less@I@std@@V?$allocator@U?$pair@$$CBIPAUpatch_scrap@@@std@@@3@$0A@@std@@@std@@IAEXPAU_Node@?$_Tree_nod@V?$_Tmap_traits@IPAUpatch_scrap@@U?$less@I@std@@V?$allocator@U?$pair@$$CBIPAUpatch_scrap@@@std@@@3@$0A@@std@@@2@@Z ; std::_Tree<std::_Tmap_traits<unsigned int,patch_scrap *,std::less<unsigned int>,std::allocator<std::pair<unsigned int const ,patch_scrap *> >,0> >::_Rrotate
PUBLIC	?_Ubound@?$_Tree@V?$_Tmap_traits@IPAUpatch_scrap@@U?$less@I@std@@V?$allocator@U?$pair@$$CBIPAUpatch_scrap@@@std@@@3@$0A@@std@@@std@@IBEPAU_Node@?$_Tree_nod@V?$_Tmap_traits@IPAUpatch_scrap@@U?$less@I@std@@V?$allocator@U?$pair@$$CBIPAUpatch_scrap@@@std@@@3@$0A@@std@@@2@ABI@Z ; std::_Tree<std::_Tmap_traits<unsigned int,patch_scrap *,std::less<unsigned int>,std::allocator<std::pair<unsigned int const ,patch_scrap *> >,0> >::_Ubound
PUBLIC	?_Buynode@?$_Tree@V?$_Tmap_traits@IPAUpatch_scrap@@U?$less@I@std@@V?$allocator@U?$pair@$$CBIPAUpatch_scrap@@@std@@@3@$0A@@std@@@std@@IAEPAU_Node@?$_Tree_nod@V?$_Tmap_traits@IPAUpatch_scrap@@U?$less@I@std@@V?$allocator@U?$pair@$$CBIPAUpatch_scrap@@@std@@@3@$0A@@std@@@2@XZ ; std::_Tree<std::_Tmap_traits<unsigned int,patch_scrap *,std::less<unsigned int>,std::allocator<std::pair<unsigned int const ,patch_scrap *> >,0> >::_Buynode
PUBLIC	?_Buynode@?$_Tree@V?$_Tmap_traits@IPAUpatch_scrap@@U?$less@I@std@@V?$allocator@U?$pair@$$CBIPAUpatch_scrap@@@std@@@3@$0A@@std@@@std@@IAEPAU_Node@?$_Tree_nod@V?$_Tmap_traits@IPAUpatch_scrap@@U?$less@I@std@@V?$allocator@U?$pair@$$CBIPAUpatch_scrap@@@std@@@3@$0A@@std@@@2@PAU342@00ABU?$pair@$$CBIPAUpatch_scrap@@@2@D@Z ; std::_Tree<std::_Tmap_traits<unsigned int,patch_scrap *,std::less<unsigned int>,std::allocator<std::pair<unsigned int const ,patch_scrap *> >,0> >::_Buynode
PUBLIC	??0?$_Tree_ptr@V?$_Tmap_traits@IPAUpatch_scrap@@U?$less@I@std@@V?$allocator@U?$pair@$$CBIPAUpatch_scrap@@@std@@@3@$0A@@std@@@std@@IAE@ABU?$less@I@1@V?$allocator@U?$pair@$$CBIPAUpatch_scrap@@@std@@@1@@Z ; std::_Tree_ptr<std::_Tmap_traits<unsigned int,patch_scrap *,std::less<unsigned int>,std::allocator<std::pair<unsigned int const ,patch_scrap *> >,0> >::_Tree_ptr<std::_Tmap_traits<unsigned int,patch_scrap *,std::less<unsigned int>,std::allocator<std::pair<unsigned int const ,patch_scrap *> >,0> >
PUBLIC	??Fconst_iterator@?$_Tree@V?$_Tmap_traits@IPAUpatch_scrap@@U?$less@I@std@@V?$allocator@U?$pair@$$CBIPAUpatch_scrap@@@std@@@3@$0A@@std@@@std@@QAEAAV012@XZ ; std::_Tree<std::_Tmap_traits<unsigned int,patch_scrap *,std::less<unsigned int>,std::allocator<std::pair<unsigned int const ,patch_scrap *> >,0> >::const_iterator::operator--
PUBLIC	?_Inc@const_iterator@?$_Tree@V?$_Tmap_traits@IPAUpatch_scrap@@U?$less@I@std@@V?$allocator@U?$pair@$$CBIPAUpatch_scrap@@@std@@@3@$0A@@std@@@std@@QAEXXZ ; std::_Tree<std::_Tmap_traits<unsigned int,patch_scrap *,std::less<unsigned int>,std::allocator<std::pair<unsigned int const ,patch_scrap *> >,0> >::const_iterator::_Inc
PUBLIC	??0?$pair@Viterator@?$_Tree@V?$_Tmap_traits@IPAUpatch_scrap@@U?$less@I@std@@V?$allocator@U?$pair@$$CBIPAUpatch_scrap@@@std@@@3@$0A@@std@@@std@@_N@std@@QAE@ABViterator@?$_Tree@V?$_Tmap_traits@IPAUpatch_scrap@@U?$less@I@std@@V?$allocator@U?$pair@$$CBIPAUpatch_scrap@@@std@@@3@$0A@@std@@@1@AB_N@Z ; std::pair<std::_Tree<std::_Tmap_traits<unsigned int,patch_scrap *,std::less<unsigned int>,std::allocator<std::pair<unsigned int const ,patch_scrap *> >,0> >::iterator,bool>::pair<std::_Tree<std::_Tmap_traits<unsigned int,patch_scrap *,std::less<unsigned int>,std::allocator<std::pair<unsigned int const ,patch_scrap *> >,0> >::iterator,bool>
PUBLIC	?_Max@?$_Tree@V?$_Tmap_traits@IPAUpatch_scrap@@U?$less@I@std@@V?$allocator@U?$pair@$$CBIPAUpatch_scrap@@@std@@@3@$0A@@std@@@std@@KAPAU_Node@?$_Tree_nod@V?$_Tmap_traits@IPAUpatch_scrap@@U?$less@I@std@@V?$allocator@U?$pair@$$CBIPAUpatch_scrap@@@std@@@3@$0A@@std@@@2@PAU342@@Z ; std::_Tree<std::_Tmap_traits<unsigned int,patch_scrap *,std::less<unsigned int>,std::allocator<std::pair<unsigned int const ,patch_scrap *> >,0> >::_Max
PUBLIC	?_Min@?$_Tree@V?$_Tmap_traits@IPAUpatch_scrap@@U?$less@I@std@@V?$allocator@U?$pair@$$CBIPAUpatch_scrap@@@std@@@3@$0A@@std@@@std@@KAPAU_Node@?$_Tree_nod@V?$_Tmap_traits@IPAUpatch_scrap@@U?$less@I@std@@V?$allocator@U?$pair@$$CBIPAUpatch_scrap@@@std@@@3@$0A@@std@@@2@PAU342@@Z ; std::_Tree<std::_Tmap_traits<unsigned int,patch_scrap *,std::less<unsigned int>,std::allocator<std::pair<unsigned int const ,patch_scrap *> >,0> >::_Min
PUBLIC	??0?$_Tree_nod@V?$_Tmap_traits@IPAUpatch_scrap@@U?$less@I@std@@V?$allocator@U?$pair@$$CBIPAUpatch_scrap@@@std@@@3@$0A@@std@@@std@@IAE@ABU?$less@I@1@V?$allocator@U?$pair@$$CBIPAUpatch_scrap@@@std@@@1@@Z ; std::_Tree_nod<std::_Tmap_traits<unsigned int,patch_scrap *,std::less<unsigned int>,std::allocator<std::pair<unsigned int const ,patch_scrap *> >,0> >::_Tree_nod<std::_Tmap_traits<unsigned int,patch_scrap *,std::less<unsigned int>,std::allocator<std::pair<unsigned int const ,patch_scrap *> >,0> >
PUBLIC	?max_size@?$allocator@U?$pair@$$CBIPAUpatch_scrap@@@std@@@std@@QBEIXZ ; std::allocator<std::pair<unsigned int const ,patch_scrap *> >::max_size
PUBLIC	?allocate@?$allocator@U_Node@?$_Tree_nod@V?$_Tmap_traits@IPAUpatch_scrap@@U?$less@I@std@@V?$allocator@U?$pair@$$CBIPAUpatch_scrap@@@std@@@3@$0A@@std@@@std@@@std@@QAEPAU_Node@?$_Tree_nod@V?$_Tmap_traits@IPAUpatch_scrap@@U?$less@I@std@@V?$allocator@U?$pair@$$CBIPAUpatch_scrap@@@std@@@3@$0A@@std@@@2@I@Z ; std::allocator<std::_Tree_nod<std::_Tmap_traits<unsigned int,patch_scrap *,std::less<unsigned int>,std::allocator<std::pair<unsigned int const ,patch_scrap *> >,0> >::_Node>::allocate
PUBLIC	?construct@?$allocator@PAU_Node@?$_Tree_nod@V?$_Tmap_traits@IPAUpatch_scrap@@U?$less@I@std@@V?$allocator@U?$pair@$$CBIPAUpatch_scrap@@@std@@@3@$0A@@std@@@std@@@std@@QAEXPAPAU_Node@?$_Tree_nod@V?$_Tmap_traits@IPAUpatch_scrap@@U?$less@I@std@@V?$allocator@U?$pair@$$CBIPAUpatch_scrap@@@std@@@3@$0A@@std@@@2@ABQAU342@@Z ; std::allocator<std::_Tree_nod<std::_Tmap_traits<unsigned int,patch_scrap *,std::less<unsigned int>,std::allocator<std::pair<unsigned int const ,patch_scrap *> >,0> >::_Node *>::construct
PUBLIC	?_Dec@const_iterator@?$_Tree@V?$_Tmap_traits@IPAUpatch_scrap@@U?$less@I@std@@V?$allocator@U?$pair@$$CBIPAUpatch_scrap@@@std@@@3@$0A@@std@@@std@@QAEXXZ ; std::_Tree<std::_Tmap_traits<unsigned int,patch_scrap *,std::less<unsigned int>,std::allocator<std::pair<unsigned int const ,patch_scrap *> >,0> >::const_iterator::_Dec
PUBLIC	??0_Node@?$_Tree_nod@V?$_Tmap_traits@IPAUpatch_scrap@@U?$less@I@std@@V?$allocator@U?$pair@$$CBIPAUpatch_scrap@@@std@@@3@$0A@@std@@@std@@QAE@PAU012@00ABU?$pair@$$CBIPAUpatch_scrap@@@2@D@Z ; std::_Tree_nod<std::_Tmap_traits<unsigned int,patch_scrap *,std::less<unsigned int>,std::allocator<std::pair<unsigned int const ,patch_scrap *> >,0> >::_Node::_Node
PUBLIC	??0?$_Tmap_traits@IPAUpatch_scrap@@U?$less@I@std@@V?$allocator@U?$pair@$$CBIPAUpatch_scrap@@@std@@@3@$0A@@std@@QAE@U?$less@I@1@@Z ; std::_Tmap_traits<unsigned int,patch_scrap *,std::less<unsigned int>,std::allocator<std::pair<unsigned int const ,patch_scrap *> >,0>::_Tmap_traits<unsigned int,patch_scrap *,std::less<unsigned int>,std::allocator<std::pair<unsigned int const ,patch_scrap *> >,0>
PUBLIC	??$_Distance@Vconst_iterator@?$_Tree@V?$_Tmap_traits@IPAUpatch_scrap@@U?$less@I@std@@V?$allocator@U?$pair@$$CBIPAUpatch_scrap@@@std@@@3@$0A@@std@@@std@@I@std@@YAXVconst_iterator@?$_Tree@V?$_Tmap_traits@IPAUpatch_scrap@@U?$less@I@std@@V?$allocator@U?$pair@$$CBIPAUpatch_scrap@@@std@@@3@$0A@@std@@@0@0AAI@Z ; std::_Distance<std::_Tree<std::_Tmap_traits<unsigned int,patch_scrap *,std::less<unsigned int>,std::allocator<std::pair<unsigned int const ,patch_scrap *> >,0> >::const_iterator,unsigned int>
PUBLIC	??$_Destroy@U_Node@?$_Tree_nod@V?$_Tmap_traits@IPAUpatch_scrap@@U?$less@I@std@@V?$allocator@U?$pair@$$CBIPAUpatch_scrap@@@std@@@3@$0A@@std@@@std@@@std@@YAXPAU_Node@?$_Tree_nod@V?$_Tmap_traits@IPAUpatch_scrap@@U?$less@I@std@@V?$allocator@U?$pair@$$CBIPAUpatch_scrap@@@std@@@3@$0A@@std@@@0@@Z ; std::_Destroy<std::_Tree_nod<std::_Tmap_traits<unsigned int,patch_scrap *,std::less<unsigned int>,std::allocator<std::pair<unsigned int const ,patch_scrap *> >,0> >::_Node>
PUBLIC	??$_Destroy@PAU_Node@?$_Tree_nod@V?$_Tmap_traits@IPAUpatch_scrap@@U?$less@I@std@@V?$allocator@U?$pair@$$CBIPAUpatch_scrap@@@std@@@3@$0A@@std@@@std@@@std@@YAXPAPAU_Node@?$_Tree_nod@V?$_Tmap_traits@IPAUpatch_scrap@@U?$less@I@std@@V?$allocator@U?$pair@$$CBIPAUpatch_scrap@@@std@@@3@$0A@@std@@@0@@Z ; std::_Destroy<std::_Tree_nod<std::_Tmap_traits<unsigned int,patch_scrap *,std::less<unsigned int>,std::allocator<std::pair<unsigned int const ,patch_scrap *> >,0> >::_Node *>
PUBLIC	??$?0U?$pair@$$CBIPAUpatch_scrap@@@std@@@?$allocator@PAU_Node@?$_Tree_nod@V?$_Tmap_traits@IPAUpatch_scrap@@U?$less@I@std@@V?$allocator@U?$pair@$$CBIPAUpatch_scrap@@@std@@@3@$0A@@std@@@std@@@std@@QAE@ABV?$allocator@U?$pair@$$CBIPAUpatch_scrap@@@std@@@1@@Z ; std::allocator<std::_Tree_nod<std::_Tmap_traits<unsigned int,patch_scrap *,std::less<unsigned int>,std::allocator<std::pair<unsigned int const ,patch_scrap *> >,0> >::_Node *>::allocator<std::_Tree_nod<std::_Tmap_traits<unsigned int,patch_scrap *,std::less<unsigned int>,std::allocator<std::pair<unsigned int const ,patch_scrap *> >,0> >::_Node *><std::pair<unsigned int const ,patch_scrap *> >
PUBLIC	??$?0U?$pair@$$CBIPAUpatch_scrap@@@std@@@?$allocator@U_Node@?$_Tree_nod@V?$_Tmap_traits@IPAUpatch_scrap@@U?$less@I@std@@V?$allocator@U?$pair@$$CBIPAUpatch_scrap@@@std@@@3@$0A@@std@@@std@@@std@@QAE@ABV?$allocator@U?$pair@$$CBIPAUpatch_scrap@@@std@@@1@@Z ; std::allocator<std::_Tree_nod<std::_Tmap_traits<unsigned int,patch_scrap *,std::less<unsigned int>,std::allocator<std::pair<unsigned int const ,patch_scrap *> >,0> >::_Node>::allocator<std::_Tree_nod<std::_Tmap_traits<unsigned int,patch_scrap *,std::less<unsigned int>,std::allocator<std::pair<unsigned int const ,patch_scrap *> >,0> >::_Node><std::pair<unsigned int const ,patch_scrap *> >
PUBLIC	??$_Allocate@U_Node@?$_Tree_nod@V?$_Tmap_traits@IPAUpatch_scrap@@U?$less@I@std@@V?$allocator@U?$pair@$$CBIPAUpatch_scrap@@@std@@@3@$0A@@std@@@std@@@std@@YAPAU_Node@?$_Tree_nod@V?$_Tmap_traits@IPAUpatch_scrap@@U?$less@I@std@@V?$allocator@U?$pair@$$CBIPAUpatch_scrap@@@std@@@3@$0A@@std@@@0@IPAU120@@Z ; std::_Allocate<std::_Tree_nod<std::_Tmap_traits<unsigned int,patch_scrap *,std::less<unsigned int>,std::allocator<std::pair<unsigned int const ,patch_scrap *> >,0> >::_Node>
PUBLIC	??$_Construct@PAU_Node@?$_Tree_nod@V?$_Tmap_traits@IPAUpatch_scrap@@U?$less@I@std@@V?$allocator@U?$pair@$$CBIPAUpatch_scrap@@@std@@@3@$0A@@std@@@std@@PAU123@@std@@YAXPAPAU_Node@?$_Tree_nod@V?$_Tmap_traits@IPAUpatch_scrap@@U?$less@I@std@@V?$allocator@U?$pair@$$CBIPAUpatch_scrap@@@std@@@3@$0A@@std@@@0@ABQAU120@@Z ; std::_Construct<std::_Tree_nod<std::_Tmap_traits<unsigned int,patch_scrap *,std::less<unsigned int>,std::allocator<std::pair<unsigned int const ,patch_scrap *> >,0> >::_Node *,std::_Tree_nod<std::_Tmap_traits<unsigned int,patch_scrap *,std::less<unsigned int>,std::allocator<std::pair<unsigned int const ,patch_scrap *> >,0> >::_Node *>
PUBLIC	??$_Iter_cat@Vconst_iterator@?$_Tree@V?$_Tmap_traits@IPAUpatch_scrap@@U?$less@I@std@@V?$allocator@U?$pair@$$CBIPAUpatch_scrap@@@std@@@3@$0A@@std@@@std@@@std@@YA?AUbidirectional_iterator_tag@0@ABVconst_iterator@?$_Tree@V?$_Tmap_traits@IPAUpatch_scrap@@U?$less@I@std@@V?$allocator@U?$pair@$$CBIPAUpatch_scrap@@@std@@@3@$0A@@std@@@0@@Z ; std::_Iter_cat<std::_Tree<std::_Tmap_traits<unsigned int,patch_scrap *,std::less<unsigned int>,std::allocator<std::pair<unsigned int const ,patch_scrap *> >,0> >::const_iterator>
PUBLIC	??$_Distance2@Vconst_iterator@?$_Tree@V?$_Tmap_traits@IPAUpatch_scrap@@U?$less@I@std@@V?$allocator@U?$pair@$$CBIPAUpatch_scrap@@@std@@@3@$0A@@std@@@std@@I@std@@YAXVconst_iterator@?$_Tree@V?$_Tmap_traits@IPAUpatch_scrap@@U?$less@I@std@@V?$allocator@U?$pair@$$CBIPAUpatch_scrap@@@std@@@3@$0A@@std@@@0@0AAIUbidirectional_iterator_tag@0@@Z ; std::_Distance2<std::_Tree<std::_Tmap_traits<unsigned int,patch_scrap *,std::less<unsigned int>,std::allocator<std::pair<unsigned int const ,patch_scrap *> >,0> >::const_iterator,unsigned int>
PUBLIC	?get_iEn@Patch@@QAEIXZ				; Patch::get_iEn
PUBLIC	?get_sw_En@Patch@@QAE_NXZ			; Patch::get_sw_En
PUBLIC	?get_fEn@Patch@@QAE_NXZ				; Patch::get_fEn
PUBLIC	?get_iEm@Patch@@QAEIXZ				; Patch::get_iEm
PUBLIC	?get_sw_Em@Patch@@QAE_NXZ			; Patch::get_sw_Em
PUBLIC	?get_fEm@Patch@@QAE_NXZ				; Patch::get_fEm
PUBLIC	?get_iEvol@Patch@@QAEIXZ			; Patch::get_iEvol
PUBLIC	?get_sw_Evol@Patch@@QAE_NXZ			; Patch::get_sw_Evol
PUBLIC	?get_fEvol@Patch@@QAE_NXZ			; Patch::get_fEvol
PUBLIC	?get_iEvoi@Patch@@QAEIXZ			; Patch::get_iEvoi
PUBLIC	?get_fEvoi@Patch@@QAE_NXZ			; Patch::get_fEvoi
PUBLIC	?get_iVoi@Patch@@QAEIXZ				; Patch::get_iVoi
PUBLIC	?get_fVoi@Patch@@QAE_NXZ			; Patch::get_fVoi
PUBLIC	?get_iSweep@Patch@@QAEEXZ			; Patch::get_iSweep
PUBLIC	?get_fSweep@Patch@@QAE_NXZ			; Patch::get_fSweep
PUBLIC	?get_iKey@Patch@@QAEIXZ				; Patch::get_iKey
PUBLIC	?get_fKey@Patch@@QAE_NXZ			; Patch::get_fKey
PUBLIC	?get_fSub_opt@Patch@@QAE_NXZ			; Patch::get_fSub_opt
PUBLIC	?get_iSub@Patch@@QAEIXZ				; Patch::get_iSub
PUBLIC	?get_fSub@Patch@@QAE_NXZ			; Patch::get_fSub
PUBLIC	?get_iGate_u@Patch@@QAEIXZ			; Patch::get_iGate_u
PUBLIC	?get_fGate_u@Patch@@QAE_NXZ			; Patch::get_fGate_u
PUBLIC	?get_iGate_q@Patch@@QAEIXZ			; Patch::get_iGate_q
PUBLIC	?get_fGate_q@Patch@@QAE_NXZ			; Patch::get_fGate_q
; Listing generated by Microsoft (R) Optimizing Compiler Version 13.10.3077 

	TITLE	.\Patch.cpp
	.386P
include listing.inc
if @Version gt 510
.model FLAT
else
;	COMDAT ??_C@_02MOBCCJHH@$$?$AA@
CONST	SEGMENT DWORD USE32 PUBLIC 'CONST'
CONST	ENDS
;	COMDAT ??_C@_03GNIAMJAE@E?$EA?$CK?$AA@
CONST	SEGMENT DWORD USE32 PUBLIC 'CONST'
CONST	ENDS
;	COMDAT ??_C@_03ENGGFACG@Ev?$CK?$AA@
CONST	SEGMENT DWORD USE32 PUBLIC 'CONST'
CONST	ENDS
;	COMDAT ??_C@_03FNBFBMLH@Em?$CK?$AA@
CONST	SEGMENT DWORD USE32 PUBLIC 'CONST'
CONST	ENDS
;	COMDAT ??_C@_03FPFDKCOO@En?$CK?$AA@
CONST	SEGMENT DWORD USE32 PUBLIC 'CONST'
CONST	ENDS
;	COMDAT ??_C@_02IGJGCGMD@E?$EA?$AA@
CONST	SEGMENT DWORD USE32 PUBLIC 'CONST'
CONST	ENDS
;	COMDAT ??_C@_02PIKLHLG@Ev?$AA@
CONST	SEGMENT DWORD USE32 PUBLIC 'CONST'
CONST	ENDS
;	COMDAT ??_C@_02KGLMHMCM@Em?$AA@
CONST	SEGMENT DWORD USE32 PUBLIC 'CONST'
CONST	ENDS
;	COMDAT ??_C@_02INJBCPOP@En?$AA@
CONST	SEGMENT DWORD USE32 PUBLIC 'CONST'
CONST	ENDS
;	COMDAT ??_C@_01IIACKFLH@q?$AA@
CONST	SEGMENT DWORD USE32 PUBLIC 'CONST'
CONST	ENDS
;	COMDAT ??_C@_01OMGOGALD@u?$AA@
CONST	SEGMENT DWORD USE32 PUBLIC 'CONST'
CONST	ENDS
;	COMDAT ??_C@_01LKDEMHDF@s?$AA@
CONST	SEGMENT DWORD USE32 PUBLIC 'CONST'
CONST	ENDS
;	COMDAT ??_C@_03KODNNGID@?$EANS?$AA@
CONST	SEGMENT DWORD USE32 PUBLIC 'CONST'
CONST	ENDS
;	COMDAT ??_C@_01EOFPKCAF@?$EA?$AA@
CONST	SEGMENT DWORD USE32 PUBLIC 'CONST'
CONST	ENDS
;	COMDAT ??_C@_01IDAFKMJL@_?$AA@
CONST	SEGMENT DWORD USE32 PUBLIC 'CONST'
CONST	ENDS
;	COMDAT ??_C@_1DE@KNJKOFFK@?$JH?s?$ICr0?$KI0?s0?Y0?m0?$PM0?W0hT?$AMfB0k?$FL?$JK?$HP?$KJ0Y0?$IL0S0h0o0g@
CONST	SEGMENT DWORD USE32 PUBLIC 'CONST'
CONST	ENDS
;	COMDAT ??_C@_1BG@OGNIMPKO@?$JH?s?$ICr0n?$PP?$BC?$JB?M?$FL?$JK?$HP?$KJ0g0Y0?$AC?$AA?$AA@
CONST	SEGMENT DWORD USE32 PUBLIC 'CONST'
CONST	ENDS
;	COMDAT ??_C@_1CM@IEKMDFIE@?$JH?s?$ICr0o?$AA0?$PP?$FO?$AA2?$AA5?$AA50n?$HL?DV?r0gc?$AH?$FL?$JK0W0f0O0?$GA0U0D@
CONST	SEGMENT DWORD USE32 PUBLIC 'CONST'
CONST	ENDS
;	COMDAT ??_C@_1DC@GHMDBEFP@?$JH?s?$ICr0?$KI0?s0?Y0?m0?$PM0?W0o0?$AB?$AA?$EA0?$LD0?$NO0?s0?I0gq?$CBR?$LJ0k0g@
CONST	SEGMENT DWORD USE32 PUBLIC 'CONST'
CONST	ENDS
;	COMDAT ??_C@_1CC@OODHOOPP@?$JH?s?$JB?O0?$KI0?s0?Y0?m0?$PM0?W0n?$PP?$BC?$JB?M?$FL?$JK?$HP?$KJ0g0Y0?$AC?$AA?$AA@
CONST	SEGMENT DWORD USE32 PUBLIC 'CONST'
CONST	ENDS
;	COMDAT ??_C@_1CC@HCKABCOF@?$JH?sz?$AL0?$KI0?s0?Y0?m0?$PM0?W0n?$PP?$BC?$JB?M?$FL?$JK?$HP?$KJ0g0Y0?$AC?$AA?$AA@
CONST	SEGMENT DWORD USE32 PUBLIC 'CONST'
CONST	ENDS
;	COMDAT ??_C@_1CE@MHEDGKOC@0?N0?$PM0?H0?$KI0?s0?Y0?m0?$PM0?W0n?$PP?$BC?$JB?M?$FL?$JK?$HP?$KJ0g0Y0?$AC?$AA?$AA@
CONST	SEGMENT DWORD USE32 PUBLIC 'CONST'
CONST	ENDS
;	COMDAT ??_C@_1CC@LNAFLFDL@?$JH?s?$ICr0?$KI0?s0?Y0?m0?$PM0?W0n?$PP?$BC?$JB?M?$FL?$JK?$HP?$KJ0g0Y0?$AC?$AA?$AA@
CONST	SEGMENT DWORD USE32 PUBLIC 'CONST'
CONST	ENDS
;	COMDAT ??_C@_1CI@FCLDAKAL@?$JH?s?$ICr0hT?$AMfB0k?$FL?$JK?$HP?$KJ0Y0?$IL0S0h0o0g0M0?$HO0?$FL0?$JD0?$AC?$AA?$AA@
CONST	SEGMENT DWORD USE32 PUBLIC 'CONST'
CONST	ENDS
;	COMDAT ??_C@_1BM@CDGIHPDA@?$AAq0?$LD0?$NO0?s0?I0n?$PP?$BC?$JB?M?$FL?$JK?$HP?$KJ0g0Y0?$AC?$AA?$AA@
CONST	SEGMENT DWORD USE32 PUBLIC 'CONST'
CONST	ENDS
;	COMDAT ??_C@_1BM@CFLPILEE@?$AAu0?$LD0?$NO0?s0?I0n?$PP?$BC?$JB?M?$FL?$JK?$HP?$KJ0g0Y0?$AC?$AA?$AA@
CONST	SEGMENT DWORD USE32 PUBLIC 'CONST'
CONST	ENDS
;	COMDAT ??_C@_1BG@DMDHOLIG@y?$PL?$IK?$LP0n?$PP?$BC?$JB?M?$FL?$JK?$HP?$KJ0g0Y0?$AC?$AA?$AA@
CONST	SEGMENT DWORD USE32 PUBLIC 'CONST'
CONST	ENDS
;	COMDAT ??_C@_1BM@CAADIFAK@?$AAs0?$LD0?$NO0?s0?I0n?$PP?$BC?$JB?M?$FL?$JK?$HP?$KJ0g0Y0?$AC?$AA?$AA@
CONST	SEGMENT DWORD USE32 PUBLIC 'CONST'
CONST	ENDS
;	COMDAT ??_C@_1DC@OMNANPHO@?$AAs0?$LD0?$NO0?s0?I0o?$AA0?$PP?$FO?$AA2?$AA5?$AA50n?$HL?DV?r0gc?$AH?$FL?$JK0W0f0O@
CONST	SEGMENT DWORD USE32 PUBLIC 'CONST'
CONST	ENDS
;	COMDAT ??_C@_1EA@FGFBAIAO@?$AAs0?$LD0?$NO0?s0?I0n?$HL?0?$AA10?Q0?i0?a0?$PM0?$LP0o?$AA0?$PP?$FO?$AA1?$AA50n?$HL?D@
CONST	SEGMENT DWORD USE32 PUBLIC 'CONST'
CONST	ENDS
;	COMDAT ??_C@_1EA@BHDCEFM@?$AAs0?$LD0?$NO0?s0?I0n?$HL?0?$AA20?Q0?i0?a0?$PM0?$LP0o?$AA0?$PP?$FO?$AA1?$AA50n?$HL?D@
CONST	SEGMENT DWORD USE32 PUBLIC 'CONST'
CONST	ENDS
;	COMDAT ??_C@_1CE@JMKANNFP@?$AA?$EA0?$LD0?$NO0?s0?I0Le?b0kc?$AH?$FL?$JK0U0?$IM0f0D0?$HO0Y0?$AC?$AA?$AA@
CONST	SEGMENT DWORD USE32 PUBLIC 'CONST'
CONST	ENDS
;	COMDAT ??_C@_1CG@DIPDDOH@?$AAE?$AA?$EA0?$LD0?$NO0?s0?I0Le?b0kc?$AH?$FL?$JK0U0?$IM0f0D0?$HO0Y0?$AC?$AA?$AA@
CONST	SEGMENT DWORD USE32 PUBLIC 'CONST'
CONST	ENDS
;	COMDAT ??_C@_1DM@DHGNPNAI@?$AAn?$AA1?$AA6?$AAx0nl?b_b?$JF?$ILY?Kp?$LJ0o?$AA0?$PP?$FO?$AA2?$AA5?$AA20n?$HL?DV?r0g@
CONST	SEGMENT DWORD USE32 PUBLIC 'CONST'
CONST	ENDS
;	COMDAT ??_C@_1DE@ODMGCHFJ@?$AAn?$AA1?$AA6?$AAx0nl?b_b?$JF?$ILY?Kp?$LJ0o?$AA40nP?$ANep0gc?$AH?$FL?$JK0W0f@
CONST	SEGMENT DWORD USE32 PUBLIC 'CONST'
CONST	ENDS
;	COMDAT ??_C@_1CE@PCAGAE@?$AAs0?$LD0?$NO0?s0?I0Le?b0kc?$AH?$FL?$JK0U0?$IM0f0D0?$HO0Y0?$AC?$AA?$AA@
CONST	SEGMENT DWORD USE32 PUBLIC 'CONST'
CONST	ENDS
;	COMDAT ??_C@_1DM@DDNJDHDJ@?$AAn?$AA1?$AA6?$AAx0n0?$LF0?s0?W0?k?$JFw0o?$AA4?$PP?$FO?$AA2?$AA5?$AA60n?$HL?DV?r0g@
CONST	SEGMENT DWORD USE32 PUBLIC 'CONST'
CONST	ENDS
;	COMDAT ??_C@_1DE@MPDFLMLF@?$AAn?$AA1?$AA6?$AAx0n0?$LF0?s0?W0?k?$JFw0o?$AA40nP?$ANep0gc?$AH?$FL?$JK0W0f@
CONST	SEGMENT DWORD USE32 PUBLIC 'CONST'
CONST	ENDS
;	COMDAT ??_C@_1BO@CKOOCKJC@0?$LF0?V0?k0?$PM0?A0?s0n?$PP?$BC?$JB?M?$FL?$JK?$HP?$KJ0g0Y0?$AC?$AA?$AA@
CONST	SEGMENT DWORD USE32 PUBLIC 'CONST'
CONST	ENDS
;	COMDAT ??_C@_1DO@BDHNDBK@0?$LF0?V0?k0?$PM0?A0?s0ng?$AA?$JAiS?$BG0?U0?i0?$LA0o?$AA0?$PP?$FO?$AA10n?$HL?DV?r@
CONST	SEGMENT DWORD USE32 PUBLIC 'CONST'
CONST	ENDS
;	COMDAT ??_C@_08JGNHFCII@?$CJ?5?$FN?5?$DN?$DN?$DN?$DN?$AA@
CONST	SEGMENT DWORD USE32 PUBLIC 'CONST'
CONST	ENDS
;	COMDAT ??_C@_0O@IDEMKPMC@?$DN?$DN?$DN?$DN?5?$FL?5Patch?$CI?$AA@
CONST	SEGMENT DWORD USE32 PUBLIC 'CONST'
CONST	ENDS
;	COMDAT ??_C@_03LNLKIPBE@?5?5n?$AA@
CONST	SEGMENT DWORD USE32 PUBLIC 'CONST'
CONST	ENDS
;	COMDAT ??_C@_03HAOAIBIK@?5?5q?$AA@
CONST	SEGMENT DWORD USE32 PUBLIC 'CONST'
CONST	ENDS
;	COMDAT ??_C@_03BEIMEEIO@?5?5u?$AA@
CONST	SEGMENT DWORD USE32 PUBLIC 'CONST'
CONST	ENDS
;	COMDAT ??_C@_03NHFCMHKK@?5?5S?$AA@
CONST	SEGMENT DWORD USE32 PUBLIC 'CONST'
CONST	ENDS
;	COMDAT ??_C@_03HLOHIIKG@?5?5_?$AA@
CONST	SEGMENT DWORD USE32 PUBLIC 'CONST'
CONST	ENDS
;	COMDAT ??_C@_03ECNGODAI@?5?5s?$AA@
CONST	SEGMENT DWORD USE32 PUBLIC 'CONST'
CONST	ENDS
;	COMDAT ??_C@_03LGLNIGDI@?5?5?$EA?$AA@
CONST	SEGMENT DWORD USE32 PUBLIC 'CONST'
CONST	ENDS
;	COMDAT ??_C@_03PIKBIPPD@?5E?$EA?$AA@
CONST	SEGMENT DWORD USE32 PUBLIC 'CONST'
CONST	ENDS
;	COMDAT ??_C@_04GLMBFHCD@?5Ev?$CK?$AA@
CONST	SEGMENT DWORD USE32 PUBLIC 'CONST'
CONST	ENDS
;	COMDAT ??_C@_03HBLNBOIG@?5Ev?$AA@
CONST	SEGMENT DWORD USE32 PUBLIC 'CONST'
CONST	ENDS
;	COMDAT ??_C@_04HLLCBLLC@?5Em?$CK?$AA@
CONST	SEGMENT DWORD USE32 PUBLIC 'CONST'
CONST	ENDS
;	COMDAT ??_C@_03NIILNFBM@?5Em?$AA@
CONST	SEGMENT DWORD USE32 PUBLIC 'CONST'
CONST	ENDS
;	COMDAT ??_C@_04HJPEKFOL@?5En?$CK?$AA@
CONST	SEGMENT DWORD USE32 PUBLIC 'CONST'
CONST	ENDS
;	COMDAT ??_C@_03PDKGIGNP@?5En?$AA@
CONST	SEGMENT DWORD USE32 PUBLIC 'CONST'
CONST	ENDS
text$yc	SEGMENT PARA USE32 PUBLIC 'CODE'
text$yc	ENDS
;	COMDAT ??1?$map@IPAUpatch_scrap@@U?$less@I@std@@V?$allocator@U?$pair@$$CBIPAUpatch_scrap@@@std@@@3@@std@@QAE@XZ
_TEXT	SEGMENT PARA USE32 PUBLIC 'CODE'
_TEXT	ENDS
;	COMDAT ??6?$basic_ostream@DU?$char_traits@D@std@@@std@@QAEAAV01@_N@Z
_TEXT	SEGMENT PARA USE32 PUBLIC 'CODE'
_TEXT	ENDS
;	COMDAT ??0?$map@IPAUpatch_scrap@@U?$less@I@std@@V?$allocator@U?$pair@$$CBIPAUpatch_scrap@@@std@@@3@@std@@QAE@XZ
_TEXT	SEGMENT PARA USE32 PUBLIC 'CODE'
_TEXT	ENDS
;	COMDAT ??A?$map@IPAUpatch_scrap@@U?$less@I@std@@V?$allocator@U?$pair@$$CBIPAUpatch_scrap@@@std@@@3@@std@@QAEAAPAUpatch_scrap@@ABI@Z
_TEXT	SEGMENT PARA USE32 PUBLIC 'CODE'
_TEXT	ENDS
;	COMDAT ??1?$_Tree@V?$_Tmap_traits@IPAUpatch_scrap@@U?$less@I@std@@V?$allocator@U?$pair@$$CBIPAUpatch_scrap@@@std@@@3@$0A@@std@@@std@@QAE@XZ
_TEXT	SEGMENT PARA USE32 PUBLIC 'CODE'
_TEXT	ENDS
;	COMDAT ?begin@?$_Tree@V?$_Tmap_traits@IPAUpatch_scrap@@U?$less@I@std@@V?$allocator@U?$pair@$$CBIPAUpatch_scrap@@@std@@@3@$0A@@std@@@std@@QAE?AViterator@12@XZ
_TEXT	SEGMENT PARA USE32 PUBLIC 'CODE'
_TEXT	ENDS
;	COMDAT ?end@?$_Tree@V?$_Tmap_traits@IPAUpatch_scrap@@U?$less@I@std@@V?$allocator@U?$pair@$$CBIPAUpatch_scrap@@@std@@@3@$0A@@std@@@std@@QAE?AViterator@12@XZ
_TEXT	SEGMENT PARA USE32 PUBLIC 'CODE'
_TEXT	ENDS
;	COMDAT ?empty@?$_Tree@V?$_Tmap_traits@IPAUpatch_scrap@@U?$less@I@std@@V?$allocator@U?$pair@$$CBIPAUpatch_scrap@@@std@@@3@$0A@@std@@@std@@QBE_NXZ
_TEXT	SEGMENT PARA USE32 PUBLIC 'CODE'
_TEXT	ENDS
;	COMDAT ?clear@?$_Tree@V?$_Tmap_traits@IPAUpatch_scrap@@U?$less@I@std@@V?$allocator@U?$pair@$$CBIPAUpatch_scrap@@@std@@@3@$0A@@std@@@std@@QAEXXZ
_TEXT	SEGMENT PARA USE32 PUBLIC 'CODE'
_TEXT	ENDS
;	COMDAT ?count@?$_Tree@V?$_Tmap_traits@IPAUpatch_scrap@@U?$less@I@std@@V?$allocator@U?$pair@$$CBIPAUpatch_scrap@@@std@@@3@$0A@@std@@@std@@QBEIABI@Z
_TEXT	SEGMENT PARA USE32 PUBLIC 'CODE'
_TEXT	ENDS
;	COMDAT ??0iterator@?$_Tree@V?$_Tmap_traits@IPAUpatch_scrap@@U?$less@I@std@@V?$allocator@U?$pair@$$CBIPAUpatch_scrap@@@std@@@3@$0A@@std@@@std@@QAE@XZ
_TEXT	SEGMENT PARA USE32 PUBLIC 'CODE'
_TEXT	ENDS
;	COMDAT ??Citerator@?$_Tree@V?$_Tmap_traits@IPAUpatch_scrap@@U?$less@I@std@@V?$allocator@U?$pair@$$CBIPAUpatch_scrap@@@std@@@3@$0A@@std@@@std@@QBEPAU?$pair@$$CBIPAUpatch_scrap@@@2@XZ
_TEXT	SEGMENT PARA USE32 PUBLIC 'CODE'
_TEXT	ENDS
;	COMDAT ??Eiterator@?$_Tree@V?$_Tmap_traits@IPAUpatch_scrap@@U?$less@I@std@@V?$allocator@U?$pair@$$CBIPAUpatch_scrap@@@std@@@3@$0A@@std@@@std@@QAE?AV012@H@Z
_TEXT	SEGMENT PARA USE32 PUBLIC 'CODE'
_TEXT	ENDS
;	COMDAT ??9const_iterator@?$_Tree@V?$_Tmap_traits@IPAUpatch_scrap@@U?$less@I@std@@V?$allocator@U?$pair@$$CBIPAUpatch_scrap@@@std@@@3@$0A@@std@@@std@@QBE_NABV012@@Z
_TEXT	SEGMENT PARA USE32 PUBLIC 'CODE'
_TEXT	ENDS
;	COMDAT ?_Key@?$_Tree@V?$_Tmap_traits@IPAUpatch_scrap@@U?$less@I@std@@V?$allocator@U?$pair@$$CBIPAUpatch_scrap@@@std@@@3@$0A@@std@@@std@@KAABIPAU_Node@?$_Tree_nod@V?$_Tmap_traits@IPAUpatch_scrap@@U?$less@I@std@@V?$allocator@U?$pair@$$CBIPAUpatch_scrap@@@std@@@3@$0A@@std@@@2@@Z
_TEXT	SEGMENT PARA USE32 PUBLIC 'CODE'
_TEXT	ENDS
;	COMDAT ??0?$_Tree@V?$_Tmap_traits@IPAUpatch_scrap@@U?$less@I@std@@V?$allocator@U?$pair@$$CBIPAUpatch_scrap@@@std@@@3@$0A@@std@@@std@@QAE@ABU?$less@I@1@ABV?$allocator@U?$pair@$$CBIPAUpatch_scrap@@@std@@@1@@Z
_TEXT	SEGMENT PARA USE32 PUBLIC 'CODE'
_TEXT	ENDS
;	COMDAT ?size@?$_Tree@V?$_Tmap_traits@IPAUpatch_scrap@@U?$less@I@std@@V?$allocator@U?$pair@$$CBIPAUpatch_scrap@@@std@@@3@$0A@@std@@@std@@QBEIXZ
_TEXT	SEGMENT PARA USE32 PUBLIC 'CODE'
_TEXT	ENDS
;	COMDAT ?insert@?$_Tree@V?$_Tmap_traits@IPAUpatch_scrap@@U?$less@I@std@@V?$allocator@U?$pair@$$CBIPAUpatch_scrap@@@std@@@3@$0A@@std@@@std@@QAE?AViterator@12@V312@ABU?$pair@$$CBIPAUpatch_scrap@@@2@@Z
_TEXT	SEGMENT PARA USE32 PUBLIC 'CODE'
_TEXT	ENDS
;	COMDAT ?lower_bound@?$_Tree@V?$_Tmap_traits@IPAUpatch_scrap@@U?$less@I@std@@V?$allocator@U?$pair@$$CBIPAUpatch_scrap@@@std@@@3@$0A@@std@@@std@@QAE?AViterator@12@ABI@Z
_TEXT	SEGMENT PARA USE32 PUBLIC 'CODE'
_TEXT	ENDS
;	COMDAT ?equal_range@?$_Tree@V?$_Tmap_traits@IPAUpatch_scrap@@U?$less@I@std@@V?$allocator@U?$pair@$$CBIPAUpatch_scrap@@@std@@@3@$0A@@std@@@std@@QBE?AU?$pair@Vconst_iterator@?$_Tree@V?$_Tmap_traits@IPAUpatch_scrap@@U?$less@I@std@@V?$allocator@U?$pair@$$CBIPAUpatch_scrap@@@std@@@3@$0A@@std@@@std@@V123@@2@ABI@Z
_TEXT	SEGMENT PARA USE32 PUBLIC 'CODE'
_TEXT	ENDS
;	COMDAT ?_Erase@?$_Tree@V?$_Tmap_traits@IPAUpatch_scrap@@U?$less@I@std@@V?$allocator@U?$pair@$$CBIPAUpatch_scrap@@@std@@@3@$0A@@std@@@std@@IAEXPAU_Node@?$_Tree_nod@V?$_Tmap_traits@IPAUpatch_scrap@@U?$less@I@std@@V?$allocator@U?$pair@$$CBIPAUpatch_scrap@@@std@@@3@$0A@@std@@@2@@Z
_TEXT	SEGMENT PARA USE32 PUBLIC 'CODE'
_TEXT	ENDS
;	COMDAT ?_Lmost@?$_Tree@V?$_Tmap_traits@IPAUpatch_scrap@@U?$less@I@std@@V?$allocator@U?$pair@$$CBIPAUpatch_scrap@@@std@@@3@$0A@@std@@@std@@IAEAAPAU_Node@?$_Tree_nod@V?$_Tmap_traits@IPAUpatch_scrap@@U?$less@I@std@@V?$allocator@U?$pair@$$CBIPAUpatch_scrap@@@std@@@3@$0A@@std@@@2@XZ
_TEXT	SEGMENT PARA USE32 PUBLIC 'CODE'
_TEXT	ENDS
;	COMDAT ?_Rmost@?$_Tree@V?$_Tmap_traits@IPAUpatch_scrap@@U?$less@I@std@@V?$allocator@U?$pair@$$CBIPAUpatch_scrap@@@std@@@3@$0A@@std@@@std@@IAEAAPAU_Node@?$_Tree_nod@V?$_Tmap_traits@IPAUpatch_scrap@@U?$less@I@std@@V?$allocator@U?$pair@$$CBIPAUpatch_scrap@@@std@@@3@$0A@@std@@@2@XZ
_TEXT	SEGMENT PARA USE32 PUBLIC 'CODE'
_TEXT	ENDS
;	COMDAT ?_Root@?$_Tree@V?$_Tmap_traits@IPAUpatch_scrap@@U?$less@I@std@@V?$allocator@U?$pair@$$CBIPAUpatch_scrap@@@std@@@3@$0A@@std@@@std@@IAEAAPAU_Node@?$_Tree_nod@V?$_Tmap_traits@IPAUpatch_scrap@@U?$less@I@std@@V?$allocator@U?$pair@$$CBIPAUpatch_scrap@@@std@@@3@$0A@@std@@@2@XZ
_TEXT	SEGMENT PARA USE32 PUBLIC 'CODE'
_TEXT	ENDS
;	COMDAT ?_Tidy@?$_Tree@V?$_Tmap_traits@IPAUpatch_scrap@@U?$less@I@std@@V?$allocator@U?$pair@$$CBIPAUpatch_scrap@@@std@@@3@$0A@@std@@@std@@IAEXXZ
_TEXT	SEGMENT PARA USE32 PUBLIC 'CODE'
_TEXT	ENDS
;	COMDAT ??0?$allocator@U?$pair@$$CBIPAUpatch_scrap@@@std@@@std@@QAE@XZ
_TEXT	SEGMENT PARA USE32 PUBLIC 'CODE'
_TEXT	ENDS
;	COMDAT ??R?$less@I@std@@QBE_NABI0@Z
_TEXT	SEGMENT PARA USE32 PUBLIC 'CODE'
_TEXT	ENDS
;	COMDAT ??0iterator@?$_Tree@V?$_Tmap_traits@IPAUpatch_scrap@@U?$less@I@std@@V?$allocator@U?$pair@$$CBIPAUpatch_scrap@@@std@@@3@$0A@@std@@@std@@QAE@PAU_Node@?$_Tree_nod@V?$_Tmap_traits@IPAUpatch_scrap@@U?$less@I@std@@V?$allocator@U?$pair@$$CBIPAUpatch_scrap@@@std@@@3@$0A@@std@@@2@@Z
_TEXT	SEGMENT PARA USE32 PUBLIC 'CODE'
_TEXT	ENDS
;	COMDAT ??Diterator@?$_Tree@V?$_Tmap_traits@IPAUpatch_scrap@@U?$less@I@std@@V?$allocator@U?$pair@$$CBIPAUpatch_scrap@@@std@@@3@$0A@@std@@@std@@QBEAAU?$pair@$$CBIPAUpatch_scrap@@@2@XZ
_TEXT	SEGMENT PARA USE32 PUBLIC 'CODE'
_TEXT	ENDS
;	COMDAT ??Eiterator@?$_Tree@V?$_Tmap_traits@IPAUpatch_scrap@@U?$less@I@std@@V?$allocator@U?$pair@$$CBIPAUpatch_scrap@@@std@@@3@$0A@@std@@@std@@QAEAAV012@XZ
_TEXT	SEGMENT PARA USE32 PUBLIC 'CODE'
_TEXT	ENDS
;	COMDAT ??0const_iterator@?$_Tree@V?$_Tmap_traits@IPAUpatch_scrap@@U?$less@I@std@@V?$allocator@U?$pair@$$CBIPAUpatch_scrap@@@std@@@3@$0A@@std@@@std@@QAE@XZ
_TEXT	SEGMENT PARA USE32 PUBLIC 'CODE'
_TEXT	ENDS
;	COMDAT ??8const_iterator@?$_Tree@V?$_Tmap_traits@IPAUpatch_scrap@@U?$less@I@std@@V?$allocator@U?$pair@$$CBIPAUpatch_scrap@@@std@@@3@$0A@@std@@@std@@QBE_NABV012@@Z
_TEXT	SEGMENT PARA USE32 PUBLIC 'CODE'
_TEXT	ENDS
;	COMDAT ?_Mynode@const_iterator@?$_Tree@V?$_Tmap_traits@IPAUpatch_scrap@@U?$less@I@std@@V?$allocator@U?$pair@$$CBIPAUpatch_scrap@@@std@@@3@$0A@@std@@@std@@QBEPAU_Node@?$_Tree_nod@V?$_Tmap_traits@IPAUpatch_scrap@@U?$less@I@std@@V?$allocator@U?$pair@$$CBIPAUpatch_scrap@@@std@@@3@$0A@@std@@@3@XZ
_TEXT	SEGMENT PARA USE32 PUBLIC 'CODE'
_TEXT	ENDS
;	COMDAT ??0?$pair@$$CBIPAUpatch_scrap@@@std@@QAE@ABIABQAUpatch_scrap@@@Z
_TEXT	SEGMENT PARA USE32 PUBLIC 'CODE'
_TEXT	ENDS
;	COMDAT ?put@?$num_put@DV?$ostreambuf_iterator@DU?$char_traits@D@std@@@std@@@std@@QBE?AV?$ostreambuf_iterator@DU?$char_traits@D@std@@@2@V32@AAVios_base@2@D_N@Z
_TEXT	SEGMENT PARA USE32 PUBLIC 'CODE'
_TEXT	ENDS
;	COMDAT ?_Isnil@?$_Tree@V?$_Tmap_traits@IPAUpatch_scrap@@U?$less@I@std@@V?$allocator@U?$pair@$$CBIPAUpatch_scrap@@@std@@@3@$0A@@std@@@std@@KAAADPAU_Node@?$_Tree_nod@V?$_Tmap_traits@IPAUpatch_scrap@@U?$less@I@std@@V?$allocator@U?$pair@$$CBIPAUpatch_scrap@@@std@@@3@$0A@@std@@@2@@Z
_TEXT	SEGMENT PARA USE32 PUBLIC 'CODE'
_TEXT	ENDS
;	COMDAT ?_Left@?$_Tree@V?$_Tmap_traits@IPAUpatch_scrap@@U?$less@I@std@@V?$allocator@U?$pair@$$CBIPAUpatch_scrap@@@std@@@3@$0A@@std@@@std@@KAAAPAU_Node@?$_Tree_nod@V?$_Tmap_traits@IPAUpatch_scrap@@U?$less@I@std@@V?$allocator@U?$pair@$$CBIPAUpatch_scrap@@@std@@@3@$0A@@std@@@2@PAU342@@Z
_TEXT	SEGMENT PARA USE32 PUBLIC 'CODE'
_TEXT	ENDS
;	COMDAT ?_Parent@?$_Tree@V?$_Tmap_traits@IPAUpatch_scrap@@U?$less@I@std@@V?$allocator@U?$pair@$$CBIPAUpatch_scrap@@@std@@@3@$0A@@std@@@std@@KAAAPAU_Node@?$_Tree_nod@V?$_Tmap_traits@IPAUpatch_scrap@@U?$less@I@std@@V?$allocator@U?$pair@$$CBIPAUpatch_scrap@@@std@@@3@$0A@@std@@@2@PAU342@@Z
_TEXT	SEGMENT PARA USE32 PUBLIC 'CODE'
_TEXT	ENDS
;	COMDAT ?_Right@?$_Tree@V?$_Tmap_traits@IPAUpatch_scrap@@U?$less@I@std@@V?$allocator@U?$pair@$$CBIPAUpatch_scrap@@@std@@@3@$0A@@std@@@std@@KAAAPAU_Node@?$_Tree_nod@V?$_Tmap_traits@IPAUpatch_scrap@@U?$less@I@std@@V?$allocator@U?$pair@$$CBIPAUpatch_scrap@@@std@@@3@$0A@@std@@@2@PAU342@@Z
_TEXT	SEGMENT PARA USE32 PUBLIC 'CODE'
_TEXT	ENDS
;	COMDAT ?_Myval@?$_Tree@V?$_Tmap_traits@IPAUpatch_scrap@@U?$less@I@std@@V?$allocator@U?$pair@$$CBIPAUpatch_scrap@@@std@@@3@$0A@@std@@@std@@KAAAU?$pair@$$CBIPAUpatch_scrap@@@2@PAU_Node@?$_Tree_nod@V?$_Tmap_traits@IPAUpatch_scrap@@U?$less@I@std@@V?$allocator@U?$pair@$$CBIPAUpatch_scrap@@@std@@@3@$0A@@std@@@2@@Z
_TEXT	SEGMENT PARA USE32 PUBLIC 'CODE'
_TEXT	ENDS
;	COMDAT ?insert@?$_Tree@V?$_Tmap_traits@IPAUpatch_scrap@@U?$less@I@std@@V?$allocator@U?$pair@$$CBIPAUpatch_scrap@@@std@@@3@$0A@@std@@@std@@QAE?AU?$pair@Viterator@?$_Tree@V?$_Tmap_traits@IPAUpatch_scrap@@U?$less@I@std@@V?$allocator@U?$pair@$$CBIPAUpatch_scrap@@@std@@@3@$0A@@std@@@std@@_N@2@ABU?$pair@$$CBIPAUpatch_scrap@@@2@@Z
_TEXT	SEGMENT PARA USE32 PUBLIC 'CODE'
_TEXT	ENDS
;	COMDAT ?erase@?$_Tree@V?$_Tmap_traits@IPAUpatch_scrap@@U?$less@I@std@@V?$allocator@U?$pair@$$CBIPAUpatch_scrap@@@std@@@3@$0A@@std@@@std@@QAE?AViterator@12@V312@0@Z
_TEXT	SEGMENT PARA USE32 PUBLIC 'CODE'
_TEXT	ENDS
;	COMDAT ?lower_bound@?$_Tree@V?$_Tmap_traits@IPAUpatch_scrap@@U?$less@I@std@@V?$allocator@U?$pair@$$CBIPAUpatch_scrap@@@std@@@3@$0A@@std@@@std@@QBE?AVconst_iterator@12@ABI@Z
_TEXT	SEGMENT PARA USE32 PUBLIC 'CODE'
_TEXT	ENDS
;	COMDAT ?upper_bound@?$_Tree@V?$_Tmap_traits@IPAUpatch_scrap@@U?$less@I@std@@V?$allocator@U?$pair@$$CBIPAUpatch_scrap@@@std@@@3@$0A@@std@@@std@@QBE?AVconst_iterator@12@ABI@Z
_TEXT	SEGMENT PARA USE32 PUBLIC 'CODE'
_TEXT	ENDS
;	COMDAT ?_Init@?$_Tree@V?$_Tmap_traits@IPAUpatch_scrap@@U?$less@I@std@@V?$allocator@U?$pair@$$CBIPAUpatch_scrap@@@std@@@3@$0A@@std@@@std@@IAEXXZ
_TEXT	SEGMENT PARA USE32 PUBLIC 'CODE'
_TEXT	ENDS
;	COMDAT ?_Insert@?$_Tree@V?$_Tmap_traits@IPAUpatch_scrap@@U?$less@I@std@@V?$allocator@U?$pair@$$CBIPAUpatch_scrap@@@std@@@3@$0A@@std@@@std@@IAE?AViterator@12@_NPAU_Node@?$_Tree_nod@V?$_Tmap_traits@IPAUpatch_scrap@@U?$less@I@std@@V?$allocator@U?$pair@$$CBIPAUpatch_scrap@@@std@@@3@$0A@@std@@@2@ABU?$pair@$$CBIPAUpatch_scrap@@@2@@Z
_TEXT	SEGMENT PARA USE32 PUBLIC 'CODE'
_TEXT	ENDS
;	COMDAT ?_Lbound@?$_Tree@V?$_Tmap_traits@IPAUpatch_scrap@@U?$less@I@std@@V?$allocator@U?$pair@$$CBIPAUpatch_scrap@@@std@@@3@$0A@@std@@@std@@IBEPAU_Node@?$_Tree_nod@V?$_Tmap_traits@IPAUpatch_scrap@@U?$less@I@std@@V?$allocator@U?$pair@$$CBIPAUpatch_scrap@@@std@@@3@$0A@@std@@@2@ABI@Z
_TEXT	SEGMENT PARA USE32 PUBLIC 'CODE'
_TEXT	ENDS
;	COMDAT ??0?$_Tree_val@V?$_Tmap_traits@IPAUpatch_scrap@@U?$less@I@std@@V?$allocator@U?$pair@$$CBIPAUpatch_scrap@@@std@@@3@$0A@@std@@@std@@IAE@ABU?$less@I@1@V?$allocator@U?$pair@$$CBIPAUpatch_scrap@@@std@@@1@@Z
_TEXT	SEGMENT PARA USE32 PUBLIC 'CODE'
_TEXT	ENDS
;	COMDAT ?_Kfn@?$_Tmap_traits@IPAUpatch_scrap@@U?$less@I@std@@V?$allocator@U?$pair@$$CBIPAUpatch_scrap@@@std@@@3@$0A@@std@@SAABIABU?$pair@$$CBIPAUpatch_scrap@@@2@@Z
_TEXT	SEGMENT PARA USE32 PUBLIC 'CODE'
_TEXT	ENDS
;	COMDAT ??0?$allocator@U?$pair@$$CBIPAUpatch_scrap@@@std@@@std@@QAE@ABV01@@Z
_TEXT	SEGMENT PARA USE32 PUBLIC 'CODE'
_TEXT	ENDS
;	COMDAT ?deallocate@?$allocator@U_Node@?$_Tree_nod@V?$_Tmap_traits@IPAUpatch_scrap@@U?$less@I@std@@V?$allocator@U?$pair@$$CBIPAUpatch_scrap@@@std@@@3@$0A@@std@@@std@@@std@@QAEXPAU_Node@?$_Tree_nod@V?$_Tmap_traits@IPAUpatch_scrap@@U?$less@I@std@@V?$allocator@U?$pair@$$CBIPAUpatch_scrap@@@std@@@3@$0A@@std@@@2@I@Z
_TEXT	SEGMENT PARA USE32 PUBLIC 'CODE'
_TEXT	ENDS
;	COMDAT ?destroy@?$allocator@U_Node@?$_Tree_nod@V?$_Tmap_traits@IPAUpatch_scrap@@U?$less@I@std@@V?$allocator@U?$pair@$$CBIPAUpatch_scrap@@@std@@@3@$0A@@std@@@std@@@std@@QAEXPAU_Node@?$_Tree_nod@V?$_Tmap_traits@IPAUpatch_scrap@@U?$less@I@std@@V?$allocator@U?$pair@$$CBIPAUpatch_scrap@@@std@@@3@$0A@@std@@@2@@Z
_TEXT	SEGMENT PARA USE32 PUBLIC 'CODE'
_TEXT	ENDS
;	COMDAT ?destroy@?$allocator@PAU_Node@?$_Tree_nod@V?$_Tmap_traits@IPAUpatch_scrap@@U?$less@I@std@@V?$allocator@U?$pair@$$CBIPAUpatch_scrap@@@std@@@3@$0A@@std@@@std@@@std@@QAEXPAPAU_Node@?$_Tree_nod@V?$_Tmap_traits@IPAUpatch_scrap@@U?$less@I@std@@V?$allocator@U?$pair@$$CBIPAUpatch_scrap@@@std@@@3@$0A@@std@@@2@@Z
_TEXT	SEGMENT PARA USE32 PUBLIC 'CODE'
_TEXT	ENDS
;	COMDAT ??Fiterator@?$_Tree@V?$_Tmap_traits@IPAUpatch_scrap@@U?$less@I@std@@V?$allocator@U?$pair@$$CBIPAUpatch_scrap@@@std@@@3@$0A@@std@@@std@@QAEAAV012@XZ
_TEXT	SEGMENT PARA USE32 PUBLIC 'CODE'
_TEXT	ENDS
;	COMDAT ??0const_iterator@?$_Tree@V?$_Tmap_traits@IPAUpatch_scrap@@U?$less@I@std@@V?$allocator@U?$pair@$$CBIPAUpatch_scrap@@@std@@@3@$0A@@std@@@std@@QAE@PAU_Node@?$_Tree_nod@V?$_Tmap_traits@IPAUpatch_scrap@@U?$less@I@std@@V?$allocator@U?$pair@$$CBIPAUpatch_scrap@@@std@@@3@$0A@@std@@@2@@Z
_TEXT	SEGMENT PARA USE32 PUBLIC 'CODE'
_TEXT	ENDS
;	COMDAT ??Dconst_iterator@?$_Tree@V?$_Tmap_traits@IPAUpatch_scrap@@U?$less@I@std@@V?$allocator@U?$pair@$$CBIPAUpatch_scrap@@@std@@@3@$0A@@std@@@std@@QBEABU?$pair@$$CBIPAUpatch_scrap@@@2@XZ
_TEXT	SEGMENT PARA USE32 PUBLIC 'CODE'
_TEXT	ENDS
;	COMDAT ??Econst_iterator@?$_Tree@V?$_Tmap_traits@IPAUpatch_scrap@@U?$less@I@std@@V?$allocator@U?$pair@$$CBIPAUpatch_scrap@@@std@@@3@$0A@@std@@@std@@QAEAAV012@XZ
_TEXT	SEGMENT PARA USE32 PUBLIC 'CODE'
_TEXT	ENDS
;	COMDAT ??0?$pair@Vconst_iterator@?$_Tree@V?$_Tmap_traits@IPAUpatch_scrap@@U?$less@I@std@@V?$allocator@U?$pair@$$CBIPAUpatch_scrap@@@std@@@3@$0A@@std@@@std@@V123@@std@@QAE@ABVconst_iterator@?$_Tree@V?$_Tmap_traits@IPAUpatch_scrap@@U?$less@I@std@@V?$allocator@U?$pair@$$CBIPAUpatch_scrap@@@std@@@3@$0A@@std@@@1@0@Z
_TEXT	SEGMENT PARA USE32 PUBLIC 'CODE'
_TEXT	ENDS
;	COMDAT ?_Color@?$_Tree@V?$_Tmap_traits@IPAUpatch_scrap@@U?$less@I@std@@V?$allocator@U?$pair@$$CBIPAUpatch_scrap@@@std@@@3@$0A@@std@@@std@@KAAADPAU_Node@?$_Tree_nod@V?$_Tmap_traits@IPAUpatch_scrap@@U?$less@I@std@@V?$allocator@U?$pair@$$CBIPAUpatch_scrap@@@std@@@3@$0A@@std@@@2@@Z
_TEXT	SEGMENT PARA USE32 PUBLIC 'CODE'
_TEXT	ENDS
;	COMDAT ?max_size@?$_Tree@V?$_Tmap_traits@IPAUpatch_scrap@@U?$less@I@std@@V?$allocator@U?$pair@$$CBIPAUpatch_scrap@@@std@@@3@$0A@@std@@@std@@QBEIXZ
_TEXT	SEGMENT PARA USE32 PUBLIC 'CODE'
_TEXT	ENDS
;	COMDAT ?erase@?$_Tree@V?$_Tmap_traits@IPAUpatch_scrap@@U?$less@I@std@@V?$allocator@U?$pair@$$CBIPAUpatch_scrap@@@std@@@3@$0A@@std@@@std@@QAE?AViterator@12@V312@@Z
_TEXT	SEGMENT PARA USE32 PUBLIC 'CODE'
_TEXT	ENDS
;	COMDAT ?_Lrotate@?$_Tree@V?$_Tmap_traits@IPAUpatch_scrap@@U?$less@I@std@@V?$allocator@U?$pair@$$CBIPAUpatch_scrap@@@std@@@3@$0A@@std@@@std@@IAEXPAU_Node@?$_Tree_nod@V?$_Tmap_traits@IPAUpatch_scrap@@U?$less@I@std@@V?$allocator@U?$pair@$$CBIPAUpatch_scrap@@@std@@@3@$0A@@std@@@2@@Z
_TEXT	SEGMENT PARA USE32 PUBLIC 'CODE'
_TEXT	ENDS
;	COMDAT ?_Root@?$_Tree@V?$_Tmap_traits@IPAUpatch_scrap@@U?$less@I@std@@V?$allocator@U?$pair@$$CBIPAUpatch_scrap@@@std@@@3@$0A@@std@@@std@@IBEAAPAU_Node@?$_Tree_nod@V?$_Tmap_traits@IPAUpatch_scrap@@U?$less@I@std@@V?$allocator@U?$pair@$$CBIPAUpatch_scrap@@@std@@@3@$0A@@std@@@2@XZ
_TEXT	SEGMENT PARA USE32 PUBLIC 'CODE'
_TEXT	ENDS
;	COMDAT ?_Rrotate@?$_Tree@V?$_Tmap_traits@IPAUpatch_scrap@@U?$less@I@std@@V?$allocator@U?$pair@$$CBIPAUpatch_scrap@@@std@@@3@$0A@@std@@@std@@IAEXPAU_Node@?$_Tree_nod@V?$_Tmap_traits@IPAUpatch_scrap@@U?$less@I@std@@V?$allocator@U?$pair@$$CBIPAUpatch_scrap@@@std@@@3@$0A@@std@@@2@@Z
_TEXT	SEGMENT PARA USE32 PUBLIC 'CODE'
_TEXT	ENDS
;	COMDAT ?_Ubound@?$_Tree@V?$_Tmap_traits@IPAUpatch_scrap@@U?$less@I@std@@V?$allocator@U?$pair@$$CBIPAUpatch_scrap@@@std@@@3@$0A@@std@@@std@@IBEPAU_Node@?$_Tree_nod@V?$_Tmap_traits@IPAUpatch_scrap@@U?$less@I@std@@V?$allocator@U?$pair@$$CBIPAUpatch_scrap@@@std@@@3@$0A@@std@@@2@ABI@Z
_TEXT	SEGMENT PARA USE32 PUBLIC 'CODE'
_TEXT	ENDS
;	COMDAT ?_Buynode@?$_Tree@V?$_Tmap_traits@IPAUpatch_scrap@@U?$less@I@std@@V?$allocator@U?$pair@$$CBIPAUpatch_scrap@@@std@@@3@$0A@@std@@@std@@IAEPAU_Node@?$_Tree_nod@V?$_Tmap_traits@IPAUpatch_scrap@@U?$less@I@std@@V?$allocator@U?$pair@$$CBIPAUpatch_scrap@@@std@@@3@$0A@@std@@@2@XZ
_TEXT	SEGMENT PARA USE32 PUBLIC 'CODE'
_TEXT	ENDS
;	COMDAT ?_Buynode@?$_Tree@V?$_Tmap_traits@IPAUpatch_scrap@@U?$less@I@std@@V?$allocator@U?$pair@$$CBIPAUpatch_scrap@@@std@@@3@$0A@@std@@@std@@IAEPAU_Node@?$_Tree_nod@V?$_Tmap_traits@IPAUpatch_scrap@@U?$less@I@std@@V?$allocator@U?$pair@$$CBIPAUpatch_scrap@@@std@@@3@$0A@@std@@@2@PAU342@00ABU?$pair@$$CBIPAUpatch_scrap@@@2@D@Z
_TEXT	SEGMENT PARA USE32 PUBLIC 'CODE'
_TEXT	ENDS
;	COMDAT ??0?$_Tree_ptr@V?$_Tmap_traits@IPAUpatch_scrap@@U?$less@I@std@@V?$allocator@U?$pair@$$CBIPAUpatch_scrap@@@std@@@3@$0A@@std@@@std@@IAE@ABU?$less@I@1@V?$allocator@U?$pair@$$CBIPAUpatch_scrap@@@std@@@1@@Z
_TEXT	SEGMENT PARA USE32 PUBLIC 'CODE'
_TEXT	ENDS
;	COMDAT ??Fconst_iterator@?$_Tree@V?$_Tmap_traits@IPAUpatch_scrap@@U?$less@I@std@@V?$allocator@U?$pair@$$CBIPAUpatch_scrap@@@std@@@3@$0A@@std@@@std@@QAEAAV012@XZ
_TEXT	SEGMENT PARA USE32 PUBLIC 'CODE'
_TEXT	ENDS
;	COMDAT ?_Inc@const_iterator@?$_Tree@V?$_Tmap_traits@IPAUpatch_scrap@@U?$less@I@std@@V?$allocator@U?$pair@$$CBIPAUpatch_scrap@@@std@@@3@$0A@@std@@@std@@QAEXXZ
_TEXT	SEGMENT PARA USE32 PUBLIC 'CODE'
_TEXT	ENDS
;	COMDAT ??0?$pair@Viterator@?$_Tree@V?$_Tmap_traits@IPAUpatch_scrap@@U?$less@I@std@@V?$allocator@U?$pair@$$CBIPAUpatch_scrap@@@std@@@3@$0A@@std@@@std@@_N@std@@QAE@ABViterator@?$_Tree@V?$_Tmap_traits@IPAUpatch_scrap@@U?$less@I@std@@V?$allocator@U?$pair@$$CBIPAUpatch_scrap@@@std@@@3@$0A@@std@@@1@AB_N@Z
_TEXT	SEGMENT PARA USE32 PUBLIC 'CODE'
_TEXT	ENDS
;	COMDAT ?_Max@?$_Tree@V?$_Tmap_traits@IPAUpatch_scrap@@U?$less@I@std@@V?$allocator@U?$pair@$$CBIPAUpatch_scrap@@@std@@@3@$0A@@std@@@std@@KAPAU_Node@?$_Tree_nod@V?$_Tmap_traits@IPAUpatch_scrap@@U?$less@I@std@@V?$allocator@U?$pair@$$CBIPAUpatch_scrap@@@std@@@3@$0A@@std@@@2@PAU342@@Z
_TEXT	SEGMENT PARA USE32 PUBLIC 'CODE'
_TEXT	ENDS
;	COMDAT ?_Min@?$_Tree@V?$_Tmap_traits@IPAUpatch_scrap@@U?$less@I@std@@V?$allocator@U?$pair@$$CBIPAUpatch_scrap@@@std@@@3@$0A@@std@@@std@@KAPAU_Node@?$_Tree_nod@V?$_Tmap_traits@IPAUpatch_scrap@@U?$less@I@std@@V?$allocator@U?$pair@$$CBIPAUpatch_scrap@@@std@@@3@$0A@@std@@@2@PAU342@@Z
_TEXT	SEGMENT PARA USE32 PUBLIC 'CODE'
_TEXT	ENDS
;	COMDAT ??0?$_Tree_nod@V?$_Tmap_traits@IPAUpatch_scrap@@U?$less@I@std@@V?$allocator@U?$pair@$$CBIPAUpatch_scrap@@@std@@@3@$0A@@std@@@std@@IAE@ABU?$less@I@1@V?$allocator@U?$pair@$$CBIPAUpatch_scrap@@@std@@@1@@Z
_TEXT	SEGMENT PARA USE32 PUBLIC 'CODE'
_TEXT	ENDS
;	COMDAT ?max_size@?$allocator@U?$pair@$$CBIPAUpatch_scrap@@@std@@@std@@QBEIXZ
_TEXT	SEGMENT PARA USE32 PUBLIC 'CODE'
_TEXT	ENDS
;	COMDAT ?allocate@?$allocator@U_Node@?$_Tree_nod@V?$_Tmap_traits@IPAUpatch_scrap@@U?$less@I@std@@V?$allocator@U?$pair@$$CBIPAUpatch_scrap@@@std@@@3@$0A@@std@@@std@@@std@@QAEPAU_Node@?$_Tree_nod@V?$_Tmap_traits@IPAUpatch_scrap@@U?$less@I@std@@V?$allocator@U?$pair@$$CBIPAUpatch_scrap@@@std@@@3@$0A@@std@@@2@I@Z
_TEXT	SEGMENT PARA USE32 PUBLIC 'CODE'
_TEXT	ENDS
;	COMDAT ?construct@?$allocator@PAU_Node@?$_Tree_nod@V?$_Tmap_traits@IPAUpatch_scrap@@U?$less@I@std@@V?$allocator@U?$pair@$$CBIPAUpatch_scrap@@@std@@@3@$0A@@std@@@std@@@std@@QAEXPAPAU_Node@?$_Tree_nod@V?$_Tmap_traits@IPAUpatch_scrap@@U?$less@I@std@@V?$allocator@U?$pair@$$CBIPAUpatch_scrap@@@std@@@3@$0A@@std@@@2@ABQAU342@@Z
_TEXT	SEGMENT PARA USE32 PUBLIC 'CODE'
_TEXT	ENDS
;	COMDAT ?_Dec@const_iterator@?$_Tree@V?$_Tmap_traits@IPAUpatch_scrap@@U?$less@I@std@@V?$allocator@U?$pair@$$CBIPAUpatch_scrap@@@std@@@3@$0A@@std@@@std@@QAEXXZ
_TEXT	SEGMENT PARA USE32 PUBLIC 'CODE'
_TEXT	ENDS
;	COMDAT ??0_Node@?$_Tree_nod@V?$_Tmap_traits@IPAUpatch_scrap@@U?$less@I@std@@V?$allocator@U?$pair@$$CBIPAUpatch_scrap@@@std@@@3@$0A@@std@@@std@@QAE@PAU012@00ABU?$pair@$$CBIPAUpatch_scrap@@@2@D@Z
_TEXT	SEGMENT PARA USE32 PUBLIC 'CODE'
_TEXT	ENDS
;	COMDAT ??0?$_Tmap_traits@IPAUpatch_scrap@@U?$less@I@std@@V?$allocator@U?$pair@$$CBIPAUpatch_scrap@@@std@@@3@$0A@@std@@QAE@U?$less@I@1@@Z
_TEXT	SEGMENT PARA USE32 PUBLIC 'CODE'
_TEXT	ENDS
;	COMDAT _$E1
text$yc	SEGMENT PARA USE32 PUBLIC 'CODE'
text$yc	ENDS
;	COMDAT ??$_Distance@Vconst_iterator@?$_Tree@V?$_Tmap_traits@IPAUpatch_scrap@@U?$less@I@std@@V?$allocator@U?$pair@$$CBIPAUpatch_scrap@@@std@@@3@$0A@@std@@@std@@I@std@@YAXVconst_iterator@?$_Tree@V?$_Tmap_traits@IPAUpatch_scrap@@U?$less@I@std@@V?$allocator@U?$pair@$$CBIPAUpatch_scrap@@@std@@@3@$0A@@std@@@0@0AAI@Z
_TEXT	SEGMENT PARA USE32 PUBLIC 'CODE'
_TEXT	ENDS
;	COMDAT ??$_Destroy@U_Node@?$_Tree_nod@V?$_Tmap_traits@IPAUpatch_scrap@@U?$less@I@std@@V?$allocator@U?$pair@$$CBIPAUpatch_scrap@@@std@@@3@$0A@@std@@@std@@@std@@YAXPAU_Node@?$_Tree_nod@V?$_Tmap_traits@IPAUpatch_scrap@@U?$less@I@std@@V?$allocator@U?$pair@$$CBIPAUpatch_scrap@@@std@@@3@$0A@@std@@@0@@Z
_TEXT	SEGMENT PARA USE32 PUBLIC 'CODE'
_TEXT	ENDS
;	COMDAT ??$_Destroy@PAU_Node@?$_Tree_nod@V?$_Tmap_traits@IPAUpatch_scrap@@U?$less@I@std@@V?$allocator@U?$pair@$$CBIPAUpatch_scrap@@@std@@@3@$0A@@std@@@std@@@std@@YAXPAPAU_Node@?$_Tree_nod@V?$_Tmap_traits@IPAUpatch_scrap@@U?$less@I@std@@V?$allocator@U?$pair@$$CBIPAUpatch_scrap@@@std@@@3@$0A@@std@@@0@@Z
_TEXT	SEGMENT PARA USE32 PUBLIC 'CODE'
_TEXT	ENDS
;	COMDAT ??$?0U?$pair@$$CBIPAUpatch_scrap@@@std@@@?$allocator@PAU_Node@?$_Tree_nod@V?$_Tmap_traits@IPAUpatch_scrap@@U?$less@I@std@@V?$allocator@U?$pair@$$CBIPAUpatch_scrap@@@std@@@3@$0A@@std@@@std@@@std@@QAE@ABV?$allocator@U?$pair@$$CBIPAUpatch_scrap@@@std@@@1@@Z
_TEXT	SEGMENT PARA USE32 PUBLIC 'CODE'
_TEXT	ENDS
;	COMDAT ??$?0U?$pair@$$CBIPAUpatch_scrap@@@std@@@?$allocator@U_Node@?$_Tree_nod@V?$_Tmap_traits@IPAUpatch_scrap@@U?$less@I@std@@V?$allocator@U?$pair@$$CBIPAUpatch_scrap@@@std@@@3@$0A@@std@@@std@@@std@@QAE@ABV?$allocator@U?$pair@$$CBIPAUpatch_scrap@@@std@@@1@@Z
_TEXT	SEGMENT PARA USE32 PUBLIC 'CODE'
_TEXT	ENDS
;	COMDAT ??$_Allocate@U_Node@?$_Tree_nod@V?$_Tmap_traits@IPAUpatch_scrap@@U?$less@I@std@@V?$allocator@U?$pair@$$CBIPAUpatch_scrap@@@std@@@3@$0A@@std@@@std@@@std@@YAPAU_Node@?$_Tree_nod@V?$_Tmap_traits@IPAUpatch_scrap@@U?$less@I@std@@V?$allocator@U?$pair@$$CBIPAUpatch_scrap@@@std@@@3@$0A@@std@@@0@IPAU120@@Z
_TEXT	SEGMENT PARA USE32 PUBLIC 'CODE'
_TEXT	ENDS
;	COMDAT ??$_Construct@PAU_Node@?$_Tree_nod@V?$_Tmap_traits@IPAUpatch_scrap@@U?$less@I@std@@V?$allocator@U?$pair@$$CBIPAUpatch_scrap@@@std@@@3@$0A@@std@@@std@@PAU123@@std@@YAXPAPAU_Node@?$_Tree_nod@V?$_Tmap_traits@IPAUpatch_scrap@@U?$less@I@std@@V?$allocator@U?$pair@$$CBIPAUpatch_scrap@@@std@@@3@$0A@@std@@@0@ABQAU120@@Z
_TEXT	SEGMENT PARA USE32 PUBLIC 'CODE'
_TEXT	ENDS
;	COMDAT _$E3
text$yc	SEGMENT PARA USE32 PUBLIC 'CODE'
text$yc	ENDS
;	COMDAT ??$_Iter_cat@Vconst_iterator@?$_Tree@V?$_Tmap_traits@IPAUpatch_scrap@@U?$less@I@std@@V?$allocator@U?$pair@$$CBIPAUpatch_scrap@@@std@@@3@$0A@@std@@@std@@@std@@YA?AUbidirectional_iterator_tag@0@ABVconst_iterator@?$_Tree@V?$_Tmap_traits@IPAUpatch_scrap@@U?$less@I@std@@V?$allocator@U?$pair@$$CBIPAUpatch_scrap@@@std@@@3@$0A@@std@@@0@@Z
_TEXT	SEGMENT PARA USE32 PUBLIC 'CODE'
_TEXT	ENDS
;	COMDAT ??$_Distance2@Vconst_iterator@?$_Tree@V?$_Tmap_traits@IPAUpatch_scrap@@U?$less@I@std@@V?$allocator@U?$pair@$$CBIPAUpatch_scrap@@@std@@@3@$0A@@std@@@std@@I@std@@YAXVconst_iterator@?$_Tree@V?$_Tmap_traits@IPAUpatch_scrap@@U?$less@I@std@@V?$allocator@U?$pair@$$CBIPAUpatch_scrap@@@std@@@3@$0A@@std@@@0@0AAIUbidirectional_iterator_tag@0@@Z
_TEXT	SEGMENT PARA USE32 PUBLIC 'CODE'
_TEXT	ENDS
;	COMDAT _$E5
text$yc	SEGMENT PARA USE32 PUBLIC 'CODE'
text$yc	ENDS
;	COMDAT ?get_iEn@Patch@@QAEIXZ
_TEXT	SEGMENT PARA USE32 PUBLIC 'CODE'
_TEXT	ENDS
;	COMDAT ?get_sw_En@Patch@@QAE_NXZ
_TEXT	SEGMENT PARA USE32 PUBLIC 'CODE'
_TEXT	ENDS
;	COMDAT ?get_fEn@Patch@@QAE_NXZ
_TEXT	SEGMENT PARA USE32 PUBLIC 'CODE'
_TEXT	ENDS
;	COMDAT ?get_iEm@Patch@@QAEIXZ
_TEXT	SEGMENT PARA USE32 PUBLIC 'CODE'
_TEXT	ENDS
;	COMDAT ?get_sw_Em@Patch@@QAE_NXZ
_TEXT	SEGMENT PARA USE32 PUBLIC 'CODE'
_TEXT	ENDS
;	COMDAT ?get_fEm@Patch@@QAE_NXZ
_TEXT	SEGMENT PARA USE32 PUBLIC 'CODE'
_TEXT	ENDS
;	COMDAT ?get_iEvol@Patch@@QAEIXZ
_TEXT	SEGMENT PARA USE32 PUBLIC 'CODE'
_TEXT	ENDS
;	COMDAT ?get_sw_Evol@Patch@@QAE_NXZ
_TEXT	SEGMENT PARA USE32 PUBLIC 'CODE'
_TEXT	ENDS
;	COMDAT ?get_fEvol@Patch@@QAE_NXZ
_TEXT	SEGMENT PARA USE32 PUBLIC 'CODE'
_TEXT	ENDS
;	COMDAT ?get_iEvoi@Patch@@QAEIXZ
_TEXT	SEGMENT PARA USE32 PUBLIC 'CODE'
_TEXT	ENDS
;	COMDAT ?get_fEvoi@Patch@@QAE_NXZ
_TEXT	SEGMENT PARA USE32 PUBLIC 'CODE'
_TEXT	ENDS
;	COMDAT ?get_iVoi@Patch@@QAEIXZ
_TEXT	SEGMENT PARA USE32 PUBLIC 'CODE'
_TEXT	ENDS
;	COMDAT ?get_fVoi@Patch@@QAE_NXZ
_TEXT	SEGMENT PARA USE32 PUBLIC 'CODE'
_TEXT	ENDS
;	COMDAT ?get_iSweep@Patch@@QAEEXZ
_TEXT	SEGMENT PARA USE32 PUBLIC 'CODE'
_TEXT	ENDS
;	COMDAT ?get_fSweep@Patch@@QAE_NXZ
_TEXT	SEGMENT PARA USE32 PUBLIC 'CODE'
_TEXT	ENDS
;	COMDAT ?get_iKey@Patch@@QAEIXZ
_TEXT	SEGMENT PARA USE32 PUBLIC 'CODE'
_TEXT	ENDS
;	COMDAT ?get_fKey@Patch@@QAE_NXZ
_TEXT	SEGMENT PARA USE32 PUBLIC 'CODE'
_TEXT	ENDS
;	COMDAT ?get_fSub_opt@Patch@@QAE_NXZ
_TEXT	SEGMENT PARA USE32 PUBLIC 'CODE'
_TEXT	ENDS
;	COMDAT ?get_iSub@Patch@@QAEIXZ
_TEXT	SEGMENT PARA USE32 PUBLIC 'CODE'
_TEXT	ENDS
;	COMDAT ?get_fSub@Patch@@QAE_NXZ
_TEXT	SEGMENT PARA USE32 PUBLIC 'CODE'
_TEXT	ENDS
;	COMDAT ?get_iGate_u@Patch@@QAEIXZ
_TEXT	SEGMENT PARA USE32 PUBLIC 'CODE'
_TEXT	ENDS
;	COMDAT ?get_fGate_u@Patch@@QAE_NXZ
_TEXT	SEGMENT PARA USE32 PUBLIC 'CODE'
_TEXT	ENDS
;	COMDAT ?get_iGate_q@Patch@@QAEIXZ
_TEXT	SEGMENT PARA USE32 PUBLIC 'CODE'
_TEXT	ENDS
;	COMDAT ?get_fGate_q@Patch@@QAE_NXZ
_TEXT	SEGMENT PARA USE32 PUBLIC 'CODE'
_TEXT	ENDS
;	COMDAT ?Command@?1???0Patch@@QAE@PAVMMLfile@@H@Z@4QBUCommand_Info@@B
CONST	SEGMENT DWORD USE32 PUBLIC 'CONST'
CONST	ENDS
FLAT	GROUP _DATA, CONST, _BSS
	ASSUME	CS: FLAT, DS: FLAT, SS: FLAT
endif

INCLUDELIB LIBCMT
INCLUDELIB OLDNAMES

PUBLIC	??_C@_02MOBCCJHH@$$?$AA@			; `string'
PUBLIC	??_C@_03GNIAMJAE@E?$EA?$CK?$AA@			; `string'
PUBLIC	??_C@_03ENGGFACG@Ev?$CK?$AA@			; `string'
PUBLIC	??_C@_03FNBFBMLH@Em?$CK?$AA@			; `string'
PUBLIC	??_C@_03FPFDKCOO@En?$CK?$AA@			; `string'
PUBLIC	??_C@_02IGJGCGMD@E?$EA?$AA@			; `string'
PUBLIC	??_C@_02PIKLHLG@Ev?$AA@				; `string'
PUBLIC	??_C@_02KGLMHMCM@Em?$AA@			; `string'
PUBLIC	??_C@_02INJBCPOP@En?$AA@			; `string'
PUBLIC	??_C@_01IIACKFLH@q?$AA@				; `string'
PUBLIC	??_C@_01OMGOGALD@u?$AA@				; `string'
PUBLIC	??_C@_01LKDEMHDF@s?$AA@				; `string'
PUBLIC	??_C@_03KODNNGID@?$EANS?$AA@			; `string'
PUBLIC	??_C@_01EOFPKCAF@?$EA?$AA@			; `string'
PUBLIC	??_C@_01IDAFKMJL@_?$AA@				; `string'
PUBLIC	??_C@_1DE@KNJKOFFK@?$JH?s?$ICr0?$KI0?s0?Y0?m0?$PM0?W0hT?$AMfB0k?$FL?$JK?$HP?$KJ0Y0?$IL0S0h0o0g@ ; `string'
PUBLIC	??_C@_1BG@OGNIMPKO@?$JH?s?$ICr0n?$PP?$BC?$JB?M?$FL?$JK?$HP?$KJ0g0Y0?$AC?$AA?$AA@ ; `string'
PUBLIC	??_C@_1CM@IEKMDFIE@?$JH?s?$ICr0o?$AA0?$PP?$FO?$AA2?$AA5?$AA50n?$HL?DV?r0gc?$AH?$FL?$JK0W0f0O0?$GA0U0D@ ; `string'
PUBLIC	??_C@_1DC@GHMDBEFP@?$JH?s?$ICr0?$KI0?s0?Y0?m0?$PM0?W0o0?$AB?$AA?$EA0?$LD0?$NO0?s0?I0gq?$CBR?$LJ0k0g@ ; `string'
PUBLIC	??_C@_1CC@OODHOOPP@?$JH?s?$JB?O0?$KI0?s0?Y0?m0?$PM0?W0n?$PP?$BC?$JB?M?$FL?$JK?$HP?$KJ0g0Y0?$AC?$AA?$AA@ ; `string'
PUBLIC	??_C@_1CC@HCKABCOF@?$JH?sz?$AL0?$KI0?s0?Y0?m0?$PM0?W0n?$PP?$BC?$JB?M?$FL?$JK?$HP?$KJ0g0Y0?$AC?$AA?$AA@ ; `string'
PUBLIC	??_C@_1CE@MHEDGKOC@0?N0?$PM0?H0?$KI0?s0?Y0?m0?$PM0?W0n?$PP?$BC?$JB?M?$FL?$JK?$HP?$KJ0g0Y0?$AC?$AA?$AA@ ; `string'
PUBLIC	??_C@_1CC@LNAFLFDL@?$JH?s?$ICr0?$KI0?s0?Y0?m0?$PM0?W0n?$PP?$BC?$JB?M?$FL?$JK?$HP?$KJ0g0Y0?$AC?$AA?$AA@ ; `string'
PUBLIC	??_C@_1CI@FCLDAKAL@?$JH?s?$ICr0hT?$AMfB0k?$FL?$JK?$HP?$KJ0Y0?$IL0S0h0o0g0M0?$HO0?$FL0?$JD0?$AC?$AA?$AA@ ; `string'
PUBLIC	??_C@_1BM@CDGIHPDA@?$AAq0?$LD0?$NO0?s0?I0n?$PP?$BC?$JB?M?$FL?$JK?$HP?$KJ0g0Y0?$AC?$AA?$AA@ ; `string'
PUBLIC	??_C@_1BM@CFLPILEE@?$AAu0?$LD0?$NO0?s0?I0n?$PP?$BC?$JB?M?$FL?$JK?$HP?$KJ0g0Y0?$AC?$AA?$AA@ ; `string'
PUBLIC	??_C@_1BG@DMDHOLIG@y?$PL?$IK?$LP0n?$PP?$BC?$JB?M?$FL?$JK?$HP?$KJ0g0Y0?$AC?$AA?$AA@ ; `string'
PUBLIC	??_C@_1BM@CAADIFAK@?$AAs0?$LD0?$NO0?s0?I0n?$PP?$BC?$JB?M?$FL?$JK?$HP?$KJ0g0Y0?$AC?$AA?$AA@ ; `string'
PUBLIC	??_C@_1DC@OMNANPHO@?$AAs0?$LD0?$NO0?s0?I0o?$AA0?$PP?$FO?$AA2?$AA5?$AA50n?$HL?DV?r0gc?$AH?$FL?$JK0W0f0O@ ; `string'
PUBLIC	??_C@_1EA@FGFBAIAO@?$AAs0?$LD0?$NO0?s0?I0n?$HL?0?$AA10?Q0?i0?a0?$PM0?$LP0o?$AA0?$PP?$FO?$AA1?$AA50n?$HL?D@ ; `string'
PUBLIC	??_C@_1EA@BHDCEFM@?$AAs0?$LD0?$NO0?s0?I0n?$HL?0?$AA20?Q0?i0?a0?$PM0?$LP0o?$AA0?$PP?$FO?$AA1?$AA50n?$HL?D@ ; `string'
PUBLIC	??_C@_1CE@JMKANNFP@?$AA?$EA0?$LD0?$NO0?s0?I0Le?b0kc?$AH?$FL?$JK0U0?$IM0f0D0?$HO0Y0?$AC?$AA?$AA@ ; `string'
PUBLIC	??_C@_1CG@DIPDDOH@?$AAE?$AA?$EA0?$LD0?$NO0?s0?I0Le?b0kc?$AH?$FL?$JK0U0?$IM0f0D0?$HO0Y0?$AC?$AA?$AA@ ; `string'
PUBLIC	??_C@_1DM@DHGNPNAI@?$AAn?$AA1?$AA6?$AAx0nl?b_b?$JF?$ILY?Kp?$LJ0o?$AA0?$PP?$FO?$AA2?$AA5?$AA20n?$HL?DV?r0g@ ; `string'
PUBLIC	??_C@_1DE@ODMGCHFJ@?$AAn?$AA1?$AA6?$AAx0nl?b_b?$JF?$ILY?Kp?$LJ0o?$AA40nP?$ANep0gc?$AH?$FL?$JK0W0f@ ; `string'
PUBLIC	??_C@_1CE@PCAGAE@?$AAs0?$LD0?$NO0?s0?I0Le?b0kc?$AH?$FL?$JK0U0?$IM0f0D0?$HO0Y0?$AC?$AA?$AA@ ; `string'
PUBLIC	??_C@_1DM@DDNJDHDJ@?$AAn?$AA1?$AA6?$AAx0n0?$LF0?s0?W0?k?$JFw0o?$AA4?$PP?$FO?$AA2?$AA5?$AA60n?$HL?DV?r0g@ ; `string'
PUBLIC	??_C@_1DE@MPDFLMLF@?$AAn?$AA1?$AA6?$AAx0n0?$LF0?s0?W0?k?$JFw0o?$AA40nP?$ANep0gc?$AH?$FL?$JK0W0f@ ; `string'
PUBLIC	??_C@_1BO@CKOOCKJC@0?$LF0?V0?k0?$PM0?A0?s0n?$PP?$BC?$JB?M?$FL?$JK?$HP?$KJ0g0Y0?$AC?$AA?$AA@ ; `string'
PUBLIC	??_C@_1DO@BDHNDBK@0?$LF0?V0?k0?$PM0?A0?s0ng?$AA?$JAiS?$BG0?U0?i0?$LA0o?$AA0?$PP?$FO?$AA10n?$HL?DV?r@ ; `string'
PUBLIC	??_C@_08JGNHFCII@?$CJ?5?$FN?5?$DN?$DN?$DN?$DN?$AA@ ; `string'
PUBLIC	??_C@_0O@IDEMKPMC@?$DN?$DN?$DN?$DN?5?$FL?5Patch?$CI?$AA@ ; `string'
PUBLIC	??_C@_03LNLKIPBE@?5?5n?$AA@			; `string'
PUBLIC	??_C@_03HAOAIBIK@?5?5q?$AA@			; `string'
PUBLIC	??_C@_03BEIMEEIO@?5?5u?$AA@			; `string'
PUBLIC	??_C@_03NHFCMHKK@?5?5S?$AA@			; `string'
PUBLIC	??_C@_03HLOHIIKG@?5?5_?$AA@			; `string'
PUBLIC	??_C@_03ECNGODAI@?5?5s?$AA@			; `string'
PUBLIC	??_C@_03LGLNIGDI@?5?5?$EA?$AA@			; `string'
PUBLIC	??_C@_03PIKBIPPD@?5E?$EA?$AA@			; `string'
PUBLIC	??_C@_04GLMBFHCD@?5Ev?$CK?$AA@			; `string'
PUBLIC	??_C@_03HBLNBOIG@?5Ev?$AA@			; `string'
PUBLIC	??_C@_04HLLCBLLC@?5Em?$CK?$AA@			; `string'
PUBLIC	??_C@_03NIILNFBM@?5Em?$AA@			; `string'
PUBLIC	??_C@_04HJPEKFOL@?5En?$CK?$AA@			; `string'
PUBLIC	??_C@_03PDKGIGNP@?5En?$AA@			; `string'
;	COMDAT ??_C@_02MOBCCJHH@$$?$AA@
CONST	SEGMENT
??_C@_02MOBCCJHH@$$?$AA@ DB '$$', 00H			; `string'
CONST	ENDS
;	COMDAT ??_C@_03GNIAMJAE@E?$EA?$CK?$AA@
CONST	SEGMENT
??_C@_03GNIAMJAE@E?$EA?$CK?$AA@ DB 'E@*', 00H		; `string'
CONST	ENDS
;	COMDAT ??_C@_03ENGGFACG@Ev?$CK?$AA@
CONST	SEGMENT
??_C@_03ENGGFACG@Ev?$CK?$AA@ DB 'Ev*', 00H		; `string'
CONST	ENDS
;	COMDAT ??_C@_03FNBFBMLH@Em?$CK?$AA@
CONST	SEGMENT
??_C@_03FNBFBMLH@Em?$CK?$AA@ DB 'Em*', 00H		; `string'
CONST	ENDS
;	COMDAT ??_C@_03FPFDKCOO@En?$CK?$AA@
CONST	SEGMENT
??_C@_03FPFDKCOO@En?$CK?$AA@ DB 'En*', 00H		; `string'
CONST	ENDS
;	COMDAT ??_C@_02IGJGCGMD@E?$EA?$AA@
CONST	SEGMENT
??_C@_02IGJGCGMD@E?$EA?$AA@ DB 'E@', 00H		; `string'
CONST	ENDS
;	COMDAT ??_C@_02PIKLHLG@Ev?$AA@
CONST	SEGMENT
??_C@_02PIKLHLG@Ev?$AA@ DB 'Ev', 00H			; `string'
CONST	ENDS
;	COMDAT ??_C@_02KGLMHMCM@Em?$AA@
CONST	SEGMENT
??_C@_02KGLMHMCM@Em?$AA@ DB 'Em', 00H			; `string'
CONST	ENDS
;	COMDAT ??_C@_02INJBCPOP@En?$AA@
CONST	SEGMENT
??_C@_02INJBCPOP@En?$AA@ DB 'En', 00H			; `string'
CONST	ENDS
;	COMDAT ??_C@_01IIACKFLH@q?$AA@
CONST	SEGMENT
??_C@_01IIACKFLH@q?$AA@ DB 'q', 00H			; `string'
CONST	ENDS
;	COMDAT ??_C@_01OMGOGALD@u?$AA@
CONST	SEGMENT
??_C@_01OMGOGALD@u?$AA@ DB 'u', 00H			; `string'
CONST	ENDS
;	COMDAT ??_C@_01LKDEMHDF@s?$AA@
CONST	SEGMENT
??_C@_01LKDEMHDF@s?$AA@ DB 's', 00H			; `string'
CONST	ENDS
;	COMDAT ??_C@_03KODNNGID@?$EANS?$AA@
CONST	SEGMENT
??_C@_03KODNNGID@?$EANS?$AA@ DB '@NS', 00H		; `string'
CONST	ENDS
;	COMDAT ??_C@_01EOFPKCAF@?$EA?$AA@
CONST	SEGMENT
??_C@_01EOFPKCAF@?$EA?$AA@ DB '@', 00H			; `string'
CONST	ENDS
;	COMDAT ??_C@_01IDAFKMJL@_?$AA@
CONST	SEGMENT
??_C@_01IDAFKMJL@_?$AA@ DB '_', 00H			; `string'
CONST	ENDS
;	COMDAT ?Command@?1???0Patch@@QAE@PAVMMLfile@@H@Z@4QBUCommand_Info@@B
CONST	SEGMENT
?Command@?1???0Patch@@QAE@PAVMMLfile@@H@Z@4QBUCommand_Info@@B DD FLAT:??_C@_02MOBCCJHH@$$?$AA@ ; `Patch::Patch'::`2'::Command
	DD	00H
	DD	FLAT:??_C@_01EPMOAMKG@$?$AA@
	DD	01H
	DD	FLAT:??_C@_02PEIGCEPF@c?$CD?$AA@
	DD	03H
	DD	FLAT:??_C@_02PBMJDCHA@d?$CD?$AA@
	DD	05H
	DD	FLAT:??_C@_02PCENOGBO@f?$CD?$AA@
	DD	08H
	DD	FLAT:??_C@_02PDIPIMCJ@g?$CD?$AA@
	DD	0aH
	DD	FLAT:??_C@_02PHACPAJL@a?$CD?$AA@
	DD	0cH
	DD	FLAT:??_C@_02DMFPKOPN@c?$CL?$AA@
	DD	03H
	DD	FLAT:??_C@_02DJBALIHI@d?$CL?$AA@
	DD	05H
	DD	FLAT:??_C@_02DKJEGMBG@f?$CL?$AA@
	DD	08H
	DD	FLAT:??_C@_02DLFGAGCB@g?$CL?$AA@
	DD	0aH
	DD	FLAT:??_C@_02DPNLHKJD@a?$CL?$AA@
	DD	0cH
	DD	FLAT:??_C@_02GPEKBPPO@d?9?$AA@
	DD	03H
	DD	FLAT:??_C@_02GOIIHFMJ@e?9?$AA@
	DD	05H
	DD	FLAT:??_C@_02GNAMKBKH@g?9?$AA@
	DD	08H
	DD	FLAT:??_C@_02GJIBNNBF@a?9?$AA@
	DD	0aH
	DD	FLAT:??_C@_02GLMHGDEM@b?9?$AA@
	DD	0cH
	DD	FLAT:??_C@_01PAPGNFGE@c?$AA@
	DD	02H
	DD	FLAT:??_C@_01LPLHEDKD@d?$AA@
	DD	04H
	DD	FLAT:??_C@_01KGKMHCOC@e?$AA@
	DD	06H
	DD	FLAT:??_C@_01INIBCBCB@f?$AA@
	DD	07H
	DD	FLAT:??_C@_01JEJKBAGA@g?$AA@
	DD	09H
	DD	FLAT:??_C@_01MCMALHOG@a?$AA@
	DD	0bH
	DD	FLAT:??_C@_01OJONOECF@b?$AA@
	DD	0dH
	DD	FLAT:??_C@_03LDKCKJPH@?$IC?G?$CD?$AA@
	DD	03H
	DD	FLAT:??_C@_03IDDHHMEE@?$IC?j?$CD?$AA@
	DD	05H
	DD	FLAT:??_C@_05NMKGBIBK@?$IC?S?$IC?$JP?$CD?$AA@
	DD	08H
	DD	FLAT:??_C@_03KIINKCFL@?$IC?S?$CD?$AA@
	DD	08H
	DD	FLAT:??_C@_03OOEJDIMD@?$IC?$LL?$CD?$AA@
	DD	0aH
	DD	FLAT:??_C@_03ILOPOPBH@?$IC?g?$CD?$AA@
	DD	0cH
	DD	FLAT:??_C@_03BNLEFBMK@?$IC?j?9?$AA@
	DD	03H
	DD	FLAT:??_C@_03DMJAKCNP@?$IC?$NN?9?$AA@
	DD	05H
	DD	FLAT:??_C@_03HAMKBFEN@?$IC?$LL?9?$AA@
	DD	08H
	DD	FLAT:??_C@_03BFGMMCJJ@?$IC?g?9?$AA@
	DD	0aH
	DD	FLAT:??_C@_03HKFEDIEH@?$IC?$LF?9?$AA@
	DD	0cH
	DD	FLAT:??_C@_02GGLEKIIK@?$IC?G?$AA@
	DD	02H
	DD	FLAT:??_C@_02EGJOPCGF@?$IC?j?$AA@
	DD	04H
	DD	FLAT:??_C@_02NGJJFCFB@?$IC?$NN?$AA@
	DD	06H
	DD	FLAT:??_C@_04NCHCKEFM@?$IC?S?$IC?$JP?$AA@
	DD	07H
	DD	FLAT:??_C@_02EIBKHPNP@?$IC?S?$AA@
	DD	07H
	DD	FLAT:??_C@_02OFDOJOHA@?$IC?$LL?$AA@
	DD	09H
	DD	FLAT:??_C@_02PDDAIMCI@?$IC?g?$AA@
	DD	0bH
	DD	FLAT:??_C@_02HLLNLDPO@?$IC?$LF?$AA@
	DD	0dH
	DD	FLAT:??_C@_03NJDKNEMP@?$IDh?$CD?$AA@
	DD	03H
	DD	FLAT:??_C@_03HHNBKMLD@?$ID?$IM?$CD?$AA@
	DD	05H
	DD	FLAT:??_C@_05OLJEJNFB@?$IDt?$ID?$EA?$CD?$AA@
	DD	08H
	DD	FLAT:??_C@_03MMAGIONL@?$IDt?$CD?$AA@
	DD	08H
	DD	FLAT:??_C@_03PKFIJJID@?$ID?2?$CD?$AA@
	DD	0aH
	DD	FLAT:??_C@_03HBBKGOFI@?$ID?$IJ?$CD?$AA@
	DD	0cH
	DD	FLAT:??_C@_03OJFCIBDN@?$ID?$IM?9?$AA@
	DD	03H
	DD	FLAT:??_C@_03FPBCCGID@?$ID?$HO?9?$AA@
	DD	05H
	DD	FLAT:??_C@_03GENLLEAN@?$ID?2?9?$AA@
	DD	08H
	DD	FLAT:??_C@_03OPJJEDNG@?$ID?$IJ?9?$AA@
	DD	0aH
	DD	FLAT:??_C@_03GJEMDBNL@?$IDV?9?$AA@
	DD	0cH
	DD	FLAT:??_C@_02EOOJGCJL@?$IDh?$AA@
	DD	02H
	DD	FLAT:??_C@_02HEPLFEHD@?$ID?$IM?$AA@
	DD	04H
	DD	FLAT:??_C@_02FCHBNHEM@?$ID?$HO?$AA@
	DD	06H
	DD	FLAT:??_C@_04DIMMBPLH@?$IDt?$ID?$EA?$AA@
	DD	07H
	DD	FLAT:??_C@_02KIJODPMG@?$IDt?$AA@
	DD	07H
	DD	FLAT:??_C@_02PFMDJBGM@?$ID?2?$AA@
	DD	09H
	DD	FLAT:??_C@_02JIMKADG@?$ID?$IJ?$AA@
	DD	0bH
	DD	FLAT:??_C@_02PCMHJOG@?$IDV?$AA@
	DD	0dH
	DD	FLAT:??_C@_01EFFIKLCJ@n?$AA@
	DD	0eH
	DD	FLAT:??_C@_03GNIAMJAE@E?$EA?$CK?$AA@
	DD	0fH
	DD	FLAT:??_C@_03ENGGFACG@Ev?$CK?$AA@
	DD	010H
	DD	FLAT:??_C@_03FNBFBMLH@Em?$CK?$AA@
	DD	011H
	DD	FLAT:??_C@_03FPFDKCOO@En?$CK?$AA@
	DD	012H
	DD	FLAT:??_C@_02IGJGCGMD@E?$EA?$AA@
	DD	013H
	DD	FLAT:??_C@_02PIKLHLG@Ev?$AA@
	DD	014H
	DD	FLAT:??_C@_02KGLMHMCM@Em?$AA@
	DD	015H
	DD	FLAT:??_C@_02INJBCPOP@En?$AA@
	DD	016H
	DD	FLAT:??_C@_01IIACKFLH@q?$AA@
	DD	017H
	DD	FLAT:??_C@_01OMGOGALD@u?$AA@
	DD	018H
	DD	FLAT:??_C@_01LKDEMHDF@s?$AA@
	DD	01cH
	DD	FLAT:??_C@_03KODNNGID@?$EANS?$AA@
	DD	01bH
	DD	FLAT:??_C@_01EOFPKCAF@?$EA?$AA@
	DD	019H
	DD	FLAT:??_C@_01IDAFKMJL@_?$AA@
	DD	01aH
	DD	FLAT:??_C@_01CPLAODJH@S?$AA@
	DD	01dH
CONST	ENDS
;	COMDAT ??_C@_1DE@KNJKOFFK@?$JH?s?$ICr0?$KI0?s0?Y0?m0?$PM0?W0hT?$AMfB0k?$FL?$JK?$HP?$KJ0Y0?$IL0S0h0o0g@
CONST	SEGMENT
??_C@_1DE@KNJKOFFK@?$JH?s?$ICr0?$KI0?s0?Y0?m0?$PM0?W0hT?$AMfB0k?$FL?$JK?$HP?$KJ0Y0?$IL0S0h0o0g@ DB 0f3H
	DB	097H, 'r', 082H, 0a8H, '0', 0f3H, '0', 0d9H, '0', 0edH, '0', 0fcH
	DB	'0', 0d7H, '0h0', 0cH, 'TBfk0', 09aH, '[', 0a9H, 07fH, 'Y0', 08bH
	DB	'0S0h0o0g0M0~0[0', 093H, '0', 02H, '0', 00H, 00H ; `string'
CONST	ENDS
;	COMDAT ??_C@_1BG@OGNIMPKO@?$JH?s?$ICr0n?$PP?$BC?$JB?M?$FL?$JK?$HP?$KJ0g0Y0?$AC?$AA?$AA@
CONST	SEGMENT
??_C@_1BG@OGNIMPKO@?$JH?s?$ICr0n?$PP?$BC?$JB?M?$FL?$JK?$HP?$KJ0g0Y0?$AC?$AA?$AA@ DB 0f3H
	DB	097H, 'r', 082H, 'n0', 012H, 0ffH, 0cdH, 091H, 09aH, '[', 0a9H
	DB	07fH, 'g0Y0', 02H, '0', 00H, 00H		; `string'
CONST	ENDS
;	COMDAT ??_C@_1CM@IEKMDFIE@?$JH?s?$ICr0o?$AA0?$PP?$FO?$AA2?$AA5?$AA50n?$HL?DV?r0gc?$AH?$FL?$JK0W0f0O0?$GA0U0D@
CONST	SEGMENT
??_C@_1CM@IEKMDFIE@?$JH?s?$ICr0o?$AA0?$PP?$FO?$AA2?$AA5?$AA50n?$HL?DV?r0gc?$AH?$FL?$JK0W0f0O0?$GA0U0D@ DB 0f3H
	DB	097H, 'r', 082H, 'o00', 00H, '^', 0ffH, '2', 00H, '5', 00H, '5'
	DB	00H, 'n0', 0c4H, '{', 0f2H, 'Vg0', 07H, 'c', 09aH, '[W0f0O0`0U'
	DB	'0D0', 02H, '0', 00H, 00H			; `string'
CONST	ENDS
;	COMDAT ??_C@_1DC@GHMDBEFP@?$JH?s?$ICr0?$KI0?s0?Y0?m0?$PM0?W0o0?$AB?$AA?$EA0?$LD0?$NO0?s0?I0gq?$CBR?$LJ0k0g@
CONST	SEGMENT
??_C@_1DC@GHMDBEFP@?$JH?s?$ICr0?$KI0?s0?Y0?m0?$PM0?W0o0?$AB?$AA?$EA0?$LD0?$NO0?s0?I0gq?$CBR?$LJ0k0g@ DB 0f3H
	DB	097H, 'r', 082H, 0a8H, '0', 0f3H, '0', 0d9H, '0', 0edH, '0', 0fcH
	DB	'0', 0d7H, '0o0', 01H, '0@', 00H, 0b3H, '0', 0deH, '0', 0f3H, '0'
	DB	0c9H, '0g0!q', 0b9H, 'Rk0g0M0~0Y0', 02H, '0', 00H, 00H ; `string'
CONST	ENDS
;	COMDAT ??_C@_1CC@OODHOOPP@?$JH?s?$JB?O0?$KI0?s0?Y0?m0?$PM0?W0n?$PP?$BC?$JB?M?$FL?$JK?$HP?$KJ0g0Y0?$AC?$AA?$AA@
CONST	SEGMENT
??_C@_1CC@OODHOOPP@?$JH?s?$JB?O0?$KI0?s0?Y0?m0?$PM0?W0n?$PP?$BC?$JB?M?$FL?$JK?$HP?$KJ0g0Y0?$AC?$AA?$AA@ DB 0f3H
	DB	097H, 0cfH, 091H, 0a8H, '0', 0f3H, '0', 0d9H, '0', 0edH, '0', 0fcH
	DB	'0', 0d7H, '0n0', 012H, 0ffH, 0cdH, 091H, 09aH, '[', 0a9H, 07fH
	DB	'g0Y0', 02H, '0', 00H, 00H			; `string'
CONST	ENDS
;	COMDAT ??_C@_1CC@HCKABCOF@?$JH?sz?$AL0?$KI0?s0?Y0?m0?$PM0?W0n?$PP?$BC?$JB?M?$FL?$JK?$HP?$KJ0g0Y0?$AC?$AA?$AA@
CONST	SEGMENT
??_C@_1CC@HCKABCOF@?$JH?sz?$AL0?$KI0?s0?Y0?m0?$PM0?W0n?$PP?$BC?$JB?M?$FL?$JK?$HP?$KJ0g0Y0?$AC?$AA?$AA@ DB 0f3H
	DB	097H, 0bH, 'z', 0a8H, '0', 0f3H, '0', 0d9H, '0', 0edH, '0', 0fcH
	DB	'0', 0d7H, '0n0', 012H, 0ffH, 0cdH, 091H, 09aH, '[', 0a9H, 07fH
	DB	'g0Y0', 02H, '0', 00H, 00H			; `string'
CONST	ENDS
;	COMDAT ??_C@_1CE@MHEDGKOC@0?N0?$PM0?H0?$KI0?s0?Y0?m0?$PM0?W0n?$PP?$BC?$JB?M?$FL?$JK?$HP?$KJ0g0Y0?$AC?$AA?$AA@
CONST	SEGMENT
??_C@_1CE@MHEDGKOC@0?N0?$PM0?H0?$KI0?s0?Y0?m0?$PM0?W0n?$PP?$BC?$JB?M?$FL?$JK?$HP?$KJ0g0Y0?$AC?$AA?$AA@ DB 0ceH
	DB	'0', 0fcH, '0', 0c8H, '0', 0a8H, '0', 0f3H, '0', 0d9H, '0', 0edH
	DB	'0', 0fcH, '0', 0d7H, '0n0', 012H, 0ffH, 0cdH, 091H, 09aH, '[', 0a9H
	DB	07fH, 'g0Y0', 02H, '0', 00H, 00H		; `string'
CONST	ENDS
;	COMDAT ??_C@_1CC@LNAFLFDL@?$JH?s?$ICr0?$KI0?s0?Y0?m0?$PM0?W0n?$PP?$BC?$JB?M?$FL?$JK?$HP?$KJ0g0Y0?$AC?$AA?$AA@
CONST	SEGMENT
??_C@_1CC@LNAFLFDL@?$JH?s?$ICr0?$KI0?s0?Y0?m0?$PM0?W0n?$PP?$BC?$JB?M?$FL?$JK?$HP?$KJ0g0Y0?$AC?$AA?$AA@ DB 0f3H
	DB	097H, 'r', 082H, 0a8H, '0', 0f3H, '0', 0d9H, '0', 0edH, '0', 0fcH
	DB	'0', 0d7H, '0n0', 012H, 0ffH, 0cdH, 091H, 09aH, '[', 0a9H, 07fH
	DB	'g0Y0', 02H, '0', 00H, 00H			; `string'
CONST	ENDS
;	COMDAT ??_C@_1CI@FCLDAKAL@?$JH?s?$ICr0hT?$AMfB0k?$FL?$JK?$HP?$KJ0Y0?$IL0S0h0o0g0M0?$HO0?$FL0?$JD0?$AC?$AA?$AA@
CONST	SEGMENT
??_C@_1CI@FCLDAKAL@?$JH?s?$ICr0hT?$AMfB0k?$FL?$JK?$HP?$KJ0Y0?$IL0S0h0o0g0M0?$HO0?$FL0?$JD0?$AC?$AA?$AA@ DB 0f3H
	DB	097H, 'r', 082H, 'h0', 0cH, 'TBfk0', 09aH, '[', 0a9H, 07fH, 'Y'
	DB	'0', 08bH, '0S0h0o0g0M0~0[0', 093H, '0', 02H, '0', 00H, 00H ; `string'
CONST	ENDS
;	COMDAT ??_C@_1BM@CDGIHPDA@?$AAq0?$LD0?$NO0?s0?I0n?$PP?$BC?$JB?M?$FL?$JK?$HP?$KJ0g0Y0?$AC?$AA?$AA@
CONST	SEGMENT
??_C@_1BM@CDGIHPDA@?$AAq0?$LD0?$NO0?s0?I0n?$PP?$BC?$JB?M?$FL?$JK?$HP?$KJ0g0Y0?$AC?$AA?$AA@ DB 'q'
	DB	00H, 0b3H, '0', 0deH, '0', 0f3H, '0', 0c9H, '0n0', 012H, 0ffH, 0cdH
	DB	091H, 09aH, '[', 0a9H, 07fH, 'g0Y0', 02H, '0', 00H, 00H ; `string'
CONST	ENDS
;	COMDAT ??_C@_1BM@CFLPILEE@?$AAu0?$LD0?$NO0?s0?I0n?$PP?$BC?$JB?M?$FL?$JK?$HP?$KJ0g0Y0?$AC?$AA?$AA@
CONST	SEGMENT
??_C@_1BM@CFLPILEE@?$AAu0?$LD0?$NO0?s0?I0n?$PP?$BC?$JB?M?$FL?$JK?$HP?$KJ0g0Y0?$AC?$AA?$AA@ DB 'u'
	DB	00H, 0b3H, '0', 0deH, '0', 0f3H, '0', 0c9H, '0n0', 012H, 0ffH, 0cdH
	DB	091H, 09aH, '[', 0a9H, 07fH, 'g0Y0', 02H, '0', 00H, 00H ; `string'
CONST	ENDS
;	COMDAT ??_C@_1BG@DMDHOLIG@y?$PL?$IK?$LP0n?$PP?$BC?$JB?M?$FL?$JK?$HP?$KJ0g0Y0?$AC?$AA?$AA@
CONST	SEGMENT
??_C@_1BG@DMDHOLIG@y?$PL?$IK?$LP0n?$PP?$BC?$JB?M?$FL?$JK?$HP?$KJ0g0Y0?$AC?$AA?$AA@ DB 0fbH
	DB	'y', 0bfH, 08aH, 'n0', 012H, 0ffH, 0cdH, 091H, 09aH, '[', 0a9H
	DB	07fH, 'g0Y0', 02H, '0', 00H, 00H		; `string'
CONST	ENDS
;	COMDAT ??_C@_1BM@CAADIFAK@?$AAs0?$LD0?$NO0?s0?I0n?$PP?$BC?$JB?M?$FL?$JK?$HP?$KJ0g0Y0?$AC?$AA?$AA@
CONST	SEGMENT
??_C@_1BM@CAADIFAK@?$AAs0?$LD0?$NO0?s0?I0n?$PP?$BC?$JB?M?$FL?$JK?$HP?$KJ0g0Y0?$AC?$AA?$AA@ DB 's'
	DB	00H, 0b3H, '0', 0deH, '0', 0f3H, '0', 0c9H, '0n0', 012H, 0ffH, 0cdH
	DB	091H, 09aH, '[', 0a9H, 07fH, 'g0Y0', 02H, '0', 00H, 00H ; `string'
CONST	ENDS
;	COMDAT ??_C@_1DC@OMNANPHO@?$AAs0?$LD0?$NO0?s0?I0o?$AA0?$PP?$FO?$AA2?$AA5?$AA50n?$HL?DV?r0gc?$AH?$FL?$JK0W0f0O@
CONST	SEGMENT
??_C@_1DC@OMNANPHO@?$AAs0?$LD0?$NO0?s0?I0o?$AA0?$PP?$FO?$AA2?$AA5?$AA50n?$HL?DV?r0gc?$AH?$FL?$JK0W0f0O@ DB 's'
	DB	00H, 0b3H, '0', 0deH, '0', 0f3H, '0', 0c9H, '0o00', 00H, '^', 0ffH
	DB	'2', 00H, '5', 00H, '5', 00H, 'n0', 0c4H, '{', 0f2H, 'Vg0', 07H
	DB	'c', 09aH, '[W0f0O0`0U0D0', 02H, '0', 00H, 00H ; `string'
CONST	ENDS
;	COMDAT ??_C@_1EA@FGFBAIAO@?$AAs0?$LD0?$NO0?s0?I0n?$HL?0?$AA10?Q0?i0?a0?$PM0?$LP0o?$AA0?$PP?$FO?$AA1?$AA50n?$HL?D@
CONST	SEGMENT
??_C@_1EA@FGFBAIAO@?$AAs0?$LD0?$NO0?s0?I0n?$HL?0?$AA10?Q0?i0?a0?$PM0?$LP0o?$AA0?$PP?$FO?$AA1?$AA50n?$HL?D@ DB 's'
	DB	00H, 0b3H, '0', 0deH, '0', 0f3H, '0', 0c9H, '0n0,{1', 00H, 0d1H
	DB	'0', 0e9H, '0', 0e1H, '0', 0fcH, '0', 0bfH, '0o00', 00H, '^', 0ffH
	DB	'1', 00H, '5', 00H, 'n0', 0c4H, '{', 0f2H, 'Vg0', 07H, 'c', 09aH
	DB	'[W0f0O0`0U0D0', 02H, '0', 00H, 00H		; `string'
CONST	ENDS
;	COMDAT ??_C@_1EA@BHDCEFM@?$AAs0?$LD0?$NO0?s0?I0n?$HL?0?$AA20?Q0?i0?a0?$PM0?$LP0o?$AA0?$PP?$FO?$AA1?$AA50n?$HL?D@
CONST	SEGMENT
??_C@_1EA@BHDCEFM@?$AAs0?$LD0?$NO0?s0?I0n?$HL?0?$AA20?Q0?i0?a0?$PM0?$LP0o?$AA0?$PP?$FO?$AA1?$AA50n?$HL?D@ DB 's'
	DB	00H, 0b3H, '0', 0deH, '0', 0f3H, '0', 0c9H, '0n0,{2', 00H, 0d1H
	DB	'0', 0e9H, '0', 0e1H, '0', 0fcH, '0', 0bfH, '0o00', 00H, '^', 0ffH
	DB	'1', 00H, '5', 00H, 'n0', 0c4H, '{', 0f2H, 'Vg0', 07H, 'c', 09aH
	DB	'[W0f0O0`0U0D0', 02H, '0', 00H, 00H		; `string'
CONST	ENDS
;	COMDAT ??_C@_1CE@JMKANNFP@?$AA?$EA0?$LD0?$NO0?s0?I0Le?b0kc?$AH?$FL?$JK0U0?$IM0f0D0?$HO0Y0?$AC?$AA?$AA@
CONST	SEGMENT
??_C@_1CE@JMKANNFP@?$AA?$EA0?$LD0?$NO0?s0?I0Le?b0kc?$AH?$FL?$JK0U0?$IM0f0D0?$HO0Y0?$AC?$AA?$AA@ DB '@'
	DB	00H, 0b3H, '0', 0deH, '0', 0f3H, '0', 0c9H, '0L0', 0e2H, 'ek0', 07H
	DB	'c', 09aH, '[U0', 08cH, '0f0D0~0Y0', 02H, '0', 00H, 00H ; `string'
CONST	ENDS
;	COMDAT ??_C@_1CG@DIPDDOH@?$AAE?$AA?$EA0?$LD0?$NO0?s0?I0Le?b0kc?$AH?$FL?$JK0U0?$IM0f0D0?$HO0Y0?$AC?$AA?$AA@
CONST	SEGMENT
??_C@_1CG@DIPDDOH@?$AAE?$AA?$EA0?$LD0?$NO0?s0?I0Le?b0kc?$AH?$FL?$JK0U0?$IM0f0D0?$HO0Y0?$AC?$AA?$AA@ DB 'E'
	DB	00H, '@', 00H, 0b3H, '0', 0deH, '0', 0f3H, '0', 0c9H, '0L0', 0e2H
	DB	'ek0', 07H, 'c', 09aH, '[U0', 08cH, '0f0D0~0Y0', 02H, '0', 00H
	DB	00H						; `string'
CONST	ENDS
;	COMDAT ??_C@_1DM@DHGNPNAI@?$AAn?$AA1?$AA6?$AAx0nl?b_b?$JF?$ILY?Kp?$LJ0o?$AA0?$PP?$FO?$AA2?$AA5?$AA20n?$HL?DV?r0g@
CONST	SEGMENT
??_C@_1DM@DHGNPNAI@?$AAn?$AA1?$AA6?$AAx0nl?b_b?$JF?$ILY?Kp?$LJ0o?$AA0?$PP?$FO?$AA2?$AA5?$AA20n?$HL?DV?r0g@ DB 'n'
	DB	00H, '1', 00H, '6', 00H, 'x', 00H, 'n0', 0e2H, 'lb_', 08bH, 095H
	DB	0cbH, 'Y', 0b9H, 'po00', 00H, '^', 0ffH, '2', 00H, '5', 00H, '2'
	DB	00H, 'n0', 0c4H, '{', 0f2H, 'Vg0', 07H, 'c', 09aH, '[W0f0O0`0U'
	DB	'0D0', 02H, '0', 00H, 00H			; `string'
CONST	ENDS
;	COMDAT ??_C@_1DE@ODMGCHFJ@?$AAn?$AA1?$AA6?$AAx0nl?b_b?$JF?$ILY?Kp?$LJ0o?$AA40nP?$ANep0gc?$AH?$FL?$JK0W0f@
CONST	SEGMENT
??_C@_1DE@ODMGCHFJ@?$AAn?$AA1?$AA6?$AAx0nl?b_b?$JF?$ILY?Kp?$LJ0o?$AA40nP?$ANep0gc?$AH?$FL?$JK0W0f@ DB 'n'
	DB	00H, '1', 00H, '6', 00H, 'x', 00H, 'n0', 0e2H, 'lb_', 08bH, 095H
	DB	0cbH, 'Y', 0b9H, 'po04', 00H, 'n0', 0dH, 'Ppeg0', 07H, 'c', 09aH
	DB	'[W0f0O0`0U0D0', 02H, '0', 00H, 00H		; `string'
CONST	ENDS
;	COMDAT ??_C@_1CE@PCAGAE@?$AAs0?$LD0?$NO0?s0?I0Le?b0kc?$AH?$FL?$JK0U0?$IM0f0D0?$HO0Y0?$AC?$AA?$AA@
CONST	SEGMENT
??_C@_1CE@PCAGAE@?$AAs0?$LD0?$NO0?s0?I0Le?b0kc?$AH?$FL?$JK0U0?$IM0f0D0?$HO0Y0?$AC?$AA?$AA@ DB 's'
	DB	00H, 0b3H, '0', 0deH, '0', 0f3H, '0', 0c9H, '0L0', 0e2H, 'ek0', 07H
	DB	'c', 09aH, '[U0', 08cH, '0f0D0~0Y0', 02H, '0', 00H, 00H ; `string'
CONST	ENDS
;	COMDAT ??_C@_1DM@DDNJDHDJ@?$AAn?$AA1?$AA6?$AAx0n0?$LF0?s0?W0?k?$JFw0o?$AA4?$PP?$FO?$AA2?$AA5?$AA60n?$HL?DV?r0g@
CONST	SEGMENT
??_C@_1DM@DDNJDHDJ@?$AAn?$AA1?$AA6?$AAx0n0?$LF0?s0?W0?k?$JFw0o?$AA4?$PP?$FO?$AA2?$AA5?$AA60n?$HL?DV?r0g@ DB 'n'
	DB	00H, '1', 00H, '6', 00H, 'x', 00H, 'n0', 0b5H, '0', 0f3H, '0', 0d7H
	DB	'0', 0ebH, '0w', 095H, 'o04', 00H, '^', 0ffH, '2', 00H, '5', 00H
	DB	'6', 00H, 'n0', 0c4H, '{', 0f2H, 'Vg0', 07H, 'c', 09aH, '[W0f0'
	DB	'O0`0U0D0', 02H, '0', 00H, 00H		; `string'
CONST	ENDS
;	COMDAT ??_C@_1DE@MPDFLMLF@?$AAn?$AA1?$AA6?$AAx0n0?$LF0?s0?W0?k?$JFw0o?$AA40nP?$ANep0gc?$AH?$FL?$JK0W0f@
CONST	SEGMENT
??_C@_1DE@MPDFLMLF@?$AAn?$AA1?$AA6?$AAx0n0?$LF0?s0?W0?k?$JFw0o?$AA40nP?$ANep0gc?$AH?$FL?$JK0W0f@ DB 'n'
	DB	00H, '1', 00H, '6', 00H, 'x', 00H, 'n0', 0b5H, '0', 0f3H, '0', 0d7H
	DB	'0', 0ebH, '0w', 095H, 'o04', 00H, 'n0', 0dH, 'Ppeg0', 07H, 'c'
	DB	09aH, '[W0f0O0`0U0D0', 02H, '0', 00H, 00H	; `string'
CONST	ENDS
;	COMDAT ??_C@_1BO@CKOOCKJC@0?$LF0?V0?k0?$PM0?A0?s0n?$PP?$BC?$JB?M?$FL?$JK?$HP?$KJ0g0Y0?$AC?$AA?$AA@
CONST	SEGMENT
??_C@_1BO@CKOOCKJC@0?$LF0?V0?k0?$PM0?A0?s0n?$PP?$BC?$JB?M?$FL?$JK?$HP?$KJ0g0Y0?$AC?$AA?$AA@ DB 0b5H
	DB	'0', 0d6H, '0', 0ebH, '0', 0fcH, '0', 0c1H, '0', 0f3H, '0n0', 012H
	DB	0ffH, 0cdH, 091H, 09aH, '[', 0a9H, 07fH, 'g0Y0', 02H, '0', 00H
	DB	00H						; `string'
CONST	ENDS
;	COMDAT ??_C@_1DO@BDHNDBK@0?$LF0?V0?k0?$PM0?A0?s0ng?$AA?$JAiS?$BG0?U0?i0?$LA0o?$AA0?$PP?$FO?$AA10n?$HL?DV?r@
CONST	SEGMENT
??_C@_1DO@BDHNDBK@0?$LF0?V0?k0?$PM0?A0?s0ng?$AA?$JAiS?$BG0?U0?i0?$LA0o?$AA0?$PP?$FO?$AA10n?$HL?DV?r@ DB 0b5H
	DB	'0', 0d6H, '0', 0ebH, '0', 0fcH, '0', 0c1H, '0', 0f3H, '0n0', 00H
	DB	'gi', 090H, 016H, 'S', 0d5H, '0', 0e9H, '0', 0b0H, '0o00', 00H
	DB	'^', 0ffH, '1', 00H, 'n0', 0c4H, '{', 0f2H, 'Vg0', 07H, 'c', 09aH
	DB	'[W0f0O0`0U0D0', 02H, '0', 00H, 00H		; `string'
CONST	ENDS
;	COMDAT ??_C@_08JGNHFCII@?$CJ?5?$FN?5?$DN?$DN?$DN?$DN?$AA@
CONST	SEGMENT
??_C@_08JGNHFCII@?$CJ?5?$FN?5?$DN?$DN?$DN?$DN?$AA@ DB ') ] ====', 00H ; `string'
CONST	ENDS
;	COMDAT ??_C@_0O@IDEMKPMC@?$DN?$DN?$DN?$DN?5?$FL?5Patch?$CI?$AA@
CONST	SEGMENT
??_C@_0O@IDEMKPMC@?$DN?$DN?$DN?$DN?5?$FL?5Patch?$CI?$AA@ DB '==== [ Patch'
	DB	'(', 00H					; `string'
CONST	ENDS
;	COMDAT ??_C@_03LNLKIPBE@?5?5n?$AA@
CONST	SEGMENT
??_C@_03LNLKIPBE@?5?5n?$AA@ DB '  n', 00H		; `string'
CONST	ENDS
;	COMDAT ??_C@_03HAOAIBIK@?5?5q?$AA@
CONST	SEGMENT
??_C@_03HAOAIBIK@?5?5q?$AA@ DB '  q', 00H		; `string'
CONST	ENDS
;	COMDAT ??_C@_03BEIMEEIO@?5?5u?$AA@
CONST	SEGMENT
??_C@_03BEIMEEIO@?5?5u?$AA@ DB '  u', 00H		; `string'
CONST	ENDS
;	COMDAT ??_C@_03NHFCMHKK@?5?5S?$AA@
CONST	SEGMENT
??_C@_03NHFCMHKK@?5?5S?$AA@ DB '  S', 00H		; `string'
CONST	ENDS
;	COMDAT ??_C@_03HLOHIIKG@?5?5_?$AA@
CONST	SEGMENT
??_C@_03HLOHIIKG@?5?5_?$AA@ DB '  _', 00H		; `string'
CONST	ENDS
;	COMDAT ??_C@_03ECNGODAI@?5?5s?$AA@
CONST	SEGMENT
??_C@_03ECNGODAI@?5?5s?$AA@ DB '  s', 00H		; `string'
CONST	ENDS
;	COMDAT ??_C@_03LGLNIGDI@?5?5?$EA?$AA@
CONST	SEGMENT
??_C@_03LGLNIGDI@?5?5?$EA?$AA@ DB '  @', 00H		; `string'
CONST	ENDS
;	COMDAT ??_C@_03PIKBIPPD@?5E?$EA?$AA@
CONST	SEGMENT
??_C@_03PIKBIPPD@?5E?$EA?$AA@ DB ' E@', 00H		; `string'
CONST	ENDS
;	COMDAT ??_C@_04GLMBFHCD@?5Ev?$CK?$AA@
CONST	SEGMENT
??_C@_04GLMBFHCD@?5Ev?$CK?$AA@ DB ' Ev*', 00H		; `string'
CONST	ENDS
;	COMDAT ??_C@_03HBLNBOIG@?5Ev?$AA@
CONST	SEGMENT
??_C@_03HBLNBOIG@?5Ev?$AA@ DB ' Ev', 00H		; `string'
CONST	ENDS
;	COMDAT ??_C@_04HLLCBLLC@?5Em?$CK?$AA@
CONST	SEGMENT
??_C@_04HLLCBLLC@?5Em?$CK?$AA@ DB ' Em*', 00H		; `string'
CONST	ENDS
;	COMDAT ??_C@_03NIILNFBM@?5Em?$AA@
CONST	SEGMENT
??_C@_03NIILNFBM@?5Em?$AA@ DB ' Em', 00H		; `string'
CONST	ENDS
;	COMDAT ??_C@_04HJPEKFOL@?5En?$CK?$AA@
CONST	SEGMENT
??_C@_04HJPEKFOL@?5En?$CK?$AA@ DB ' En*', 00H		; `string'
CONST	ENDS
;	COMDAT ??_C@_03PDKGIGNP@?5En?$AA@
CONST	SEGMENT
??_C@_03PDKGIGNP@?5En?$AA@ DB ' En', 00H		; `string'
; Function compile flags: /Ogsy
; File f:\nes\nsdl\src\nsc\patch.h
;	COMDAT ?get_fGate_q@Patch@@QAE_NXZ
_TEXT	SEGMENT
?get_fGate_q@Patch@@QAE_NXZ PROC NEAR			; Patch::get_fGate_q, COMDAT
; _this$ = eax

; 104  : 				bool	get_fGate_q(void){	return(m_now_Patch->fGate_q);};

  00000	8b 40 14	 mov	 eax, DWORD PTR [eax+20]
  00003	8a 40 31	 mov	 al, BYTE PTR [eax+49]
  00006	c3		 ret	 0
?get_fGate_q@Patch@@QAE_NXZ ENDP			; Patch::get_fGate_q
; Function compile flags: /Ogsy
_TEXT	ENDS
;	COMDAT ?get_iGate_q@Patch@@QAEIXZ
_TEXT	SEGMENT
?get_iGate_q@Patch@@QAEIXZ PROC NEAR			; Patch::get_iGate_q, COMDAT
; _this$ = eax

; 92   : 	unsigned	int		get_iGate_q(void){	return(m_now_Patch->iGate_q);};

  00000	8b 40 14	 mov	 eax, DWORD PTR [eax+20]
  00003	8b 40 20	 mov	 eax, DWORD PTR [eax+32]
  00006	c3		 ret	 0
?get_iGate_q@Patch@@QAEIXZ ENDP				; Patch::get_iGate_q
; Function compile flags: /Ogsy
_TEXT	ENDS
;	COMDAT ?get_fGate_u@Patch@@QAE_NXZ
_TEXT	SEGMENT
?get_fGate_u@Patch@@QAE_NXZ PROC NEAR			; Patch::get_fGate_u, COMDAT
; _this$ = eax

; 105  : 				bool	get_fGate_u(void){	return(m_now_Patch->fGate_u);};

  00000	8b 40 14	 mov	 eax, DWORD PTR [eax+20]
  00003	8a 40 32	 mov	 al, BYTE PTR [eax+50]
  00006	c3		 ret	 0
?get_fGate_u@Patch@@QAE_NXZ ENDP			; Patch::get_fGate_u
; Function compile flags: /Ogsy
_TEXT	ENDS
;	COMDAT ?get_iGate_u@Patch@@QAEIXZ
_TEXT	SEGMENT
?get_iGate_u@Patch@@QAEIXZ PROC NEAR			; Patch::get_iGate_u, COMDAT
; _this$ = eax

; 93   : 	unsigned	int		get_iGate_u(void){	return(m_now_Patch->iGate_u);};

  00000	8b 40 14	 mov	 eax, DWORD PTR [eax+20]
  00003	8b 40 24	 mov	 eax, DWORD PTR [eax+36]
  00006	c3		 ret	 0
?get_iGate_u@Patch@@QAEIXZ ENDP				; Patch::get_iGate_u
; Function compile flags: /Ogsy
_TEXT	ENDS
;	COMDAT ?get_fSub@Patch@@QAE_NXZ
_TEXT	SEGMENT
?get_fSub@Patch@@QAE_NXZ PROC NEAR			; Patch::get_fSub, COMDAT
; _this$ = eax

; 102  : 				bool	get_fSub(void){		return(m_now_Patch->fSub);};

  00000	8b 40 14	 mov	 eax, DWORD PTR [eax+20]
  00003	8a 40 2f	 mov	 al, BYTE PTR [eax+47]
  00006	c3		 ret	 0
?get_fSub@Patch@@QAE_NXZ ENDP				; Patch::get_fSub
; Function compile flags: /Ogsy
_TEXT	ENDS
;	COMDAT ?get_iSub@Patch@@QAEIXZ
_TEXT	SEGMENT
?get_iSub@Patch@@QAEIXZ PROC NEAR			; Patch::get_iSub, COMDAT
; _this$ = eax

; 91   : 	unsigned	int		get_iSub(void){		return(m_now_Patch->iSub);};

  00000	8b 40 14	 mov	 eax, DWORD PTR [eax+20]
  00003	8b 40 1c	 mov	 eax, DWORD PTR [eax+28]
  00006	c3		 ret	 0
?get_iSub@Patch@@QAEIXZ ENDP				; Patch::get_iSub
; Function compile flags: /Ogsy
_TEXT	ENDS
;	COMDAT ?get_fSub_opt@Patch@@QAE_NXZ
_TEXT	SEGMENT
?get_fSub_opt@Patch@@QAE_NXZ PROC NEAR			; Patch::get_fSub_opt, COMDAT
; _this$ = eax

; 103  : 				bool	get_fSub_opt(void){	return(m_now_Patch->fSub_opt);};

  00000	8b 40 14	 mov	 eax, DWORD PTR [eax+20]
  00003	8a 40 30	 mov	 al, BYTE PTR [eax+48]
  00006	c3		 ret	 0
?get_fSub_opt@Patch@@QAE_NXZ ENDP			; Patch::get_fSub_opt
; Function compile flags: /Ogsy
_TEXT	ENDS
;	COMDAT ?get_fKey@Patch@@QAE_NXZ
_TEXT	SEGMENT
?get_fKey@Patch@@QAE_NXZ PROC NEAR			; Patch::get_fKey, COMDAT
; _this$ = eax

; 100  : 				bool	get_fKey(void){		return(m_now_Patch->fKey);};

  00000	8b 40 14	 mov	 eax, DWORD PTR [eax+20]
  00003	8a 40 2d	 mov	 al, BYTE PTR [eax+45]
  00006	c3		 ret	 0
?get_fKey@Patch@@QAE_NXZ ENDP				; Patch::get_fKey
; Function compile flags: /Ogsy
_TEXT	ENDS
;	COMDAT ?get_iKey@Patch@@QAEIXZ
_TEXT	SEGMENT
?get_iKey@Patch@@QAEIXZ PROC NEAR			; Patch::get_iKey, COMDAT
; _this$ = eax

; 89   : 	unsigned	int		get_iKey(void){		return(m_now_Patch->iKey);};

  00000	8b 40 14	 mov	 eax, DWORD PTR [eax+20]
  00003	8b 40 14	 mov	 eax, DWORD PTR [eax+20]
  00006	c3		 ret	 0
?get_iKey@Patch@@QAEIXZ ENDP				; Patch::get_iKey
; Function compile flags: /Ogsy
_TEXT	ENDS
;	COMDAT ?get_fSweep@Patch@@QAE_NXZ
_TEXT	SEGMENT
?get_fSweep@Patch@@QAE_NXZ PROC NEAR			; Patch::get_fSweep, COMDAT
; _this$ = eax

; 101  : 				bool	get_fSweep(void){	return(m_now_Patch->fSweep);};

  00000	8b 40 14	 mov	 eax, DWORD PTR [eax+20]
  00003	8a 40 2e	 mov	 al, BYTE PTR [eax+46]
  00006	c3		 ret	 0
?get_fSweep@Patch@@QAE_NXZ ENDP				; Patch::get_fSweep
; Function compile flags: /Ogsy
_TEXT	ENDS
;	COMDAT ?get_iSweep@Patch@@QAEEXZ
_TEXT	SEGMENT
?get_iSweep@Patch@@QAEEXZ PROC NEAR			; Patch::get_iSweep, COMDAT
; _this$ = eax

; 90   : 	unsigned	char	get_iSweep(void){	return(m_now_Patch->iSweep);};

  00000	8b 40 14	 mov	 eax, DWORD PTR [eax+20]
  00003	8a 40 18	 mov	 al, BYTE PTR [eax+24]
  00006	c3		 ret	 0
?get_iSweep@Patch@@QAEEXZ ENDP				; Patch::get_iSweep
; Function compile flags: /Ogsy
_TEXT	ENDS
;	COMDAT ?get_fVoi@Patch@@QAE_NXZ
_TEXT	SEGMENT
?get_fVoi@Patch@@QAE_NXZ PROC NEAR			; Patch::get_fVoi, COMDAT
; _this$ = eax

; 95   : 				bool	get_fVoi(void){		return(m_now_Patch->fVoi);};

  00000	8b 40 14	 mov	 eax, DWORD PTR [eax+20]
  00003	8a 40 28	 mov	 al, BYTE PTR [eax+40]
  00006	c3		 ret	 0
?get_fVoi@Patch@@QAE_NXZ ENDP				; Patch::get_fVoi
; Function compile flags: /Ogsy
_TEXT	ENDS
;	COMDAT ?get_iVoi@Patch@@QAEIXZ
_TEXT	SEGMENT
?get_iVoi@Patch@@QAEIXZ PROC NEAR			; Patch::get_iVoi, COMDAT
; _this$ = eax

; 84   : 	unsigned	int		get_iVoi(void){		return(m_now_Patch->iVoi);};

  00000	8b 40 14	 mov	 eax, DWORD PTR [eax+20]
  00003	8b 00		 mov	 eax, DWORD PTR [eax]
  00005	c3		 ret	 0
?get_iVoi@Patch@@QAEIXZ ENDP				; Patch::get_iVoi
; Function compile flags: /Ogsy
_TEXT	ENDS
;	COMDAT ?get_fEvoi@Patch@@QAE_NXZ
_TEXT	SEGMENT
?get_fEvoi@Patch@@QAE_NXZ PROC NEAR			; Patch::get_fEvoi, COMDAT
; _this$ = eax

; 96   : 				bool	get_fEvoi(void){	return(m_now_Patch->fEvoi);};

  00000	8b 40 14	 mov	 eax, DWORD PTR [eax+20]
  00003	8a 40 29	 mov	 al, BYTE PTR [eax+41]
  00006	c3		 ret	 0
?get_fEvoi@Patch@@QAE_NXZ ENDP				; Patch::get_fEvoi
; Function compile flags: /Ogsy
_TEXT	ENDS
;	COMDAT ?get_iEvoi@Patch@@QAEIXZ
_TEXT	SEGMENT
?get_iEvoi@Patch@@QAEIXZ PROC NEAR			; Patch::get_iEvoi, COMDAT
; _this$ = eax

; 85   : 	unsigned	int		get_iEvoi(void){	return(m_now_Patch->iEvoi);};

  00000	8b 40 14	 mov	 eax, DWORD PTR [eax+20]
  00003	8b 40 04	 mov	 eax, DWORD PTR [eax+4]
  00006	c3		 ret	 0
?get_iEvoi@Patch@@QAEIXZ ENDP				; Patch::get_iEvoi
; Function compile flags: /Ogsy
_TEXT	ENDS
;	COMDAT ?get_fEvol@Patch@@QAE_NXZ
_TEXT	SEGMENT
?get_fEvol@Patch@@QAE_NXZ PROC NEAR			; Patch::get_fEvol, COMDAT
; _this$ = eax

; 97   : 				bool	get_fEvol(void){	return(m_now_Patch->fEvol);};

  00000	8b 40 14	 mov	 eax, DWORD PTR [eax+20]
  00003	8a 40 2a	 mov	 al, BYTE PTR [eax+42]
  00006	c3		 ret	 0
?get_fEvol@Patch@@QAE_NXZ ENDP				; Patch::get_fEvol
; Function compile flags: /Ogsy
_TEXT	ENDS
;	COMDAT ?get_sw_Evol@Patch@@QAE_NXZ
_TEXT	SEGMENT
?get_sw_Evol@Patch@@QAE_NXZ PROC NEAR			; Patch::get_sw_Evol, COMDAT
; _this$ = eax

; 108  : 				bool	get_sw_Evol(void){	return(m_now_Patch->sw_Evol);};

  00000	8b 40 14	 mov	 eax, DWORD PTR [eax+20]
  00003	8a 40 34	 mov	 al, BYTE PTR [eax+52]
  00006	c3		 ret	 0
?get_sw_Evol@Patch@@QAE_NXZ ENDP			; Patch::get_sw_Evol
; Function compile flags: /Ogsy
_TEXT	ENDS
;	COMDAT ?get_iEvol@Patch@@QAEIXZ
_TEXT	SEGMENT
?get_iEvol@Patch@@QAEIXZ PROC NEAR			; Patch::get_iEvol, COMDAT
; _this$ = eax

; 86   : 	unsigned	int		get_iEvol(void){	return(m_now_Patch->iEvol);};

  00000	8b 40 14	 mov	 eax, DWORD PTR [eax+20]
  00003	8b 40 08	 mov	 eax, DWORD PTR [eax+8]
  00006	c3		 ret	 0
?get_iEvol@Patch@@QAEIXZ ENDP				; Patch::get_iEvol
; Function compile flags: /Ogsy
_TEXT	ENDS
;	COMDAT ?get_fEm@Patch@@QAE_NXZ
_TEXT	SEGMENT
?get_fEm@Patch@@QAE_NXZ PROC NEAR			; Patch::get_fEm, COMDAT
; _this$ = eax

; 98   : 				bool	get_fEm(void){		return(m_now_Patch->fEm);};

  00000	8b 40 14	 mov	 eax, DWORD PTR [eax+20]
  00003	8a 40 2b	 mov	 al, BYTE PTR [eax+43]
  00006	c3		 ret	 0
?get_fEm@Patch@@QAE_NXZ ENDP				; Patch::get_fEm
; Function compile flags: /Ogsy
_TEXT	ENDS
;	COMDAT ?get_sw_Em@Patch@@QAE_NXZ
_TEXT	SEGMENT
?get_sw_Em@Patch@@QAE_NXZ PROC NEAR			; Patch::get_sw_Em, COMDAT
; _this$ = eax

; 109  : 				bool	get_sw_Em(void){	return(m_now_Patch->sw_Em);};

  00000	8b 40 14	 mov	 eax, DWORD PTR [eax+20]
  00003	8a 40 35	 mov	 al, BYTE PTR [eax+53]
  00006	c3		 ret	 0
?get_sw_Em@Patch@@QAE_NXZ ENDP				; Patch::get_sw_Em
; Function compile flags: /Ogsy
_TEXT	ENDS
;	COMDAT ?get_iEm@Patch@@QAEIXZ
_TEXT	SEGMENT
?get_iEm@Patch@@QAEIXZ PROC NEAR			; Patch::get_iEm, COMDAT
; _this$ = eax

; 87   : 	unsigned	int		get_iEm(void){		return(m_now_Patch->iEm);};

  00000	8b 40 14	 mov	 eax, DWORD PTR [eax+20]
  00003	8b 40 0c	 mov	 eax, DWORD PTR [eax+12]
  00006	c3		 ret	 0
?get_iEm@Patch@@QAEIXZ ENDP				; Patch::get_iEm
; Function compile flags: /Ogsy
_TEXT	ENDS
;	COMDAT ?get_fEn@Patch@@QAE_NXZ
_TEXT	SEGMENT
?get_fEn@Patch@@QAE_NXZ PROC NEAR			; Patch::get_fEn, COMDAT
; _this$ = eax

; 99   : 				bool	get_fEn(void){		return(m_now_Patch->fEn);};

  00000	8b 40 14	 mov	 eax, DWORD PTR [eax+20]
  00003	8a 40 2c	 mov	 al, BYTE PTR [eax+44]
  00006	c3		 ret	 0
?get_fEn@Patch@@QAE_NXZ ENDP				; Patch::get_fEn
; Function compile flags: /Ogsy
_TEXT	ENDS
;	COMDAT ?get_sw_En@Patch@@QAE_NXZ
_TEXT	SEGMENT
?get_sw_En@Patch@@QAE_NXZ PROC NEAR			; Patch::get_sw_En, COMDAT
; _this$ = eax

; 110  : 				bool	get_sw_En(void){	return(m_now_Patch->sw_En);};

  00000	8b 40 14	 mov	 eax, DWORD PTR [eax+20]
  00003	8a 40 36	 mov	 al, BYTE PTR [eax+54]
  00006	c3		 ret	 0
?get_sw_En@Patch@@QAE_NXZ ENDP				; Patch::get_sw_En
; Function compile flags: /Ogsy
_TEXT	ENDS
;	COMDAT ?get_iEn@Patch@@QAEIXZ
_TEXT	SEGMENT
?get_iEn@Patch@@QAEIXZ PROC NEAR			; Patch::get_iEn, COMDAT
; _this$ = eax

; 88   : 	unsigned	int		get_iEn(void){		return(m_now_Patch->iEn);};

  00000	8b 40 14	 mov	 eax, DWORD PTR [eax+20]
  00003	8b 40 10	 mov	 eax, DWORD PTR [eax+16]
  00006	c3		 ret	 0
?get_iEn@Patch@@QAEIXZ ENDP				; Patch::get_iEn
; Function compile flags: /Ogsy
; File c:\program files (x86)\microsoft visual studio .net 2003\vc7\include\xutility
_TEXT	ENDS
;	COMDAT ??$_Iter_cat@Vconst_iterator@?$_Tree@V?$_Tmap_traits@IPAUpatch_scrap@@U?$less@I@std@@V?$allocator@U?$pair@$$CBIPAUpatch_scrap@@@std@@@3@$0A@@std@@@std@@@std@@YA?AUbidirectional_iterator_tag@0@ABVconst_iterator@?$_Tree@V?$_Tmap_traits@IPAUpatch_scrap@@U?$less@I@std@@V?$allocator@U?$pair@$$CBIPAUpatch_scrap@@@std@@@3@$0A@@std@@@0@@Z
_TEXT	SEGMENT
??$_Iter_cat@Vconst_iterator@?$_Tree@V?$_Tmap_traits@IPAUpatch_scrap@@U?$less@I@std@@V?$allocator@U?$pair@$$CBIPAUpatch_scrap@@@std@@@3@$0A@@std@@@std@@@std@@YA?AUbidirectional_iterator_tag@0@ABVconst_iterator@?$_Tree@V?$_Tmap_traits@IPAUpatch_scrap@@U?$less@I@std@@V?$allocator@U?$pair@$$CBIPAUpatch_scrap@@@std@@@3@$0A@@std@@@0@@Z PROC NEAR ; std::_Iter_cat<std::_Tree<std::_Tmap_traits<unsigned int,patch_scrap *,std::less<unsigned int>,std::allocator<std::pair<unsigned int const ,patch_scrap *> >,0> >::const_iterator>, COMDAT
; ___$ReturnUdt$ = eax

; 202  : 	typename iterator_traits<_Iter>::iterator_category _Cat;
; 203  : 	return (_Cat);
; 204  : 	}

  00000	c3		 ret	 0
??$_Iter_cat@Vconst_iterator@?$_Tree@V?$_Tmap_traits@IPAUpatch_scrap@@U?$less@I@std@@V?$allocator@U?$pair@$$CBIPAUpatch_scrap@@@std@@@3@$0A@@std@@@std@@@std@@YA?AUbidirectional_iterator_tag@0@ABVconst_iterator@?$_Tree@V?$_Tmap_traits@IPAUpatch_scrap@@U?$less@I@std@@V?$allocator@U?$pair@$$CBIPAUpatch_scrap@@@std@@@3@$0A@@std@@@0@@Z ENDP ; std::_Iter_cat<std::_Tree<std::_Tmap_traits<unsigned int,patch_scrap *,std::less<unsigned int>,std::allocator<std::pair<unsigned int const ,patch_scrap *> >,0> >::const_iterator>
; Function compile flags: /Ogsy
; File c:\program files (x86)\microsoft visual studio .net 2003\vc7\include\xmemory
_TEXT	ENDS
;	COMDAT ??$_Allocate@U_Node@?$_Tree_nod@V?$_Tmap_traits@IPAUpatch_scrap@@U?$less@I@std@@V?$allocator@U?$pair@$$CBIPAUpatch_scrap@@@std@@@3@$0A@@std@@@std@@@std@@YAPAU_Node@?$_Tree_nod@V?$_Tmap_traits@IPAUpatch_scrap@@U?$less@I@std@@V?$allocator@U?$pair@$$CBIPAUpatch_scrap@@@std@@@3@$0A@@std@@@0@IPAU120@@Z
_TEXT	SEGMENT
??$_Allocate@U_Node@?$_Tree_nod@V?$_Tmap_traits@IPAUpatch_scrap@@U?$less@I@std@@V?$allocator@U?$pair@$$CBIPAUpatch_scrap@@@std@@@3@$0A@@std@@@std@@@std@@YAPAU_Node@?$_Tree_nod@V?$_Tmap_traits@IPAUpatch_scrap@@U?$less@I@std@@V?$allocator@U?$pair@$$CBIPAUpatch_scrap@@@std@@@3@$0A@@std@@@0@IPAU120@@Z PROC NEAR ; std::_Allocate<std::_Tree_nod<std::_Tmap_traits<unsigned int,patch_scrap *,std::less<unsigned int>,std::allocator<std::pair<unsigned int const ,patch_scrap *> >,0> >::_Node>, COMDAT
; __Count$ = eax

; 34   : 	return ((_Ty _FARQ *)operator new(_Count * sizeof (_Ty)));

  00000	8d 04 40	 lea	 eax, DWORD PTR [eax+eax*2]
  00003	c1 e0 03	 shl	 eax, 3
  00006	50		 push	 eax
  00007	e8 00 00 00 00	 call	 ??2@YAPAXI@Z		; operator new
  0000c	59		 pop	 ecx

; 35   : 	}

  0000d	c3		 ret	 0
??$_Allocate@U_Node@?$_Tree_nod@V?$_Tmap_traits@IPAUpatch_scrap@@U?$less@I@std@@V?$allocator@U?$pair@$$CBIPAUpatch_scrap@@@std@@@3@$0A@@std@@@std@@@std@@YAPAU_Node@?$_Tree_nod@V?$_Tmap_traits@IPAUpatch_scrap@@U?$less@I@std@@V?$allocator@U?$pair@$$CBIPAUpatch_scrap@@@std@@@3@$0A@@std@@@0@IPAU120@@Z ENDP ; std::_Allocate<std::_Tree_nod<std::_Tmap_traits<unsigned int,patch_scrap *,std::less<unsigned int>,std::allocator<std::pair<unsigned int const ,patch_scrap *> >,0> >::_Node>
; Function compile flags: /Ogsy
_TEXT	ENDS
;	COMDAT ??$?0U?$pair@$$CBIPAUpatch_scrap@@@std@@@?$allocator@U_Node@?$_Tree_nod@V?$_Tmap_traits@IPAUpatch_scrap@@U?$less@I@std@@V?$allocator@U?$pair@$$CBIPAUpatch_scrap@@@std@@@3@$0A@@std@@@std@@@std@@QAE@ABV?$allocator@U?$pair@$$CBIPAUpatch_scrap@@@std@@@1@@Z
_TEXT	SEGMENT
??$?0U?$pair@$$CBIPAUpatch_scrap@@@std@@@?$allocator@U_Node@?$_Tree_nod@V?$_Tmap_traits@IPAUpatch_scrap@@U?$less@I@std@@V?$allocator@U?$pair@$$CBIPAUpatch_scrap@@@std@@@3@$0A@@std@@@std@@@std@@QAE@ABV?$allocator@U?$pair@$$CBIPAUpatch_scrap@@@std@@@1@@Z PROC NEAR ; std::allocator<std::_Tree_nod<std::_Tmap_traits<unsigned int,patch_scrap *,std::less<unsigned int>,std::allocator<std::pair<unsigned int const ,patch_scrap *> >,0> >::_Node>::allocator<std::_Tree_nod<std::_Tmap_traits<unsigned int,patch_scrap *,std::less<unsigned int>,std::allocator<std::pair<unsigned int const ,patch_scrap *> >,0> >::_Node><std::pair<unsigned int const ,patch_scrap *> >, COMDAT
; _this$ = eax

; 121  : 		{	// construct from a related allocator (do nothing)
; 122  : 		}

  00000	c3		 ret	 0
??$?0U?$pair@$$CBIPAUpatch_scrap@@@std@@@?$allocator@U_Node@?$_Tree_nod@V?$_Tmap_traits@IPAUpatch_scrap@@U?$less@I@std@@V?$allocator@U?$pair@$$CBIPAUpatch_scrap@@@std@@@3@$0A@@std@@@std@@@std@@QAE@ABV?$allocator@U?$pair@$$CBIPAUpatch_scrap@@@std@@@1@@Z ENDP ; std::allocator<std::_Tree_nod<std::_Tmap_traits<unsigned int,patch_scrap *,std::less<unsigned int>,std::allocator<std::pair<unsigned int const ,patch_scrap *> >,0> >::_Node>::allocator<std::_Tree_nod<std::_Tmap_traits<unsigned int,patch_scrap *,std::less<unsigned int>,std::allocator<std::pair<unsigned int const ,patch_scrap *> >,0> >::_Node><std::pair<unsigned int const ,patch_scrap *> >
; Function compile flags: /Ogsy
_TEXT	ENDS
;	COMDAT ??$?0U?$pair@$$CBIPAUpatch_scrap@@@std@@@?$allocator@PAU_Node@?$_Tree_nod@V?$_Tmap_traits@IPAUpatch_scrap@@U?$less@I@std@@V?$allocator@U?$pair@$$CBIPAUpatch_scrap@@@std@@@3@$0A@@std@@@std@@@std@@QAE@ABV?$allocator@U?$pair@$$CBIPAUpatch_scrap@@@std@@@1@@Z
_TEXT	SEGMENT
??$?0U?$pair@$$CBIPAUpatch_scrap@@@std@@@?$allocator@PAU_Node@?$_Tree_nod@V?$_Tmap_traits@IPAUpatch_scrap@@U?$less@I@std@@V?$allocator@U?$pair@$$CBIPAUpatch_scrap@@@std@@@3@$0A@@std@@@std@@@std@@QAE@ABV?$allocator@U?$pair@$$CBIPAUpatch_scrap@@@std@@@1@@Z PROC NEAR ; std::allocator<std::_Tree_nod<std::_Tmap_traits<unsigned int,patch_scrap *,std::less<unsigned int>,std::allocator<std::pair<unsigned int const ,patch_scrap *> >,0> >::_Node *>::allocator<std::_Tree_nod<std::_Tmap_traits<unsigned int,patch_scrap *,std::less<unsigned int>,std::allocator<std::pair<unsigned int const ,patch_scrap *> >,0> >::_Node *><std::pair<unsigned int const ,patch_scrap *> >, COMDAT
; _this$ = eax

; 121  : 		{	// construct from a related allocator (do nothing)
; 122  : 		}

  00000	c3		 ret	 0
??$?0U?$pair@$$CBIPAUpatch_scrap@@@std@@@?$allocator@PAU_Node@?$_Tree_nod@V?$_Tmap_traits@IPAUpatch_scrap@@U?$less@I@std@@V?$allocator@U?$pair@$$CBIPAUpatch_scrap@@@std@@@3@$0A@@std@@@std@@@std@@QAE@ABV?$allocator@U?$pair@$$CBIPAUpatch_scrap@@@std@@@1@@Z ENDP ; std::allocator<std::_Tree_nod<std::_Tmap_traits<unsigned int,patch_scrap *,std::less<unsigned int>,std::allocator<std::pair<unsigned int const ,patch_scrap *> >,0> >::_Node *>::allocator<std::_Tree_nod<std::_Tmap_traits<unsigned int,patch_scrap *,std::less<unsigned int>,std::allocator<std::pair<unsigned int const ,patch_scrap *> >,0> >::_Node *><std::pair<unsigned int const ,patch_scrap *> >
; Function compile flags: /Ogsy
_TEXT	ENDS
;	COMDAT ??$_Destroy@PAU_Node@?$_Tree_nod@V?$_Tmap_traits@IPAUpatch_scrap@@U?$less@I@std@@V?$allocator@U?$pair@$$CBIPAUpatch_scrap@@@std@@@3@$0A@@std@@@std@@@std@@YAXPAPAU_Node@?$_Tree_nod@V?$_Tmap_traits@IPAUpatch_scrap@@U?$less@I@std@@V?$allocator@U?$pair@$$CBIPAUpatch_scrap@@@std@@@3@$0A@@std@@@0@@Z
_TEXT	SEGMENT
??$_Destroy@PAU_Node@?$_Tree_nod@V?$_Tmap_traits@IPAUpatch_scrap@@U?$less@I@std@@V?$allocator@U?$pair@$$CBIPAUpatch_scrap@@@std@@@3@$0A@@std@@@std@@@std@@YAXPAPAU_Node@?$_Tree_nod@V?$_Tmap_traits@IPAUpatch_scrap@@U?$less@I@std@@V?$allocator@U?$pair@$$CBIPAUpatch_scrap@@@std@@@3@$0A@@std@@@0@@Z PROC NEAR ; std::_Destroy<std::_Tree_nod<std::_Tmap_traits<unsigned int,patch_scrap *,std::less<unsigned int>,std::allocator<std::pair<unsigned int const ,patch_scrap *> >,0> >::_Node *>, COMDAT

; 49   : 	_DESTRUCTOR(_Ty, _Ptr);
; 50   : 	}

  00000	c3		 ret	 0
??$_Destroy@PAU_Node@?$_Tree_nod@V?$_Tmap_traits@IPAUpatch_scrap@@U?$less@I@std@@V?$allocator@U?$pair@$$CBIPAUpatch_scrap@@@std@@@3@$0A@@std@@@std@@@std@@YAXPAPAU_Node@?$_Tree_nod@V?$_Tmap_traits@IPAUpatch_scrap@@U?$less@I@std@@V?$allocator@U?$pair@$$CBIPAUpatch_scrap@@@std@@@3@$0A@@std@@@0@@Z ENDP ; std::_Destroy<std::_Tree_nod<std::_Tmap_traits<unsigned int,patch_scrap *,std::less<unsigned int>,std::allocator<std::pair<unsigned int const ,patch_scrap *> >,0> >::_Node *>
; Function compile flags: /Ogsy
_TEXT	ENDS
;	COMDAT ??$_Destroy@U_Node@?$_Tree_nod@V?$_Tmap_traits@IPAUpatch_scrap@@U?$less@I@std@@V?$allocator@U?$pair@$$CBIPAUpatch_scrap@@@std@@@3@$0A@@std@@@std@@@std@@YAXPAU_Node@?$_Tree_nod@V?$_Tmap_traits@IPAUpatch_scrap@@U?$less@I@std@@V?$allocator@U?$pair@$$CBIPAUpatch_scrap@@@std@@@3@$0A@@std@@@0@@Z
_TEXT	SEGMENT
??$_Destroy@U_Node@?$_Tree_nod@V?$_Tmap_traits@IPAUpatch_scrap@@U?$less@I@std@@V?$allocator@U?$pair@$$CBIPAUpatch_scrap@@@std@@@3@$0A@@std@@@std@@@std@@YAXPAU_Node@?$_Tree_nod@V?$_Tmap_traits@IPAUpatch_scrap@@U?$less@I@std@@V?$allocator@U?$pair@$$CBIPAUpatch_scrap@@@std@@@3@$0A@@std@@@0@@Z PROC NEAR ; std::_Destroy<std::_Tree_nod<std::_Tmap_traits<unsigned int,patch_scrap *,std::less<unsigned int>,std::allocator<std::pair<unsigned int const ,patch_scrap *> >,0> >::_Node>, COMDAT

; 49   : 	_DESTRUCTOR(_Ty, _Ptr);
; 50   : 	}

  00000	c3		 ret	 0
??$_Destroy@U_Node@?$_Tree_nod@V?$_Tmap_traits@IPAUpatch_scrap@@U?$less@I@std@@V?$allocator@U?$pair@$$CBIPAUpatch_scrap@@@std@@@3@$0A@@std@@@std@@@std@@YAXPAU_Node@?$_Tree_nod@V?$_Tmap_traits@IPAUpatch_scrap@@U?$less@I@std@@V?$allocator@U?$pair@$$CBIPAUpatch_scrap@@@std@@@3@$0A@@std@@@0@@Z ENDP ; std::_Destroy<std::_Tree_nod<std::_Tmap_traits<unsigned int,patch_scrap *,std::less<unsigned int>,std::allocator<std::pair<unsigned int const ,patch_scrap *> >,0> >::_Node>
; Function compile flags: /Ogsy
; File c:\program files (x86)\microsoft visual studio .net 2003\vc7\include\map
_TEXT	ENDS
;	COMDAT ??0?$_Tmap_traits@IPAUpatch_scrap@@U?$less@I@std@@V?$allocator@U?$pair@$$CBIPAUpatch_scrap@@@std@@@3@$0A@@std@@QAE@U?$less@I@1@@Z
_TEXT	SEGMENT
__Parg$ = 8						; size = 1
??0?$_Tmap_traits@IPAUpatch_scrap@@U?$less@I@std@@V?$allocator@U?$pair@$$CBIPAUpatch_scrap@@@std@@@3@$0A@@std@@QAE@U?$less@I@1@@Z PROC NEAR ; std::_Tmap_traits<unsigned int,patch_scrap *,std::less<unsigned int>,std::allocator<std::pair<unsigned int const ,patch_scrap *> >,0>::_Tmap_traits<unsigned int,patch_scrap *,std::less<unsigned int>,std::allocator<std::pair<unsigned int const ,patch_scrap *> >,0>, COMDAT
; _this$ = eax

; 39   : 		}

  00000	c2 04 00	 ret	 4
??0?$_Tmap_traits@IPAUpatch_scrap@@U?$less@I@std@@V?$allocator@U?$pair@$$CBIPAUpatch_scrap@@@std@@@3@$0A@@std@@QAE@U?$less@I@1@@Z ENDP ; std::_Tmap_traits<unsigned int,patch_scrap *,std::less<unsigned int>,std::allocator<std::pair<unsigned int const ,patch_scrap *> >,0>::_Tmap_traits<unsigned int,patch_scrap *,std::less<unsigned int>,std::allocator<std::pair<unsigned int const ,patch_scrap *> >,0>
; Function compile flags: /Ogsy
; File c:\program files (x86)\microsoft visual studio .net 2003\vc7\include\xtree
_TEXT	ENDS
;	COMDAT ??0_Node@?$_Tree_nod@V?$_Tmap_traits@IPAUpatch_scrap@@U?$less@I@std@@V?$allocator@U?$pair@$$CBIPAUpatch_scrap@@@std@@@3@$0A@@std@@@std@@QAE@PAU012@00ABU?$pair@$$CBIPAUpatch_scrap@@@2@D@Z
_TEXT	SEGMENT
__Parg$ = 8						; size = 4
__Rarg$ = 12						; size = 4
__Carg$ = 16						; size = 1
??0_Node@?$_Tree_nod@V?$_Tmap_traits@IPAUpatch_scrap@@U?$less@I@std@@V?$allocator@U?$pair@$$CBIPAUpatch_scrap@@@std@@@3@$0A@@std@@@std@@QAE@PAU012@00ABU?$pair@$$CBIPAUpatch_scrap@@@2@D@Z PROC NEAR ; std::_Tree_nod<std::_Tmap_traits<unsigned int,patch_scrap *,std::less<unsigned int>,std::allocator<std::pair<unsigned int const ,patch_scrap *> >,0> >::_Node::_Node, COMDAT
; _this$ = eax
; __Larg$ = edx
; __Val$ = ecx

; 40   : 			{	// construct a node with value

  00000	89 10		 mov	 DWORD PTR [eax], edx
  00002	8b 54 24 04	 mov	 edx, DWORD PTR __Parg$[esp-4]
  00006	89 50 04	 mov	 DWORD PTR [eax+4], edx
  00009	8b 54 24 08	 mov	 edx, DWORD PTR __Rarg$[esp-4]
  0000d	89 50 08	 mov	 DWORD PTR [eax+8], edx
  00010	8b 11		 mov	 edx, DWORD PTR [ecx]
  00012	89 50 0c	 mov	 DWORD PTR [eax+12], edx
  00015	8b 49 04	 mov	 ecx, DWORD PTR [ecx+4]
  00018	89 48 10	 mov	 DWORD PTR [eax+16], ecx
  0001b	8a 4c 24 0c	 mov	 cl, BYTE PTR __Carg$[esp-4]
  0001f	88 48 14	 mov	 BYTE PTR [eax+20], cl
  00022	c6 40 15 00	 mov	 BYTE PTR [eax+21], 0

; 41   : 			}

  00026	c2 0c 00	 ret	 12			; 0000000cH
??0_Node@?$_Tree_nod@V?$_Tmap_traits@IPAUpatch_scrap@@U?$less@I@std@@V?$allocator@U?$pair@$$CBIPAUpatch_scrap@@@std@@@3@$0A@@std@@@std@@QAE@PAU012@00ABU?$pair@$$CBIPAUpatch_scrap@@@2@D@Z ENDP ; std::_Tree_nod<std::_Tmap_traits<unsigned int,patch_scrap *,std::less<unsigned int>,std::allocator<std::pair<unsigned int const ,patch_scrap *> >,0> >::_Node::_Node
; Function compile flags: /Ogsy
; File c:\program files (x86)\microsoft visual studio .net 2003\vc7\include\xmemory
_TEXT	ENDS
;	COMDAT ?allocate@?$allocator@U_Node@?$_Tree_nod@V?$_Tmap_traits@IPAUpatch_scrap@@U?$less@I@std@@V?$allocator@U?$pair@$$CBIPAUpatch_scrap@@@std@@@3@$0A@@std@@@std@@@std@@QAEPAU_Node@?$_Tree_nod@V?$_Tmap_traits@IPAUpatch_scrap@@U?$less@I@std@@V?$allocator@U?$pair@$$CBIPAUpatch_scrap@@@std@@@3@$0A@@std@@@2@I@Z
_TEXT	SEGMENT
?allocate@?$allocator@U_Node@?$_Tree_nod@V?$_Tmap_traits@IPAUpatch_scrap@@U?$less@I@std@@V?$allocator@U?$pair@$$CBIPAUpatch_scrap@@@std@@@3@$0A@@std@@@std@@@std@@QAEPAU_Node@?$_Tree_nod@V?$_Tmap_traits@IPAUpatch_scrap@@U?$less@I@std@@V?$allocator@U?$pair@$$CBIPAUpatch_scrap@@@std@@@3@$0A@@std@@@2@I@Z PROC NEAR ; std::allocator<std::_Tree_nod<std::_Tmap_traits<unsigned int,patch_scrap *,std::less<unsigned int>,std::allocator<std::pair<unsigned int const ,patch_scrap *> >,0> >::_Node>::allocate, COMDAT
; __Count$ = eax

; 137  : 		return (_Allocate(_Count, (pointer)0));

  00000	8d 04 40	 lea	 eax, DWORD PTR [eax+eax*2]
  00003	c1 e0 03	 shl	 eax, 3
  00006	50		 push	 eax
  00007	e8 00 00 00 00	 call	 ??2@YAPAXI@Z		; operator new
  0000c	59		 pop	 ecx

; 138  : 		}

  0000d	c3		 ret	 0
?allocate@?$allocator@U_Node@?$_Tree_nod@V?$_Tmap_traits@IPAUpatch_scrap@@U?$less@I@std@@V?$allocator@U?$pair@$$CBIPAUpatch_scrap@@@std@@@3@$0A@@std@@@std@@@std@@QAEPAU_Node@?$_Tree_nod@V?$_Tmap_traits@IPAUpatch_scrap@@U?$less@I@std@@V?$allocator@U?$pair@$$CBIPAUpatch_scrap@@@std@@@3@$0A@@std@@@2@I@Z ENDP ; std::allocator<std::_Tree_nod<std::_Tmap_traits<unsigned int,patch_scrap *,std::less<unsigned int>,std::allocator<std::pair<unsigned int const ,patch_scrap *> >,0> >::_Node>::allocate
; Function compile flags: /Ogsy
_TEXT	ENDS
;	COMDAT ?max_size@?$allocator@U?$pair@$$CBIPAUpatch_scrap@@@std@@@std@@QBEIXZ
_TEXT	SEGMENT
?max_size@?$allocator@U?$pair@$$CBIPAUpatch_scrap@@@std@@@std@@QBEIXZ PROC NEAR ; std::allocator<std::pair<unsigned int const ,patch_scrap *> >::max_size, COMDAT

; 157  : 		_SIZT _Count = (_SIZT)(-1) / sizeof (_Ty);
; 158  : 		return (0 < _Count ? _Count : 1);

  00000	b8 ff ff ff 1f	 mov	 eax, 536870911		; 1fffffffH

; 159  : 		}

  00005	c3		 ret	 0
?max_size@?$allocator@U?$pair@$$CBIPAUpatch_scrap@@@std@@@std@@QBEIXZ ENDP ; std::allocator<std::pair<unsigned int const ,patch_scrap *> >::max_size
; Function compile flags: /Ogsy
; File c:\program files (x86)\microsoft visual studio .net 2003\vc7\include\xtree
_TEXT	ENDS
;	COMDAT ??0?$_Tree_nod@V?$_Tmap_traits@IPAUpatch_scrap@@U?$less@I@std@@V?$allocator@U?$pair@$$CBIPAUpatch_scrap@@@std@@@3@$0A@@std@@@std@@IAE@ABU?$less@I@1@V?$allocator@U?$pair@$$CBIPAUpatch_scrap@@@std@@@1@@Z
_TEXT	SEGMENT
__Al$ = 8						; size = 1
??0?$_Tree_nod@V?$_Tmap_traits@IPAUpatch_scrap@@U?$less@I@std@@V?$allocator@U?$pair@$$CBIPAUpatch_scrap@@@std@@@3@$0A@@std@@@std@@IAE@ABU?$less@I@1@V?$allocator@U?$pair@$$CBIPAUpatch_scrap@@@std@@@1@@Z PROC NEAR ; std::_Tree_nod<std::_Tmap_traits<unsigned int,patch_scrap *,std::less<unsigned int>,std::allocator<std::pair<unsigned int const ,patch_scrap *> >,0> >::_Tree_nod<std::_Tmap_traits<unsigned int,patch_scrap *,std::less<unsigned int>,std::allocator<std::pair<unsigned int const ,patch_scrap *> >,0> >, COMDAT
; _this$ = eax

; 55   : 		}

  00000	c2 04 00	 ret	 4
??0?$_Tree_nod@V?$_Tmap_traits@IPAUpatch_scrap@@U?$less@I@std@@V?$allocator@U?$pair@$$CBIPAUpatch_scrap@@@std@@@3@$0A@@std@@@std@@IAE@ABU?$less@I@1@V?$allocator@U?$pair@$$CBIPAUpatch_scrap@@@std@@@1@@Z ENDP ; std::_Tree_nod<std::_Tmap_traits<unsigned int,patch_scrap *,std::less<unsigned int>,std::allocator<std::pair<unsigned int const ,patch_scrap *> >,0> >::_Tree_nod<std::_Tmap_traits<unsigned int,patch_scrap *,std::less<unsigned int>,std::allocator<std::pair<unsigned int const ,patch_scrap *> >,0> >
; Function compile flags: /Ogsy
; File c:\program files (x86)\microsoft visual studio .net 2003\vc7\include\utility
_TEXT	ENDS
;	COMDAT ??0?$pair@Viterator@?$_Tree@V?$_Tmap_traits@IPAUpatch_scrap@@U?$less@I@std@@V?$allocator@U?$pair@$$CBIPAUpatch_scrap@@@std@@@3@$0A@@std@@@std@@_N@std@@QAE@ABViterator@?$_Tree@V?$_Tmap_traits@IPAUpatch_scrap@@U?$less@I@std@@V?$allocator@U?$pair@$$CBIPAUpatch_scrap@@@std@@@3@$0A@@std@@@1@AB_N@Z
_TEXT	SEGMENT
__Val2$ = 8						; size = 4
??0?$pair@Viterator@?$_Tree@V?$_Tmap_traits@IPAUpatch_scrap@@U?$less@I@std@@V?$allocator@U?$pair@$$CBIPAUpatch_scrap@@@std@@@3@$0A@@std@@@std@@_N@std@@QAE@ABViterator@?$_Tree@V?$_Tmap_traits@IPAUpatch_scrap@@U?$less@I@std@@V?$allocator@U?$pair@$$CBIPAUpatch_scrap@@@std@@@3@$0A@@std@@@1@AB_N@Z PROC NEAR ; std::pair<std::_Tree<std::_Tmap_traits<unsigned int,patch_scrap *,std::less<unsigned int>,std::allocator<std::pair<unsigned int const ,patch_scrap *> >,0> >::iterator,bool>::pair<std::_Tree<std::_Tmap_traits<unsigned int,patch_scrap *,std::less<unsigned int>,std::allocator<std::pair<unsigned int const ,patch_scrap *> >,0> >::iterator,bool>, COMDAT
; _this$ = eax
; __Val1$ = ecx

; 34   : 		{	// construct from specified values

  00000	8b 09		 mov	 ecx, DWORD PTR [ecx]
  00002	89 08		 mov	 DWORD PTR [eax], ecx
  00004	8b 4c 24 04	 mov	 ecx, DWORD PTR __Val2$[esp-4]
  00008	8a 09		 mov	 cl, BYTE PTR [ecx]
  0000a	88 48 04	 mov	 BYTE PTR [eax+4], cl

; 35   : 		}

  0000d	c2 04 00	 ret	 4
??0?$pair@Viterator@?$_Tree@V?$_Tmap_traits@IPAUpatch_scrap@@U?$less@I@std@@V?$allocator@U?$pair@$$CBIPAUpatch_scrap@@@std@@@3@$0A@@std@@@std@@_N@std@@QAE@ABViterator@?$_Tree@V?$_Tmap_traits@IPAUpatch_scrap@@U?$less@I@std@@V?$allocator@U?$pair@$$CBIPAUpatch_scrap@@@std@@@3@$0A@@std@@@1@AB_N@Z ENDP ; std::pair<std::_Tree<std::_Tmap_traits<unsigned int,patch_scrap *,std::less<unsigned int>,std::allocator<std::pair<unsigned int const ,patch_scrap *> >,0> >::iterator,bool>::pair<std::_Tree<std::_Tmap_traits<unsigned int,patch_scrap *,std::less<unsigned int>,std::allocator<std::pair<unsigned int const ,patch_scrap *> >,0> >::iterator,bool>
; Function compile flags: /Ogsy
; File c:\program files (x86)\microsoft visual studio .net 2003\vc7\include\xtree
_TEXT	ENDS
;	COMDAT ?max_size@?$_Tree@V?$_Tmap_traits@IPAUpatch_scrap@@U?$less@I@std@@V?$allocator@U?$pair@$$CBIPAUpatch_scrap@@@std@@@3@$0A@@std@@@std@@QBEIXZ
_TEXT	SEGMENT
?max_size@?$_Tree@V?$_Tmap_traits@IPAUpatch_scrap@@U?$less@I@std@@V?$allocator@U?$pair@$$CBIPAUpatch_scrap@@@std@@@3@$0A@@std@@@std@@QBEIXZ PROC NEAR ; std::_Tree<std::_Tmap_traits<unsigned int,patch_scrap *,std::less<unsigned int>,std::allocator<std::pair<unsigned int const ,patch_scrap *> >,0> >::max_size, COMDAT

; 453  : 		return (this->_Alval.max_size());

  00000	b8 ff ff ff 1f	 mov	 eax, 536870911		; 1fffffffH

; 454  : 		}

  00005	c3		 ret	 0
?max_size@?$_Tree@V?$_Tmap_traits@IPAUpatch_scrap@@U?$less@I@std@@V?$allocator@U?$pair@$$CBIPAUpatch_scrap@@@std@@@3@$0A@@std@@@std@@QBEIXZ ENDP ; std::_Tree<std::_Tmap_traits<unsigned int,patch_scrap *,std::less<unsigned int>,std::allocator<std::pair<unsigned int const ,patch_scrap *> >,0> >::max_size
; Function compile flags: /Ogsy
_TEXT	ENDS
;	COMDAT ?_Color@?$_Tree@V?$_Tmap_traits@IPAUpatch_scrap@@U?$less@I@std@@V?$allocator@U?$pair@$$CBIPAUpatch_scrap@@@std@@@3@$0A@@std@@@std@@KAAADPAU_Node@?$_Tree_nod@V?$_Tmap_traits@IPAUpatch_scrap@@U?$less@I@std@@V?$allocator@U?$pair@$$CBIPAUpatch_scrap@@@std@@@3@$0A@@std@@@2@@Z
_TEXT	SEGMENT
?_Color@?$_Tree@V?$_Tmap_traits@IPAUpatch_scrap@@U?$less@I@std@@V?$allocator@U?$pair@$$CBIPAUpatch_scrap@@@std@@@3@$0A@@std@@@std@@KAAADPAU_Node@?$_Tree_nod@V?$_Tmap_traits@IPAUpatch_scrap@@U?$less@I@std@@V?$allocator@U?$pair@$$CBIPAUpatch_scrap@@@std@@@3@$0A@@std@@@2@@Z PROC NEAR ; std::_Tree<std::_Tmap_traits<unsigned int,patch_scrap *,std::less<unsigned int>,std::allocator<std::pair<unsigned int const ,patch_scrap *> >,0> >::_Color, COMDAT
; __Pnode$ = eax

; 132  : 		return ((_Charref)(*_Pnode)._Color);

  00000	83 c0 14	 add	 eax, 20			; 00000014H

; 133  : 		}

  00003	c3		 ret	 0
?_Color@?$_Tree@V?$_Tmap_traits@IPAUpatch_scrap@@U?$less@I@std@@V?$allocator@U?$pair@$$CBIPAUpatch_scrap@@@std@@@3@$0A@@std@@@std@@KAAADPAU_Node@?$_Tree_nod@V?$_Tmap_traits@IPAUpatch_scrap@@U?$less@I@std@@V?$allocator@U?$pair@$$CBIPAUpatch_scrap@@@std@@@3@$0A@@std@@@2@@Z ENDP ; std::_Tree<std::_Tmap_traits<unsigned int,patch_scrap *,std::less<unsigned int>,std::allocator<std::pair<unsigned int const ,patch_scrap *> >,0> >::_Color
; Function compile flags: /Ogsy
; File c:\program files (x86)\microsoft visual studio .net 2003\vc7\include\utility
_TEXT	ENDS
;	COMDAT ??0?$pair@Vconst_iterator@?$_Tree@V?$_Tmap_traits@IPAUpatch_scrap@@U?$less@I@std@@V?$allocator@U?$pair@$$CBIPAUpatch_scrap@@@std@@@3@$0A@@std@@@std@@V123@@std@@QAE@ABVconst_iterator@?$_Tree@V?$_Tmap_traits@IPAUpatch_scrap@@U?$less@I@std@@V?$allocator@U?$pair@$$CBIPAUpatch_scrap@@@std@@@3@$0A@@std@@@1@0@Z
_TEXT	SEGMENT
__Val2$ = 8						; size = 4
??0?$pair@Vconst_iterator@?$_Tree@V?$_Tmap_traits@IPAUpatch_scrap@@U?$less@I@std@@V?$allocator@U?$pair@$$CBIPAUpatch_scrap@@@std@@@3@$0A@@std@@@std@@V123@@std@@QAE@ABVconst_iterator@?$_Tree@V?$_Tmap_traits@IPAUpatch_scrap@@U?$less@I@std@@V?$allocator@U?$pair@$$CBIPAUpatch_scrap@@@std@@@3@$0A@@std@@@1@0@Z PROC NEAR ; std::pair<std::_Tree<std::_Tmap_traits<unsigned int,patch_scrap *,std::less<unsigned int>,std::allocator<std::pair<unsigned int const ,patch_scrap *> >,0> >::const_iterator,std::_Tree<std::_Tmap_traits<unsigned int,patch_scrap *,std::less<unsigned int>,std::allocator<std::pair<unsigned int const ,patch_scrap *> >,0> >::const_iterator>::pair<std::_Tree<std::_Tmap_traits<unsigned int,patch_scrap *,std::less<unsigned int>,std::allocator<std::pair<unsigned int const ,patch_scrap *> >,0> >::const_iterator,std::_Tree<std::_Tmap_traits<unsigned int,patch_scrap *,std::less<unsigned int>,std::allocator<std::pair<unsigned int const ,patch_scrap *> >,0> >::const_iterator>, COMDAT
; _this$ = eax
; __Val1$ = ecx

; 34   : 		{	// construct from specified values

  00000	8b 09		 mov	 ecx, DWORD PTR [ecx]
  00002	89 08		 mov	 DWORD PTR [eax], ecx
  00004	8b 4c 24 04	 mov	 ecx, DWORD PTR __Val2$[esp-4]
  00008	8b 09		 mov	 ecx, DWORD PTR [ecx]
  0000a	89 48 04	 mov	 DWORD PTR [eax+4], ecx

; 35   : 		}

  0000d	c2 04 00	 ret	 4
??0?$pair@Vconst_iterator@?$_Tree@V?$_Tmap_traits@IPAUpatch_scrap@@U?$less@I@std@@V?$allocator@U?$pair@$$CBIPAUpatch_scrap@@@std@@@3@$0A@@std@@@std@@V123@@std@@QAE@ABVconst_iterator@?$_Tree@V?$_Tmap_traits@IPAUpatch_scrap@@U?$less@I@std@@V?$allocator@U?$pair@$$CBIPAUpatch_scrap@@@std@@@3@$0A@@std@@@1@0@Z ENDP ; std::pair<std::_Tree<std::_Tmap_traits<unsigned int,patch_scrap *,std::less<unsigned int>,std::allocator<std::pair<unsigned int const ,patch_scrap *> >,0> >::const_iterator,std::_Tree<std::_Tmap_traits<unsigned int,patch_scrap *,std::less<unsigned int>,std::allocator<std::pair<unsigned int const ,patch_scrap *> >,0> >::const_iterator>::pair<std::_Tree<std::_Tmap_traits<unsigned int,patch_scrap *,std::less<unsigned int>,std::allocator<std::pair<unsigned int const ,patch_scrap *> >,0> >::const_iterator,std::_Tree<std::_Tmap_traits<unsigned int,patch_scrap *,std::less<unsigned int>,std::allocator<std::pair<unsigned int const ,patch_scrap *> >,0> >::const_iterator>
; Function compile flags: /Ogsy
; File c:\program files (x86)\microsoft visual studio .net 2003\vc7\include\xtree
_TEXT	ENDS
;	COMDAT ??0const_iterator@?$_Tree@V?$_Tmap_traits@IPAUpatch_scrap@@U?$less@I@std@@V?$allocator@U?$pair@$$CBIPAUpatch_scrap@@@std@@@3@$0A@@std@@@std@@QAE@PAU_Node@?$_Tree_nod@V?$_Tmap_traits@IPAUpatch_scrap@@U?$less@I@std@@V?$allocator@U?$pair@$$CBIPAUpatch_scrap@@@std@@@3@$0A@@std@@@2@@Z
_TEXT	SEGMENT
??0const_iterator@?$_Tree@V?$_Tmap_traits@IPAUpatch_scrap@@U?$less@I@std@@V?$allocator@U?$pair@$$CBIPAUpatch_scrap@@@std@@@3@$0A@@std@@@std@@QAE@PAU_Node@?$_Tree_nod@V?$_Tmap_traits@IPAUpatch_scrap@@U?$less@I@std@@V?$allocator@U?$pair@$$CBIPAUpatch_scrap@@@std@@@3@$0A@@std@@@2@@Z PROC NEAR ; std::_Tree<std::_Tmap_traits<unsigned int,patch_scrap *,std::less<unsigned int>,std::allocator<std::pair<unsigned int const ,patch_scrap *> >,0> >::const_iterator::const_iterator, COMDAT
; _this$ = eax
; __Pnode$ = ecx

; 200  : 			{	// construct with node pointer _Pnode

  00000	89 08		 mov	 DWORD PTR [eax], ecx

; 201  : 			}

  00002	c3		 ret	 0
??0const_iterator@?$_Tree@V?$_Tmap_traits@IPAUpatch_scrap@@U?$less@I@std@@V?$allocator@U?$pair@$$CBIPAUpatch_scrap@@@std@@@3@$0A@@std@@@std@@QAE@PAU_Node@?$_Tree_nod@V?$_Tmap_traits@IPAUpatch_scrap@@U?$less@I@std@@V?$allocator@U?$pair@$$CBIPAUpatch_scrap@@@std@@@3@$0A@@std@@@2@@Z ENDP ; std::_Tree<std::_Tmap_traits<unsigned int,patch_scrap *,std::less<unsigned int>,std::allocator<std::pair<unsigned int const ,patch_scrap *> >,0> >::const_iterator::const_iterator
; Function compile flags: /Ogsy
; File c:\program files (x86)\microsoft visual studio .net 2003\vc7\include\xmemory
_TEXT	ENDS
;	COMDAT ?destroy@?$allocator@PAU_Node@?$_Tree_nod@V?$_Tmap_traits@IPAUpatch_scrap@@U?$less@I@std@@V?$allocator@U?$pair@$$CBIPAUpatch_scrap@@@std@@@3@$0A@@std@@@std@@@std@@QAEXPAPAU_Node@?$_Tree_nod@V?$_Tmap_traits@IPAUpatch_scrap@@U?$less@I@std@@V?$allocator@U?$pair@$$CBIPAUpatch_scrap@@@std@@@3@$0A@@std@@@2@@Z
_TEXT	SEGMENT
?destroy@?$allocator@PAU_Node@?$_Tree_nod@V?$_Tmap_traits@IPAUpatch_scrap@@U?$less@I@std@@V?$allocator@U?$pair@$$CBIPAUpatch_scrap@@@std@@@3@$0A@@std@@@std@@@std@@QAEXPAPAU_Node@?$_Tree_nod@V?$_Tmap_traits@IPAUpatch_scrap@@U?$less@I@std@@V?$allocator@U?$pair@$$CBIPAUpatch_scrap@@@std@@@3@$0A@@std@@@2@@Z PROC NEAR ; std::allocator<std::_Tree_nod<std::_Tmap_traits<unsigned int,patch_scrap *,std::less<unsigned int>,std::allocator<std::pair<unsigned int const ,patch_scrap *> >,0> >::_Node *>::destroy, COMDAT

; 152  : 		_Destroy(_Ptr);
; 153  : 		}

  00000	c3		 ret	 0
?destroy@?$allocator@PAU_Node@?$_Tree_nod@V?$_Tmap_traits@IPAUpatch_scrap@@U?$less@I@std@@V?$allocator@U?$pair@$$CBIPAUpatch_scrap@@@std@@@3@$0A@@std@@@std@@@std@@QAEXPAPAU_Node@?$_Tree_nod@V?$_Tmap_traits@IPAUpatch_scrap@@U?$less@I@std@@V?$allocator@U?$pair@$$CBIPAUpatch_scrap@@@std@@@3@$0A@@std@@@2@@Z ENDP ; std::allocator<std::_Tree_nod<std::_Tmap_traits<unsigned int,patch_scrap *,std::less<unsigned int>,std::allocator<std::pair<unsigned int const ,patch_scrap *> >,0> >::_Node *>::destroy
; Function compile flags: /Ogsy
_TEXT	ENDS
;	COMDAT ?destroy@?$allocator@U_Node@?$_Tree_nod@V?$_Tmap_traits@IPAUpatch_scrap@@U?$less@I@std@@V?$allocator@U?$pair@$$CBIPAUpatch_scrap@@@std@@@3@$0A@@std@@@std@@@std@@QAEXPAU_Node@?$_Tree_nod@V?$_Tmap_traits@IPAUpatch_scrap@@U?$less@I@std@@V?$allocator@U?$pair@$$CBIPAUpatch_scrap@@@std@@@3@$0A@@std@@@2@@Z
_TEXT	SEGMENT
?destroy@?$allocator@U_Node@?$_Tree_nod@V?$_Tmap_traits@IPAUpatch_scrap@@U?$less@I@std@@V?$allocator@U?$pair@$$CBIPAUpatch_scrap@@@std@@@3@$0A@@std@@@std@@@std@@QAEXPAU_Node@?$_Tree_nod@V?$_Tmap_traits@IPAUpatch_scrap@@U?$less@I@std@@V?$allocator@U?$pair@$$CBIPAUpatch_scrap@@@std@@@3@$0A@@std@@@2@@Z PROC NEAR ; std::allocator<std::_Tree_nod<std::_Tmap_traits<unsigned int,patch_scrap *,std::less<unsigned int>,std::allocator<std::pair<unsigned int const ,patch_scrap *> >,0> >::_Node>::destroy, COMDAT

; 152  : 		_Destroy(_Ptr);
; 153  : 		}

  00000	c3		 ret	 0
?destroy@?$allocator@U_Node@?$_Tree_nod@V?$_Tmap_traits@IPAUpatch_scrap@@U?$less@I@std@@V?$allocator@U?$pair@$$CBIPAUpatch_scrap@@@std@@@3@$0A@@std@@@std@@@std@@QAEXPAU_Node@?$_Tree_nod@V?$_Tmap_traits@IPAUpatch_scrap@@U?$less@I@std@@V?$allocator@U?$pair@$$CBIPAUpatch_scrap@@@std@@@3@$0A@@std@@@2@@Z ENDP ; std::allocator<std::_Tree_nod<std::_Tmap_traits<unsigned int,patch_scrap *,std::less<unsigned int>,std::allocator<std::pair<unsigned int const ,patch_scrap *> >,0> >::_Node>::destroy
; Function compile flags: /Ogsy
_TEXT	ENDS
;	COMDAT ?deallocate@?$allocator@U_Node@?$_Tree_nod@V?$_Tmap_traits@IPAUpatch_scrap@@U?$less@I@std@@V?$allocator@U?$pair@$$CBIPAUpatch_scrap@@@std@@@3@$0A@@std@@@std@@@std@@QAEXPAU_Node@?$_Tree_nod@V?$_Tmap_traits@IPAUpatch_scrap@@U?$less@I@std@@V?$allocator@U?$pair@$$CBIPAUpatch_scrap@@@std@@@3@$0A@@std@@@2@I@Z
_TEXT	SEGMENT
__Ptr$ = 8						; size = 4
?deallocate@?$allocator@U_Node@?$_Tree_nod@V?$_Tmap_traits@IPAUpatch_scrap@@U?$less@I@std@@V?$allocator@U?$pair@$$CBIPAUpatch_scrap@@@std@@@3@$0A@@std@@@std@@@std@@QAEXPAU_Node@?$_Tree_nod@V?$_Tmap_traits@IPAUpatch_scrap@@U?$less@I@std@@V?$allocator@U?$pair@$$CBIPAUpatch_scrap@@@std@@@3@$0A@@std@@@2@I@Z PROC NEAR ; std::allocator<std::_Tree_nod<std::_Tmap_traits<unsigned int,patch_scrap *,std::less<unsigned int>,std::allocator<std::pair<unsigned int const ,patch_scrap *> >,0> >::_Node>::deallocate, COMDAT

; 132  : 		operator delete(_Ptr);

  00000	ff 74 24 04	 push	 DWORD PTR __Ptr$[esp-4]
  00004	e8 00 00 00 00	 call	 ??3@YAXPAX@Z		; operator delete
  00009	59		 pop	 ecx

; 133  : 		}

  0000a	c2 04 00	 ret	 4
?deallocate@?$allocator@U_Node@?$_Tree_nod@V?$_Tmap_traits@IPAUpatch_scrap@@U?$less@I@std@@V?$allocator@U?$pair@$$CBIPAUpatch_scrap@@@std@@@3@$0A@@std@@@std@@@std@@QAEXPAU_Node@?$_Tree_nod@V?$_Tmap_traits@IPAUpatch_scrap@@U?$less@I@std@@V?$allocator@U?$pair@$$CBIPAUpatch_scrap@@@std@@@3@$0A@@std@@@2@I@Z ENDP ; std::allocator<std::_Tree_nod<std::_Tmap_traits<unsigned int,patch_scrap *,std::less<unsigned int>,std::allocator<std::pair<unsigned int const ,patch_scrap *> >,0> >::_Node>::deallocate
; Function compile flags: /Ogsy
_TEXT	ENDS
;	COMDAT ??0?$allocator@U?$pair@$$CBIPAUpatch_scrap@@@std@@@std@@QAE@ABV01@@Z
_TEXT	SEGMENT
??0?$allocator@U?$pair@$$CBIPAUpatch_scrap@@@std@@@std@@QAE@ABV01@@Z PROC NEAR ; std::allocator<std::pair<unsigned int const ,patch_scrap *> >::allocator<std::pair<unsigned int const ,patch_scrap *> >, COMDAT
; _this$ = eax

; 116  : 		{	// construct by copying (do nothing)
; 117  : 		}

  00000	c3		 ret	 0
??0?$allocator@U?$pair@$$CBIPAUpatch_scrap@@@std@@@std@@QAE@ABV01@@Z ENDP ; std::allocator<std::pair<unsigned int const ,patch_scrap *> >::allocator<std::pair<unsigned int const ,patch_scrap *> >
; Function compile flags: /Ogsy
; File c:\program files (x86)\microsoft visual studio .net 2003\vc7\include\map
_TEXT	ENDS
;	COMDAT ?_Kfn@?$_Tmap_traits@IPAUpatch_scrap@@U?$less@I@std@@V?$allocator@U?$pair@$$CBIPAUpatch_scrap@@@std@@@3@$0A@@std@@SAABIABU?$pair@$$CBIPAUpatch_scrap@@@2@@Z
_TEXT	SEGMENT
?_Kfn@?$_Tmap_traits@IPAUpatch_scrap@@U?$less@I@std@@V?$allocator@U?$pair@$$CBIPAUpatch_scrap@@@std@@@3@$0A@@std@@SAABIABU?$pair@$$CBIPAUpatch_scrap@@@2@@Z PROC NEAR ; std::_Tmap_traits<unsigned int,patch_scrap *,std::less<unsigned int>,std::allocator<std::pair<unsigned int const ,patch_scrap *> >,0>::_Kfn, COMDAT
; __Val$ = eax

; 64   : 		return (_Val.first);
; 65   : 		}

  00000	c3		 ret	 0
?_Kfn@?$_Tmap_traits@IPAUpatch_scrap@@U?$less@I@std@@V?$allocator@U?$pair@$$CBIPAUpatch_scrap@@@std@@@3@$0A@@std@@SAABIABU?$pair@$$CBIPAUpatch_scrap@@@2@@Z ENDP ; std::_Tmap_traits<unsigned int,patch_scrap *,std::less<unsigned int>,std::allocator<std::pair<unsigned int const ,patch_scrap *> >,0>::_Kfn
; Function compile flags: /Ogsy
; File c:\program files (x86)\microsoft visual studio .net 2003\vc7\include\xtree
_TEXT	ENDS
;	COMDAT ?_Myval@?$_Tree@V?$_Tmap_traits@IPAUpatch_scrap@@U?$less@I@std@@V?$allocator@U?$pair@$$CBIPAUpatch_scrap@@@std@@@3@$0A@@std@@@std@@KAAAU?$pair@$$CBIPAUpatch_scrap@@@2@PAU_Node@?$_Tree_nod@V?$_Tmap_traits@IPAUpatch_scrap@@U?$less@I@std@@V?$allocator@U?$pair@$$CBIPAUpatch_scrap@@@std@@@3@$0A@@std@@@2@@Z
_TEXT	SEGMENT
?_Myval@?$_Tree@V?$_Tmap_traits@IPAUpatch_scrap@@U?$less@I@std@@V?$allocator@U?$pair@$$CBIPAUpatch_scrap@@@std@@@3@$0A@@std@@@std@@KAAAU?$pair@$$CBIPAUpatch_scrap@@@2@PAU_Node@?$_Tree_nod@V?$_Tmap_traits@IPAUpatch_scrap@@U?$less@I@std@@V?$allocator@U?$pair@$$CBIPAUpatch_scrap@@@std@@@3@$0A@@std@@@2@@Z PROC NEAR ; std::_Tree<std::_Tmap_traits<unsigned int,patch_scrap *,std::less<unsigned int>,std::allocator<std::pair<unsigned int const ,patch_scrap *> >,0> >::_Myval, COMDAT
; __Pnode$ = eax

; 162  : 		return ((_Vref)(*_Pnode)._Myval);

  00000	83 c0 0c	 add	 eax, 12			; 0000000cH

; 163  : 		}

  00003	c3		 ret	 0
?_Myval@?$_Tree@V?$_Tmap_traits@IPAUpatch_scrap@@U?$less@I@std@@V?$allocator@U?$pair@$$CBIPAUpatch_scrap@@@std@@@3@$0A@@std@@@std@@KAAAU?$pair@$$CBIPAUpatch_scrap@@@2@PAU_Node@?$_Tree_nod@V?$_Tmap_traits@IPAUpatch_scrap@@U?$less@I@std@@V?$allocator@U?$pair@$$CBIPAUpatch_scrap@@@std@@@3@$0A@@std@@@2@@Z ENDP ; std::_Tree<std::_Tmap_traits<unsigned int,patch_scrap *,std::less<unsigned int>,std::allocator<std::pair<unsigned int const ,patch_scrap *> >,0> >::_Myval
; Function compile flags: /Ogsy
_TEXT	ENDS
;	COMDAT ?_Right@?$_Tree@V?$_Tmap_traits@IPAUpatch_scrap@@U?$less@I@std@@V?$allocator@U?$pair@$$CBIPAUpatch_scrap@@@std@@@3@$0A@@std@@@std@@KAAAPAU_Node@?$_Tree_nod@V?$_Tmap_traits@IPAUpatch_scrap@@U?$less@I@std@@V?$allocator@U?$pair@$$CBIPAUpatch_scrap@@@std@@@3@$0A@@std@@@2@PAU342@@Z
_TEXT	SEGMENT
?_Right@?$_Tree@V?$_Tmap_traits@IPAUpatch_scrap@@U?$less@I@std@@V?$allocator@U?$pair@$$CBIPAUpatch_scrap@@@std@@@3@$0A@@std@@@std@@KAAAPAU_Node@?$_Tree_nod@V?$_Tmap_traits@IPAUpatch_scrap@@U?$less@I@std@@V?$allocator@U?$pair@$$CBIPAUpatch_scrap@@@std@@@3@$0A@@std@@@2@PAU342@@Z PROC NEAR ; std::_Tree<std::_Tmap_traits<unsigned int,patch_scrap *,std::less<unsigned int>,std::allocator<std::pair<unsigned int const ,patch_scrap *> >,0> >::_Right, COMDAT
; __Pnode$ = eax

; 157  : 		return ((_Nodepref)(*_Pnode)._Right);

  00000	83 c0 08	 add	 eax, 8

; 158  : 		}

  00003	c3		 ret	 0
?_Right@?$_Tree@V?$_Tmap_traits@IPAUpatch_scrap@@U?$less@I@std@@V?$allocator@U?$pair@$$CBIPAUpatch_scrap@@@std@@@3@$0A@@std@@@std@@KAAAPAU_Node@?$_Tree_nod@V?$_Tmap_traits@IPAUpatch_scrap@@U?$less@I@std@@V?$allocator@U?$pair@$$CBIPAUpatch_scrap@@@std@@@3@$0A@@std@@@2@PAU342@@Z ENDP ; std::_Tree<std::_Tmap_traits<unsigned int,patch_scrap *,std::less<unsigned int>,std::allocator<std::pair<unsigned int const ,patch_scrap *> >,0> >::_Right
; Function compile flags: /Ogsy
_TEXT	ENDS
;	COMDAT ?_Parent@?$_Tree@V?$_Tmap_traits@IPAUpatch_scrap@@U?$less@I@std@@V?$allocator@U?$pair@$$CBIPAUpatch_scrap@@@std@@@3@$0A@@std@@@std@@KAAAPAU_Node@?$_Tree_nod@V?$_Tmap_traits@IPAUpatch_scrap@@U?$less@I@std@@V?$allocator@U?$pair@$$CBIPAUpatch_scrap@@@std@@@3@$0A@@std@@@2@PAU342@@Z
_TEXT	SEGMENT
?_Parent@?$_Tree@V?$_Tmap_traits@IPAUpatch_scrap@@U?$less@I@std@@V?$allocator@U?$pair@$$CBIPAUpatch_scrap@@@std@@@3@$0A@@std@@@std@@KAAAPAU_Node@?$_Tree_nod@V?$_Tmap_traits@IPAUpatch_scrap@@U?$less@I@std@@V?$allocator@U?$pair@$$CBIPAUpatch_scrap@@@std@@@3@$0A@@std@@@2@PAU342@@Z PROC NEAR ; std::_Tree<std::_Tmap_traits<unsigned int,patch_scrap *,std::less<unsigned int>,std::allocator<std::pair<unsigned int const ,patch_scrap *> >,0> >::_Parent, COMDAT
; __Pnode$ = eax

; 152  : 		return ((_Nodepref)(*_Pnode)._Parent);

  00000	83 c0 04	 add	 eax, 4

; 153  : 		}

  00003	c3		 ret	 0
?_Parent@?$_Tree@V?$_Tmap_traits@IPAUpatch_scrap@@U?$less@I@std@@V?$allocator@U?$pair@$$CBIPAUpatch_scrap@@@std@@@3@$0A@@std@@@std@@KAAAPAU_Node@?$_Tree_nod@V?$_Tmap_traits@IPAUpatch_scrap@@U?$less@I@std@@V?$allocator@U?$pair@$$CBIPAUpatch_scrap@@@std@@@3@$0A@@std@@@2@PAU342@@Z ENDP ; std::_Tree<std::_Tmap_traits<unsigned int,patch_scrap *,std::less<unsigned int>,std::allocator<std::pair<unsigned int const ,patch_scrap *> >,0> >::_Parent
; Function compile flags: /Ogsy
_TEXT	ENDS
;	COMDAT ?_Left@?$_Tree@V?$_Tmap_traits@IPAUpatch_scrap@@U?$less@I@std@@V?$allocator@U?$pair@$$CBIPAUpatch_scrap@@@std@@@3@$0A@@std@@@std@@KAAAPAU_Node@?$_Tree_nod@V?$_Tmap_traits@IPAUpatch_scrap@@U?$less@I@std@@V?$allocator@U?$pair@$$CBIPAUpatch_scrap@@@std@@@3@$0A@@std@@@2@PAU342@@Z
_TEXT	SEGMENT
?_Left@?$_Tree@V?$_Tmap_traits@IPAUpatch_scrap@@U?$less@I@std@@V?$allocator@U?$pair@$$CBIPAUpatch_scrap@@@std@@@3@$0A@@std@@@std@@KAAAPAU_Node@?$_Tree_nod@V?$_Tmap_traits@IPAUpatch_scrap@@U?$less@I@std@@V?$allocator@U?$pair@$$CBIPAUpatch_scrap@@@std@@@3@$0A@@std@@@2@PAU342@@Z PROC NEAR ; std::_Tree<std::_Tmap_traits<unsigned int,patch_scrap *,std::less<unsigned int>,std::allocator<std::pair<unsigned int const ,patch_scrap *> >,0> >::_Left, COMDAT
; __Pnode$ = eax

; 147  : 		return ((_Nodepref)(*_Pnode)._Left);
; 148  : 		}

  00000	c3		 ret	 0
?_Left@?$_Tree@V?$_Tmap_traits@IPAUpatch_scrap@@U?$less@I@std@@V?$allocator@U?$pair@$$CBIPAUpatch_scrap@@@std@@@3@$0A@@std@@@std@@KAAAPAU_Node@?$_Tree_nod@V?$_Tmap_traits@IPAUpatch_scrap@@U?$less@I@std@@V?$allocator@U?$pair@$$CBIPAUpatch_scrap@@@std@@@3@$0A@@std@@@2@PAU342@@Z ENDP ; std::_Tree<std::_Tmap_traits<unsigned int,patch_scrap *,std::less<unsigned int>,std::allocator<std::pair<unsigned int const ,patch_scrap *> >,0> >::_Left
; Function compile flags: /Ogsy
_TEXT	ENDS
;	COMDAT ?_Isnil@?$_Tree@V?$_Tmap_traits@IPAUpatch_scrap@@U?$less@I@std@@V?$allocator@U?$pair@$$CBIPAUpatch_scrap@@@std@@@3@$0A@@std@@@std@@KAAADPAU_Node@?$_Tree_nod@V?$_Tmap_traits@IPAUpatch_scrap@@U?$less@I@std@@V?$allocator@U?$pair@$$CBIPAUpatch_scrap@@@std@@@3@$0A@@std@@@2@@Z
_TEXT	SEGMENT
?_Isnil@?$_Tree@V?$_Tmap_traits@IPAUpatch_scrap@@U?$less@I@std@@V?$allocator@U?$pair@$$CBIPAUpatch_scrap@@@std@@@3@$0A@@std@@@std@@KAAADPAU_Node@?$_Tree_nod@V?$_Tmap_traits@IPAUpatch_scrap@@U?$less@I@std@@V?$allocator@U?$pair@$$CBIPAUpatch_scrap@@@std@@@3@$0A@@std@@@2@@Z PROC NEAR ; std::_Tree<std::_Tmap_traits<unsigned int,patch_scrap *,std::less<unsigned int>,std::allocator<std::pair<unsigned int const ,patch_scrap *> >,0> >::_Isnil, COMDAT
; __Pnode$ = eax

; 137  : 		return ((_Charref)(*_Pnode)._Isnil);

  00000	83 c0 15	 add	 eax, 21			; 00000015H

; 138  : 		}

  00003	c3		 ret	 0
?_Isnil@?$_Tree@V?$_Tmap_traits@IPAUpatch_scrap@@U?$less@I@std@@V?$allocator@U?$pair@$$CBIPAUpatch_scrap@@@std@@@3@$0A@@std@@@std@@KAAADPAU_Node@?$_Tree_nod@V?$_Tmap_traits@IPAUpatch_scrap@@U?$less@I@std@@V?$allocator@U?$pair@$$CBIPAUpatch_scrap@@@std@@@3@$0A@@std@@@2@@Z ENDP ; std::_Tree<std::_Tmap_traits<unsigned int,patch_scrap *,std::less<unsigned int>,std::allocator<std::pair<unsigned int const ,patch_scrap *> >,0> >::_Isnil
; Function compile flags: /Ogsy
; File c:\program files (x86)\microsoft visual studio .net 2003\vc7\include\xlocnum
_TEXT	ENDS
;	COMDAT ?put@?$num_put@DV?$ostreambuf_iterator@DU?$char_traits@D@std@@@std@@@std@@QBE?AV?$ostreambuf_iterator@DU?$char_traits@D@std@@@2@V32@AAVios_base@2@D_N@Z
_TEXT	SEGMENT
___$ReturnUdt$ = 8					; size = 4
__Dest$ = 12						; size = 8
__Iosbase$ = 20						; size = 4
__Fill$ = 24						; size = 1
__Val$ = 28						; size = 1
?put@?$num_put@DV?$ostreambuf_iterator@DU?$char_traits@D@std@@@std@@@std@@QBE?AV?$ostreambuf_iterator@DU?$char_traits@D@std@@@2@V32@AAVios_base@2@D_N@Z PROC NEAR ; std::num_put<char,std::ostreambuf_iterator<char,std::char_traits<char> > >::put, COMDAT
; _this$ = ecx

; 830  : 		{	// put formatted bool to _Dest

  00000	55		 push	 ebp
  00001	8b ec		 mov	 ebp, esp

; 831  : 		return (do_put(_Dest, _Iosbase, _Fill, _Val));

  00003	ff 75 1c	 push	 DWORD PTR __Val$[ebp]
  00006	8b 01		 mov	 eax, DWORD PTR [ecx]
  00008	ff 75 18	 push	 DWORD PTR __Fill$[ebp]
  0000b	ff 75 14	 push	 DWORD PTR __Iosbase$[ebp]
  0000e	ff 75 10	 push	 DWORD PTR __Dest$[ebp+4]
  00011	ff 75 0c	 push	 DWORD PTR __Dest$[ebp]
  00014	ff 75 08	 push	 DWORD PTR ___$ReturnUdt$[ebp]
  00017	ff 50 20	 call	 DWORD PTR [eax+32]
  0001a	8b 45 08	 mov	 eax, DWORD PTR ___$ReturnUdt$[ebp]

; 832  : 		}

  0001d	5d		 pop	 ebp
  0001e	c2 18 00	 ret	 24			; 00000018H
?put@?$num_put@DV?$ostreambuf_iterator@DU?$char_traits@D@std@@@std@@@std@@QBE?AV?$ostreambuf_iterator@DU?$char_traits@D@std@@@2@V32@AAVios_base@2@D_N@Z ENDP ; std::num_put<char,std::ostreambuf_iterator<char,std::char_traits<char> > >::put
; Function compile flags: /Ogsy
; File c:\program files (x86)\microsoft visual studio .net 2003\vc7\include\utility
_TEXT	ENDS
;	COMDAT ??0?$pair@$$CBIPAUpatch_scrap@@@std@@QAE@ABIABQAUpatch_scrap@@@Z
_TEXT	SEGMENT
__Val2$ = 8						; size = 4
??0?$pair@$$CBIPAUpatch_scrap@@@std@@QAE@ABIABQAUpatch_scrap@@@Z PROC NEAR ; std::pair<unsigned int const ,patch_scrap *>::pair<unsigned int const ,patch_scrap *>, COMDAT
; _this$ = eax
; __Val1$ = ecx

; 34   : 		{	// construct from specified values

  00000	8b 09		 mov	 ecx, DWORD PTR [ecx]
  00002	89 08		 mov	 DWORD PTR [eax], ecx
  00004	8b 4c 24 04	 mov	 ecx, DWORD PTR __Val2$[esp-4]
  00008	8b 09		 mov	 ecx, DWORD PTR [ecx]
  0000a	89 48 04	 mov	 DWORD PTR [eax+4], ecx

; 35   : 		}

  0000d	c2 04 00	 ret	 4
??0?$pair@$$CBIPAUpatch_scrap@@@std@@QAE@ABIABQAUpatch_scrap@@@Z ENDP ; std::pair<unsigned int const ,patch_scrap *>::pair<unsigned int const ,patch_scrap *>
; Function compile flags: /Ogsy
; File c:\program files (x86)\microsoft visual studio .net 2003\vc7\include\xtree
_TEXT	ENDS
;	COMDAT ?_Mynode@const_iterator@?$_Tree@V?$_Tmap_traits@IPAUpatch_scrap@@U?$less@I@std@@V?$allocator@U?$pair@$$CBIPAUpatch_scrap@@@std@@@3@$0A@@std@@@std@@QBEPAU_Node@?$_Tree_nod@V?$_Tmap_traits@IPAUpatch_scrap@@U?$less@I@std@@V?$allocator@U?$pair@$$CBIPAUpatch_scrap@@@std@@@3@$0A@@std@@@3@XZ
_TEXT	SEGMENT
?_Mynode@const_iterator@?$_Tree@V?$_Tmap_traits@IPAUpatch_scrap@@U?$less@I@std@@V?$allocator@U?$pair@$$CBIPAUpatch_scrap@@@std@@@3@$0A@@std@@@std@@QBEPAU_Node@?$_Tree_nod@V?$_Tmap_traits@IPAUpatch_scrap@@U?$less@I@std@@V?$allocator@U?$pair@$$CBIPAUpatch_scrap@@@std@@@3@$0A@@std@@@3@XZ PROC NEAR ; std::_Tree<std::_Tmap_traits<unsigned int,patch_scrap *,std::less<unsigned int>,std::allocator<std::pair<unsigned int const ,patch_scrap *> >,0> >::const_iterator::_Mynode, COMDAT
; _this$ = eax

; 284  : 			return (_Ptr);

  00000	8b 00		 mov	 eax, DWORD PTR [eax]

; 285  : 			}

  00002	c3		 ret	 0
?_Mynode@const_iterator@?$_Tree@V?$_Tmap_traits@IPAUpatch_scrap@@U?$less@I@std@@V?$allocator@U?$pair@$$CBIPAUpatch_scrap@@@std@@@3@$0A@@std@@@std@@QBEPAU_Node@?$_Tree_nod@V?$_Tmap_traits@IPAUpatch_scrap@@U?$less@I@std@@V?$allocator@U?$pair@$$CBIPAUpatch_scrap@@@std@@@3@$0A@@std@@@3@XZ ENDP ; std::_Tree<std::_Tmap_traits<unsigned int,patch_scrap *,std::less<unsigned int>,std::allocator<std::pair<unsigned int const ,patch_scrap *> >,0> >::const_iterator::_Mynode
; Function compile flags: /Ogsy
_TEXT	ENDS
;	COMDAT ??8const_iterator@?$_Tree@V?$_Tmap_traits@IPAUpatch_scrap@@U?$less@I@std@@V?$allocator@U?$pair@$$CBIPAUpatch_scrap@@@std@@@3@$0A@@std@@@std@@QBE_NABV012@@Z
_TEXT	SEGMENT
??8const_iterator@?$_Tree@V?$_Tmap_traits@IPAUpatch_scrap@@U?$less@I@std@@V?$allocator@U?$pair@$$CBIPAUpatch_scrap@@@std@@@3@$0A@@std@@@std@@QBE_NABV012@@Z PROC NEAR ; std::_Tree<std::_Tmap_traits<unsigned int,patch_scrap *,std::less<unsigned int>,std::allocator<std::pair<unsigned int const ,patch_scrap *> >,0> >::const_iterator::operator==, COMDAT
; _this$ = eax
; __Right$ = ecx

; 241  : 			return (_Ptr == _Right._Ptr);

  00000	8b 00		 mov	 eax, DWORD PTR [eax]
  00002	2b 01		 sub	 eax, DWORD PTR [ecx]
  00004	f7 d8		 neg	 eax
  00006	1b c0		 sbb	 eax, eax
  00008	40		 inc	 eax

; 242  : 			}

  00009	c3		 ret	 0
??8const_iterator@?$_Tree@V?$_Tmap_traits@IPAUpatch_scrap@@U?$less@I@std@@V?$allocator@U?$pair@$$CBIPAUpatch_scrap@@@std@@@3@$0A@@std@@@std@@QBE_NABV012@@Z ENDP ; std::_Tree<std::_Tmap_traits<unsigned int,patch_scrap *,std::less<unsigned int>,std::allocator<std::pair<unsigned int const ,patch_scrap *> >,0> >::const_iterator::operator==
; Function compile flags: /Ogsy
_TEXT	ENDS
;	COMDAT ??0const_iterator@?$_Tree@V?$_Tmap_traits@IPAUpatch_scrap@@U?$less@I@std@@V?$allocator@U?$pair@$$CBIPAUpatch_scrap@@@std@@@3@$0A@@std@@@std@@QAE@XZ
_TEXT	SEGMENT
??0const_iterator@?$_Tree@V?$_Tmap_traits@IPAUpatch_scrap@@U?$less@I@std@@V?$allocator@U?$pair@$$CBIPAUpatch_scrap@@@std@@@3@$0A@@std@@@std@@QAE@XZ PROC NEAR ; std::_Tree<std::_Tmap_traits<unsigned int,patch_scrap *,std::less<unsigned int>,std::allocator<std::pair<unsigned int const ,patch_scrap *> >,0> >::const_iterator::const_iterator, COMDAT
; _this$ = eax

; 193  : 			{	// construct with null node pointer

  00000	83 20 00	 and	 DWORD PTR [eax], 0

; 194  : 			}

  00003	c3		 ret	 0
??0const_iterator@?$_Tree@V?$_Tmap_traits@IPAUpatch_scrap@@U?$less@I@std@@V?$allocator@U?$pair@$$CBIPAUpatch_scrap@@@std@@@3@$0A@@std@@@std@@QAE@XZ ENDP ; std::_Tree<std::_Tmap_traits<unsigned int,patch_scrap *,std::less<unsigned int>,std::allocator<std::pair<unsigned int const ,patch_scrap *> >,0> >::const_iterator::const_iterator
; Function compile flags: /Ogsy
_TEXT	ENDS
;	COMDAT ??0iterator@?$_Tree@V?$_Tmap_traits@IPAUpatch_scrap@@U?$less@I@std@@V?$allocator@U?$pair@$$CBIPAUpatch_scrap@@@std@@@3@$0A@@std@@@std@@QAE@PAU_Node@?$_Tree_nod@V?$_Tmap_traits@IPAUpatch_scrap@@U?$less@I@std@@V?$allocator@U?$pair@$$CBIPAUpatch_scrap@@@std@@@3@$0A@@std@@@2@@Z
_TEXT	SEGMENT
??0iterator@?$_Tree@V?$_Tmap_traits@IPAUpatch_scrap@@U?$less@I@std@@V?$allocator@U?$pair@$$CBIPAUpatch_scrap@@@std@@@3@$0A@@std@@@std@@QAE@PAU_Node@?$_Tree_nod@V?$_Tmap_traits@IPAUpatch_scrap@@U?$less@I@std@@V?$allocator@U?$pair@$$CBIPAUpatch_scrap@@@std@@@3@$0A@@std@@@2@@Z PROC NEAR ; std::_Tree<std::_Tmap_traits<unsigned int,patch_scrap *,std::less<unsigned int>,std::allocator<std::pair<unsigned int const ,patch_scrap *> >,0> >::iterator::iterator, COMDAT
; _this$ = eax
; __Pnode$ = ecx

; 312  : 			{	// construct with node pointer _Pnode

  00000	89 08		 mov	 DWORD PTR [eax], ecx

; 313  : 			}

  00002	c3		 ret	 0
??0iterator@?$_Tree@V?$_Tmap_traits@IPAUpatch_scrap@@U?$less@I@std@@V?$allocator@U?$pair@$$CBIPAUpatch_scrap@@@std@@@3@$0A@@std@@@std@@QAE@PAU_Node@?$_Tree_nod@V?$_Tmap_traits@IPAUpatch_scrap@@U?$less@I@std@@V?$allocator@U?$pair@$$CBIPAUpatch_scrap@@@std@@@3@$0A@@std@@@2@@Z ENDP ; std::_Tree<std::_Tmap_traits<unsigned int,patch_scrap *,std::less<unsigned int>,std::allocator<std::pair<unsigned int const ,patch_scrap *> >,0> >::iterator::iterator
; Function compile flags: /Ogsy
; File c:\program files (x86)\microsoft visual studio .net 2003\vc7\include\functional
_TEXT	ENDS
;	COMDAT ??R?$less@I@std@@QBE_NABI0@Z
_TEXT	SEGMENT
??R?$less@I@std@@QBE_NABI0@Z PROC NEAR			; std::less<unsigned int>::operator(), COMDAT
; __Left$ = eax
; __Right$ = ecx

; 139  : 		return (_Left < _Right);

  00000	8b 00		 mov	 eax, DWORD PTR [eax]
  00002	3b 01		 cmp	 eax, DWORD PTR [ecx]
  00004	1b c0		 sbb	 eax, eax
  00006	f7 d8		 neg	 eax

; 140  : 		}

  00008	c3		 ret	 0
??R?$less@I@std@@QBE_NABI0@Z ENDP			; std::less<unsigned int>::operator()
; Function compile flags: /Ogsy
; File c:\program files (x86)\microsoft visual studio .net 2003\vc7\include\xmemory
_TEXT	ENDS
;	COMDAT ??0?$allocator@U?$pair@$$CBIPAUpatch_scrap@@@std@@@std@@QAE@XZ
_TEXT	SEGMENT
??0?$allocator@U?$pair@$$CBIPAUpatch_scrap@@@std@@@std@@QAE@XZ PROC NEAR ; std::allocator<std::pair<unsigned int const ,patch_scrap *> >::allocator<std::pair<unsigned int const ,patch_scrap *> >, COMDAT
; _this$ = eax

; 112  : 		{	// construct default allocator (do nothing)
; 113  : 		}

  00000	c3		 ret	 0
??0?$allocator@U?$pair@$$CBIPAUpatch_scrap@@@std@@@std@@QAE@XZ ENDP ; std::allocator<std::pair<unsigned int const ,patch_scrap *> >::allocator<std::pair<unsigned int const ,patch_scrap *> >
; Function compile flags: /Ogsy
; File c:\program files (x86)\microsoft visual studio .net 2003\vc7\include\xtree
_TEXT	ENDS
;	COMDAT ?_Root@?$_Tree@V?$_Tmap_traits@IPAUpatch_scrap@@U?$less@I@std@@V?$allocator@U?$pair@$$CBIPAUpatch_scrap@@@std@@@3@$0A@@std@@@std@@IAEAAPAU_Node@?$_Tree_nod@V?$_Tmap_traits@IPAUpatch_scrap@@U?$less@I@std@@V?$allocator@U?$pair@$$CBIPAUpatch_scrap@@@std@@@3@$0A@@std@@@2@XZ
_TEXT	SEGMENT
?_Root@?$_Tree@V?$_Tmap_traits@IPAUpatch_scrap@@U?$less@I@std@@V?$allocator@U?$pair@$$CBIPAUpatch_scrap@@@std@@@3@$0A@@std@@@std@@IAEAAPAU_Node@?$_Tree_nod@V?$_Tmap_traits@IPAUpatch_scrap@@U?$less@I@std@@V?$allocator@U?$pair@$$CBIPAUpatch_scrap@@@std@@@3@$0A@@std@@@2@XZ PROC NEAR ; std::_Tree<std::_Tmap_traits<unsigned int,patch_scrap *,std::less<unsigned int>,std::allocator<std::pair<unsigned int const ,patch_scrap *> >,0> >::_Root, COMDAT
; _this$ = eax

; 1059 : 		return (_Parent(_Myhead));

  00000	8b 40 04	 mov	 eax, DWORD PTR [eax+4]
  00003	83 c0 04	 add	 eax, 4

; 1060 : 		}

  00006	c3		 ret	 0
?_Root@?$_Tree@V?$_Tmap_traits@IPAUpatch_scrap@@U?$less@I@std@@V?$allocator@U?$pair@$$CBIPAUpatch_scrap@@@std@@@3@$0A@@std@@@std@@IAEAAPAU_Node@?$_Tree_nod@V?$_Tmap_traits@IPAUpatch_scrap@@U?$less@I@std@@V?$allocator@U?$pair@$$CBIPAUpatch_scrap@@@std@@@3@$0A@@std@@@2@XZ ENDP ; std::_Tree<std::_Tmap_traits<unsigned int,patch_scrap *,std::less<unsigned int>,std::allocator<std::pair<unsigned int const ,patch_scrap *> >,0> >::_Root
; Function compile flags: /Ogsy
_TEXT	ENDS
;	COMDAT ?_Rmost@?$_Tree@V?$_Tmap_traits@IPAUpatch_scrap@@U?$less@I@std@@V?$allocator@U?$pair@$$CBIPAUpatch_scrap@@@std@@@3@$0A@@std@@@std@@IAEAAPAU_Node@?$_Tree_nod@V?$_Tmap_traits@IPAUpatch_scrap@@U?$less@I@std@@V?$allocator@U?$pair@$$CBIPAUpatch_scrap@@@std@@@3@$0A@@std@@@2@XZ
_TEXT	SEGMENT
?_Rmost@?$_Tree@V?$_Tmap_traits@IPAUpatch_scrap@@U?$less@I@std@@V?$allocator@U?$pair@$$CBIPAUpatch_scrap@@@std@@@3@$0A@@std@@@std@@IAEAAPAU_Node@?$_Tree_nod@V?$_Tmap_traits@IPAUpatch_scrap@@U?$less@I@std@@V?$allocator@U?$pair@$$CBIPAUpatch_scrap@@@std@@@3@$0A@@std@@@2@XZ PROC NEAR ; std::_Tree<std::_Tmap_traits<unsigned int,patch_scrap *,std::less<unsigned int>,std::allocator<std::pair<unsigned int const ,patch_scrap *> >,0> >::_Rmost, COMDAT
; _this$ = eax

; 1049 : 		return (_Right(_Myhead));

  00000	8b 40 04	 mov	 eax, DWORD PTR [eax+4]
  00003	83 c0 08	 add	 eax, 8

; 1050 : 		}

  00006	c3		 ret	 0
?_Rmost@?$_Tree@V?$_Tmap_traits@IPAUpatch_scrap@@U?$less@I@std@@V?$allocator@U?$pair@$$CBIPAUpatch_scrap@@@std@@@3@$0A@@std@@@std@@IAEAAPAU_Node@?$_Tree_nod@V?$_Tmap_traits@IPAUpatch_scrap@@U?$less@I@std@@V?$allocator@U?$pair@$$CBIPAUpatch_scrap@@@std@@@3@$0A@@std@@@2@XZ ENDP ; std::_Tree<std::_Tmap_traits<unsigned int,patch_scrap *,std::less<unsigned int>,std::allocator<std::pair<unsigned int const ,patch_scrap *> >,0> >::_Rmost
; Function compile flags: /Ogsy
_TEXT	ENDS
;	COMDAT ?_Lmost@?$_Tree@V?$_Tmap_traits@IPAUpatch_scrap@@U?$less@I@std@@V?$allocator@U?$pair@$$CBIPAUpatch_scrap@@@std@@@3@$0A@@std@@@std@@IAEAAPAU_Node@?$_Tree_nod@V?$_Tmap_traits@IPAUpatch_scrap@@U?$less@I@std@@V?$allocator@U?$pair@$$CBIPAUpatch_scrap@@@std@@@3@$0A@@std@@@2@XZ
_TEXT	SEGMENT
?_Lmost@?$_Tree@V?$_Tmap_traits@IPAUpatch_scrap@@U?$less@I@std@@V?$allocator@U?$pair@$$CBIPAUpatch_scrap@@@std@@@3@$0A@@std@@@std@@IAEAAPAU_Node@?$_Tree_nod@V?$_Tmap_traits@IPAUpatch_scrap@@U?$less@I@std@@V?$allocator@U?$pair@$$CBIPAUpatch_scrap@@@std@@@3@$0A@@std@@@2@XZ PROC NEAR ; std::_Tree<std::_Tmap_traits<unsigned int,patch_scrap *,std::less<unsigned int>,std::allocator<std::pair<unsigned int const ,patch_scrap *> >,0> >::_Lmost, COMDAT
; _this$ = eax

; 1005 : 		return (_Left(_Myhead));

  00000	8b 40 04	 mov	 eax, DWORD PTR [eax+4]

; 1006 : 		}

  00003	c3		 ret	 0
?_Lmost@?$_Tree@V?$_Tmap_traits@IPAUpatch_scrap@@U?$less@I@std@@V?$allocator@U?$pair@$$CBIPAUpatch_scrap@@@std@@@3@$0A@@std@@@std@@IAEAAPAU_Node@?$_Tree_nod@V?$_Tmap_traits@IPAUpatch_scrap@@U?$less@I@std@@V?$allocator@U?$pair@$$CBIPAUpatch_scrap@@@std@@@3@$0A@@std@@@2@XZ ENDP ; std::_Tree<std::_Tmap_traits<unsigned int,patch_scrap *,std::less<unsigned int>,std::allocator<std::pair<unsigned int const ,patch_scrap *> >,0> >::_Lmost
; Function compile flags: /Ogsy
_TEXT	ENDS
;	COMDAT ?_Erase@?$_Tree@V?$_Tmap_traits@IPAUpatch_scrap@@U?$less@I@std@@V?$allocator@U?$pair@$$CBIPAUpatch_scrap@@@std@@@3@$0A@@std@@@std@@IAEXPAU_Node@?$_Tree_nod@V?$_Tmap_traits@IPAUpatch_scrap@@U?$less@I@std@@V?$allocator@U?$pair@$$CBIPAUpatch_scrap@@@std@@@3@$0A@@std@@@2@@Z
_TEXT	SEGMENT
__Rootnode$ = 8						; size = 4
?_Erase@?$_Tree@V?$_Tmap_traits@IPAUpatch_scrap@@U?$less@I@std@@V?$allocator@U?$pair@$$CBIPAUpatch_scrap@@@std@@@3@$0A@@std@@@std@@IAEXPAU_Node@?$_Tree_nod@V?$_Tmap_traits@IPAUpatch_scrap@@U?$less@I@std@@V?$allocator@U?$pair@$$CBIPAUpatch_scrap@@@std@@@3@$0A@@std@@@2@@Z PROC NEAR ; std::_Tree<std::_Tmap_traits<unsigned int,patch_scrap *,std::less<unsigned int>,std::allocator<std::pair<unsigned int const ,patch_scrap *> >,0> >::_Erase, COMDAT
; _this$ = ecx

; 890  : 		{	// free entire subtree, recursively

  00000	53		 push	 ebx
  00001	56		 push	 esi
  00002	57		 push	 edi

; 891  : 		for (_Nodeptr _Pnode = _Rootnode; !_Isnil(_Pnode); _Rootnode = _Pnode)

  00003	8b 7c 24 10	 mov	 edi, DWORD PTR __Rootnode$[esp+8]
  00007	80 7f 15 00	 cmp	 BYTE PTR [edi+21], 0
  0000b	8b d9		 mov	 ebx, ecx
  0000d	8b f7		 mov	 esi, edi
  0000f	75 1b		 jne	 SHORT $L24812
$L24810:

; 892  : 			{	// free subtrees, then node
; 893  : 			_Erase(_Right(_Pnode));

  00011	ff 76 08	 push	 DWORD PTR [esi+8]
  00014	8b cb		 mov	 ecx, ebx
  00016	e8 00 00 00 00	 call	 ?_Erase@?$_Tree@V?$_Tmap_traits@IPAUpatch_scrap@@U?$less@I@std@@V?$allocator@U?$pair@$$CBIPAUpatch_scrap@@@std@@@3@$0A@@std@@@std@@IAEXPAU_Node@?$_Tree_nod@V?$_Tmap_traits@IPAUpatch_scrap@@U?$less@I@std@@V?$allocator@U?$pair@$$CBIPAUpatch_scrap@@@std@@@3@$0A@@std@@@2@@Z ; std::_Tree<std::_Tmap_traits<unsigned int,patch_scrap *,std::less<unsigned int>,std::allocator<std::pair<unsigned int const ,patch_scrap *> >,0> >::_Erase

; 894  : 			_Pnode = _Left(_Pnode);

  0001b	8b 36		 mov	 esi, DWORD PTR [esi]

; 895  : 			this->_Alnod.destroy(_Rootnode);	// destroy, free erased node
; 896  : 			this->_Alnod.deallocate(_Rootnode, 1);

  0001d	57		 push	 edi
  0001e	e8 00 00 00 00	 call	 ??3@YAXPAX@Z		; operator delete
  00023	80 7e 15 00	 cmp	 BYTE PTR [esi+21], 0
  00027	59		 pop	 ecx
  00028	8b fe		 mov	 edi, esi
  0002a	74 e5		 je	 SHORT $L24810
$L24812:
  0002c	5f		 pop	 edi
  0002d	5e		 pop	 esi
  0002e	5b		 pop	 ebx

; 897  : 			}
; 898  : 		}

  0002f	c2 04 00	 ret	 4
?_Erase@?$_Tree@V?$_Tmap_traits@IPAUpatch_scrap@@U?$less@I@std@@V?$allocator@U?$pair@$$CBIPAUpatch_scrap@@@std@@@3@$0A@@std@@@std@@IAEXPAU_Node@?$_Tree_nod@V?$_Tmap_traits@IPAUpatch_scrap@@U?$less@I@std@@V?$allocator@U?$pair@$$CBIPAUpatch_scrap@@@std@@@3@$0A@@std@@@2@@Z ENDP ; std::_Tree<std::_Tmap_traits<unsigned int,patch_scrap *,std::less<unsigned int>,std::allocator<std::pair<unsigned int const ,patch_scrap *> >,0> >::_Erase
; Function compile flags: /Ogsy
_TEXT	ENDS
;	COMDAT ?size@?$_Tree@V?$_Tmap_traits@IPAUpatch_scrap@@U?$less@I@std@@V?$allocator@U?$pair@$$CBIPAUpatch_scrap@@@std@@@3@$0A@@std@@@std@@QBEIXZ
_TEXT	SEGMENT
?size@?$_Tree@V?$_Tmap_traits@IPAUpatch_scrap@@U?$less@I@std@@V?$allocator@U?$pair@$$CBIPAUpatch_scrap@@@std@@@3@$0A@@std@@@std@@QBEIXZ PROC NEAR ; std::_Tree<std::_Tmap_traits<unsigned int,patch_scrap *,std::less<unsigned int>,std::allocator<std::pair<unsigned int const ,patch_scrap *> >,0> >::size, COMDAT
; _this$ = eax

; 448  : 		return (_Mysize);

  00000	8b 40 08	 mov	 eax, DWORD PTR [eax+8]

; 449  : 		}

  00003	c3		 ret	 0
?size@?$_Tree@V?$_Tmap_traits@IPAUpatch_scrap@@U?$less@I@std@@V?$allocator@U?$pair@$$CBIPAUpatch_scrap@@@std@@@3@$0A@@std@@@std@@QBEIXZ ENDP ; std::_Tree<std::_Tmap_traits<unsigned int,patch_scrap *,std::less<unsigned int>,std::allocator<std::pair<unsigned int const ,patch_scrap *> >,0> >::size
; Function compile flags: /Ogsy
_TEXT	ENDS
;	COMDAT ?_Key@?$_Tree@V?$_Tmap_traits@IPAUpatch_scrap@@U?$less@I@std@@V?$allocator@U?$pair@$$CBIPAUpatch_scrap@@@std@@@3@$0A@@std@@@std@@KAABIPAU_Node@?$_Tree_nod@V?$_Tmap_traits@IPAUpatch_scrap@@U?$less@I@std@@V?$allocator@U?$pair@$$CBIPAUpatch_scrap@@@std@@@3@$0A@@std@@@2@@Z
_TEXT	SEGMENT
?_Key@?$_Tree@V?$_Tmap_traits@IPAUpatch_scrap@@U?$less@I@std@@V?$allocator@U?$pair@$$CBIPAUpatch_scrap@@@std@@@3@$0A@@std@@@std@@KAABIPAU_Node@?$_Tree_nod@V?$_Tmap_traits@IPAUpatch_scrap@@U?$less@I@std@@V?$allocator@U?$pair@$$CBIPAUpatch_scrap@@@std@@@3@$0A@@std@@@2@@Z PROC NEAR ; std::_Tree<std::_Tmap_traits<unsigned int,patch_scrap *,std::less<unsigned int>,std::allocator<std::pair<unsigned int const ,patch_scrap *> >,0> >::_Key, COMDAT
; __Pnode$ = eax

; 142  : 		return (_Mybase::_Kfn(_Myval(_Pnode)));

  00000	83 c0 0c	 add	 eax, 12			; 0000000cH

; 143  : 		}

  00003	c3		 ret	 0
?_Key@?$_Tree@V?$_Tmap_traits@IPAUpatch_scrap@@U?$less@I@std@@V?$allocator@U?$pair@$$CBIPAUpatch_scrap@@@std@@@3@$0A@@std@@@std@@KAABIPAU_Node@?$_Tree_nod@V?$_Tmap_traits@IPAUpatch_scrap@@U?$less@I@std@@V?$allocator@U?$pair@$$CBIPAUpatch_scrap@@@std@@@3@$0A@@std@@@2@@Z ENDP ; std::_Tree<std::_Tmap_traits<unsigned int,patch_scrap *,std::less<unsigned int>,std::allocator<std::pair<unsigned int const ,patch_scrap *> >,0> >::_Key
; Function compile flags: /Ogsy
_TEXT	ENDS
;	COMDAT ??9const_iterator@?$_Tree@V?$_Tmap_traits@IPAUpatch_scrap@@U?$less@I@std@@V?$allocator@U?$pair@$$CBIPAUpatch_scrap@@@std@@@3@$0A@@std@@@std@@QBE_NABV012@@Z
_TEXT	SEGMENT
??9const_iterator@?$_Tree@V?$_Tmap_traits@IPAUpatch_scrap@@U?$less@I@std@@V?$allocator@U?$pair@$$CBIPAUpatch_scrap@@@std@@@3@$0A@@std@@@std@@QBE_NABV012@@Z PROC NEAR ; std::_Tree<std::_Tmap_traits<unsigned int,patch_scrap *,std::less<unsigned int>,std::allocator<std::pair<unsigned int const ,patch_scrap *> >,0> >::const_iterator::operator!=, COMDAT
; _this$ = eax
; __Right$ = edx

; 246  : 			return (!(*this == _Right));

  00000	8b 00		 mov	 eax, DWORD PTR [eax]
  00002	33 c9		 xor	 ecx, ecx
  00004	3b 02		 cmp	 eax, DWORD PTR [edx]
  00006	0f 95 c1	 setne	 cl
  00009	8a c1		 mov	 al, cl

; 247  : 			}

  0000b	c3		 ret	 0
??9const_iterator@?$_Tree@V?$_Tmap_traits@IPAUpatch_scrap@@U?$less@I@std@@V?$allocator@U?$pair@$$CBIPAUpatch_scrap@@@std@@@3@$0A@@std@@@std@@QBE_NABV012@@Z ENDP ; std::_Tree<std::_Tmap_traits<unsigned int,patch_scrap *,std::less<unsigned int>,std::allocator<std::pair<unsigned int const ,patch_scrap *> >,0> >::const_iterator::operator!=
; Function compile flags: /Ogsy
_TEXT	ENDS
;	COMDAT ??0iterator@?$_Tree@V?$_Tmap_traits@IPAUpatch_scrap@@U?$less@I@std@@V?$allocator@U?$pair@$$CBIPAUpatch_scrap@@@std@@@3@$0A@@std@@@std@@QAE@XZ
_TEXT	SEGMENT
??0iterator@?$_Tree@V?$_Tmap_traits@IPAUpatch_scrap@@U?$less@I@std@@V?$allocator@U?$pair@$$CBIPAUpatch_scrap@@@std@@@3@$0A@@std@@@std@@QAE@XZ PROC NEAR ; std::_Tree<std::_Tmap_traits<unsigned int,patch_scrap *,std::less<unsigned int>,std::allocator<std::pair<unsigned int const ,patch_scrap *> >,0> >::iterator::iterator, COMDAT
; _this$ = eax

; 304  : 		iterator()

  00000	83 20 00	 and	 DWORD PTR [eax], 0

; 305  : 			{	// construct with null node pointer
; 306  : 			}

  00003	c3		 ret	 0
??0iterator@?$_Tree@V?$_Tmap_traits@IPAUpatch_scrap@@U?$less@I@std@@V?$allocator@U?$pair@$$CBIPAUpatch_scrap@@@std@@@3@$0A@@std@@@std@@QAE@XZ ENDP ; std::_Tree<std::_Tmap_traits<unsigned int,patch_scrap *,std::less<unsigned int>,std::allocator<std::pair<unsigned int const ,patch_scrap *> >,0> >::iterator::iterator
; Function compile flags: /Ogsy
_TEXT	ENDS
;	COMDAT ?clear@?$_Tree@V?$_Tmap_traits@IPAUpatch_scrap@@U?$less@I@std@@V?$allocator@U?$pair@$$CBIPAUpatch_scrap@@@std@@@3@$0A@@std@@@std@@QAEXXZ
_TEXT	SEGMENT
?clear@?$_Tree@V?$_Tmap_traits@IPAUpatch_scrap@@U?$less@I@std@@V?$allocator@U?$pair@$$CBIPAUpatch_scrap@@@std@@@3@$0A@@std@@@std@@QAEXXZ PROC NEAR ; std::_Tree<std::_Tmap_traits<unsigned int,patch_scrap *,std::less<unsigned int>,std::allocator<std::pair<unsigned int const ,patch_scrap *> >,0> >::clear, COMDAT
; _this$ = edi

; 780  : 		{	// erase all

  00000	56		 push	 esi

; 781  : 		_Erase(_Root());

  00001	8d 77 04	 lea	 esi, DWORD PTR [edi+4]
  00004	8b 06		 mov	 eax, DWORD PTR [esi]
  00006	ff 70 04	 push	 DWORD PTR [eax+4]
  00009	8b cf		 mov	 ecx, edi
  0000b	e8 00 00 00 00	 call	 ?_Erase@?$_Tree@V?$_Tmap_traits@IPAUpatch_scrap@@U?$less@I@std@@V?$allocator@U?$pair@$$CBIPAUpatch_scrap@@@std@@@3@$0A@@std@@@std@@IAEXPAU_Node@?$_Tree_nod@V?$_Tmap_traits@IPAUpatch_scrap@@U?$less@I@std@@V?$allocator@U?$pair@$$CBIPAUpatch_scrap@@@std@@@3@$0A@@std@@@2@@Z ; std::_Tree<std::_Tmap_traits<unsigned int,patch_scrap *,std::less<unsigned int>,std::allocator<std::pair<unsigned int const ,patch_scrap *> >,0> >::_Erase

; 782  : 		_Root() = _Myhead, _Mysize = 0;

  00010	8b 06		 mov	 eax, DWORD PTR [esi]
  00012	89 40 04	 mov	 DWORD PTR [eax+4], eax

; 783  : 		_Lmost() = _Myhead, _Rmost() = _Myhead;

  00015	8b 06		 mov	 eax, DWORD PTR [esi]
  00017	83 67 08 00	 and	 DWORD PTR [edi+8], 0
  0001b	89 00		 mov	 DWORD PTR [eax], eax
  0001d	8b 36		 mov	 esi, DWORD PTR [esi]
  0001f	89 76 08	 mov	 DWORD PTR [esi+8], esi
  00022	5e		 pop	 esi

; 784  : 		}

  00023	c3		 ret	 0
?clear@?$_Tree@V?$_Tmap_traits@IPAUpatch_scrap@@U?$less@I@std@@V?$allocator@U?$pair@$$CBIPAUpatch_scrap@@@std@@@3@$0A@@std@@@std@@QAEXXZ ENDP ; std::_Tree<std::_Tmap_traits<unsigned int,patch_scrap *,std::less<unsigned int>,std::allocator<std::pair<unsigned int const ,patch_scrap *> >,0> >::clear
; Function compile flags: /Ogsy
_TEXT	ENDS
;	COMDAT ?empty@?$_Tree@V?$_Tmap_traits@IPAUpatch_scrap@@U?$less@I@std@@V?$allocator@U?$pair@$$CBIPAUpatch_scrap@@@std@@@3@$0A@@std@@@std@@QBE_NXZ
_TEXT	SEGMENT
?empty@?$_Tree@V?$_Tmap_traits@IPAUpatch_scrap@@U?$less@I@std@@V?$allocator@U?$pair@$$CBIPAUpatch_scrap@@@std@@@3@$0A@@std@@@std@@QBE_NXZ PROC NEAR ; std::_Tree<std::_Tmap_traits<unsigned int,patch_scrap *,std::less<unsigned int>,std::allocator<std::pair<unsigned int const ,patch_scrap *> >,0> >::empty, COMDAT
; _this$ = ecx

; 458  : 		return (size() == 0);

  00000	33 c0		 xor	 eax, eax
  00002	39 41 08	 cmp	 DWORD PTR [ecx+8], eax
  00005	0f 94 c0	 sete	 al

; 459  : 		}

  00008	c3		 ret	 0
?empty@?$_Tree@V?$_Tmap_traits@IPAUpatch_scrap@@U?$less@I@std@@V?$allocator@U?$pair@$$CBIPAUpatch_scrap@@@std@@@3@$0A@@std@@@std@@QBE_NXZ ENDP ; std::_Tree<std::_Tmap_traits<unsigned int,patch_scrap *,std::less<unsigned int>,std::allocator<std::pair<unsigned int const ,patch_scrap *> >,0> >::empty
; Function compile flags: /Ogsy
_TEXT	ENDS
;	COMDAT ?end@?$_Tree@V?$_Tmap_traits@IPAUpatch_scrap@@U?$less@I@std@@V?$allocator@U?$pair@$$CBIPAUpatch_scrap@@@std@@@3@$0A@@std@@@std@@QAE?AViterator@12@XZ
_TEXT	SEGMENT
?end@?$_Tree@V?$_Tmap_traits@IPAUpatch_scrap@@U?$less@I@std@@V?$allocator@U?$pair@$$CBIPAUpatch_scrap@@@std@@@3@$0A@@std@@@std@@QAE?AViterator@12@XZ PROC NEAR ; std::_Tree<std::_Tmap_traits<unsigned int,patch_scrap *,std::less<unsigned int>,std::allocator<std::pair<unsigned int const ,patch_scrap *> >,0> >::end, COMDAT
; _this$ = ecx
; ___$ReturnUdt$ = eax

; 418  : 		return (_TREE_ITERATOR(_Myhead));

  00000	8b 49 04	 mov	 ecx, DWORD PTR [ecx+4]
  00003	89 08		 mov	 DWORD PTR [eax], ecx

; 419  : 		}

  00005	c3		 ret	 0
?end@?$_Tree@V?$_Tmap_traits@IPAUpatch_scrap@@U?$less@I@std@@V?$allocator@U?$pair@$$CBIPAUpatch_scrap@@@std@@@3@$0A@@std@@@std@@QAE?AViterator@12@XZ ENDP ; std::_Tree<std::_Tmap_traits<unsigned int,patch_scrap *,std::less<unsigned int>,std::allocator<std::pair<unsigned int const ,patch_scrap *> >,0> >::end
; Function compile flags: /Ogsy
_TEXT	ENDS
;	COMDAT ?begin@?$_Tree@V?$_Tmap_traits@IPAUpatch_scrap@@U?$less@I@std@@V?$allocator@U?$pair@$$CBIPAUpatch_scrap@@@std@@@3@$0A@@std@@@std@@QAE?AViterator@12@XZ
_TEXT	SEGMENT
?begin@?$_Tree@V?$_Tmap_traits@IPAUpatch_scrap@@U?$less@I@std@@V?$allocator@U?$pair@$$CBIPAUpatch_scrap@@@std@@@3@$0A@@std@@@std@@QAE?AViterator@12@XZ PROC NEAR ; std::_Tree<std::_Tmap_traits<unsigned int,patch_scrap *,std::less<unsigned int>,std::allocator<std::pair<unsigned int const ,patch_scrap *> >,0> >::begin, COMDAT
; _this$ = ecx
; ___$ReturnUdt$ = eax

; 408  : 		return (_TREE_ITERATOR(_Lmost()));

  00000	8b 49 04	 mov	 ecx, DWORD PTR [ecx+4]
  00003	8b 09		 mov	 ecx, DWORD PTR [ecx]
  00005	89 08		 mov	 DWORD PTR [eax], ecx

; 409  : 		}

  00007	c3		 ret	 0
?begin@?$_Tree@V?$_Tmap_traits@IPAUpatch_scrap@@U?$less@I@std@@V?$allocator@U?$pair@$$CBIPAUpatch_scrap@@@std@@@3@$0A@@std@@@std@@QAE?AViterator@12@XZ ENDP ; std::_Tree<std::_Tmap_traits<unsigned int,patch_scrap *,std::less<unsigned int>,std::allocator<std::pair<unsigned int const ,patch_scrap *> >,0> >::begin
; Function compile flags: /Ogsy
; File c:\program files (x86)\microsoft visual studio .net 2003\vc7\include\xmemory
;	COMDAT ??$_Construct@PAU_Node@?$_Tree_nod@V?$_Tmap_traits@IPAUpatch_scrap@@U?$less@I@std@@V?$allocator@U?$pair@$$CBIPAUpatch_scrap@@@std@@@3@$0A@@std@@@std@@PAU123@@std@@YAXPAPAU_Node@?$_Tree_nod@V?$_Tmap_traits@IPAUpatch_scrap@@U?$less@I@std@@V?$allocator@U?$pair@$$CBIPAUpatch_scrap@@@std@@@3@$0A@@std@@@0@ABQAU120@@Z
_TEXT	SEGMENT
??$_Construct@PAU_Node@?$_Tree_nod@V?$_Tmap_traits@IPAUpatch_scrap@@U?$less@I@std@@V?$allocator@U?$pair@$$CBIPAUpatch_scrap@@@std@@@3@$0A@@std@@@std@@PAU123@@std@@YAXPAPAU_Node@?$_Tree_nod@V?$_Tmap_traits@IPAUpatch_scrap@@U?$less@I@std@@V?$allocator@U?$pair@$$CBIPAUpatch_scrap@@@std@@@3@$0A@@std@@@0@ABQAU120@@Z PROC NEAR ; std::_Construct<std::_Tree_nod<std::_Tmap_traits<unsigned int,patch_scrap *,std::less<unsigned int>,std::allocator<std::pair<unsigned int const ,patch_scrap *> >,0> >::_Node *,std::_Tree_nod<std::_Tmap_traits<unsigned int,patch_scrap *,std::less<unsigned int>,std::allocator<std::pair<unsigned int const ,patch_scrap *> >,0> >::_Node *>, COMDAT
; __Ptr$ = eax
; __Val$ = ecx

; 42   : 	new ((void _FARQ *)_Ptr) _T1(_Val);

  00000	85 c0		 test	 eax, eax
  00002	74 04		 je	 SHORT $L45557
  00004	8b 09		 mov	 ecx, DWORD PTR [ecx]
  00006	89 08		 mov	 DWORD PTR [eax], ecx
$L45557:

; 43   : 	}

  00008	c3		 ret	 0
??$_Construct@PAU_Node@?$_Tree_nod@V?$_Tmap_traits@IPAUpatch_scrap@@U?$less@I@std@@V?$allocator@U?$pair@$$CBIPAUpatch_scrap@@@std@@@3@$0A@@std@@@std@@PAU123@@std@@YAXPAPAU_Node@?$_Tree_nod@V?$_Tmap_traits@IPAUpatch_scrap@@U?$less@I@std@@V?$allocator@U?$pair@$$CBIPAUpatch_scrap@@@std@@@3@$0A@@std@@@0@ABQAU120@@Z ENDP ; std::_Construct<std::_Tree_nod<std::_Tmap_traits<unsigned int,patch_scrap *,std::less<unsigned int>,std::allocator<std::pair<unsigned int const ,patch_scrap *> >,0> >::_Node *,std::_Tree_nod<std::_Tmap_traits<unsigned int,patch_scrap *,std::less<unsigned int>,std::allocator<std::pair<unsigned int const ,patch_scrap *> >,0> >::_Node *>
; Function compile flags: /Ogsy
_TEXT	ENDS
;	COMDAT ?construct@?$allocator@PAU_Node@?$_Tree_nod@V?$_Tmap_traits@IPAUpatch_scrap@@U?$less@I@std@@V?$allocator@U?$pair@$$CBIPAUpatch_scrap@@@std@@@3@$0A@@std@@@std@@@std@@QAEXPAPAU_Node@?$_Tree_nod@V?$_Tmap_traits@IPAUpatch_scrap@@U?$less@I@std@@V?$allocator@U?$pair@$$CBIPAUpatch_scrap@@@std@@@3@$0A@@std@@@2@ABQAU342@@Z
_TEXT	SEGMENT
?construct@?$allocator@PAU_Node@?$_Tree_nod@V?$_Tmap_traits@IPAUpatch_scrap@@U?$less@I@std@@V?$allocator@U?$pair@$$CBIPAUpatch_scrap@@@std@@@3@$0A@@std@@@std@@@std@@QAEXPAPAU_Node@?$_Tree_nod@V?$_Tmap_traits@IPAUpatch_scrap@@U?$less@I@std@@V?$allocator@U?$pair@$$CBIPAUpatch_scrap@@@std@@@3@$0A@@std@@@2@ABQAU342@@Z PROC NEAR ; std::allocator<std::_Tree_nod<std::_Tmap_traits<unsigned int,patch_scrap *,std::less<unsigned int>,std::allocator<std::pair<unsigned int const ,patch_scrap *> >,0> >::_Node *>::construct, COMDAT
; __Ptr$ = eax
; __Val$ = ecx

; 147  : 		_Construct(_Ptr, _Val);

  00000	85 c0		 test	 eax, eax
  00002	74 04		 je	 SHORT $L45575
  00004	8b 09		 mov	 ecx, DWORD PTR [ecx]
  00006	89 08		 mov	 DWORD PTR [eax], ecx
$L45575:

; 148  : 		}

  00008	c3		 ret	 0
?construct@?$allocator@PAU_Node@?$_Tree_nod@V?$_Tmap_traits@IPAUpatch_scrap@@U?$less@I@std@@V?$allocator@U?$pair@$$CBIPAUpatch_scrap@@@std@@@3@$0A@@std@@@std@@@std@@QAEXPAPAU_Node@?$_Tree_nod@V?$_Tmap_traits@IPAUpatch_scrap@@U?$less@I@std@@V?$allocator@U?$pair@$$CBIPAUpatch_scrap@@@std@@@3@$0A@@std@@@2@ABQAU342@@Z ENDP ; std::allocator<std::_Tree_nod<std::_Tmap_traits<unsigned int,patch_scrap *,std::less<unsigned int>,std::allocator<std::pair<unsigned int const ,patch_scrap *> >,0> >::_Node *>::construct
; Function compile flags: /Ogsy
; File c:\program files (x86)\microsoft visual studio .net 2003\vc7\include\xtree
_TEXT	ENDS
;	COMDAT ?_Min@?$_Tree@V?$_Tmap_traits@IPAUpatch_scrap@@U?$less@I@std@@V?$allocator@U?$pair@$$CBIPAUpatch_scrap@@@std@@@3@$0A@@std@@@std@@KAPAU_Node@?$_Tree_nod@V?$_Tmap_traits@IPAUpatch_scrap@@U?$less@I@std@@V?$allocator@U?$pair@$$CBIPAUpatch_scrap@@@std@@@3@$0A@@std@@@2@PAU342@@Z
_TEXT	SEGMENT
?_Min@?$_Tree@V?$_Tmap_traits@IPAUpatch_scrap@@U?$less@I@std@@V?$allocator@U?$pair@$$CBIPAUpatch_scrap@@@std@@@3@$0A@@std@@@std@@KAPAU_Node@?$_Tree_nod@V?$_Tmap_traits@IPAUpatch_scrap@@U?$less@I@std@@V?$allocator@U?$pair@$$CBIPAUpatch_scrap@@@std@@@3@$0A@@std@@@2@PAU342@@Z PROC NEAR ; std::_Tree<std::_Tmap_traits<unsigned int,patch_scrap *,std::less<unsigned int>,std::allocator<std::pair<unsigned int const ,patch_scrap *> >,0> >::_Min, COMDAT
; __Pnode$ = eax

; 1042 : 		while (!_Isnil(_Left(_Pnode)))

  00000	eb 02		 jmp	 SHORT $L45594
$L25536:

; 1043 : 			_Pnode = _Left(_Pnode);

  00002	8b c1		 mov	 eax, ecx
$L45594:

; 1042 : 		while (!_Isnil(_Left(_Pnode)))

  00004	8b 08		 mov	 ecx, DWORD PTR [eax]
  00006	80 79 15 00	 cmp	 BYTE PTR [ecx+21], 0
  0000a	74 f6		 je	 SHORT $L25536

; 1044 : 		return (_Pnode);
; 1045 : 		}

  0000c	c3		 ret	 0
?_Min@?$_Tree@V?$_Tmap_traits@IPAUpatch_scrap@@U?$less@I@std@@V?$allocator@U?$pair@$$CBIPAUpatch_scrap@@@std@@@3@$0A@@std@@@std@@KAPAU_Node@?$_Tree_nod@V?$_Tmap_traits@IPAUpatch_scrap@@U?$less@I@std@@V?$allocator@U?$pair@$$CBIPAUpatch_scrap@@@std@@@3@$0A@@std@@@2@PAU342@@Z ENDP ; std::_Tree<std::_Tmap_traits<unsigned int,patch_scrap *,std::less<unsigned int>,std::allocator<std::pair<unsigned int const ,patch_scrap *> >,0> >::_Min
; Function compile flags: /Ogsy
_TEXT	ENDS
;	COMDAT ?_Max@?$_Tree@V?$_Tmap_traits@IPAUpatch_scrap@@U?$less@I@std@@V?$allocator@U?$pair@$$CBIPAUpatch_scrap@@@std@@@3@$0A@@std@@@std@@KAPAU_Node@?$_Tree_nod@V?$_Tmap_traits@IPAUpatch_scrap@@U?$less@I@std@@V?$allocator@U?$pair@$$CBIPAUpatch_scrap@@@std@@@3@$0A@@std@@@2@PAU342@@Z
_TEXT	SEGMENT
?_Max@?$_Tree@V?$_Tmap_traits@IPAUpatch_scrap@@U?$less@I@std@@V?$allocator@U?$pair@$$CBIPAUpatch_scrap@@@std@@@3@$0A@@std@@@std@@KAPAU_Node@?$_Tree_nod@V?$_Tmap_traits@IPAUpatch_scrap@@U?$less@I@std@@V?$allocator@U?$pair@$$CBIPAUpatch_scrap@@@std@@@3@$0A@@std@@@2@PAU342@@Z PROC NEAR ; std::_Tree<std::_Tmap_traits<unsigned int,patch_scrap *,std::less<unsigned int>,std::allocator<std::pair<unsigned int const ,patch_scrap *> >,0> >::_Max, COMDAT
; __Pnode$ = eax

; 1035 : 		while (!_Isnil(_Right(_Pnode)))

  00000	eb 02		 jmp	 SHORT $L45610
$L25532:

; 1036 : 			_Pnode = _Right(_Pnode);

  00002	8b c1		 mov	 eax, ecx
$L45610:

; 1035 : 		while (!_Isnil(_Right(_Pnode)))

  00004	8b 48 08	 mov	 ecx, DWORD PTR [eax+8]
  00007	80 79 15 00	 cmp	 BYTE PTR [ecx+21], 0
  0000b	74 f5		 je	 SHORT $L25532

; 1037 : 		return (_Pnode);
; 1038 : 		}

  0000d	c3		 ret	 0
?_Max@?$_Tree@V?$_Tmap_traits@IPAUpatch_scrap@@U?$less@I@std@@V?$allocator@U?$pair@$$CBIPAUpatch_scrap@@@std@@@3@$0A@@std@@@std@@KAPAU_Node@?$_Tree_nod@V?$_Tmap_traits@IPAUpatch_scrap@@U?$less@I@std@@V?$allocator@U?$pair@$$CBIPAUpatch_scrap@@@std@@@3@$0A@@std@@@2@PAU342@@Z ENDP ; std::_Tree<std::_Tmap_traits<unsigned int,patch_scrap *,std::less<unsigned int>,std::allocator<std::pair<unsigned int const ,patch_scrap *> >,0> >::_Max
; Function compile flags: /Ogsy
_TEXT	ENDS
;	COMDAT ?_Inc@const_iterator@?$_Tree@V?$_Tmap_traits@IPAUpatch_scrap@@U?$less@I@std@@V?$allocator@U?$pair@$$CBIPAUpatch_scrap@@@std@@@3@$0A@@std@@@std@@QAEXXZ
_TEXT	SEGMENT
?_Inc@const_iterator@?$_Tree@V?$_Tmap_traits@IPAUpatch_scrap@@U?$less@I@std@@V?$allocator@U?$pair@$$CBIPAUpatch_scrap@@@std@@@3@$0A@@std@@@std@@QAEXXZ PROC NEAR ; std::_Tree<std::_Tmap_traits<unsigned int,patch_scrap *,std::less<unsigned int>,std::allocator<std::pair<unsigned int const ,patch_scrap *> >,0> >::const_iterator::_Inc, COMDAT
; _this$ = edx

; 268  : 			if (_Isnil(_Ptr))

  00000	8b 02		 mov	 eax, DWORD PTR [edx]
  00002	53		 push	 ebx
  00003	32 db		 xor	 bl, bl
  00005	38 58 15	 cmp	 BYTE PTR [eax+21], bl
  00008	75 2a		 jne	 SHORT $L25466

; 269  : 				;	// end() shouldn't be incremented, don't move
; 270  : 			else if (!_Isnil(_Right(_Ptr)))

  0000a	8b 48 08	 mov	 ecx, DWORD PTR [eax+8]
  0000d	38 59 15	 cmp	 BYTE PTR [ecx+21], bl
  00010	75 18		 jne	 SHORT $L45657

; 271  : 				_Ptr = _Min(_Right(_Ptr));	// ==> smallest of right subtree

  00012	eb 02		 jmp	 SHORT $L45661
$L45644:
  00014	8b c8		 mov	 ecx, eax
$L45661:
  00016	8b 01		 mov	 eax, DWORD PTR [ecx]
  00018	38 58 15	 cmp	 BYTE PTR [eax+21], bl
  0001b	74 f7		 je	 SHORT $L45644
  0001d	89 0a		 mov	 DWORD PTR [edx], ecx
  0001f	5b		 pop	 ebx

; 279  : 				}
; 280  : 			}

  00020	c3		 ret	 0
$L25469:

; 272  : 			else
; 273  : 				{	// climb looking for right subtree
; 274  : 				_Nodeptr _Pnode;
; 275  : 				while (!_Isnil(_Pnode = _Parent(_Ptr))
; 276  : 					&& _Ptr == _Right(_Pnode))

  00021	8b 0a		 mov	 ecx, DWORD PTR [edx]
  00023	3b 48 08	 cmp	 ecx, DWORD PTR [eax+8]
  00026	75 0a		 jne	 SHORT $L25470

; 277  : 					_Ptr = _Pnode;	// ==> parent while right subtree

  00028	89 02		 mov	 DWORD PTR [edx], eax
$L45657:

; 272  : 			else
; 273  : 				{	// climb looking for right subtree
; 274  : 				_Nodeptr _Pnode;
; 275  : 				while (!_Isnil(_Pnode = _Parent(_Ptr))
; 276  : 					&& _Ptr == _Right(_Pnode))

  0002a	8b 40 04	 mov	 eax, DWORD PTR [eax+4]
  0002d	38 58 15	 cmp	 BYTE PTR [eax+21], bl
  00030	74 ef		 je	 SHORT $L25469
$L25470:

; 278  : 				_Ptr = _Pnode;	// ==> parent (head if end())

  00032	89 02		 mov	 DWORD PTR [edx], eax
$L25466:
  00034	5b		 pop	 ebx

; 279  : 				}
; 280  : 			}

  00035	c3		 ret	 0
?_Inc@const_iterator@?$_Tree@V?$_Tmap_traits@IPAUpatch_scrap@@U?$less@I@std@@V?$allocator@U?$pair@$$CBIPAUpatch_scrap@@@std@@@3@$0A@@std@@@std@@QAEXXZ ENDP ; std::_Tree<std::_Tmap_traits<unsigned int,patch_scrap *,std::less<unsigned int>,std::allocator<std::pair<unsigned int const ,patch_scrap *> >,0> >::const_iterator::_Inc
; Function compile flags: /Ogsy
_TEXT	ENDS
;	COMDAT ??0?$_Tree_ptr@V?$_Tmap_traits@IPAUpatch_scrap@@U?$less@I@std@@V?$allocator@U?$pair@$$CBIPAUpatch_scrap@@@std@@@3@$0A@@std@@@std@@IAE@ABU?$less@I@1@V?$allocator@U?$pair@$$CBIPAUpatch_scrap@@@std@@@1@@Z
_TEXT	SEGMENT
__Al$ = 8						; size = 1
??0?$_Tree_ptr@V?$_Tmap_traits@IPAUpatch_scrap@@U?$less@I@std@@V?$allocator@U?$pair@$$CBIPAUpatch_scrap@@@std@@@3@$0A@@std@@@std@@IAE@ABU?$less@I@1@V?$allocator@U?$pair@$$CBIPAUpatch_scrap@@@std@@@1@@Z PROC NEAR ; std::_Tree_ptr<std::_Tmap_traits<unsigned int,patch_scrap *,std::less<unsigned int>,std::allocator<std::pair<unsigned int const ,patch_scrap *> >,0> >::_Tree_ptr<std::_Tmap_traits<unsigned int,patch_scrap *,std::less<unsigned int>,std::allocator<std::pair<unsigned int const ,patch_scrap *> >,0> >, COMDAT
; _this$ = eax

; 77   : 		}

  00000	c2 04 00	 ret	 4
??0?$_Tree_ptr@V?$_Tmap_traits@IPAUpatch_scrap@@U?$less@I@std@@V?$allocator@U?$pair@$$CBIPAUpatch_scrap@@@std@@@3@$0A@@std@@@std@@IAE@ABU?$less@I@1@V?$allocator@U?$pair@$$CBIPAUpatch_scrap@@@std@@@1@@Z ENDP ; std::_Tree_ptr<std::_Tmap_traits<unsigned int,patch_scrap *,std::less<unsigned int>,std::allocator<std::pair<unsigned int const ,patch_scrap *> >,0> >::_Tree_ptr<std::_Tmap_traits<unsigned int,patch_scrap *,std::less<unsigned int>,std::allocator<std::pair<unsigned int const ,patch_scrap *> >,0> >
; Function compile flags: /Ogsy
_TEXT	ENDS
;	COMDAT ?_Buynode@?$_Tree@V?$_Tmap_traits@IPAUpatch_scrap@@U?$less@I@std@@V?$allocator@U?$pair@$$CBIPAUpatch_scrap@@@std@@@3@$0A@@std@@@std@@IAEPAU_Node@?$_Tree_nod@V?$_Tmap_traits@IPAUpatch_scrap@@U?$less@I@std@@V?$allocator@U?$pair@$$CBIPAUpatch_scrap@@@std@@@3@$0A@@std@@@2@PAU342@00ABU?$pair@$$CBIPAUpatch_scrap@@@2@D@Z
_TEXT	SEGMENT
__Larg$ = 8						; size = 4
__Parg$ = 12						; size = 4
__Rarg$ = 16						; size = 4
__Val$ = 20						; size = 4
__Carg$ = 24						; size = 1
?_Buynode@?$_Tree@V?$_Tmap_traits@IPAUpatch_scrap@@U?$less@I@std@@V?$allocator@U?$pair@$$CBIPAUpatch_scrap@@@std@@@3@$0A@@std@@@std@@IAEPAU_Node@?$_Tree_nod@V?$_Tmap_traits@IPAUpatch_scrap@@U?$less@I@std@@V?$allocator@U?$pair@$$CBIPAUpatch_scrap@@@std@@@3@$0A@@std@@@2@PAU342@00ABU?$pair@$$CBIPAUpatch_scrap@@@2@D@Z PROC NEAR ; std::_Tree<std::_Tmap_traits<unsigned int,patch_scrap *,std::less<unsigned int>,std::allocator<std::pair<unsigned int const ,patch_scrap *> >,0> >::_Buynode, COMDAT

; 1130 : 		{	// allocate a node with pointers, value, and color

  00000	55		 push	 ebp
  00001	8b ec		 mov	 ebp, esp
  00003	56		 push	 esi

; 1131 : 		_Nodeptr _Wherenode = this->_Alnod.allocate(1);

  00004	6a 18		 push	 24			; 00000018H
  00006	e8 00 00 00 00	 call	 ??2@YAPAXI@Z		; operator new
  0000b	8b f0		 mov	 esi, eax

; 1132 : 		_TRY_BEGIN
; 1133 : 		new (_Wherenode) _Node(_Larg, _Parg, _Rarg, _Val, _Carg);

  0000d	85 f6		 test	 esi, esi
  0000f	59		 pop	 ecx
  00010	74 14		 je	 SHORT $L45692
  00012	ff 75 18	 push	 DWORD PTR __Carg$[ebp]
  00015	8b 4d 14	 mov	 ecx, DWORD PTR __Val$[ebp]
  00018	ff 75 10	 push	 DWORD PTR __Rarg$[ebp]
  0001b	8b 55 08	 mov	 edx, DWORD PTR __Larg$[ebp]
  0001e	ff 75 0c	 push	 DWORD PTR __Parg$[ebp]
  00021	e8 00 00 00 00	 call	 ??0_Node@?$_Tree_nod@V?$_Tmap_traits@IPAUpatch_scrap@@U?$less@I@std@@V?$allocator@U?$pair@$$CBIPAUpatch_scrap@@@std@@@3@$0A@@std@@@std@@QAE@PAU012@00ABU?$pair@$$CBIPAUpatch_scrap@@@2@D@Z ; std::_Tree_nod<std::_Tmap_traits<unsigned int,patch_scrap *,std::less<unsigned int>,std::allocator<std::pair<unsigned int const ,patch_scrap *> >,0> >::_Node::_Node
$L45692:

; 1134 : 		_CATCH_ALL
; 1135 : 		this->_Alnod.deallocate(_Wherenode, 1);
; 1136 : 		_RERAISE;
; 1137 : 		_CATCH_END
; 1138 : 		return (_Wherenode);

  00026	8b c6		 mov	 eax, esi
  00028	5e		 pop	 esi

; 1139 : 		}

  00029	5d		 pop	 ebp
  0002a	c2 14 00	 ret	 20			; 00000014H
?_Buynode@?$_Tree@V?$_Tmap_traits@IPAUpatch_scrap@@U?$less@I@std@@V?$allocator@U?$pair@$$CBIPAUpatch_scrap@@@std@@@3@$0A@@std@@@std@@IAEPAU_Node@?$_Tree_nod@V?$_Tmap_traits@IPAUpatch_scrap@@U?$less@I@std@@V?$allocator@U?$pair@$$CBIPAUpatch_scrap@@@std@@@3@$0A@@std@@@2@PAU342@00ABU?$pair@$$CBIPAUpatch_scrap@@@2@D@Z ENDP ; std::_Tree<std::_Tmap_traits<unsigned int,patch_scrap *,std::less<unsigned int>,std::allocator<std::pair<unsigned int const ,patch_scrap *> >,0> >::_Buynode
; Function compile flags: /Ogsy
_TEXT	ENDS
;	COMDAT ?_Buynode@?$_Tree@V?$_Tmap_traits@IPAUpatch_scrap@@U?$less@I@std@@V?$allocator@U?$pair@$$CBIPAUpatch_scrap@@@std@@@3@$0A@@std@@@std@@IAEPAU_Node@?$_Tree_nod@V?$_Tmap_traits@IPAUpatch_scrap@@U?$less@I@std@@V?$allocator@U?$pair@$$CBIPAUpatch_scrap@@@std@@@3@$0A@@std@@@2@XZ
_TEXT	SEGMENT
?_Buynode@?$_Tree@V?$_Tmap_traits@IPAUpatch_scrap@@U?$less@I@std@@V?$allocator@U?$pair@$$CBIPAUpatch_scrap@@@std@@@3@$0A@@std@@@std@@IAEPAU_Node@?$_Tree_nod@V?$_Tmap_traits@IPAUpatch_scrap@@U?$less@I@std@@V?$allocator@U?$pair@$$CBIPAUpatch_scrap@@@std@@@3@$0A@@std@@@2@XZ PROC NEAR ; std::_Tree<std::_Tmap_traits<unsigned int,patch_scrap *,std::less<unsigned int>,std::allocator<std::pair<unsigned int const ,patch_scrap *> >,0> >::_Buynode, COMDAT

; 1106 : 		_Nodeptr _Wherenode = this->_Alnod.allocate(1);

  00000	6a 18		 push	 24			; 00000018H
  00002	e8 00 00 00 00	 call	 ??2@YAPAXI@Z		; operator new

; 1107 : 		int _Linkcnt = 0;
; 1108 : 
; 1109 : 		_TRY_BEGIN
; 1110 : 		this->_Alptr.construct(&_Left(_Wherenode), 0);

  00007	33 d2		 xor	 edx, edx
  00009	3b c2		 cmp	 eax, edx
  0000b	59		 pop	 ecx
  0000c	74 02		 je	 SHORT $L45750
  0000e	89 10		 mov	 DWORD PTR [eax], edx
$L45750:

; 1111 : 		++_Linkcnt;
; 1112 : 		this->_Alptr.construct(&_Parent(_Wherenode), 0);

  00010	8d 48 04	 lea	 ecx, DWORD PTR [eax+4]
  00013	3b ca		 cmp	 ecx, edx
  00015	74 02		 je	 SHORT $L45777
  00017	89 11		 mov	 DWORD PTR [ecx], edx
$L45777:

; 1113 : 		++_Linkcnt;
; 1114 : 		this->_Alptr.construct(&_Right(_Wherenode), 0);

  00019	8d 48 08	 lea	 ecx, DWORD PTR [eax+8]
  0001c	3b ca		 cmp	 ecx, edx
  0001e	74 02		 je	 SHORT $L45804
  00020	89 11		 mov	 DWORD PTR [ecx], edx
$L45804:

; 1115 : 		_CATCH_ALL
; 1116 : 		if (1 < _Linkcnt)
; 1117 : 			this->_Alptr.destroy(&_Parent(_Wherenode));
; 1118 : 		if (0 < _Linkcnt)
; 1119 : 			this->_Alptr.destroy(&_Left(_Wherenode));
; 1120 : 		this->_Alnod.deallocate(_Wherenode, 1);
; 1121 : 		_RERAISE;
; 1122 : 		_CATCH_END
; 1123 : 		_Color(_Wherenode) = _Black;

  00022	c6 40 14 01	 mov	 BYTE PTR [eax+20], 1

; 1124 : 		_Isnil(_Wherenode) = false;

  00026	88 50 15	 mov	 BYTE PTR [eax+21], dl

; 1125 : 		return (_Wherenode);
; 1126 : 		}

  00029	c3		 ret	 0
?_Buynode@?$_Tree@V?$_Tmap_traits@IPAUpatch_scrap@@U?$less@I@std@@V?$allocator@U?$pair@$$CBIPAUpatch_scrap@@@std@@@3@$0A@@std@@@std@@IAEPAU_Node@?$_Tree_nod@V?$_Tmap_traits@IPAUpatch_scrap@@U?$less@I@std@@V?$allocator@U?$pair@$$CBIPAUpatch_scrap@@@std@@@3@$0A@@std@@@2@XZ ENDP ; std::_Tree<std::_Tmap_traits<unsigned int,patch_scrap *,std::less<unsigned int>,std::allocator<std::pair<unsigned int const ,patch_scrap *> >,0> >::_Buynode
; Function compile flags: /Ogsy
_TEXT	ENDS
;	COMDAT ?_Rrotate@?$_Tree@V?$_Tmap_traits@IPAUpatch_scrap@@U?$less@I@std@@V?$allocator@U?$pair@$$CBIPAUpatch_scrap@@@std@@@3@$0A@@std@@@std@@IAEXPAU_Node@?$_Tree_nod@V?$_Tmap_traits@IPAUpatch_scrap@@U?$less@I@std@@V?$allocator@U?$pair@$$CBIPAUpatch_scrap@@@std@@@3@$0A@@std@@@2@@Z
_TEXT	SEGMENT
_this$ = 8						; size = 4
?_Rrotate@?$_Tree@V?$_Tmap_traits@IPAUpatch_scrap@@U?$less@I@std@@V?$allocator@U?$pair@$$CBIPAUpatch_scrap@@@std@@@3@$0A@@std@@@std@@IAEXPAU_Node@?$_Tree_nod@V?$_Tmap_traits@IPAUpatch_scrap@@U?$less@I@std@@V?$allocator@U?$pair@$$CBIPAUpatch_scrap@@@std@@@3@$0A@@std@@@2@@Z PROC NEAR ; std::_Tree<std::_Tmap_traits<unsigned int,patch_scrap *,std::less<unsigned int>,std::allocator<std::pair<unsigned int const ,patch_scrap *> >,0> >::_Rrotate, COMDAT
; __Wherenode$ = ecx

; 1069 : 		_Nodeptr _Pnode = _Left(_Wherenode);

  00000	8b 01		 mov	 eax, DWORD PTR [ecx]

; 1070 : 		_Left(_Wherenode) = _Right(_Pnode);

  00002	8b 50 08	 mov	 edx, DWORD PTR [eax+8]
  00005	89 11		 mov	 DWORD PTR [ecx], edx

; 1071 : 
; 1072 : 		if (!_Isnil(_Right(_Pnode)))

  00007	8b 50 08	 mov	 edx, DWORD PTR [eax+8]
  0000a	80 7a 15 00	 cmp	 BYTE PTR [edx+21], 0
  0000e	75 03		 jne	 SHORT $L25420

; 1073 : 			_Parent(_Right(_Pnode)) = _Wherenode;

  00010	89 4a 04	 mov	 DWORD PTR [edx+4], ecx
$L25420:

; 1074 : 		_Parent(_Pnode) = _Parent(_Wherenode);

  00013	8b 51 04	 mov	 edx, DWORD PTR [ecx+4]
  00016	89 50 04	 mov	 DWORD PTR [eax+4], edx

; 1075 : 
; 1076 : 		if (_Wherenode == _Root())

  00019	8b 54 24 04	 mov	 edx, DWORD PTR _this$[esp-4]
  0001d	8b 52 04	 mov	 edx, DWORD PTR [edx+4]
  00020	3b 4a 04	 cmp	 ecx, DWORD PTR [edx+4]
  00023	75 05		 jne	 SHORT $L25421

; 1077 : 			_Root() = _Pnode;

  00025	89 42 04	 mov	 DWORD PTR [edx+4], eax

; 1078 : 		else if (_Wherenode == _Right(_Parent(_Wherenode)))

  00028	eb 0f		 jmp	 SHORT $L25424
$L25421:
  0002a	8b 51 04	 mov	 edx, DWORD PTR [ecx+4]
  0002d	3b 4a 08	 cmp	 ecx, DWORD PTR [edx+8]
  00030	75 05		 jne	 SHORT $L25423

; 1079 : 			_Right(_Parent(_Wherenode)) = _Pnode;

  00032	89 42 08	 mov	 DWORD PTR [edx+8], eax

; 1080 : 		else

  00035	eb 02		 jmp	 SHORT $L25424
$L25423:

; 1081 : 			_Left(_Parent(_Wherenode)) = _Pnode;

  00037	89 02		 mov	 DWORD PTR [edx], eax
$L25424:

; 1082 : 
; 1083 : 		_Right(_Pnode) = _Wherenode;

  00039	89 48 08	 mov	 DWORD PTR [eax+8], ecx

; 1084 : 		_Parent(_Wherenode) = _Pnode;

  0003c	89 41 04	 mov	 DWORD PTR [ecx+4], eax

; 1085 : 		}

  0003f	c2 04 00	 ret	 4
?_Rrotate@?$_Tree@V?$_Tmap_traits@IPAUpatch_scrap@@U?$less@I@std@@V?$allocator@U?$pair@$$CBIPAUpatch_scrap@@@std@@@3@$0A@@std@@@std@@IAEXPAU_Node@?$_Tree_nod@V?$_Tmap_traits@IPAUpatch_scrap@@U?$less@I@std@@V?$allocator@U?$pair@$$CBIPAUpatch_scrap@@@std@@@3@$0A@@std@@@2@@Z ENDP ; std::_Tree<std::_Tmap_traits<unsigned int,patch_scrap *,std::less<unsigned int>,std::allocator<std::pair<unsigned int const ,patch_scrap *> >,0> >::_Rrotate
; Function compile flags: /Ogsy
_TEXT	ENDS
;	COMDAT ?_Root@?$_Tree@V?$_Tmap_traits@IPAUpatch_scrap@@U?$less@I@std@@V?$allocator@U?$pair@$$CBIPAUpatch_scrap@@@std@@@3@$0A@@std@@@std@@IBEAAPAU_Node@?$_Tree_nod@V?$_Tmap_traits@IPAUpatch_scrap@@U?$less@I@std@@V?$allocator@U?$pair@$$CBIPAUpatch_scrap@@@std@@@3@$0A@@std@@@2@XZ
_TEXT	SEGMENT
?_Root@?$_Tree@V?$_Tmap_traits@IPAUpatch_scrap@@U?$less@I@std@@V?$allocator@U?$pair@$$CBIPAUpatch_scrap@@@std@@@3@$0A@@std@@@std@@IBEAAPAU_Node@?$_Tree_nod@V?$_Tmap_traits@IPAUpatch_scrap@@U?$less@I@std@@V?$allocator@U?$pair@$$CBIPAUpatch_scrap@@@std@@@3@$0A@@std@@@2@XZ PROC NEAR ; std::_Tree<std::_Tmap_traits<unsigned int,patch_scrap *,std::less<unsigned int>,std::allocator<std::pair<unsigned int const ,patch_scrap *> >,0> >::_Root, COMDAT
; _this$ = eax

; 1064 : 		return (_Parent(_Myhead));

  00000	8b 40 04	 mov	 eax, DWORD PTR [eax+4]
  00003	83 c0 04	 add	 eax, 4

; 1065 : 		}

  00006	c3		 ret	 0
?_Root@?$_Tree@V?$_Tmap_traits@IPAUpatch_scrap@@U?$less@I@std@@V?$allocator@U?$pair@$$CBIPAUpatch_scrap@@@std@@@3@$0A@@std@@@std@@IBEAAPAU_Node@?$_Tree_nod@V?$_Tmap_traits@IPAUpatch_scrap@@U?$less@I@std@@V?$allocator@U?$pair@$$CBIPAUpatch_scrap@@@std@@@3@$0A@@std@@@2@XZ ENDP ; std::_Tree<std::_Tmap_traits<unsigned int,patch_scrap *,std::less<unsigned int>,std::allocator<std::pair<unsigned int const ,patch_scrap *> >,0> >::_Root
; Function compile flags: /Ogsy
_TEXT	ENDS
;	COMDAT ?_Lrotate@?$_Tree@V?$_Tmap_traits@IPAUpatch_scrap@@U?$less@I@std@@V?$allocator@U?$pair@$$CBIPAUpatch_scrap@@@std@@@3@$0A@@std@@@std@@IAEXPAU_Node@?$_Tree_nod@V?$_Tmap_traits@IPAUpatch_scrap@@U?$less@I@std@@V?$allocator@U?$pair@$$CBIPAUpatch_scrap@@@std@@@3@$0A@@std@@@2@@Z
_TEXT	SEGMENT
_this$ = 8						; size = 4
?_Lrotate@?$_Tree@V?$_Tmap_traits@IPAUpatch_scrap@@U?$less@I@std@@V?$allocator@U?$pair@$$CBIPAUpatch_scrap@@@std@@@3@$0A@@std@@@std@@IAEXPAU_Node@?$_Tree_nod@V?$_Tmap_traits@IPAUpatch_scrap@@U?$less@I@std@@V?$allocator@U?$pair@$$CBIPAUpatch_scrap@@@std@@@3@$0A@@std@@@2@@Z PROC NEAR ; std::_Tree<std::_Tmap_traits<unsigned int,patch_scrap *,std::less<unsigned int>,std::allocator<std::pair<unsigned int const ,patch_scrap *> >,0> >::_Lrotate, COMDAT
; __Wherenode$ = ecx

; 1015 : 		_Nodeptr _Pnode = _Right(_Wherenode);

  00000	8b 41 08	 mov	 eax, DWORD PTR [ecx+8]

; 1016 : 		_Right(_Wherenode) = _Left(_Pnode);

  00003	8b 10		 mov	 edx, DWORD PTR [eax]
  00005	89 51 08	 mov	 DWORD PTR [ecx+8], edx

; 1017 : 
; 1018 : 		if (!_Isnil(_Left(_Pnode)))

  00008	8b 10		 mov	 edx, DWORD PTR [eax]
  0000a	80 7a 15 00	 cmp	 BYTE PTR [edx+21], 0
  0000e	75 03		 jne	 SHORT $L25410

; 1019 : 			_Parent(_Left(_Pnode)) = _Wherenode;

  00010	89 4a 04	 mov	 DWORD PTR [edx+4], ecx
$L25410:

; 1020 : 		_Parent(_Pnode) = _Parent(_Wherenode);

  00013	8b 51 04	 mov	 edx, DWORD PTR [ecx+4]
  00016	89 50 04	 mov	 DWORD PTR [eax+4], edx

; 1021 : 
; 1022 : 		if (_Wherenode == _Root())

  00019	8b 54 24 04	 mov	 edx, DWORD PTR _this$[esp-4]
  0001d	8b 52 04	 mov	 edx, DWORD PTR [edx+4]
  00020	3b 4a 04	 cmp	 ecx, DWORD PTR [edx+4]
  00023	75 05		 jne	 SHORT $L25411

; 1023 : 			_Root() = _Pnode;

  00025	89 42 04	 mov	 DWORD PTR [edx+4], eax

; 1024 : 		else if (_Wherenode == _Left(_Parent(_Wherenode)))

  00028	eb 0e		 jmp	 SHORT $L25414
$L25411:
  0002a	8b 51 04	 mov	 edx, DWORD PTR [ecx+4]
  0002d	3b 0a		 cmp	 ecx, DWORD PTR [edx]
  0002f	75 04		 jne	 SHORT $L25413

; 1025 : 			_Left(_Parent(_Wherenode)) = _Pnode;

  00031	89 02		 mov	 DWORD PTR [edx], eax

; 1026 : 		else

  00033	eb 03		 jmp	 SHORT $L25414
$L25413:

; 1027 : 			_Right(_Parent(_Wherenode)) = _Pnode;

  00035	89 42 08	 mov	 DWORD PTR [edx+8], eax
$L25414:

; 1028 : 
; 1029 : 		_Left(_Pnode) = _Wherenode;

  00038	89 08		 mov	 DWORD PTR [eax], ecx

; 1030 : 		_Parent(_Wherenode) = _Pnode;

  0003a	89 41 04	 mov	 DWORD PTR [ecx+4], eax

; 1031 : 		}

  0003d	c2 04 00	 ret	 4
?_Lrotate@?$_Tree@V?$_Tmap_traits@IPAUpatch_scrap@@U?$less@I@std@@V?$allocator@U?$pair@$$CBIPAUpatch_scrap@@@std@@@3@$0A@@std@@@std@@IAEXPAU_Node@?$_Tree_nod@V?$_Tmap_traits@IPAUpatch_scrap@@U?$less@I@std@@V?$allocator@U?$pair@$$CBIPAUpatch_scrap@@@std@@@3@$0A@@std@@@2@@Z ENDP ; std::_Tree<std::_Tmap_traits<unsigned int,patch_scrap *,std::less<unsigned int>,std::allocator<std::pair<unsigned int const ,patch_scrap *> >,0> >::_Lrotate
; Function compile flags: /Ogsy
_TEXT	ENDS
;	COMDAT ??Econst_iterator@?$_Tree@V?$_Tmap_traits@IPAUpatch_scrap@@U?$less@I@std@@V?$allocator@U?$pair@$$CBIPAUpatch_scrap@@@std@@@3@$0A@@std@@@std@@QAEAAV012@XZ
_TEXT	SEGMENT
_this$ = 8						; size = 4
??Econst_iterator@?$_Tree@V?$_Tmap_traits@IPAUpatch_scrap@@U?$less@I@std@@V?$allocator@U?$pair@$$CBIPAUpatch_scrap@@@std@@@3@$0A@@std@@@std@@QAEAAV012@XZ PROC NEAR ; std::_Tree<std::_Tmap_traits<unsigned int,patch_scrap *,std::less<unsigned int>,std::allocator<std::pair<unsigned int const ,patch_scrap *> >,0> >::const_iterator::operator++, COMDAT

; 215  : 			_Inc();

  00000	8b 54 24 04	 mov	 edx, DWORD PTR _this$[esp-4]
  00004	e8 00 00 00 00	 call	 ?_Inc@const_iterator@?$_Tree@V?$_Tmap_traits@IPAUpatch_scrap@@U?$less@I@std@@V?$allocator@U?$pair@$$CBIPAUpatch_scrap@@@std@@@3@$0A@@std@@@std@@QAEXXZ ; std::_Tree<std::_Tmap_traits<unsigned int,patch_scrap *,std::less<unsigned int>,std::allocator<std::pair<unsigned int const ,patch_scrap *> >,0> >::const_iterator::_Inc

; 216  : 			return (*this);

  00009	8b 44 24 04	 mov	 eax, DWORD PTR _this$[esp-4]

; 217  : 			}

  0000d	c2 04 00	 ret	 4
??Econst_iterator@?$_Tree@V?$_Tmap_traits@IPAUpatch_scrap@@U?$less@I@std@@V?$allocator@U?$pair@$$CBIPAUpatch_scrap@@@std@@@3@$0A@@std@@@std@@QAEAAV012@XZ ENDP ; std::_Tree<std::_Tmap_traits<unsigned int,patch_scrap *,std::less<unsigned int>,std::allocator<std::pair<unsigned int const ,patch_scrap *> >,0> >::const_iterator::operator++
; Function compile flags: /Ogsy
_TEXT	ENDS
;	COMDAT ??Dconst_iterator@?$_Tree@V?$_Tmap_traits@IPAUpatch_scrap@@U?$less@I@std@@V?$allocator@U?$pair@$$CBIPAUpatch_scrap@@@std@@@3@$0A@@std@@@std@@QBEABU?$pair@$$CBIPAUpatch_scrap@@@2@XZ
_TEXT	SEGMENT
??Dconst_iterator@?$_Tree@V?$_Tmap_traits@IPAUpatch_scrap@@U?$less@I@std@@V?$allocator@U?$pair@$$CBIPAUpatch_scrap@@@std@@@3@$0A@@std@@@std@@QBEABU?$pair@$$CBIPAUpatch_scrap@@@2@XZ PROC NEAR ; std::_Tree<std::_Tmap_traits<unsigned int,patch_scrap *,std::less<unsigned int>,std::allocator<std::pair<unsigned int const ,patch_scrap *> >,0> >::const_iterator::operator*, COMDAT
; _this$ = eax

; 205  : 			return (_Myval(_Ptr));

  00000	8b 00		 mov	 eax, DWORD PTR [eax]
  00002	83 c0 0c	 add	 eax, 12			; 0000000cH

; 206  : 			}

  00005	c3		 ret	 0
??Dconst_iterator@?$_Tree@V?$_Tmap_traits@IPAUpatch_scrap@@U?$less@I@std@@V?$allocator@U?$pair@$$CBIPAUpatch_scrap@@@std@@@3@$0A@@std@@@std@@QBEABU?$pair@$$CBIPAUpatch_scrap@@@2@XZ ENDP ; std::_Tree<std::_Tmap_traits<unsigned int,patch_scrap *,std::less<unsigned int>,std::allocator<std::pair<unsigned int const ,patch_scrap *> >,0> >::const_iterator::operator*
; Function compile flags: /Ogsy
_TEXT	ENDS
;	COMDAT ??0?$_Tree_val@V?$_Tmap_traits@IPAUpatch_scrap@@U?$less@I@std@@V?$allocator@U?$pair@$$CBIPAUpatch_scrap@@@std@@@3@$0A@@std@@@std@@IAE@ABU?$less@I@1@V?$allocator@U?$pair@$$CBIPAUpatch_scrap@@@std@@@1@@Z
_TEXT	SEGMENT
__Al$ = 8						; size = 1
??0?$_Tree_val@V?$_Tmap_traits@IPAUpatch_scrap@@U?$less@I@std@@V?$allocator@U?$pair@$$CBIPAUpatch_scrap@@@std@@@3@$0A@@std@@@std@@IAE@ABU?$less@I@1@V?$allocator@U?$pair@$$CBIPAUpatch_scrap@@@std@@@1@@Z PROC NEAR ; std::_Tree_val<std::_Tmap_traits<unsigned int,patch_scrap *,std::less<unsigned int>,std::allocator<std::pair<unsigned int const ,patch_scrap *> >,0> >::_Tree_val<std::_Tmap_traits<unsigned int,patch_scrap *,std::less<unsigned int>,std::allocator<std::pair<unsigned int const ,patch_scrap *> >,0> >, COMDAT
; _this$ = eax

; 96   : 		}

  00000	c2 04 00	 ret	 4
??0?$_Tree_val@V?$_Tmap_traits@IPAUpatch_scrap@@U?$less@I@std@@V?$allocator@U?$pair@$$CBIPAUpatch_scrap@@@std@@@3@$0A@@std@@@std@@IAE@ABU?$less@I@1@V?$allocator@U?$pair@$$CBIPAUpatch_scrap@@@std@@@1@@Z ENDP ; std::_Tree_val<std::_Tmap_traits<unsigned int,patch_scrap *,std::less<unsigned int>,std::allocator<std::pair<unsigned int const ,patch_scrap *> >,0> >::_Tree_val<std::_Tmap_traits<unsigned int,patch_scrap *,std::less<unsigned int>,std::allocator<std::pair<unsigned int const ,patch_scrap *> >,0> >
; Function compile flags: /Ogsy
_TEXT	ENDS
;	COMDAT ?_Lbound@?$_Tree@V?$_Tmap_traits@IPAUpatch_scrap@@U?$less@I@std@@V?$allocator@U?$pair@$$CBIPAUpatch_scrap@@@std@@@3@$0A@@std@@@std@@IBEPAU_Node@?$_Tree_nod@V?$_Tmap_traits@IPAUpatch_scrap@@U?$less@I@std@@V?$allocator@U?$pair@$$CBIPAUpatch_scrap@@@std@@@3@$0A@@std@@@2@ABI@Z
_TEXT	SEGMENT
?_Lbound@?$_Tree@V?$_Tmap_traits@IPAUpatch_scrap@@U?$less@I@std@@V?$allocator@U?$pair@$$CBIPAUpatch_scrap@@@std@@@3@$0A@@std@@@std@@IBEPAU_Node@?$_Tree_nod@V?$_Tmap_traits@IPAUpatch_scrap@@U?$less@I@std@@V?$allocator@U?$pair@$$CBIPAUpatch_scrap@@@std@@@3@$0A@@std@@@2@ABI@Z PROC NEAR ; std::_Tree<std::_Tmap_traits<unsigned int,patch_scrap *,std::less<unsigned int>,std::allocator<std::pair<unsigned int const ,patch_scrap *> >,0> >::_Lbound, COMDAT
; _this$ = eax
; __Keyval$ = edx

; 988  : 		_Nodeptr _Pnode = _Root();

  00000	8b 40 04	 mov	 eax, DWORD PTR [eax+4]
  00003	8b 48 04	 mov	 ecx, DWORD PTR [eax+4]

; 989  : 		_Nodeptr _Wherenode = _Myhead;	// end() if search fails
; 990  : 
; 991  : 		while (!_Isnil(_Pnode))

  00006	80 79 15 00	 cmp	 BYTE PTR [ecx+21], 0
  0000a	75 16		 jne	 SHORT $L25137
  0000c	8b 12		 mov	 edx, DWORD PTR [edx]
$L25136:

; 992  : 			if (this->comp(_Key(_Pnode), _Keyval))

  0000e	39 51 0c	 cmp	 DWORD PTR [ecx+12], edx
  00011	73 05		 jae	 SHORT $L25138

; 993  : 				_Pnode = _Right(_Pnode);	// descend right subtree

  00013	8b 49 08	 mov	 ecx, DWORD PTR [ecx+8]

; 994  : 			else

  00016	eb 04		 jmp	 SHORT $L25139
$L25138:

; 995  : 				{	// _Pnode not less than _Keyval, remember it
; 996  : 				_Wherenode = _Pnode;

  00018	8b c1		 mov	 eax, ecx

; 997  : 				_Pnode = _Left(_Pnode);	// descend left subtree

  0001a	8b 09		 mov	 ecx, DWORD PTR [ecx]
$L25139:

; 989  : 		_Nodeptr _Wherenode = _Myhead;	// end() if search fails
; 990  : 
; 991  : 		while (!_Isnil(_Pnode))

  0001c	80 79 15 00	 cmp	 BYTE PTR [ecx+21], 0
  00020	74 ec		 je	 SHORT $L25136
$L25137:

; 998  : 				}
; 999  : 
; 1000 : 		return (_Wherenode);	// return best remembered candidate
; 1001 : 		}

  00022	c3		 ret	 0
?_Lbound@?$_Tree@V?$_Tmap_traits@IPAUpatch_scrap@@U?$less@I@std@@V?$allocator@U?$pair@$$CBIPAUpatch_scrap@@@std@@@3@$0A@@std@@@std@@IBEPAU_Node@?$_Tree_nod@V?$_Tmap_traits@IPAUpatch_scrap@@U?$less@I@std@@V?$allocator@U?$pair@$$CBIPAUpatch_scrap@@@std@@@3@$0A@@std@@@2@ABI@Z ENDP ; std::_Tree<std::_Tmap_traits<unsigned int,patch_scrap *,std::less<unsigned int>,std::allocator<std::pair<unsigned int const ,patch_scrap *> >,0> >::_Lbound
; Function compile flags: /Ogsy
_TEXT	ENDS
;	COMDAT ?_Init@?$_Tree@V?$_Tmap_traits@IPAUpatch_scrap@@U?$less@I@std@@V?$allocator@U?$pair@$$CBIPAUpatch_scrap@@@std@@@3@$0A@@std@@@std@@IAEXXZ
_TEXT	SEGMENT
?_Init@?$_Tree@V?$_Tmap_traits@IPAUpatch_scrap@@U?$less@I@std@@V?$allocator@U?$pair@$$CBIPAUpatch_scrap@@@std@@@3@$0A@@std@@@std@@IAEXXZ PROC NEAR ; std::_Tree<std::_Tmap_traits<unsigned int,patch_scrap *,std::less<unsigned int>,std::allocator<std::pair<unsigned int const ,patch_scrap *> >,0> >::_Init, COMDAT
; _this$ = esi

; 902  : 		_Myhead = _Buynode();

  00000	e8 00 00 00 00	 call	 ?_Buynode@?$_Tree@V?$_Tmap_traits@IPAUpatch_scrap@@U?$less@I@std@@V?$allocator@U?$pair@$$CBIPAUpatch_scrap@@@std@@@3@$0A@@std@@@std@@IAEPAU_Node@?$_Tree_nod@V?$_Tmap_traits@IPAUpatch_scrap@@U?$less@I@std@@V?$allocator@U?$pair@$$CBIPAUpatch_scrap@@@std@@@3@$0A@@std@@@2@XZ ; std::_Tree<std::_Tmap_traits<unsigned int,patch_scrap *,std::less<unsigned int>,std::allocator<std::pair<unsigned int const ,patch_scrap *> >,0> >::_Buynode
  00005	8d 4e 04	 lea	 ecx, DWORD PTR [esi+4]
  00008	89 01		 mov	 DWORD PTR [ecx], eax

; 903  : 		_Isnil(_Myhead) = true;

  0000a	c6 40 15 01	 mov	 BYTE PTR [eax+21], 1

; 904  : 		_Root() = _Myhead;

  0000e	8b 01		 mov	 eax, DWORD PTR [ecx]
  00010	89 40 04	 mov	 DWORD PTR [eax+4], eax

; 905  : 		_Lmost() = _Myhead, _Rmost() = _Myhead;

  00013	8b 01		 mov	 eax, DWORD PTR [ecx]
  00015	89 00		 mov	 DWORD PTR [eax], eax
  00017	8b 09		 mov	 ecx, DWORD PTR [ecx]
  00019	89 49 08	 mov	 DWORD PTR [ecx+8], ecx

; 906  : 		_Mysize = 0;

  0001c	83 66 08 00	 and	 DWORD PTR [esi+8], 0

; 907  : 		}

  00020	c3		 ret	 0
?_Init@?$_Tree@V?$_Tmap_traits@IPAUpatch_scrap@@U?$less@I@std@@V?$allocator@U?$pair@$$CBIPAUpatch_scrap@@@std@@@3@$0A@@std@@@std@@IAEXXZ ENDP ; std::_Tree<std::_Tmap_traits<unsigned int,patch_scrap *,std::less<unsigned int>,std::allocator<std::pair<unsigned int const ,patch_scrap *> >,0> >::_Init
; Function compile flags: /Ogsy
_TEXT	ENDS
;	COMDAT ?lower_bound@?$_Tree@V?$_Tmap_traits@IPAUpatch_scrap@@U?$less@I@std@@V?$allocator@U?$pair@$$CBIPAUpatch_scrap@@@std@@@3@$0A@@std@@@std@@QBE?AVconst_iterator@12@ABI@Z
_TEXT	SEGMENT
?lower_bound@?$_Tree@V?$_Tmap_traits@IPAUpatch_scrap@@U?$less@I@std@@V?$allocator@U?$pair@$$CBIPAUpatch_scrap@@@std@@@3@$0A@@std@@@std@@QBE?AVconst_iterator@12@ABI@Z PROC NEAR ; std::_Tree<std::_Tmap_traits<unsigned int,patch_scrap *,std::less<unsigned int>,std::allocator<std::pair<unsigned int const ,patch_scrap *> >,0> >::lower_bound, COMDAT
; _this$ = eax
; ___$ReturnUdt$ = esi
; __Keyval$ = edx

; 815  : 		return (_TREE_CONST_ITERATOR(_Lbound(_Keyval)));

  00000	e8 00 00 00 00	 call	 ?_Lbound@?$_Tree@V?$_Tmap_traits@IPAUpatch_scrap@@U?$less@I@std@@V?$allocator@U?$pair@$$CBIPAUpatch_scrap@@@std@@@3@$0A@@std@@@std@@IBEPAU_Node@?$_Tree_nod@V?$_Tmap_traits@IPAUpatch_scrap@@U?$less@I@std@@V?$allocator@U?$pair@$$CBIPAUpatch_scrap@@@std@@@3@$0A@@std@@@2@ABI@Z ; std::_Tree<std::_Tmap_traits<unsigned int,patch_scrap *,std::less<unsigned int>,std::allocator<std::pair<unsigned int const ,patch_scrap *> >,0> >::_Lbound
  00005	89 06		 mov	 DWORD PTR [esi], eax
  00007	8b c6		 mov	 eax, esi

; 816  : 		}

  00009	c3		 ret	 0
?lower_bound@?$_Tree@V?$_Tmap_traits@IPAUpatch_scrap@@U?$less@I@std@@V?$allocator@U?$pair@$$CBIPAUpatch_scrap@@@std@@@3@$0A@@std@@@std@@QBE?AVconst_iterator@12@ABI@Z ENDP ; std::_Tree<std::_Tmap_traits<unsigned int,patch_scrap *,std::less<unsigned int>,std::allocator<std::pair<unsigned int const ,patch_scrap *> >,0> >::lower_bound
; Function compile flags: /Ogsy
_TEXT	ENDS
;	COMDAT ??Eiterator@?$_Tree@V?$_Tmap_traits@IPAUpatch_scrap@@U?$less@I@std@@V?$allocator@U?$pair@$$CBIPAUpatch_scrap@@@std@@@3@$0A@@std@@@std@@QAEAAV012@XZ
_TEXT	SEGMENT
_this$ = 8						; size = 4
??Eiterator@?$_Tree@V?$_Tmap_traits@IPAUpatch_scrap@@U?$less@I@std@@V?$allocator@U?$pair@$$CBIPAUpatch_scrap@@@std@@@3@$0A@@std@@@std@@QAEAAV012@XZ PROC NEAR ; std::_Tree<std::_Tmap_traits<unsigned int,patch_scrap *,std::less<unsigned int>,std::allocator<std::pair<unsigned int const ,patch_scrap *> >,0> >::iterator::operator++, COMDAT

; 327  : 			++(*(const_iterator *)this);

  00000	8b 54 24 04	 mov	 edx, DWORD PTR _this$[esp-4]
  00004	e8 00 00 00 00	 call	 ?_Inc@const_iterator@?$_Tree@V?$_Tmap_traits@IPAUpatch_scrap@@U?$less@I@std@@V?$allocator@U?$pair@$$CBIPAUpatch_scrap@@@std@@@3@$0A@@std@@@std@@QAEXXZ ; std::_Tree<std::_Tmap_traits<unsigned int,patch_scrap *,std::less<unsigned int>,std::allocator<std::pair<unsigned int const ,patch_scrap *> >,0> >::const_iterator::_Inc

; 328  : 			return (*this);

  00009	8b 44 24 04	 mov	 eax, DWORD PTR _this$[esp-4]

; 329  : 			}

  0000d	c2 04 00	 ret	 4
??Eiterator@?$_Tree@V?$_Tmap_traits@IPAUpatch_scrap@@U?$less@I@std@@V?$allocator@U?$pair@$$CBIPAUpatch_scrap@@@std@@@3@$0A@@std@@@std@@QAEAAV012@XZ ENDP ; std::_Tree<std::_Tmap_traits<unsigned int,patch_scrap *,std::less<unsigned int>,std::allocator<std::pair<unsigned int const ,patch_scrap *> >,0> >::iterator::operator++
; Function compile flags: /Ogsy
_TEXT	ENDS
;	COMDAT ??Diterator@?$_Tree@V?$_Tmap_traits@IPAUpatch_scrap@@U?$less@I@std@@V?$allocator@U?$pair@$$CBIPAUpatch_scrap@@@std@@@3@$0A@@std@@@std@@QBEAAU?$pair@$$CBIPAUpatch_scrap@@@2@XZ
_TEXT	SEGMENT
??Diterator@?$_Tree@V?$_Tmap_traits@IPAUpatch_scrap@@U?$less@I@std@@V?$allocator@U?$pair@$$CBIPAUpatch_scrap@@@std@@@3@$0A@@std@@@std@@QBEAAU?$pair@$$CBIPAUpatch_scrap@@@2@XZ PROC NEAR ; std::_Tree<std::_Tmap_traits<unsigned int,patch_scrap *,std::less<unsigned int>,std::allocator<std::pair<unsigned int const ,patch_scrap *> >,0> >::iterator::operator*, COMDAT
; _this$ = eax

; 317  : 			return ((reference)**(const_iterator *)this);

  00000	8b 00		 mov	 eax, DWORD PTR [eax]
  00002	83 c0 0c	 add	 eax, 12			; 0000000cH

; 318  : 			}

  00005	c3		 ret	 0
??Diterator@?$_Tree@V?$_Tmap_traits@IPAUpatch_scrap@@U?$less@I@std@@V?$allocator@U?$pair@$$CBIPAUpatch_scrap@@@std@@@3@$0A@@std@@@std@@QBEAAU?$pair@$$CBIPAUpatch_scrap@@@2@XZ ENDP ; std::_Tree<std::_Tmap_traits<unsigned int,patch_scrap *,std::less<unsigned int>,std::allocator<std::pair<unsigned int const ,patch_scrap *> >,0> >::iterator::operator*
; Function compile flags: /Ogsy
_TEXT	ENDS
;	COMDAT ?lower_bound@?$_Tree@V?$_Tmap_traits@IPAUpatch_scrap@@U?$less@I@std@@V?$allocator@U?$pair@$$CBIPAUpatch_scrap@@@std@@@3@$0A@@std@@@std@@QAE?AViterator@12@ABI@Z
_TEXT	SEGMENT
?lower_bound@?$_Tree@V?$_Tmap_traits@IPAUpatch_scrap@@U?$less@I@std@@V?$allocator@U?$pair@$$CBIPAUpatch_scrap@@@std@@@3@$0A@@std@@@std@@QAE?AViterator@12@ABI@Z PROC NEAR ; std::_Tree<std::_Tmap_traits<unsigned int,patch_scrap *,std::less<unsigned int>,std::allocator<std::pair<unsigned int const ,patch_scrap *> >,0> >::lower_bound, COMDAT
; _this$ = eax
; ___$ReturnUdt$ = esi
; __Keyval$ = edx

; 810  : 		return (_TREE_ITERATOR(_Lbound(_Keyval)));

  00000	e8 00 00 00 00	 call	 ?_Lbound@?$_Tree@V?$_Tmap_traits@IPAUpatch_scrap@@U?$less@I@std@@V?$allocator@U?$pair@$$CBIPAUpatch_scrap@@@std@@@3@$0A@@std@@@std@@IBEPAU_Node@?$_Tree_nod@V?$_Tmap_traits@IPAUpatch_scrap@@U?$less@I@std@@V?$allocator@U?$pair@$$CBIPAUpatch_scrap@@@std@@@3@$0A@@std@@@2@ABI@Z ; std::_Tree<std::_Tmap_traits<unsigned int,patch_scrap *,std::less<unsigned int>,std::allocator<std::pair<unsigned int const ,patch_scrap *> >,0> >::_Lbound
  00005	89 06		 mov	 DWORD PTR [esi], eax
  00007	8b c6		 mov	 eax, esi

; 811  : 		}

  00009	c3		 ret	 0
?lower_bound@?$_Tree@V?$_Tmap_traits@IPAUpatch_scrap@@U?$less@I@std@@V?$allocator@U?$pair@$$CBIPAUpatch_scrap@@@std@@@3@$0A@@std@@@std@@QAE?AViterator@12@ABI@Z ENDP ; std::_Tree<std::_Tmap_traits<unsigned int,patch_scrap *,std::less<unsigned int>,std::allocator<std::pair<unsigned int const ,patch_scrap *> >,0> >::lower_bound
; Function compile flags: /Ogsy
_TEXT	ENDS
;	COMDAT ??0?$_Tree@V?$_Tmap_traits@IPAUpatch_scrap@@U?$less@I@std@@V?$allocator@U?$pair@$$CBIPAUpatch_scrap@@@std@@@3@$0A@@std@@@std@@QAE@ABU?$less@I@1@ABV?$allocator@U?$pair@$$CBIPAUpatch_scrap@@@std@@@1@@Z
_TEXT	SEGMENT
??0?$_Tree@V?$_Tmap_traits@IPAUpatch_scrap@@U?$less@I@std@@V?$allocator@U?$pair@$$CBIPAUpatch_scrap@@@std@@@3@$0A@@std@@@std@@QAE@ABU?$less@I@1@ABV?$allocator@U?$pair@$$CBIPAUpatch_scrap@@@std@@@1@@Z PROC NEAR ; std::_Tree<std::_Tmap_traits<unsigned int,patch_scrap *,std::less<unsigned int>,std::allocator<std::pair<unsigned int const ,patch_scrap *> >,0> >::_Tree<std::_Tmap_traits<unsigned int,patch_scrap *,std::less<unsigned int>,std::allocator<std::pair<unsigned int const ,patch_scrap *> >,0> >, COMDAT
; _this$ = eax

; 361  : 		{	// construct empty tree

  00000	56		 push	 esi
  00001	8b f0		 mov	 esi, eax

; 362  : 		_Init();

  00003	e8 00 00 00 00	 call	 ?_Init@?$_Tree@V?$_Tmap_traits@IPAUpatch_scrap@@U?$less@I@std@@V?$allocator@U?$pair@$$CBIPAUpatch_scrap@@@std@@@3@$0A@@std@@@std@@IAEXXZ ; std::_Tree<std::_Tmap_traits<unsigned int,patch_scrap *,std::less<unsigned int>,std::allocator<std::pair<unsigned int const ,patch_scrap *> >,0> >::_Init

; 363  : 		}

  00008	8b c6		 mov	 eax, esi
  0000a	5e		 pop	 esi
  0000b	c3		 ret	 0
??0?$_Tree@V?$_Tmap_traits@IPAUpatch_scrap@@U?$less@I@std@@V?$allocator@U?$pair@$$CBIPAUpatch_scrap@@@std@@@3@$0A@@std@@@std@@QAE@ABU?$less@I@1@ABV?$allocator@U?$pair@$$CBIPAUpatch_scrap@@@std@@@1@@Z ENDP ; std::_Tree<std::_Tmap_traits<unsigned int,patch_scrap *,std::less<unsigned int>,std::allocator<std::pair<unsigned int const ,patch_scrap *> >,0> >::_Tree<std::_Tmap_traits<unsigned int,patch_scrap *,std::less<unsigned int>,std::allocator<std::pair<unsigned int const ,patch_scrap *> >,0> >
; Function compile flags: /Ogsy
_TEXT	ENDS
;	COMDAT ??Eiterator@?$_Tree@V?$_Tmap_traits@IPAUpatch_scrap@@U?$less@I@std@@V?$allocator@U?$pair@$$CBIPAUpatch_scrap@@@std@@@3@$0A@@std@@@std@@QAE?AV012@H@Z
_TEXT	SEGMENT
??Eiterator@?$_Tree@V?$_Tmap_traits@IPAUpatch_scrap@@U?$less@I@std@@V?$allocator@U?$pair@$$CBIPAUpatch_scrap@@@std@@@3@$0A@@std@@@std@@QAE?AV012@H@Z PROC NEAR ; std::_Tree<std::_Tmap_traits<unsigned int,patch_scrap *,std::less<unsigned int>,std::allocator<std::pair<unsigned int const ,patch_scrap *> >,0> >::iterator::operator++, COMDAT
; _this$ = edx
; ___$ReturnUdt$ = edi

; 332  : 			{	// postincrement

  00000	56		 push	 esi

; 333  : 			iterator _Tmp = *this;

  00001	8b 32		 mov	 esi, DWORD PTR [edx]

; 334  : 			++*this;

  00003	e8 00 00 00 00	 call	 ?_Inc@const_iterator@?$_Tree@V?$_Tmap_traits@IPAUpatch_scrap@@U?$less@I@std@@V?$allocator@U?$pair@$$CBIPAUpatch_scrap@@@std@@@3@$0A@@std@@@std@@QAEXXZ ; std::_Tree<std::_Tmap_traits<unsigned int,patch_scrap *,std::less<unsigned int>,std::allocator<std::pair<unsigned int const ,patch_scrap *> >,0> >::const_iterator::_Inc

; 335  : 			return (_Tmp);

  00008	89 37		 mov	 DWORD PTR [edi], esi
  0000a	8b c7		 mov	 eax, edi
  0000c	5e		 pop	 esi

; 336  : 			}

  0000d	c3		 ret	 0
??Eiterator@?$_Tree@V?$_Tmap_traits@IPAUpatch_scrap@@U?$less@I@std@@V?$allocator@U?$pair@$$CBIPAUpatch_scrap@@@std@@@3@$0A@@std@@@std@@QAE?AV012@H@Z ENDP ; std::_Tree<std::_Tmap_traits<unsigned int,patch_scrap *,std::less<unsigned int>,std::allocator<std::pair<unsigned int const ,patch_scrap *> >,0> >::iterator::operator++
; Function compile flags: /Ogsy
_TEXT	ENDS
;	COMDAT ??Citerator@?$_Tree@V?$_Tmap_traits@IPAUpatch_scrap@@U?$less@I@std@@V?$allocator@U?$pair@$$CBIPAUpatch_scrap@@@std@@@3@$0A@@std@@@std@@QBEPAU?$pair@$$CBIPAUpatch_scrap@@@2@XZ
_TEXT	SEGMENT
??Citerator@?$_Tree@V?$_Tmap_traits@IPAUpatch_scrap@@U?$less@I@std@@V?$allocator@U?$pair@$$CBIPAUpatch_scrap@@@std@@@3@$0A@@std@@@std@@QBEPAU?$pair@$$CBIPAUpatch_scrap@@@2@XZ PROC NEAR ; std::_Tree<std::_Tmap_traits<unsigned int,patch_scrap *,std::less<unsigned int>,std::allocator<std::pair<unsigned int const ,patch_scrap *> >,0> >::iterator::operator->, COMDAT
; _this$ = eax

; 322  : 			return (&**this);

  00000	8b 00		 mov	 eax, DWORD PTR [eax]
  00002	83 c0 0c	 add	 eax, 12			; 0000000cH

; 323  : 			}

  00005	c3		 ret	 0
??Citerator@?$_Tree@V?$_Tmap_traits@IPAUpatch_scrap@@U?$less@I@std@@V?$allocator@U?$pair@$$CBIPAUpatch_scrap@@@std@@@3@$0A@@std@@@std@@QBEPAU?$pair@$$CBIPAUpatch_scrap@@@2@XZ ENDP ; std::_Tree<std::_Tmap_traits<unsigned int,patch_scrap *,std::less<unsigned int>,std::allocator<std::pair<unsigned int const ,patch_scrap *> >,0> >::iterator::operator->
; Function compile flags: /Ogsy
; File c:\program files (x86)\microsoft visual studio .net 2003\vc7\include\xutility
;	COMDAT ??$_Distance2@Vconst_iterator@?$_Tree@V?$_Tmap_traits@IPAUpatch_scrap@@U?$less@I@std@@V?$allocator@U?$pair@$$CBIPAUpatch_scrap@@@std@@@3@$0A@@std@@@std@@I@std@@YAXVconst_iterator@?$_Tree@V?$_Tmap_traits@IPAUpatch_scrap@@U?$less@I@std@@V?$allocator@U?$pair@$$CBIPAUpatch_scrap@@@std@@@3@$0A@@std@@@0@0AAIUbidirectional_iterator_tag@0@@Z
_TEXT	SEGMENT
__First$ = 8						; size = 4
__Last$ = 12						; size = 4
___formal$ = 16						; size = 1
??$_Distance2@Vconst_iterator@?$_Tree@V?$_Tmap_traits@IPAUpatch_scrap@@U?$less@I@std@@V?$allocator@U?$pair@$$CBIPAUpatch_scrap@@@std@@@3@$0A@@std@@@std@@I@std@@YAXVconst_iterator@?$_Tree@V?$_Tmap_traits@IPAUpatch_scrap@@U?$less@I@std@@V?$allocator@U?$pair@$$CBIPAUpatch_scrap@@@std@@@3@$0A@@std@@@0@0AAIUbidirectional_iterator_tag@0@@Z PROC NEAR ; std::_Distance2<std::_Tree<std::_Tmap_traits<unsigned int,patch_scrap *,std::less<unsigned int>,std::allocator<std::pair<unsigned int const ,patch_scrap *> >,0> >::const_iterator,unsigned int>, COMDAT
; __Off$ = esi

; 469  : 	{	// add to _Off distance between bidirectional iterators (redundant)

  00000	57		 push	 edi

; 470  : 	for (; _First != _Last; ++_First)

  00001	8b 7c 24 0c	 mov	 edi, DWORD PTR __Last$[esp]
  00005	eb 0b		 jmp	 SHORT $L55829
$L55818:

; 471  : 		++_Off;

  00007	ff 06		 inc	 DWORD PTR [esi]
  00009	8d 54 24 08	 lea	 edx, DWORD PTR __First$[esp]
  0000d	e8 00 00 00 00	 call	 ?_Inc@const_iterator@?$_Tree@V?$_Tmap_traits@IPAUpatch_scrap@@U?$less@I@std@@V?$allocator@U?$pair@$$CBIPAUpatch_scrap@@@std@@@3@$0A@@std@@@std@@QAEXXZ ; std::_Tree<std::_Tmap_traits<unsigned int,patch_scrap *,std::less<unsigned int>,std::allocator<std::pair<unsigned int const ,patch_scrap *> >,0> >::const_iterator::_Inc
$L55829:

; 470  : 	for (; _First != _Last; ++_First)

  00012	39 7c 24 08	 cmp	 DWORD PTR __First$[esp], edi
  00016	75 ef		 jne	 SHORT $L55818
  00018	5f		 pop	 edi

; 472  : 	}

  00019	c3		 ret	 0
??$_Distance2@Vconst_iterator@?$_Tree@V?$_Tmap_traits@IPAUpatch_scrap@@U?$less@I@std@@V?$allocator@U?$pair@$$CBIPAUpatch_scrap@@@std@@@3@$0A@@std@@@std@@I@std@@YAXVconst_iterator@?$_Tree@V?$_Tmap_traits@IPAUpatch_scrap@@U?$less@I@std@@V?$allocator@U?$pair@$$CBIPAUpatch_scrap@@@std@@@3@$0A@@std@@@0@0AAIUbidirectional_iterator_tag@0@@Z ENDP ; std::_Distance2<std::_Tree<std::_Tmap_traits<unsigned int,patch_scrap *,std::less<unsigned int>,std::allocator<std::pair<unsigned int const ,patch_scrap *> >,0> >::const_iterator,unsigned int>
; Function compile flags: /Ogsy
_TEXT	ENDS
;	COMDAT ??$_Distance@Vconst_iterator@?$_Tree@V?$_Tmap_traits@IPAUpatch_scrap@@U?$less@I@std@@V?$allocator@U?$pair@$$CBIPAUpatch_scrap@@@std@@@3@$0A@@std@@@std@@I@std@@YAXVconst_iterator@?$_Tree@V?$_Tmap_traits@IPAUpatch_scrap@@U?$less@I@std@@V?$allocator@U?$pair@$$CBIPAUpatch_scrap@@@std@@@3@$0A@@std@@@0@0AAI@Z
_TEXT	SEGMENT
$T55833 = -4						; size = 1
__First$ = 8						; size = 4
__Last$ = 12						; size = 4
??$_Distance@Vconst_iterator@?$_Tree@V?$_Tmap_traits@IPAUpatch_scrap@@U?$less@I@std@@V?$allocator@U?$pair@$$CBIPAUpatch_scrap@@@std@@@3@$0A@@std@@@std@@I@std@@YAXVconst_iterator@?$_Tree@V?$_Tmap_traits@IPAUpatch_scrap@@U?$less@I@std@@V?$allocator@U?$pair@$$CBIPAUpatch_scrap@@@std@@@3@$0A@@std@@@0@0AAI@Z PROC NEAR ; std::_Distance<std::_Tree<std::_Tmap_traits<unsigned int,patch_scrap *,std::less<unsigned int>,std::allocator<std::pair<unsigned int const ,patch_scrap *> >,0> >::const_iterator,unsigned int>, COMDAT
; __Off$ = esi

; 497  : 	{	// add to _Off distance between iterators

  00000	55		 push	 ebp
  00001	8b ec		 mov	 ebp, esp
  00003	51		 push	 ecx

; 498  : 	_Distance2(_First, _Last, _Off, _Iter_cat(_First));

  00004	ff 75 fc	 push	 DWORD PTR $T55833[ebp]
  00007	ff 75 0c	 push	 DWORD PTR __Last$[ebp]
  0000a	ff 75 08	 push	 DWORD PTR __First$[ebp]
  0000d	e8 00 00 00 00	 call	 ??$_Distance2@Vconst_iterator@?$_Tree@V?$_Tmap_traits@IPAUpatch_scrap@@U?$less@I@std@@V?$allocator@U?$pair@$$CBIPAUpatch_scrap@@@std@@@3@$0A@@std@@@std@@I@std@@YAXVconst_iterator@?$_Tree@V?$_Tmap_traits@IPAUpatch_scrap@@U?$less@I@std@@V?$allocator@U?$pair@$$CBIPAUpatch_scrap@@@std@@@3@$0A@@std@@@0@0AAIUbidirectional_iterator_tag@0@@Z ; std::_Distance2<std::_Tree<std::_Tmap_traits<unsigned int,patch_scrap *,std::less<unsigned int>,std::allocator<std::pair<unsigned int const ,patch_scrap *> >,0> >::const_iterator,unsigned int>
  00012	83 c4 0c	 add	 esp, 12			; 0000000cH

; 499  : 	}

  00015	c9		 leave
  00016	c3		 ret	 0
??$_Distance@Vconst_iterator@?$_Tree@V?$_Tmap_traits@IPAUpatch_scrap@@U?$less@I@std@@V?$allocator@U?$pair@$$CBIPAUpatch_scrap@@@std@@@3@$0A@@std@@@std@@I@std@@YAXVconst_iterator@?$_Tree@V?$_Tmap_traits@IPAUpatch_scrap@@U?$less@I@std@@V?$allocator@U?$pair@$$CBIPAUpatch_scrap@@@std@@@3@$0A@@std@@@0@0AAI@Z ENDP ; std::_Distance<std::_Tree<std::_Tmap_traits<unsigned int,patch_scrap *,std::less<unsigned int>,std::allocator<std::pair<unsigned int const ,patch_scrap *> >,0> >::const_iterator,unsigned int>
; Function compile flags: /Ogsy
; File c:\program files (x86)\microsoft visual studio .net 2003\vc7\include\xtree
_TEXT	ENDS
;	COMDAT ?_Dec@const_iterator@?$_Tree@V?$_Tmap_traits@IPAUpatch_scrap@@U?$less@I@std@@V?$allocator@U?$pair@$$CBIPAUpatch_scrap@@@std@@@3@$0A@@std@@@std@@QAEXXZ
_TEXT	SEGMENT
?_Dec@const_iterator@?$_Tree@V?$_Tmap_traits@IPAUpatch_scrap@@U?$less@I@std@@V?$allocator@U?$pair@$$CBIPAUpatch_scrap@@@std@@@3@$0A@@std@@@std@@QAEXXZ PROC NEAR ; std::_Tree<std::_Tmap_traits<unsigned int,patch_scrap *,std::less<unsigned int>,std::allocator<std::pair<unsigned int const ,patch_scrap *> >,0> >::const_iterator::_Dec, COMDAT
; _this$ = ecx

; 251  : 			if (_Isnil(_Ptr))

  00000	8b 01		 mov	 eax, DWORD PTR [ecx]
  00002	53		 push	 ebx
  00003	32 db		 xor	 bl, bl
  00005	38 58 15	 cmp	 BYTE PTR [eax+21], bl
  00008	74 05		 je	 SHORT $L25566

; 252  : 				_Ptr = _Right(_Ptr);	// end() ==> rightmost

  0000a	8b 40 08	 mov	 eax, DWORD PTR [eax+8]

; 253  : 			else if (!_Isnil(_Left(_Ptr)))

  0000d	eb 2c		 jmp	 SHORT $L55894
$L25566:
  0000f	8b 10		 mov	 edx, DWORD PTR [eax]
  00011	38 5a 15	 cmp	 BYTE PTR [edx+21], bl
  00014	75 18		 jne	 SHORT $L55891

; 254  : 				_Ptr = _Max(_Left(_Ptr));	// ==> largest of left subtree

  00016	eb 02		 jmp	 SHORT $L55896
$L55875:
  00018	8b d0		 mov	 edx, eax
$L55896:
  0001a	8b 42 08	 mov	 eax, DWORD PTR [edx+8]
  0001d	38 58 15	 cmp	 BYTE PTR [eax+21], bl
  00020	74 f6		 je	 SHORT $L55875
  00022	89 11		 mov	 DWORD PTR [ecx], edx
  00024	5b		 pop	 ebx

; 263  : 				}
; 264  : 			}

  00025	c3		 ret	 0
$L25572:

; 255  : 			else
; 256  : 				{	// climb looking for left subtree
; 257  : 				_Nodeptr _Pnode;
; 258  : 				while (!_Isnil(_Pnode = _Parent(_Ptr))
; 259  : 					&& _Ptr == _Left(_Pnode))

  00026	8b 11		 mov	 edx, DWORD PTR [ecx]
  00028	3b 10		 cmp	 edx, DWORD PTR [eax]
  0002a	75 0a		 jne	 SHORT $L25573

; 260  : 					_Ptr = _Pnode;	// ==> parent while left subtree

  0002c	89 01		 mov	 DWORD PTR [ecx], eax
$L55891:

; 255  : 			else
; 256  : 				{	// climb looking for left subtree
; 257  : 				_Nodeptr _Pnode;
; 258  : 				while (!_Isnil(_Pnode = _Parent(_Ptr))
; 259  : 					&& _Ptr == _Left(_Pnode))

  0002e	8b 40 04	 mov	 eax, DWORD PTR [eax+4]
  00031	38 58 15	 cmp	 BYTE PTR [eax+21], bl
  00034	74 f0		 je	 SHORT $L25572
$L25573:

; 261  : 				if (!_Isnil(_Pnode))

  00036	38 58 15	 cmp	 BYTE PTR [eax+21], bl
  00039	75 02		 jne	 SHORT $L25574
$L55894:

; 262  : 					_Ptr = _Pnode;	// ==> parent if not head

  0003b	89 01		 mov	 DWORD PTR [ecx], eax
$L25574:
  0003d	5b		 pop	 ebx

; 263  : 				}
; 264  : 			}

  0003e	c3		 ret	 0
?_Dec@const_iterator@?$_Tree@V?$_Tmap_traits@IPAUpatch_scrap@@U?$less@I@std@@V?$allocator@U?$pair@$$CBIPAUpatch_scrap@@@std@@@3@$0A@@std@@@std@@QAEXXZ ENDP ; std::_Tree<std::_Tmap_traits<unsigned int,patch_scrap *,std::less<unsigned int>,std::allocator<std::pair<unsigned int const ,patch_scrap *> >,0> >::const_iterator::_Dec
; Function compile flags: /Ogsy
_TEXT	ENDS
;	COMDAT ??Fconst_iterator@?$_Tree@V?$_Tmap_traits@IPAUpatch_scrap@@U?$less@I@std@@V?$allocator@U?$pair@$$CBIPAUpatch_scrap@@@std@@@3@$0A@@std@@@std@@QAEAAV012@XZ
_TEXT	SEGMENT
_this$ = 8						; size = 4
??Fconst_iterator@?$_Tree@V?$_Tmap_traits@IPAUpatch_scrap@@U?$less@I@std@@V?$allocator@U?$pair@$$CBIPAUpatch_scrap@@@std@@@3@$0A@@std@@@std@@QAEAAV012@XZ PROC NEAR ; std::_Tree<std::_Tmap_traits<unsigned int,patch_scrap *,std::less<unsigned int>,std::allocator<std::pair<unsigned int const ,patch_scrap *> >,0> >::const_iterator::operator--, COMDAT

; 228  : 			_Dec();

  00000	8b 4c 24 04	 mov	 ecx, DWORD PTR _this$[esp-4]
  00004	e8 00 00 00 00	 call	 ?_Dec@const_iterator@?$_Tree@V?$_Tmap_traits@IPAUpatch_scrap@@U?$less@I@std@@V?$allocator@U?$pair@$$CBIPAUpatch_scrap@@@std@@@3@$0A@@std@@@std@@QAEXXZ ; std::_Tree<std::_Tmap_traits<unsigned int,patch_scrap *,std::less<unsigned int>,std::allocator<std::pair<unsigned int const ,patch_scrap *> >,0> >::const_iterator::_Dec

; 229  : 			return (*this);

  00009	8b 44 24 04	 mov	 eax, DWORD PTR _this$[esp-4]

; 230  : 			}

  0000d	c2 04 00	 ret	 4
??Fconst_iterator@?$_Tree@V?$_Tmap_traits@IPAUpatch_scrap@@U?$less@I@std@@V?$allocator@U?$pair@$$CBIPAUpatch_scrap@@@std@@@3@$0A@@std@@@std@@QAEAAV012@XZ ENDP ; std::_Tree<std::_Tmap_traits<unsigned int,patch_scrap *,std::less<unsigned int>,std::allocator<std::pair<unsigned int const ,patch_scrap *> >,0> >::const_iterator::operator--
; Function compile flags: /Ogsy
_TEXT	ENDS
;	COMDAT ?_Ubound@?$_Tree@V?$_Tmap_traits@IPAUpatch_scrap@@U?$less@I@std@@V?$allocator@U?$pair@$$CBIPAUpatch_scrap@@@std@@@3@$0A@@std@@@std@@IBEPAU_Node@?$_Tree_nod@V?$_Tmap_traits@IPAUpatch_scrap@@U?$less@I@std@@V?$allocator@U?$pair@$$CBIPAUpatch_scrap@@@std@@@3@$0A@@std@@@2@ABI@Z
_TEXT	SEGMENT
?_Ubound@?$_Tree@V?$_Tmap_traits@IPAUpatch_scrap@@U?$less@I@std@@V?$allocator@U?$pair@$$CBIPAUpatch_scrap@@@std@@@3@$0A@@std@@@std@@IBEPAU_Node@?$_Tree_nod@V?$_Tmap_traits@IPAUpatch_scrap@@U?$less@I@std@@V?$allocator@U?$pair@$$CBIPAUpatch_scrap@@@std@@@3@$0A@@std@@@2@ABI@Z PROC NEAR ; std::_Tree<std::_Tmap_traits<unsigned int,patch_scrap *,std::less<unsigned int>,std::allocator<std::pair<unsigned int const ,patch_scrap *> >,0> >::_Ubound, COMDAT
; _this$ = eax
; __Keyval$ = edx

; 1089 : 		_Nodeptr _Pnode = _Root();

  00000	8b 40 04	 mov	 eax, DWORD PTR [eax+4]
  00003	8b 48 04	 mov	 ecx, DWORD PTR [eax+4]

; 1090 : 		_Nodeptr _Wherenode = _Myhead;	// end() if search fails
; 1091 : 
; 1092 : 		while (!_Isnil(_Pnode))

  00006	80 79 15 00	 cmp	 BYTE PTR [ecx+21], 0
  0000a	75 16		 jne	 SHORT $L25431
  0000c	8b 12		 mov	 edx, DWORD PTR [edx]
$L25430:

; 1093 : 			if (this->comp(_Keyval, _Key(_Pnode)))

  0000e	3b 51 0c	 cmp	 edx, DWORD PTR [ecx+12]
  00011	73 06		 jae	 SHORT $L25432

; 1094 : 				{	// _Pnode greater than _Keyval, remember it
; 1095 : 				_Wherenode = _Pnode;

  00013	8b c1		 mov	 eax, ecx

; 1096 : 				_Pnode = _Left(_Pnode);	// descend left subtree

  00015	8b 09		 mov	 ecx, DWORD PTR [ecx]

; 1097 : 				}
; 1098 : 			else

  00017	eb 03		 jmp	 SHORT $L25433
$L25432:

; 1099 : 				_Pnode = _Right(_Pnode);	// descend right subtree

  00019	8b 49 08	 mov	 ecx, DWORD PTR [ecx+8]
$L25433:

; 1090 : 		_Nodeptr _Wherenode = _Myhead;	// end() if search fails
; 1091 : 
; 1092 : 		while (!_Isnil(_Pnode))

  0001c	80 79 15 00	 cmp	 BYTE PTR [ecx+21], 0
  00020	74 ec		 je	 SHORT $L25430
$L25431:

; 1100 : 
; 1101 : 		return (_Wherenode);	// return best remembered candidate
; 1102 : 		}

  00022	c3		 ret	 0
?_Ubound@?$_Tree@V?$_Tmap_traits@IPAUpatch_scrap@@U?$less@I@std@@V?$allocator@U?$pair@$$CBIPAUpatch_scrap@@@std@@@3@$0A@@std@@@std@@IBEPAU_Node@?$_Tree_nod@V?$_Tmap_traits@IPAUpatch_scrap@@U?$less@I@std@@V?$allocator@U?$pair@$$CBIPAUpatch_scrap@@@std@@@3@$0A@@std@@@2@ABI@Z ENDP ; std::_Tree<std::_Tmap_traits<unsigned int,patch_scrap *,std::less<unsigned int>,std::allocator<std::pair<unsigned int const ,patch_scrap *> >,0> >::_Ubound
; Function compile flags: /Ogsy
_TEXT	ENDS
;	COMDAT ??Fiterator@?$_Tree@V?$_Tmap_traits@IPAUpatch_scrap@@U?$less@I@std@@V?$allocator@U?$pair@$$CBIPAUpatch_scrap@@@std@@@3@$0A@@std@@@std@@QAEAAV012@XZ
_TEXT	SEGMENT
_this$ = 8						; size = 4
??Fiterator@?$_Tree@V?$_Tmap_traits@IPAUpatch_scrap@@U?$less@I@std@@V?$allocator@U?$pair@$$CBIPAUpatch_scrap@@@std@@@3@$0A@@std@@@std@@QAEAAV012@XZ PROC NEAR ; std::_Tree<std::_Tmap_traits<unsigned int,patch_scrap *,std::less<unsigned int>,std::allocator<std::pair<unsigned int const ,patch_scrap *> >,0> >::iterator::operator--, COMDAT

; 340  : 			--(*(const_iterator *)this);

  00000	8b 4c 24 04	 mov	 ecx, DWORD PTR _this$[esp-4]
  00004	e8 00 00 00 00	 call	 ?_Dec@const_iterator@?$_Tree@V?$_Tmap_traits@IPAUpatch_scrap@@U?$less@I@std@@V?$allocator@U?$pair@$$CBIPAUpatch_scrap@@@std@@@3@$0A@@std@@@std@@QAEXXZ ; std::_Tree<std::_Tmap_traits<unsigned int,patch_scrap *,std::less<unsigned int>,std::allocator<std::pair<unsigned int const ,patch_scrap *> >,0> >::const_iterator::_Dec

; 341  : 			return (*this);

  00009	8b 44 24 04	 mov	 eax, DWORD PTR _this$[esp-4]

; 342  : 			}

  0000d	c2 04 00	 ret	 4
??Fiterator@?$_Tree@V?$_Tmap_traits@IPAUpatch_scrap@@U?$less@I@std@@V?$allocator@U?$pair@$$CBIPAUpatch_scrap@@@std@@@3@$0A@@std@@@std@@QAEAAV012@XZ ENDP ; std::_Tree<std::_Tmap_traits<unsigned int,patch_scrap *,std::less<unsigned int>,std::allocator<std::pair<unsigned int const ,patch_scrap *> >,0> >::iterator::operator--
; Function compile flags: /Ogsy
_TEXT	ENDS
;	COMDAT ?upper_bound@?$_Tree@V?$_Tmap_traits@IPAUpatch_scrap@@U?$less@I@std@@V?$allocator@U?$pair@$$CBIPAUpatch_scrap@@@std@@@3@$0A@@std@@@std@@QBE?AVconst_iterator@12@ABI@Z
_TEXT	SEGMENT
?upper_bound@?$_Tree@V?$_Tmap_traits@IPAUpatch_scrap@@U?$less@I@std@@V?$allocator@U?$pair@$$CBIPAUpatch_scrap@@@std@@@3@$0A@@std@@@std@@QBE?AVconst_iterator@12@ABI@Z PROC NEAR ; std::_Tree<std::_Tmap_traits<unsigned int,patch_scrap *,std::less<unsigned int>,std::allocator<std::pair<unsigned int const ,patch_scrap *> >,0> >::upper_bound, COMDAT
; _this$ = eax
; ___$ReturnUdt$ = esi
; __Keyval$ = edx

; 825  : 		return (_TREE_CONST_ITERATOR(_Ubound(_Keyval)));

  00000	e8 00 00 00 00	 call	 ?_Ubound@?$_Tree@V?$_Tmap_traits@IPAUpatch_scrap@@U?$less@I@std@@V?$allocator@U?$pair@$$CBIPAUpatch_scrap@@@std@@@3@$0A@@std@@@std@@IBEPAU_Node@?$_Tree_nod@V?$_Tmap_traits@IPAUpatch_scrap@@U?$less@I@std@@V?$allocator@U?$pair@$$CBIPAUpatch_scrap@@@std@@@3@$0A@@std@@@2@ABI@Z ; std::_Tree<std::_Tmap_traits<unsigned int,patch_scrap *,std::less<unsigned int>,std::allocator<std::pair<unsigned int const ,patch_scrap *> >,0> >::_Ubound
  00005	89 06		 mov	 DWORD PTR [esi], eax
  00007	8b c6		 mov	 eax, esi

; 826  : 		}

  00009	c3		 ret	 0
?upper_bound@?$_Tree@V?$_Tmap_traits@IPAUpatch_scrap@@U?$less@I@std@@V?$allocator@U?$pair@$$CBIPAUpatch_scrap@@@std@@@3@$0A@@std@@@std@@QBE?AVconst_iterator@12@ABI@Z ENDP ; std::_Tree<std::_Tmap_traits<unsigned int,patch_scrap *,std::less<unsigned int>,std::allocator<std::pair<unsigned int const ,patch_scrap *> >,0> >::upper_bound
; Function compile flags: /Ogsy
_TEXT	ENDS
;	COMDAT ?equal_range@?$_Tree@V?$_Tmap_traits@IPAUpatch_scrap@@U?$less@I@std@@V?$allocator@U?$pair@$$CBIPAUpatch_scrap@@@std@@@3@$0A@@std@@@std@@QBE?AU?$pair@Vconst_iterator@?$_Tree@V?$_Tmap_traits@IPAUpatch_scrap@@U?$less@I@std@@V?$allocator@U?$pair@$$CBIPAUpatch_scrap@@@std@@@3@$0A@@std@@@std@@V123@@2@ABI@Z
_TEXT	SEGMENT
_this$ = 8						; size = 4
__Keyval$ = 12						; size = 4
?equal_range@?$_Tree@V?$_Tmap_traits@IPAUpatch_scrap@@U?$less@I@std@@V?$allocator@U?$pair@$$CBIPAUpatch_scrap@@@std@@@3@$0A@@std@@@std@@QBE?AU?$pair@Vconst_iterator@?$_Tree@V?$_Tmap_traits@IPAUpatch_scrap@@U?$less@I@std@@V?$allocator@U?$pair@$$CBIPAUpatch_scrap@@@std@@@3@$0A@@std@@@std@@V123@@2@ABI@Z PROC NEAR ; std::_Tree<std::_Tmap_traits<unsigned int,patch_scrap *,std::less<unsigned int>,std::allocator<std::pair<unsigned int const ,patch_scrap *> >,0> >::equal_range, COMDAT
; ___$ReturnUdt$ = esi

; 835  : 		return (_Paircc(lower_bound(_Keyval), upper_bound(_Keyval)));

  00000	8b 54 24 08	 mov	 edx, DWORD PTR __Keyval$[esp-4]
  00004	8b 44 24 04	 mov	 eax, DWORD PTR _this$[esp-4]
  00008	57		 push	 edi
  00009	e8 00 00 00 00	 call	 ?_Ubound@?$_Tree@V?$_Tmap_traits@IPAUpatch_scrap@@U?$less@I@std@@V?$allocator@U?$pair@$$CBIPAUpatch_scrap@@@std@@@3@$0A@@std@@@std@@IBEPAU_Node@?$_Tree_nod@V?$_Tmap_traits@IPAUpatch_scrap@@U?$less@I@std@@V?$allocator@U?$pair@$$CBIPAUpatch_scrap@@@std@@@3@$0A@@std@@@2@ABI@Z ; std::_Tree<std::_Tmap_traits<unsigned int,patch_scrap *,std::less<unsigned int>,std::allocator<std::pair<unsigned int const ,patch_scrap *> >,0> >::_Ubound
  0000e	8b 54 24 0c	 mov	 edx, DWORD PTR __Keyval$[esp]
  00012	8b f8		 mov	 edi, eax
  00014	8b 44 24 08	 mov	 eax, DWORD PTR _this$[esp]
  00018	e8 00 00 00 00	 call	 ?_Lbound@?$_Tree@V?$_Tmap_traits@IPAUpatch_scrap@@U?$less@I@std@@V?$allocator@U?$pair@$$CBIPAUpatch_scrap@@@std@@@3@$0A@@std@@@std@@IBEPAU_Node@?$_Tree_nod@V?$_Tmap_traits@IPAUpatch_scrap@@U?$less@I@std@@V?$allocator@U?$pair@$$CBIPAUpatch_scrap@@@std@@@3@$0A@@std@@@2@ABI@Z ; std::_Tree<std::_Tmap_traits<unsigned int,patch_scrap *,std::less<unsigned int>,std::allocator<std::pair<unsigned int const ,patch_scrap *> >,0> >::_Lbound
  0001d	89 06		 mov	 DWORD PTR [esi], eax
  0001f	89 7e 04	 mov	 DWORD PTR [esi+4], edi
  00022	8b c6		 mov	 eax, esi
  00024	5f		 pop	 edi

; 836  : 		}

  00025	c2 08 00	 ret	 8
?equal_range@?$_Tree@V?$_Tmap_traits@IPAUpatch_scrap@@U?$less@I@std@@V?$allocator@U?$pair@$$CBIPAUpatch_scrap@@@std@@@3@$0A@@std@@@std@@QBE?AU?$pair@Vconst_iterator@?$_Tree@V?$_Tmap_traits@IPAUpatch_scrap@@U?$less@I@std@@V?$allocator@U?$pair@$$CBIPAUpatch_scrap@@@std@@@3@$0A@@std@@@std@@V123@@2@ABI@Z ENDP ; std::_Tree<std::_Tmap_traits<unsigned int,patch_scrap *,std::less<unsigned int>,std::allocator<std::pair<unsigned int const ,patch_scrap *> >,0> >::equal_range
; Function compile flags: /Ogsy
_TEXT	ENDS
;	COMDAT ?count@?$_Tree@V?$_Tmap_traits@IPAUpatch_scrap@@U?$less@I@std@@V?$allocator@U?$pair@$$CBIPAUpatch_scrap@@@std@@@3@$0A@@std@@@std@@QBEIABI@Z
_TEXT	SEGMENT
__Ans$ = -8						; size = 8
_this$ = 8						; size = 4
$T56011 = 12						; size = 4
__Keyval$ = 12						; size = 4
?count@?$_Tree@V?$_Tmap_traits@IPAUpatch_scrap@@U?$less@I@std@@V?$allocator@U?$pair@$$CBIPAUpatch_scrap@@@std@@@3@$0A@@std@@@std@@QBEIABI@Z PROC NEAR ; std::_Tree<std::_Tmap_traits<unsigned int,patch_scrap *,std::less<unsigned int>,std::allocator<std::pair<unsigned int const ,patch_scrap *> >,0> >::count, COMDAT

; 801  : 		{	// count all elements that match _Keyval

  00000	55		 push	 ebp
  00001	8b ec		 mov	 ebp, esp
  00003	51		 push	 ecx
  00004	51		 push	 ecx
  00005	56		 push	 esi
  00006	57		 push	 edi

; 802  : 		_Paircc _Ans = equal_range(_Keyval);

  00007	ff 75 0c	 push	 DWORD PTR __Keyval$[ebp]
  0000a	8d 75 f8	 lea	 esi, DWORD PTR __Ans$[ebp]
  0000d	ff 75 08	 push	 DWORD PTR _this$[ebp]
  00010	e8 00 00 00 00	 call	 ?equal_range@?$_Tree@V?$_Tmap_traits@IPAUpatch_scrap@@U?$less@I@std@@V?$allocator@U?$pair@$$CBIPAUpatch_scrap@@@std@@@3@$0A@@std@@@std@@QBE?AU?$pair@Vconst_iterator@?$_Tree@V?$_Tmap_traits@IPAUpatch_scrap@@U?$less@I@std@@V?$allocator@U?$pair@$$CBIPAUpatch_scrap@@@std@@@3@$0A@@std@@@std@@V123@@2@ABI@Z ; std::_Tree<std::_Tmap_traits<unsigned int,patch_scrap *,std::less<unsigned int>,std::allocator<std::pair<unsigned int const ,patch_scrap *> >,0> >::equal_range

; 803  : 		size_type _Num = 0;
; 804  : 		_Distance(_Ans.first, _Ans.second, _Num);

  00015	8b 45 f8	 mov	 eax, DWORD PTR __Ans$[ebp]
  00018	8b 75 fc	 mov	 esi, DWORD PTR __Ans$[ebp+4]
  0001b	33 ff		 xor	 edi, edi
  0001d	3b c6		 cmp	 eax, esi
  0001f	89 45 0c	 mov	 DWORD PTR $T56011[ebp], eax
  00022	74 0e		 je	 SHORT $L56021
$L56023:
  00024	8d 55 0c	 lea	 edx, DWORD PTR $T56011[ebp]
  00027	47		 inc	 edi
  00028	e8 00 00 00 00	 call	 ?_Inc@const_iterator@?$_Tree@V?$_Tmap_traits@IPAUpatch_scrap@@U?$less@I@std@@V?$allocator@U?$pair@$$CBIPAUpatch_scrap@@@std@@@3@$0A@@std@@@std@@QAEXXZ ; std::_Tree<std::_Tmap_traits<unsigned int,patch_scrap *,std::less<unsigned int>,std::allocator<std::pair<unsigned int const ,patch_scrap *> >,0> >::const_iterator::_Inc
  0002d	39 75 0c	 cmp	 DWORD PTR $T56011[ebp], esi
  00030	75 f2		 jne	 SHORT $L56023
$L56021:

; 805  : 		return (_Num);

  00032	8b c7		 mov	 eax, edi
  00034	5f		 pop	 edi
  00035	5e		 pop	 esi

; 806  : 		}

  00036	c9		 leave
  00037	c2 08 00	 ret	 8
?count@?$_Tree@V?$_Tmap_traits@IPAUpatch_scrap@@U?$less@I@std@@V?$allocator@U?$pair@$$CBIPAUpatch_scrap@@@std@@@3@$0A@@std@@@std@@QBEIABI@Z ENDP ; std::_Tree<std::_Tmap_traits<unsigned int,patch_scrap *,std::less<unsigned int>,std::allocator<std::pair<unsigned int const ,patch_scrap *> >,0> >::count
;	COMDAT xdata$x
; File c:\program files (x86)\microsoft visual studio .net 2003\vc7\include\xiosbase
xdata$x	SEGMENT
$T61976	DD	0ffffffffH
	DD	FLAT:$L61938
	DD	00H
	DD	FLAT:$L61939
	DD	00H
	DD	00H
	DD	00H
	DD	00H
$T61978	DD	00H
	DD	00H
	DD	00H
	DD	FLAT:$L61937
$T61977	DD	02H
	DD	02H
	DD	03H
	DD	01H
	DD	FLAT:$T61978
$T61972	DD	019930520H
	DD	04H
	DD	FLAT:$T61976
	DD	01H
	DD	FLAT:$T61977
	DD	2 DUP(00H)
; Function compile flags: /Ogsy
; File c:\program files (x86)\microsoft visual studio .net 2003\vc7\include\ostream
xdata$x	ENDS
;	COMDAT ??6?$basic_ostream@DU?$char_traits@D@std@@@std@@QAEAAV01@_N@Z
_TEXT	SEGMENT
$T61934 = -40						; size = 8
$T61933 = -40						; size = 8
__Ok$ = -32						; size = 8
$T61947 = -24						; size = 1
$T61930 = -24						; size = 4
__State$ = -20						; size = 4
__$EHRec$ = -16						; size = 16
_this$ = 8						; size = 4
__Val$ = 12						; size = 1
??6?$basic_ostream@DU?$char_traits@D@std@@@std@@QAEAAV01@_N@Z PROC NEAR ; std::basic_ostream<char,std::char_traits<char> >::operator<<, COMDAT

; 155  : 		{	// insert a boolean

  00000	b8 00 00 00 00	 mov	 eax, __ehhandler$??6?$basic_ostream@DU?$char_traits@D@std@@@std@@QAEAAV01@_N@Z
  00005	e8 00 00 00 00	 call	 __EH_prolog
  0000a	83 ec 1c	 sub	 esp, 28			; 0000001cH
  0000d	53		 push	 ebx
  0000e	56		 push	 esi
  0000f	57		 push	 edi
  00010	8b 7d 08	 mov	 edi, DWORD PTR _this$[ebp]

; 156  : 		ios_base::iostate _State = ios_base::goodbit;
; 157  : 		const sentry _Ok(*this);

  00013	8d 45 e0	 lea	 eax, DWORD PTR __Ok$[ebp]
  00016	89 65 f0	 mov	 DWORD PTR __$EHRec$[ebp], esp
  00019	33 db		 xor	 ebx, ebx
  0001b	50		 push	 eax
  0001c	89 5d ec	 mov	 DWORD PTR __State$[ebp], ebx
  0001f	e8 00 00 00 00	 call	 ??0sentry@?$basic_ostream@DU?$char_traits@D@std@@@std@@QAE@AAV12@@Z ; std::basic_ostream<char,std::char_traits<char> >::sentry::sentry
  00024	89 5d fc	 mov	 DWORD PTR __$EHRec$[ebp+12], ebx

; 158  : 
; 159  : 		if (_Ok)

  00027	38 5d e4	 cmp	 BYTE PTR __Ok$[ebp+4], bl
  0002a	0f 84 87 00 00
	00		 je	 $L24423

; 160  : 			{	// state okay, use facet to insert
; 161  : 			const _Nput& _Nput_fac = _USE(ios_base::getloc(), _Nput);

  00030	8d 45 e8	 lea	 eax, DWORD PTR $T61930[ebp]
  00033	50		 push	 eax
  00034	8b 07		 mov	 eax, DWORD PTR [edi]
  00036	8b 48 04	 mov	 ecx, DWORD PTR [eax+4]
  00039	03 cf		 add	 ecx, edi
  0003b	e8 00 00 00 00	 call	 ?getloc@ios_base@std@@QBE?AVlocale@2@XZ ; std::ios_base::getloc
  00040	50		 push	 eax
  00041	c6 45 fc 01	 mov	 BYTE PTR __$EHRec$[ebp+12], 1
  00045	e8 00 00 00 00	 call	 ??$use_facet@V?$num_put@DV?$ostreambuf_iterator@DU?$char_traits@D@std@@@std@@@std@@@std@@YAABV?$num_put@DV?$ostreambuf_iterator@DU?$char_traits@D@std@@@std@@@0@ABVlocale@0@@Z ; std::use_facet<std::num_put<char,std::ostreambuf_iterator<char,std::char_traits<char> > > >
  0004a	59		 pop	 ecx
  0004b	8d 4d e8	 lea	 ecx, DWORD PTR $T61930[ebp]
  0004e	8b f0		 mov	 esi, eax
  00050	e8 00 00 00 00	 call	 ??1locale@std@@QAE@XZ	; std::locale::~locale

; 162  : 
; 163  : 			_TRY_IO_BEGIN
; 164  : 			if (_Nput_fac.put(_Iter(_Myios::rdbuf()), *this,
; 165  : 				_Myios::fill(), _Val).failed())

  00055	ff 75 0c	 push	 DWORD PTR __Val$[ebp]
  00058	c6 45 fc 02	 mov	 BYTE PTR __$EHRec$[ebp+12], 2
  0005c	8b 0f		 mov	 ecx, DWORD PTR [edi]
  0005e	8b 41 04	 mov	 eax, DWORD PTR [ecx+4]
  00061	8b 49 04	 mov	 ecx, DWORD PTR [ecx+4]
  00064	03 cf		 add	 ecx, edi
  00066	8a 51 30	 mov	 dl, BYTE PTR [ecx+48]
  00069	8b 49 28	 mov	 ecx, DWORD PTR [ecx+40]
  0006c	88 55 e8	 mov	 BYTE PTR $T61947[ebp], dl
  0006f	ff 75 e8	 push	 DWORD PTR $T61947[ebp]
  00072	03 c7		 add	 eax, edi
  00074	50		 push	 eax
  00075	51		 push	 ecx
  00076	88 5d d8	 mov	 BYTE PTR $T61933[ebp], bl
  00079	ff 75 d8	 push	 DWORD PTR $T61933[ebp]
  0007c	8d 45 d8	 lea	 eax, DWORD PTR $T61934[ebp]
  0007f	50		 push	 eax
  00080	8b ce		 mov	 ecx, esi
  00082	e8 00 00 00 00	 call	 ?put@?$num_put@DV?$ostreambuf_iterator@DU?$char_traits@D@std@@@std@@@std@@QBE?AV?$ostreambuf_iterator@DU?$char_traits@D@std@@@2@V32@AAVios_base@2@D_N@Z ; std::num_put<char,std::ostreambuf_iterator<char,std::char_traits<char> > >::put
  00087	38 18		 cmp	 BYTE PTR [eax], bl
  00089	74 2c		 je	 SHORT $L24423

; 166  : 				_State |= ios_base::badbit;

  0008b	c7 45 ec 04 00
	00 00		 mov	 DWORD PTR __State$[ebp], 4
  00092	eb 23		 jmp	 SHORT $L24423
$L61937:

; 167  : 			_CATCH_IO_END

  00094	8b 45 08	 mov	 eax, DWORD PTR _this$[ebp]
  00097	8b 08		 mov	 ecx, DWORD PTR [eax]
  00099	8b 49 04	 mov	 ecx, DWORD PTR [ecx+4]
  0009c	03 c8		 add	 ecx, eax
  0009e	8b 41 08	 mov	 eax, DWORD PTR [ecx+8]
  000a1	6a 01		 push	 1
  000a3	83 c8 04	 or	 eax, 4
  000a6	50		 push	 eax
  000a7	e8 00 00 00 00	 call	 ?clear@?$basic_ios@DU?$char_traits@D@std@@@std@@QAEXH_N@Z ; std::basic_ios<char,std::char_traits<char> >::clear
  000ac	b8 00 00 00 00	 mov	 eax, $L61973
  000b1	c3		 ret	 0
$L61973:
  000b2	8b 7d 08	 mov	 edi, DWORD PTR _this$[ebp]
  000b5	33 db		 xor	 ebx, ebx
$L24423:
  000b7	89 5d fc	 mov	 DWORD PTR __$EHRec$[ebp+12], ebx

; 168  : 			}
; 169  : 
; 170  : 		_Myios::setstate(_State);

  000ba	8b 07		 mov	 eax, DWORD PTR [edi]
  000bc	8b 48 04	 mov	 ecx, DWORD PTR [eax+4]
  000bf	53		 push	 ebx
  000c0	ff 75 ec	 push	 DWORD PTR __State$[ebp]
  000c3	03 cf		 add	 ecx, edi
  000c5	e8 00 00 00 00	 call	 ?setstate@?$basic_ios@DU?$char_traits@D@std@@@std@@QAEXH_N@Z ; std::basic_ios<char,std::char_traits<char> >::setstate

; 171  : 		return (*this);

  000ca	83 4d fc ff	 or	 DWORD PTR __$EHRec$[ebp+12], -1
  000ce	8d 45 e0	 lea	 eax, DWORD PTR __Ok$[ebp]
  000d1	50		 push	 eax
  000d2	e8 00 00 00 00	 call	 ??1sentry@?$basic_ostream@DU?$char_traits@D@std@@@std@@QAE@XZ ; std::basic_ostream<char,std::char_traits<char> >::sentry::~sentry

; 172  : 		}

  000d7	8b 4d f4	 mov	 ecx, DWORD PTR __$EHRec$[ebp+4]
  000da	8b c7		 mov	 eax, edi
  000dc	5f		 pop	 edi
  000dd	5e		 pop	 esi
  000de	64 89 0d 00 00
	00 00		 mov	 DWORD PTR fs:__except_list, ecx
  000e5	5b		 pop	 ebx
  000e6	c9		 leave
  000e7	c2 08 00	 ret	 8
_TEXT	ENDS
;	COMDAT text$x
text$x	SEGMENT
$L61938:
  00000	8d 45 e0	 lea	 eax, DWORD PTR __Ok$[ebp]
  00003	50		 push	 eax
  00004	e8 00 00 00 00	 call	 ??1sentry@?$basic_ostream@DU?$char_traits@D@std@@@std@@QAE@XZ ; std::basic_ostream<char,std::char_traits<char> >::sentry::~sentry
  00009	c3		 ret	 0
$L61939:
  0000a	8d 4d e8	 lea	 ecx, DWORD PTR $T61930[ebp]
  0000d	e9 00 00 00 00	 jmp	 ??1locale@std@@QAE@XZ	; std::locale::~locale
__ehhandler$??6?$basic_ostream@DU?$char_traits@D@std@@@std@@QAEAAV01@_N@Z:
  00012	b8 00 00 00 00	 mov	 eax, OFFSET FLAT:$T61972
  00017	e9 00 00 00 00	 jmp	 ___CxxFrameHandler
text$x	ENDS
??6?$basic_ostream@DU?$char_traits@D@std@@@std@@QAEAAV01@_N@Z ENDP ; std::basic_ostream<char,std::char_traits<char> >::operator<<
PUBLIC	?DebugMsg@Patch@@QAEXXZ				; Patch::DebugMsg
; Function compile flags: /Ogsy
; File f:\nes\nsdl\src\nsc\patch.cpp
_TEXT	SEGMENT
$T64560 = -8						; size = 1
_itPatch$ = -4						; size = 4
?DebugMsg@Patch@@QAEXXZ PROC NEAR			; Patch::DebugMsg
; _this$ = edi

; 524  : {

  00000	55		 push	 ebp
  00001	8b ec		 mov	 ebp, esp
  00003	51		 push	 ecx
  00004	51		 push	 ecx
  00005	53		 push	 ebx
  00006	56		 push	 esi

; 525  : 	//----------------------
; 526  : 	//Local
; 527  : 	map<unsigned int, patch_scrap*>::iterator	itPatch;
; 528  : 	
; 529  : 	//----------------------
; 530  : 	//Delete Class
; 531  : 	cout	<< "==== [ Patch(" << m_id << ") ] ====" << endl;

  00007	68 00 00 00 00	 push	 OFFSET FLAT:??_C@_08JGNHFCII@?$CJ?5?$FN?5?$DN?$DN?$DN?$DN?$AA@
  0000c	ff 37		 push	 DWORD PTR [edi]
  0000e	be 00 00 00 00	 mov	 esi, OFFSET FLAT:?cout@std@@3V?$basic_ostream@DU?$char_traits@D@std@@@1@A ; std::cout
  00013	68 00 00 00 00	 push	 OFFSET FLAT:??_C@_0O@IDEMKPMC@?$DN?$DN?$DN?$DN?5?$FL?5Patch?$CI?$AA@
  00018	56		 push	 esi
  00019	e8 00 00 00 00	 call	 ??$?6U?$char_traits@D@std@@@std@@YAAAV?$basic_ostream@DU?$char_traits@D@std@@@0@AAV10@PBD@Z ; std::operator<<<std::char_traits<char> >
  0001e	59		 pop	 ecx
  0001f	59		 pop	 ecx
  00020	50		 push	 eax
  00021	e8 00 00 00 00	 call	 ??6?$basic_ostream@DU?$char_traits@D@std@@@std@@QAEAAV01@I@Z ; std::basic_ostream<char,std::char_traits<char> >::operator<<
  00026	50		 push	 eax
  00027	e8 00 00 00 00	 call	 ??$?6U?$char_traits@D@std@@@std@@YAAAV?$basic_ostream@DU?$char_traits@D@std@@@0@AAV10@PBD@Z ; std::operator<<<std::char_traits<char> >
  0002c	50		 push	 eax
  0002d	e8 00 00 00 00	 call	 ?endl@std@@YAAAV?$basic_ostream@DU?$char_traits@D@std@@@1@AAV21@@Z ; std::endl

; 532  : 
; 533  : 	if(!m_Patch.empty()){

  00032	33 db		 xor	 ebx, ebx
  00034	83 c4 0c	 add	 esp, 12			; 0000000cH
  00037	39 5f 0c	 cmp	 DWORD PTR [edi+12], ebx
  0003a	0f 84 d1 01 00
	00		 je	 $L24346

; 534  : 		itPatch = m_Patch.begin();

  00040	8b 4f 08	 mov	 ecx, DWORD PTR [edi+8]
  00043	8b 01		 mov	 eax, DWORD PTR [ecx]

; 535  : 		while(itPatch != m_Patch.end()){

  00045	3b c1		 cmp	 eax, ecx
  00047	89 45 fc	 mov	 DWORD PTR _itPatch$[ebp], eax
  0004a	0f 84 c1 01 00
	00		 je	 $L24346
$L24345:

; 536  : 			m_now_Patch = itPatch->second;

  00050	8b 48 10	 mov	 ecx, DWORD PTR [eax+16]
  00053	89 4f 14	 mov	 DWORD PTR [edi+20], ecx

; 537  : 
; 538  : 			cout	<<	"  n" << itPatch->first;

  00056	ff 70 0c	 push	 DWORD PTR [eax+12]
  00059	68 00 00 00 00	 push	 OFFSET FLAT:??_C@_03LNLKIPBE@?5?5n?$AA@
  0005e	56		 push	 esi
  0005f	e8 00 00 00 00	 call	 ??$?6U?$char_traits@D@std@@@std@@YAAAV?$basic_ostream@DU?$char_traits@D@std@@@0@AAV10@PBD@Z ; std::operator<<<std::char_traits<char> >
  00064	59		 pop	 ecx
  00065	59		 pop	 ecx
  00066	50		 push	 eax
  00067	e8 00 00 00 00	 call	 ??6?$basic_ostream@DU?$char_traits@D@std@@@std@@QAEAAV01@I@Z ; std::basic_ostream<char,std::char_traits<char> >::operator<<

; 539  : 			if(get_fGate_q()){ cout	<<	"  q"	<<	get_iGate_q();	};

  0006c	8b 47 14	 mov	 eax, DWORD PTR [edi+20]
  0006f	38 58 31	 cmp	 BYTE PTR [eax+49], bl
  00072	74 16		 je	 SHORT $L24349
  00074	ff 70 20	 push	 DWORD PTR [eax+32]
  00077	68 00 00 00 00	 push	 OFFSET FLAT:??_C@_03HAOAIBIK@?5?5q?$AA@
  0007c	56		 push	 esi
  0007d	e8 00 00 00 00	 call	 ??$?6U?$char_traits@D@std@@@std@@YAAAV?$basic_ostream@DU?$char_traits@D@std@@@0@AAV10@PBD@Z ; std::operator<<<std::char_traits<char> >
  00082	59		 pop	 ecx
  00083	59		 pop	 ecx
  00084	50		 push	 eax
  00085	e8 00 00 00 00	 call	 ??6?$basic_ostream@DU?$char_traits@D@std@@@std@@QAEAAV01@I@Z ; std::basic_ostream<char,std::char_traits<char> >::operator<<
$L24349:

; 540  : 			if(get_fGate_u()){ cout	<<	"  u"	<<	get_iGate_u();	};

  0008a	8b 47 14	 mov	 eax, DWORD PTR [edi+20]
  0008d	38 58 32	 cmp	 BYTE PTR [eax+50], bl
  00090	74 16		 je	 SHORT $L24351
  00092	ff 70 24	 push	 DWORD PTR [eax+36]
  00095	68 00 00 00 00	 push	 OFFSET FLAT:??_C@_03BEIMEEIO@?5?5u?$AA@
  0009a	56		 push	 esi
  0009b	e8 00 00 00 00	 call	 ??$?6U?$char_traits@D@std@@@std@@YAAAV?$basic_ostream@DU?$char_traits@D@std@@@0@AAV10@PBD@Z ; std::operator<<<std::char_traits<char> >
  000a0	59		 pop	 ecx
  000a1	59		 pop	 ecx
  000a2	50		 push	 eax
  000a3	e8 00 00 00 00	 call	 ??6?$basic_ostream@DU?$char_traits@D@std@@@std@@QAEAAV01@I@Z ; std::basic_ostream<char,std::char_traits<char> >::operator<<
$L24351:

; 541  : 			if(get_fSub()){	cout	<<	"  S"	<<	get_iSub()	<<	","	<<	get_fSub_opt();		};

  000a8	8b 47 14	 mov	 eax, DWORD PTR [edi+20]
  000ab	38 58 2f	 cmp	 BYTE PTR [eax+47], bl
  000ae	74 33		 je	 SHORT $L24353
  000b0	8a 48 30	 mov	 cl, BYTE PTR [eax+48]
  000b3	8b 40 1c	 mov	 eax, DWORD PTR [eax+28]
  000b6	88 4d f8	 mov	 BYTE PTR $T64560[ebp], cl
  000b9	ff 75 f8	 push	 DWORD PTR $T64560[ebp]
  000bc	68 00 00 00 00	 push	 OFFSET FLAT:??_C@_01IHBHIGKO@?0?$AA@
  000c1	50		 push	 eax
  000c2	68 00 00 00 00	 push	 OFFSET FLAT:??_C@_03NHFCMHKK@?5?5S?$AA@
  000c7	56		 push	 esi
  000c8	e8 00 00 00 00	 call	 ??$?6U?$char_traits@D@std@@@std@@YAAAV?$basic_ostream@DU?$char_traits@D@std@@@0@AAV10@PBD@Z ; std::operator<<<std::char_traits<char> >
  000cd	59		 pop	 ecx
  000ce	59		 pop	 ecx
  000cf	50		 push	 eax
  000d0	e8 00 00 00 00	 call	 ??6?$basic_ostream@DU?$char_traits@D@std@@@std@@QAEAAV01@I@Z ; std::basic_ostream<char,std::char_traits<char> >::operator<<
  000d5	50		 push	 eax
  000d6	e8 00 00 00 00	 call	 ??$?6U?$char_traits@D@std@@@std@@YAAAV?$basic_ostream@DU?$char_traits@D@std@@@0@AAV10@PBD@Z ; std::operator<<<std::char_traits<char> >
  000db	59		 pop	 ecx
  000dc	59		 pop	 ecx
  000dd	50		 push	 eax
  000de	e8 00 00 00 00	 call	 ??6?$basic_ostream@DU?$char_traits@D@std@@@std@@QAEAAV01@_N@Z ; std::basic_ostream<char,std::char_traits<char> >::operator<<
$L24353:

; 542  : 			if(get_fKey()){	cout	<<	"  _"	<<	get_iKey();		};

  000e3	8b 47 14	 mov	 eax, DWORD PTR [edi+20]
  000e6	38 58 2d	 cmp	 BYTE PTR [eax+45], bl
  000e9	74 16		 je	 SHORT $L24356
  000eb	ff 70 14	 push	 DWORD PTR [eax+20]
  000ee	68 00 00 00 00	 push	 OFFSET FLAT:??_C@_03HLOHIIKG@?5?5_?$AA@
  000f3	56		 push	 esi
  000f4	e8 00 00 00 00	 call	 ??$?6U?$char_traits@D@std@@@std@@YAAAV?$basic_ostream@DU?$char_traits@D@std@@@0@AAV10@PBD@Z ; std::operator<<<std::char_traits<char> >
  000f9	59		 pop	 ecx
  000fa	59		 pop	 ecx
  000fb	50		 push	 eax
  000fc	e8 00 00 00 00	 call	 ??6?$basic_ostream@DU?$char_traits@D@std@@@std@@QAEAAV01@I@Z ; std::basic_ostream<char,std::char_traits<char> >::operator<<
$L24356:

; 543  : 			if(get_fSweep()){cout	<<	"  s"	<<	(int)get_iSweep();	};

  00101	8b 47 14	 mov	 eax, DWORD PTR [edi+20]
  00104	38 58 2e	 cmp	 BYTE PTR [eax+46], bl
  00107	74 18		 je	 SHORT $L24358
  00109	0f b6 40 18	 movzx	 eax, BYTE PTR [eax+24]
  0010d	50		 push	 eax
  0010e	68 00 00 00 00	 push	 OFFSET FLAT:??_C@_03ECNGODAI@?5?5s?$AA@
  00113	56		 push	 esi
  00114	e8 00 00 00 00	 call	 ??$?6U?$char_traits@D@std@@@std@@YAAAV?$basic_ostream@DU?$char_traits@D@std@@@0@AAV10@PBD@Z ; std::operator<<<std::char_traits<char> >
  00119	59		 pop	 ecx
  0011a	59		 pop	 ecx
  0011b	50		 push	 eax
  0011c	e8 00 00 00 00	 call	 ??6?$basic_ostream@DU?$char_traits@D@std@@@std@@QAEAAV01@H@Z ; std::basic_ostream<char,std::char_traits<char> >::operator<<
$L24358:

; 544  : 			if(get_fVoi()){	cout	<<	"  @"	<<	get_iVoi();		};

  00121	8b 47 14	 mov	 eax, DWORD PTR [edi+20]
  00124	38 58 28	 cmp	 BYTE PTR [eax+40], bl
  00127	74 15		 je	 SHORT $L24361
  00129	ff 30		 push	 DWORD PTR [eax]
  0012b	68 00 00 00 00	 push	 OFFSET FLAT:??_C@_03LGLNIGDI@?5?5?$EA?$AA@
  00130	56		 push	 esi
  00131	e8 00 00 00 00	 call	 ??$?6U?$char_traits@D@std@@@std@@YAAAV?$basic_ostream@DU?$char_traits@D@std@@@0@AAV10@PBD@Z ; std::operator<<<std::char_traits<char> >
  00136	59		 pop	 ecx
  00137	59		 pop	 ecx
  00138	50		 push	 eax
  00139	e8 00 00 00 00	 call	 ??6?$basic_ostream@DU?$char_traits@D@std@@@std@@QAEAAV01@I@Z ; std::basic_ostream<char,std::char_traits<char> >::operator<<
$L24361:

; 545  : 			if(get_fEvoi()){cout	<<	" E@"	<<	get_iEvoi();	};

  0013e	8b 47 14	 mov	 eax, DWORD PTR [edi+20]
  00141	38 58 29	 cmp	 BYTE PTR [eax+41], bl
  00144	74 16		 je	 SHORT $L24363
  00146	ff 70 04	 push	 DWORD PTR [eax+4]
  00149	68 00 00 00 00	 push	 OFFSET FLAT:??_C@_03PIKBIPPD@?5E?$EA?$AA@
  0014e	56		 push	 esi
  0014f	e8 00 00 00 00	 call	 ??$?6U?$char_traits@D@std@@@std@@YAAAV?$basic_ostream@DU?$char_traits@D@std@@@0@AAV10@PBD@Z ; std::operator<<<std::char_traits<char> >
  00154	59		 pop	 ecx
  00155	59		 pop	 ecx
  00156	50		 push	 eax
  00157	e8 00 00 00 00	 call	 ??6?$basic_ostream@DU?$char_traits@D@std@@@std@@QAEAAV01@I@Z ; std::basic_ostream<char,std::char_traits<char> >::operator<<
$L24363:

; 546  : 
; 547  : 			if(get_fEvol()){

  0015c	8b 47 14	 mov	 eax, DWORD PTR [edi+20]
  0015f	38 58 2a	 cmp	 BYTE PTR [eax+42], bl
  00162	74 2a		 je	 SHORT $L24368

; 548  : 				if(get_sw_Evol()){

  00164	38 58 34	 cmp	 BYTE PTR [eax+52], bl
  00167	74 0f		 je	 SHORT $L24366

; 549  : 					cout	<<	" Ev*";

  00169	68 00 00 00 00	 push	 OFFSET FLAT:??_C@_04GLMBFHCD@?5Ev?$CK?$AA@
  0016e	56		 push	 esi
  0016f	e8 00 00 00 00	 call	 ??$?6U?$char_traits@D@std@@@std@@YAAAV?$basic_ostream@DU?$char_traits@D@std@@@0@AAV10@PBD@Z ; std::operator<<<std::char_traits<char> >
  00174	59		 pop	 ecx
  00175	59		 pop	 ecx

; 550  : 				} else {

  00176	eb 16		 jmp	 SHORT $L24368
$L24366:

; 551  : 					cout	<<	" Ev"	<<	get_iEvol();

  00178	ff 70 08	 push	 DWORD PTR [eax+8]
  0017b	68 00 00 00 00	 push	 OFFSET FLAT:??_C@_03HBLNBOIG@?5Ev?$AA@
  00180	56		 push	 esi
  00181	e8 00 00 00 00	 call	 ??$?6U?$char_traits@D@std@@@std@@YAAAV?$basic_ostream@DU?$char_traits@D@std@@@0@AAV10@PBD@Z ; std::operator<<<std::char_traits<char> >
  00186	59		 pop	 ecx
  00187	59		 pop	 ecx
  00188	50		 push	 eax
  00189	e8 00 00 00 00	 call	 ??6?$basic_ostream@DU?$char_traits@D@std@@@std@@QAEAAV01@I@Z ; std::basic_ostream<char,std::char_traits<char> >::operator<<
$L24368:

; 552  : 				}
; 553  : 			};
; 554  : 
; 555  : 			if(get_fEm()){

  0018e	8b 47 14	 mov	 eax, DWORD PTR [edi+20]
  00191	38 58 2b	 cmp	 BYTE PTR [eax+43], bl
  00194	74 2a		 je	 SHORT $L24373

; 556  : 				if(get_sw_Em()){

  00196	38 58 35	 cmp	 BYTE PTR [eax+53], bl
  00199	74 0f		 je	 SHORT $L24371

; 557  : 					cout	<<	" Em*";

  0019b	68 00 00 00 00	 push	 OFFSET FLAT:??_C@_04HLLCBLLC@?5Em?$CK?$AA@
  001a0	56		 push	 esi
  001a1	e8 00 00 00 00	 call	 ??$?6U?$char_traits@D@std@@@std@@YAAAV?$basic_ostream@DU?$char_traits@D@std@@@0@AAV10@PBD@Z ; std::operator<<<std::char_traits<char> >
  001a6	59		 pop	 ecx
  001a7	59		 pop	 ecx

; 558  : 				} else {

  001a8	eb 16		 jmp	 SHORT $L24373
$L24371:

; 559  : 					cout	<<	" Em"	<<	get_iEm();

  001aa	ff 70 0c	 push	 DWORD PTR [eax+12]
  001ad	68 00 00 00 00	 push	 OFFSET FLAT:??_C@_03NIILNFBM@?5Em?$AA@
  001b2	56		 push	 esi
  001b3	e8 00 00 00 00	 call	 ??$?6U?$char_traits@D@std@@@std@@YAAAV?$basic_ostream@DU?$char_traits@D@std@@@0@AAV10@PBD@Z ; std::operator<<<std::char_traits<char> >
  001b8	59		 pop	 ecx
  001b9	59		 pop	 ecx
  001ba	50		 push	 eax
  001bb	e8 00 00 00 00	 call	 ??6?$basic_ostream@DU?$char_traits@D@std@@@std@@QAEAAV01@I@Z ; std::basic_ostream<char,std::char_traits<char> >::operator<<
$L24373:

; 560  : 				}
; 561  : 			};
; 562  : 
; 563  : 			if(get_fEn()){

  001c0	8b 47 14	 mov	 eax, DWORD PTR [edi+20]
  001c3	38 58 2c	 cmp	 BYTE PTR [eax+44], bl
  001c6	74 2a		 je	 SHORT $L24378

; 564  : 				if(get_sw_En()){

  001c8	38 58 36	 cmp	 BYTE PTR [eax+54], bl
  001cb	74 0f		 je	 SHORT $L24376

; 565  : 					cout	<<	" En*";

  001cd	68 00 00 00 00	 push	 OFFSET FLAT:??_C@_04HJPEKFOL@?5En?$CK?$AA@
  001d2	56		 push	 esi
  001d3	e8 00 00 00 00	 call	 ??$?6U?$char_traits@D@std@@@std@@YAAAV?$basic_ostream@DU?$char_traits@D@std@@@0@AAV10@PBD@Z ; std::operator<<<std::char_traits<char> >
  001d8	59		 pop	 ecx
  001d9	59		 pop	 ecx

; 566  : 				} else {

  001da	eb 16		 jmp	 SHORT $L24378
$L24376:

; 567  : 					cout	<<	" En"	<<	get_iEn();

  001dc	ff 70 10	 push	 DWORD PTR [eax+16]
  001df	68 00 00 00 00	 push	 OFFSET FLAT:??_C@_03PDKGIGNP@?5En?$AA@
  001e4	56		 push	 esi
