PUBLIC	??1?$map@IPAUpatch_scrap@@U?$less@I@std@@V?$allocator@U?$pair@$$CBIPAUpatch_scrap@@@std@@@3@@std@@QAE@XZ ; std::map<unsigned int,patch_scrap *,std::less<unsigned int>,std::allocator<std::pair<unsigned int const ,patch_scrap *> > >::~map<unsigned int,patch_scrap *,std::less<unsigned int>,std::allocator<std::pair<unsigned int const ,patch_scrap *> > >
PUBLIC	??6?$basic_ostream@DU?$char_traits@D@std@@@std@@QAEAAV01@_N@Z ; std::basic_ostream<char,std::char_traits<char> >::operator<<
PUBLIC	??0?$map@IPAUpatch_scrap@@U?$less@I@std@@V?$allocator@U?$pair@$$CBIPAUpatch_scrap@@@std@@@3@@std@@QAE@XZ ; std::map<unsigned int,patch_scrap *,std::less<unsigned int>,std::allocator<std::pair<unsigned int const ,patch_scrap *> > >::map<unsigned int,patch_scrap *,std::less<unsigned int>,std::allocator<std::pair<unsigned int const ,patch_scrap *> > >
PUBLIC	??A?$map@IPAUpatch_scrap@@U?$less@I@std@@V?$allocator@U?$pair@$$CBIPAUpatch_scrap@@@std@@@3@@std@@QAEAAPAUpatch_scrap@@ABI@Z ; std::map<unsigned int,patch_scrap *,std::less<unsigned int>,std::allocator<std::pair<unsigned int const ,patch_scrap *> > >::operator[]
PUBLIC	??1?$_Tree@V?$_Tmap_traits@IPAUpatch_scrap@@U?$less@I@std@@V?$allocator@U?$pair@$$CBIPAUpatch_scrap@@@std@@@3@$0A@@std@@@std@@QAE@XZ ; std::_Tree<std::_Tmap_traits<unsigned int,patch_scrap *,std::less<unsigned int>,std::allocator<std::pair<unsigned int const ,patch_scrap *> >,0> >::~_Tree<std::_Tmap_traits<unsigned int,patch_scrap *,std::less<unsigned int>,std::allocator<std::pair<unsigned int const ,patch_scrap *> >,0> >
PUBLIC	?begin@?$_Tree@V?$_Tmap_traits@IPAUpatch_scrap@@U?$less@I@std@@V?$allocator@U?$pair@$$CBIPAUpatch_scrap@@@std@@@3@$0A@@std@@@std@@QAE?AViterator@12@XZ ; std::_Tree<std::_Tmap_traits<unsigned int,patch_scrap *,std::less<unsigned int>,std::allocator<std::pair<unsigned int const ,patch_scrap *> >,0> >::begin
PUBLIC	?end@?$_Tree@V?$_Tmap_traits@IPAUpatch_scrap@@U?$less@I@std@@V?$allocator@U?$pair@$$CBIPAUpatch_scrap@@@std@@@3@$0A@@std@@@std@@QAE?AViterator@12@XZ ; std::_Tree<std::_Tmap_traits<unsigned int,patch_scrap *,std::less<unsigned int>,std::allocator<std::pair<unsigned int const ,patch_scrap *> >,0> >::end
PUBLIC	?empty@?$_Tree@V?$_Tmap_traits@IPAUpatch_scrap@@U?$less@I@std@@V?$allocator@U?$pair@$$CBIPAUpatch_scrap@@@std@@@3@$0A@@std@@@std@@QBE_NXZ ; std::_Tree<std::_Tmap_traits<unsigned int,patch_scrap *,std::less<unsigned int>,std::allocator<std::pair<unsigned int const ,patch_scrap *> >,0> >::empty
PUBLIC	?clear@?$_Tree@V?$_Tmap_traits@IPAUpatch_scrap@@U?$less@I@std@@V?$allocator@U?$pair@$$CBIPAUpatch_scrap@@@std@@@3@$0A@@std@@@std@@QAEXXZ ; std::_Tree<std::_Tmap_traits<unsigned int,patch_scrap *,std::less<unsigned int>,std::allocator<std::pair<unsigned int const ,patch_scrap *> >,0> >::clear
PUBLIC	?count@?$_Tree@V?$_Tmap_traits@IPAUpatch_scrap@@U?$less@I@std@@V?$allocator@U?$pair@$$CBIPAUpatch_scrap@@@std@@@3@$0A@@std@@@std@@QBEIABI@Z ; std::_Tree<std::_Tmap_traits<unsigned int,patch_scrap *,std::less<unsigned int>,std::allocator<std::pair<unsigned int const ,patch_scrap *> >,0> >::count
PUBLIC	??0iterator@?$_Tree@V?$_Tmap_traits@IPAUpatch_scrap@@U?$less@I@std@@V?$allocator@U?$pair@$$CBIPAUpatch_scrap@@@std@@@3@$0A@@std@@@std@@QAE@XZ ; std::_Tree<std::_Tmap_traits<unsigned int,patch_scrap *,std::less<unsigned int>,std::allocator<std::pair<unsigned int const ,patch_scrap *> >,0> >::iterator::iterator
PUBLIC	??Citerator@?$_Tree@V?$_Tmap_traits@IPAUpatch_scrap@@U?$less@I@std@@V?$allocator@U?$pair@$$CBIPAUpatch_scrap@@@std@@@3@$0A@@std@@@std@@QBEPAU?$pair@$$CBIPAUpatch_scrap@@@2@XZ ; std::_Tree<std::_Tmap_traits<unsigned int,patch_scrap *,std::less<unsigned int>,std::allocator<std::pair<unsigned int const ,patch_scrap *> >,0> >::iterator::operator->
PUBLIC	??Eiterator@?$_Tree@V?$_Tmap_traits@IPAUpatch_scrap@@U?$less@I@std@@V?$allocator@U?$pair@$$CBIPAUpatch_scrap@@@std@@@3@$0A@@std@@@std@@QAE?AV012@H@Z ; std::_Tree<std::_Tmap_traits<unsigned int,patch_scrap *,std::less<unsigned int>,std::allocator<std::pair<unsigned int const ,patch_scrap *> >,0> >::iterator::operator++
PUBLIC	??9const_iterator@?$_Tree@V?$_Tmap_traits@IPAUpatch_scrap@@U?$less@I@std@@V?$allocator@U?$pair@$$CBIPAUpatch_scrap@@@std@@@3@$0A@@std@@@std@@QBE_NABV012@@Z ; std::_Tree<std::_Tmap_traits<unsigned int,patch_scrap *,std::less<unsigned int>,std::allocator<std::pair<unsigned int const ,patch_scrap *> >,0> >::const_iterator::operator!=
PUBLIC	?_Key@?$_Tree@V?$_Tmap_traits@IPAUpatch_scrap@@U?$less@I@std@@V?$allocator@U?$pair@$$CBIPAUpatch_scrap@@@std@@@3@$0A@@std@@@std@@KAABIPAU_Node@?$_Tree_nod@V?$_Tmap_traits@IPAUpatch_scrap@@U?$less@I@std@@V?$allocator@U?$pair@$$CBIPAUpatch_scrap@@@std@@@3@$0A@@std@@@2@@Z ; std::_Tree<std::_Tmap_traits<unsigned int,patch_scrap *,std::less<unsigned int>,std::allocator<std::pair<unsigned int const ,patch_scrap *> >,0> >::_Key
PUBLIC	??0?$_Tree@V?$_Tmap_traits@IPAUpatch_scrap@@U?$less@I@std@@V?$allocator@U?$pair@$$CBIPAUpatch_scrap@@@std@@@3@$0A@@std@@@std@@QAE@ABU?$less@I@1@ABV?$allocator@U?$pair@$$CBIPAUpatch_scrap@@@std@@@1@@Z ; std::_Tree<std::_Tmap_traits<unsigned int,patch_scrap *,std::less<unsigned int>,std::allocator<std::pair<unsigned int const ,patch_scrap *> >,0> >::_Tree<std::_Tmap_traits<unsigned int,patch_scrap *,std::less<unsigned int>,std::allocator<std::pair<unsigned int const ,patch_scrap *> >,0> >
PUBLIC	?size@?$_Tree@V?$_Tmap_traits@IPAUpatch_scrap@@U?$less@I@std@@V?$allocator@U?$pair@$$CBIPAUpatch_scrap@@@std@@@3@$0A@@std@@@std@@QBEIXZ ; std::_Tree<std::_Tmap_traits<unsigned int,patch_scrap *,std::less<unsigned int>,std::allocator<std::pair<unsigned int const ,patch_scrap *> >,0> >::size
PUBLIC	?insert@?$_Tree@V?$_Tmap_traits@IPAUpatch_scrap@@U?$less@I@std@@V?$allocator@U?$pair@$$CBIPAUpatch_scrap@@@std@@@3@$0A@@std@@@std@@QAE?AViterator@12@V312@ABU?$pair@$$CBIPAUpatch_scrap@@@2@@Z ; std::_Tree<std::_Tmap_traits<unsigned int,patch_scrap *,std::less<unsigned int>,std::allocator<std::pair<unsigned int const ,patch_scrap *> >,0> >::insert
PUBLIC	?lower_bound@?$_Tree@V?$_Tmap_traits@IPAUpatch_scrap@@U?$less@I@std@@V?$allocator@U?$pair@$$CBIPAUpatch_scrap@@@std@@@3@$0A@@std@@@std@@QAE?AViterator@12@ABI@Z ; std::_Tree<std::_Tmap_traits<unsigned int,patch_scrap *,std::less<unsigned int>,std::allocator<std::pair<unsigned int const ,patch_scrap *> >,0> >::lower_bound
PUBLIC	?equal_range@?$_Tree@V?$_Tmap_traits@IPAUpatch_scrap@@U?$less@I@std@@V?$allocator@U?$pair@$$CBIPAUpatch_scrap@@@std@@@3@$0A@@std@@@std@@QBE?AU?$pair@Vconst_iterator@?$_Tree@V?$_Tmap_traits@IPAUpatch_scrap@@U?$less@I@std@@V?$allocator@U?$pair@$$CBIPAUpatch_scrap@@@std@@@3@$0A@@std@@@std@@V123@@2@ABI@Z ; std::_Tree<std::_Tmap_traits<unsigned int,patch_scrap *,std::less<unsigned int>,std::allocator<std::pair<unsigned int const ,patch_scrap *> >,0> >::equal_range
PUBLIC	?_Erase@?$_Tree@V?$_Tmap_traits@IPAUpatch_scrap@@U?$less@I@std@@V?$allocator@U?$pair@$$CBIPAUpatch_scrap@@@std@@@3@$0A@@std@@@std@@IAEXPAU_Node@?$_Tree_nod@V?$_Tmap_traits@IPAUpatch_scrap@@U?$less@I@std@@V?$allocator@U?$pair@$$CBIPAUpatch_scrap@@@std@@@3@$0A@@std@@@2@@Z ; std::_Tree<std::_Tmap_traits<unsigned int,patch_scrap *,std::less<unsigned int>,std::allocator<std::pair<unsigned int const ,patch_scrap *> >,0> >::_Erase
PUBLIC	?_Lmost@?$_Tree@V?$_Tmap_traits@IPAUpatch_scrap@@U?$less@I@std@@V?$allocator@U?$pair@$$CBIPAUpatch_scrap@@@std@@@3@$0A@@std@@@std@@IAEAAPAU_Node@?$_Tree_nod@V?$_Tmap_traits@IPAUpatch_scrap@@U?$less@I@std@@V?$allocator@U?$pair@$$CBIPAUpatch_scrap@@@std@@@3@$0A@@std@@@2@XZ ; std::_Tree<std::_Tmap_traits<unsigned int,patch_scrap *,std::less<unsigned int>,std::allocator<std::pair<unsigned int const ,patch_scrap *> >,0> >::_Lmost
PUBLIC	?_Rmost@?$_Tree@V?$_Tmap_traits@IPAUpatch_scrap@@U?$less@I@std@@V?$allocator@U?$pair@$$CBIPAUpatch_scrap@@@std@@@3@$0A@@std@@@std@@IAEAAPAU_Node@?$_Tree_nod@V?$_Tmap_traits@IPAUpatch_scrap@@U?$less@I@std@@V?$allocator@U?$pair@$$CBIPAUpatch_scrap@@@std@@@3@$0A@@std@@@2@XZ ; std::_Tree<std::_Tmap_traits<unsigned int,patch_scrap *,std::less<unsigned int>,std::allocator<std::pair<unsigned int const ,patch_scrap *> >,0> >::_Rmost
PUBLIC	?_Root@?$_Tree@V?$_Tmap_traits@IPAUpatch_scrap@@U?$less@I@std@@V?$allocator@U?$pair@$$CBIPAUpatch_scrap@@@std@@@3@$0A@@std@@@std@@IAEAAPAU_Node@?$_Tree_nod@V?$_Tmap_traits@IPAUpatch_scrap@@U?$less@I@std@@V?$allocator@U?$pair@$$CBIPAUpatch_scrap@@@std@@@3@$0A@@std@@@2@XZ ; std::_Tree<std::_Tmap_traits<unsigned int,patch_scrap *,std::less<unsigned int>,std::allocator<std::pair<unsigned int const ,patch_scrap *> >,0> >::_Root
PUBLIC	?_Tidy@?$_Tree@V?$_Tmap_traits@IPAUpatch_scrap@@U?$less@I@std@@V?$allocator@U?$pair@$$CBIPAUpatch_scrap@@@std@@@3@$0A@@std@@@std@@IAEXXZ ; std::_Tree<std::_Tmap_traits<unsigned int,patch_scrap *,std::less<unsigned int>,std::allocator<std::pair<unsigned int const ,patch_scrap *> >,0> >::_Tidy
PUBLIC	??0?$allocator@U?$pair@$$CBIPAUpatch_scrap@@@std@@@std@@QAE@XZ ; std::allocator<std::pair<unsigned int const ,patch_scrap *> >::allocator<std::pair<unsigned int const ,patch_scrap *> >
PUBLIC	??R?$less@I@std@@QBE_NABI0@Z			; std::less<unsigned int>::operator()
PUBLIC	??0iterator@?$_Tree@V?$_Tmap_traits@IPAUpatch_scrap@@U?$less@I@std@@V?$allocator@U?$pair@$$CBIPAUpatch_scrap@@@std@@@3@$0A@@std@@@std@@QAE@PAU_Node@?$_Tree_nod@V?$_Tmap_traits@IPAUpatch_scrap@@U?$less@I@std@@V?$allocator@U?$pair@$$CBIPAUpatch_scrap@@@std@@@3@$0A@@std@@@2@@Z ; std::_Tree<std::_Tmap_traits<unsigned int,patch_scrap *,std::less<unsigned int>,std::allocator<std::pair<unsigned int const ,patch_scrap *> >,0> >::iterator::iterator
PUBLIC	??Diterator@?$_Tree@V?$_Tmap_traits@IPAUpatch_scrap@@U?$less@I@std@@V?$allocator@U?$pair@$$CBIPAUpatch_scrap@@@std@@@3@$0A@@std@@@std@@QBEAAU?$pair@$$CBIPAUpatch_scrap@@@2@XZ ; std::_Tree<std::_Tmap_traits<unsigned int,patch_scrap *,std::less<unsigned int>,std::allocator<std::pair<unsigned int const ,patch_scrap *> >,0> >::iterator::operator*
PUBLIC	??Eiterator@?$_Tree@V?$_Tmap_traits@IPAUpatch_scrap@@U?$less@I@std@@V?$allocator@U?$pair@$$CBIPAUpatch_scrap@@@std@@@3@$0A@@std@@@std@@QAEAAV012@XZ ; std::_Tree<std::_Tmap_traits<unsigned int,patch_scrap *,std::less<unsigned int>,std::allocator<std::pair<unsigned int const ,patch_scrap *> >,0> >::iterator::operator++
PUBLIC	??0const_iterator@?$_Tree@V?$_Tmap_traits@IPAUpatch_scrap@@U?$less@I@std@@V?$allocator@U?$pair@$$CBIPAUpatch_scrap@@@std@@@3@$0A@@std@@@std@@QAE@XZ ; std::_Tree<std::_Tmap_traits<unsigned int,patch_scrap *,std::less<unsigned int>,std::allocator<std::pair<unsigned int const ,patch_scrap *> >,0> >::const_iterator::const_iterator
PUBLIC	??8const_iterator@?$_Tree@V?$_Tmap_traits@IPAUpatch_scrap@@U?$less@I@std@@V?$allocator@U?$pair@$$CBIPAUpatch_scrap@@@std@@@3@$0A@@std@@@std@@QBE_NABV012@@Z ; std::_Tree<std::_Tmap_traits<unsigned int,patch_scrap *,std::less<unsigned int>,std::allocator<std::pair<unsigned int const ,patch_scrap *> >,0> >::const_iterator::operator==
PUBLIC	?_Mynode@const_iterator@?$_Tree@V?$_Tmap_traits@IPAUpatch_scrap@@U?$less@I@std@@V?$allocator@U?$pair@$$CBIPAUpatch_scrap@@@std@@@3@$0A@@std@@@std@@QBEPAU_Node@?$_Tree_nod@V?$_Tmap_traits@IPAUpatch_scrap@@U?$less@I@std@@V?$allocator@U?$pair@$$CBIPAUpatch_scrap@@@std@@@3@$0A@@std@@@3@XZ ; std::_Tree<std::_Tmap_traits<unsigned int,patch_scrap *,std::less<unsigned int>,std::allocator<std::pair<unsigned int const ,patch_scrap *> >,0> >::const_iterator::_Mynode
PUBLIC	??0?$pair@$$CBIPAUpatch_scrap@@@std@@QAE@ABIABQAUpatch_scrap@@@Z ; std::pair<unsigned int const ,patch_scrap *>::pair<unsigned int const ,patch_scrap *>
PUBLIC	?put@?$num_put@DV?$ostreambuf_iterator@DU?$char_traits@D@std@@@std@@@std@@QBE?AV?$ostreambuf_iterator@DU?$char_traits@D@std@@@2@V32@AAVios_base@2@D_N@Z ; std::num_put<char,std::ostreambuf_iterator<char,std::char_traits<char> > >::put
PUBLIC	?_Isnil@?$_Tree@V?$_Tmap_traits@IPAUpatch_scrap@@U?$less@I@std@@V?$allocator@U?$pair@$$CBIPAUpatch_scrap@@@std@@@3@$0A@@std@@@std@@KAAADPAU_Node@?$_Tree_nod@V?$_Tmap_traits@IPAUpatch_scrap@@U?$less@I@std@@V?$allocator@U?$pair@$$CBIPAUpatch_scrap@@@std@@@3@$0A@@std@@@2@@Z ; std::_Tree<std::_Tmap_traits<unsigned int,patch_scrap *,std::less<unsigned int>,std::allocator<std::pair<unsigned int const ,patch_scrap *> >,0> >::_Isnil
PUBLIC	?_Left@?$_Tree@V?$_Tmap_traits@IPAUpatch_scrap@@U?$less@I@std@@V?$allocator@U?$pair@$$CBIPAUpatch_scrap@@@std@@@3@$0A@@std@@@std@@KAAAPAU_Node@?$_Tree_nod@V?$_Tmap_traits@IPAUpatch_scrap@@U?$less@I@std@@V?$allocator@U?$pair@$$CBIPAUpatch_scrap@@@std@@@3@$0A@@std@@@2@PAU342@@Z ; std::_Tree<std::_Tmap_traits<unsigned int,patch_scrap *,std::less<unsigned int>,std::allocator<std::pair<unsigned int const ,patch_scrap *> >,0> >::_Left
PUBLIC	?_Parent@?$_Tree@V?$_Tmap_traits@IPAUpatch_scrap@@U?$less@I@std@@V?$allocator@U?$pair@$$CBIPAUpatch_scrap@@@std@@@3@$0A@@std@@@std@@KAAAPAU_Node@?$_Tree_nod@V?$_Tmap_traits@IPAUpatch_scrap@@U?$less@I@std@@V?$allocator@U?$pair@$$CBIPAUpatch_scrap@@@std@@@3@$0A@@std@@@2@PAU342@@Z ; std::_Tree<std::_Tmap_traits<unsigned int,patch_scrap *,std::less<unsigned int>,std::allocator<std::pair<unsigned int const ,patch_scrap *> >,0> >::_Parent
PUBLIC	?_Right@?$_Tree@V?$_Tmap_traits@IPAUpatch_scrap@@U?$less@I@std@@V?$allocator@U?$pair@$$CBIPAUpatch_scrap@@@std@@@3@$0A@@std@@@std@@KAAAPAU_Node@?$_Tree_nod@V?$_Tmap_traits@IPAUpatch_scrap@@U?$less@I@std@@V?$allocator@U?$pair@$$CBIPAUpatch_scrap@@@std@@@3@$0A@@std@@@2@PAU342@@Z ; std::_Tree<std::_Tmap_traits<unsigned int,patch_scrap *,std::less<unsigned int>,std::allocator<std::pair<unsigned int const ,patch_scrap *> >,0> >::_Right
PUBLIC	?_Myval@?$_Tree@V?$_Tmap_traits@IPAUpatch_scrap@@U?$less@I@std@@V?$allocator@U?$pair@$$CBIPAUpatch_scrap@@@std@@@3@$0A@@std@@@std@@KAAAU?$pair@$$CBIPAUpatch_scrap@@@2@PAU_Node@?$_Tree_nod@V?$_Tmap_traits@IPAUpatch_scrap@@U?$less@I@std@@V?$allocator@U?$pair@$$CBIPAUpatch_scrap@@@std@@@3@$0A@@std@@@2@@Z ; std::_Tree<std::_Tmap_traits<unsigned int,patch_scrap *,std::less<unsigned int>,std::allocator<std::pair<unsigned int const ,patch_scrap *> >,0> >::_Myval
PUBLIC	?insert@?$_Tree@V?$_Tmap_traits@IPAUpatch_scrap@@U?$less@I@std@@V?$allocator@U?$pair@$$CBIPAUpatch_scrap@@@std@@@3@$0A@@std@@@std@@QAE?AU?$pair@Viterator@?$_Tree@V?$_Tmap_traits@IPAUpatch_scrap@@U?$less@I@std@@V?$allocator@U?$pair@$$CBIPAUpatch_scrap@@@std@@@3@$0A@@std@@@std@@_N@2@ABU?$pair@$$CBIPAUpatch_scrap@@@2@@Z ; std::_Tree<std::_Tmap_traits<unsigned int,patch_scrap *,std::less<unsigned int>,std::allocator<std::pair<unsigned int const ,patch_scrap *> >,0> >::insert
PUBLIC	?erase@?$_Tree@V?$_Tmap_traits@IPAUpatch_scrap@@U?$less@I@std@@V?$allocator@U?$pair@$$CBIPAUpatch_scrap@@@std@@@3@$0A@@std@@@std@@QAE?AViterator@12@V312@0@Z ; std::_Tree<std::_Tmap_traits<unsigned int,patch_scrap *,std::less<unsigned int>,std::allocator<std::pair<unsigned int const ,patch_scrap *> >,0> >::erase
PUBLIC	?lower_bound@?$_Tree@V?$_Tmap_traits@IPAUpatch_scrap@@U?$less@I@std@@V?$allocator@U?$pair@$$CBIPAUpatch_scrap@@@std@@@3@$0A@@std@@@std@@QBE?AVconst_iterator@12@ABI@Z ; std::_Tree<std::_Tmap_traits<unsigned int,patch_scrap *,std::less<unsigned int>,std::allocator<std::pair<unsigned int const ,patch_scrap *> >,0> >::lower_bound
PUBLIC	?upper_bound@?$_Tree@V?$_Tmap_traits@IPAUpatch_scrap@@U?$less@I@std@@V?$allocator@U?$pair@$$CBIPAUpatch_scrap@@@std@@@3@$0A@@std@@@std@@QBE?AVconst_iterator@12@ABI@Z ; std::_Tree<std::_Tmap_traits<unsigned int,patch_scrap *,std::less<unsigned int>,std::allocator<std::pair<unsigned int const ,patch_scrap *> >,0> >::upper_bound
PUBLIC	?_Init@?$_Tree@V?$_Tmap_traits@IPAUpatch_scrap@@U?$less@I@std@@V?$allocator@U?$pair@$$CBIPAUpatch_scrap@@@std@@@3@$0A@@std@@@std@@IAEXXZ ; std::_Tree<std::_Tmap_traits<unsigned int,patch_scrap *,std::less<unsigned int>,std::allocator<std::pair<unsigned int const ,patch_scrap *> >,0> >::_Init
PUBLIC	?_Insert@?$_Tree@V?$_Tmap_traits@IPAUpatch_scrap@@U?$less@I@std@@V?$allocator@U?$pair@$$CBIPAUpatch_scrap@@@std@@@3@$0A@@std@@@std@@IAE?AViterator@12@_NPAU_Node@?$_Tree_nod@V?$_Tmap_traits@IPAUpatch_scrap@@U?$less@I@std@@V?$allocator@U?$pair@$$CBIPAUpatch_scrap@@@std@@@3@$0A@@std@@@2@ABU?$pair@$$CBIPAUpatch_scrap@@@2@@Z ; std::_Tree<std::_Tmap_traits<unsigned int,patch_scrap *,std::less<unsigned int>,std::allocator<std::pair<unsigned int const ,patch_scrap *> >,0> >::_Insert
PUBLIC	?_Lbound@?$_Tree@V?$_Tmap_traits@IPAUpatch_scrap@@U?$less@I@std@@V?$allocator@U?$pair@$$CBIPAUpatch_scrap@@@std@@@3@$0A@@std@@@std@@IBEPAU_Node@?$_Tree_nod@V?$_Tmap_traits@IPAUpatch_scrap@@U?$less@I@std@@V?$allocator@U?$pair@$$CBIPAUpatch_scrap@@@std@@@3@$0A@@std@@@2@ABI@Z ; std::_Tree<std::_Tmap_traits<unsigned int,patch_scrap *,std::less<unsigned int>,std::allocator<std::pair<unsigned int const ,patch_scrap *> >,0> >::_Lbound
PUBLIC	??0?$_Tree_val@V?$_Tmap_traits@IPAUpatch_scrap@@U?$less@I@std@@V?$allocator@U?$pair@$$CBIPAUpatch_scrap@@@std@@@3@$0A@@std@@@std@@IAE@ABU?$less@I@1@V?$allocator@U?$pair@$$CBIPAUpatch_scrap@@@std@@@1@@Z ; std::_Tree_val<std::_Tmap_traits<unsigned int,patch_scrap *,std::less<unsigned int>,std::allocator<std::pair<unsigned int const ,patch_scrap *> >,0> >::_Tree_val<std::_Tmap_traits<unsigned int,patch_scrap *,std::less<unsigned int>,std::allocator<std::pair<unsigned int const ,patch_scrap *> >,0> >
PUBLIC	?_Kfn@?$_Tmap_traits@IPAUpatch_scrap@@U?$less@I@std@@V?$allocator@U?$pair@$$CBIPAUpatch_scrap@@@std@@@3@$0A@@std@@SAABIABU?$pair@$$CBIPAUpatch_scrap@@@2@@Z ; std::_Tmap_traits<unsigned int,patch_scrap *,std::less<unsigned int>,std::allocator<std::pair<unsigned int const ,patch_scrap *> >,0>::_Kfn
PUBLIC	??0?$allocator@U?$pair@$$CBIPAUpatch_scrap@@@std@@@std@@QAE@ABV01@@Z ; std::allocator<std::pair<unsigned int const ,patch_scrap *> >::allocator<std::pair<unsigned int const ,patch_scrap *> >
PUBLIC	?deallocate@?$allocator@U_Node@?$_Tree_nod@V?$_Tmap_traits@IPAUpatch_scrap@@U?$less@I@std@@V?$allocator@U?$pair@$$CBIPAUpatch_scrap@@@std@@@3@$0A@@std@@@std@@@std@@QAEXPAU_Node@?$_Tree_nod@V?$_Tmap_traits@IPAUpatch_scrap@@U?$less@I@std@@V?$allocator@U?$pair@$$CBIPAUpatch_scrap@@@std@@@3@$0A@@std@@@2@I@Z ; std::allocator<std::_Tree_nod<std::_Tmap_traits<unsigned int,patch_scrap *,std::less<unsigned int>,std::allocator<std::pair<unsigned int const ,patch_scrap *> >,0> >::_Node>::deallocate
PUBLIC	?destroy@?$allocator@U_Node@?$_Tree_nod@V?$_Tmap_traits@IPAUpatch_scrap@@U?$less@I@std@@V?$allocator@U?$pair@$$CBIPAUpatch_scrap@@@std@@@3@$0A@@std@@@std@@@std@@QAEXPAU_Node@?$_Tree_nod@V?$_Tmap_traits@IPAUpatch_scrap@@U?$less@I@std@@V?$allocator@U?$pair@$$CBIPAUpatch_scrap@@@std@@@3@$0A@@std@@@2@@Z ; std::allocator<std::_Tree_nod<std::_Tmap_traits<unsigned int,patch_scrap *,std::less<unsigned int>,std::allocator<std::pair<unsigned int const ,patch_scrap *> >,0> >::_Node>::destroy
PUBLIC	?destroy@?$allocator@PAU_Node@?$_Tree_nod@V?$_Tmap_traits@IPAUpatch_scrap@@U?$less@I@std@@V?$allocator@U?$pair@$$CBIPAUpatch_scrap@@@std@@@3@$0A@@std@@@std@@@std@@QAEXPAPAU_Node@?$_Tree_nod@V?$_Tmap_traits@IPAUpatch_scrap@@U?$less@I@std@@V?$allocator@U?$pair@$$CBIPAUpatch_scrap@@@std@@@3@$0A@@std@@@2@@Z ; std::allocator<std::_Tree_nod<std::_Tmap_traits<unsigned int,patch_scrap *,std::less<unsigned int>,std::allocator<std::pair<unsigned int const ,patch_scrap *> >,0> >::_Node *>::destroy
PUBLIC	??Fiterator@?$_Tree@V?$_Tmap_traits@IPAUpatch_scrap@@U?$less@I@std@@V?$allocator@U?$pair@$$CBIPAUpatch_scrap@@@std@@@3@$0A@@std@@@std@@QAEAAV012@XZ ; std::_Tree<std::_Tmap_traits<unsigned int,patch_scrap *,std::less<unsigned int>,std::allocator<std::pair<unsigned int const ,patch_scrap *> >,0> >::iterator::operator--
PUBLIC	??0const_iterator@?$_Tree@V?$_Tmap_traits@IPAUpatch_scrap@@U?$less@I@std@@V?$allocator@U?$pair@$$CBIPAUpatch_scrap@@@std@@@3@$0A@@std@@@std@@QAE@PAU_Node@?$_Tree_nod@V?$_Tmap_traits@IPAUpatch_scrap@@U?$less@I@std@@V?$allocator@U?$pair@$$CBIPAUpatch_scrap@@@std@@@3@$0A@@std@@@2@@Z ; std::_Tree<std::_Tmap_traits<unsigned int,patch_scrap *,std::less<unsigned int>,std::allocator<std::pair<unsigned int const ,patch_scrap *> >,0> >::const_iterator::const_iterator
PUBLIC	??Dconst_iterator@?$_Tree@V?$_Tmap_traits@IPAUpatch_scrap@@U?$less@I@std@@V?$allocator@U?$pair@$$CBIPAUpatch_scrap@@@std@@@3@$0A@@std@@@std@@QBEABU?$pair@$$CBIPAUpatch_scrap@@@2@XZ ; std::_Tree<std::_Tmap_traits<unsigned int,patch_scrap *,std::less<unsigned int>,std::allocator<std::pair<unsigned int const ,patch_scrap *> >,0> >::const_iterator::operator*
PUBLIC	??Econst_iterator@?$_Tree@V?$_Tmap_traits@IPAUpatch_scrap@@U?$less@I@std@@V?$allocator@U?$pair@$$CBIPAUpatch_scrap@@@std@@@3@$0A@@std@@@std@@QAEAAV012@XZ ; std::_Tree<std::_Tmap_traits<unsigned int,patch_scrap *,std::less<unsigned int>,std::allocator<std::pair<unsigned int const ,patch_scrap *> >,0> >::const_iterator::operator++
PUBLIC	??0?$pair@Vconst_iterator@?$_Tree@V?$_Tmap_traits@IPAUpatch_scrap@@U?$less@I@std@@V?$allocator@U?$pair@$$CBIPAUpatch_scrap@@@std@@@3@$0A@@std@@@std@@V123@@std@@QAE@ABVconst_iterator@?$_Tree@V?$_Tmap_traits@IPAUpatch_scrap@@U?$less@I@std@@V?$allocator@U?$pair@$$CBIPAUpatch_scrap@@@std@@@3@$0A@@std@@@1@0@Z ; std::pair<std::_Tree<std::_Tmap_traits<unsigned int,patch_scrap *,std::less<unsigned int>,std::allocator<std::pair<unsigned int const ,patch_scrap *> >,0> >::const_iterator,std::_Tree<std::_Tmap_traits<unsigned int,patch_scrap *,std::less<unsigned int>,std::allocator<std::pair<unsigned int const ,patch_scrap *> >,0> >::const_iterator>::pair<std::_Tree<std::_Tmap_traits<unsigned int,patch_scrap *,std::less<unsigned int>,std::allocator<std::pair<unsigned int const ,patch_scrap *> >,0> >::const_iterator,std::_Tree<std::_Tmap_traits<unsigned int,patch_scrap *,std::less<unsigned int>,std::allocator<std::pair<unsigned int const ,patch_scrap *> >,0> >::const_iterator>
PUBLIC	?_Color@?$_Tree@V?$_Tmap_traits@IPAUpatch_scrap@@U?$less@I@std@@V?$allocator@U?$pair@$$CBIPAUpatch_scrap@@@std@@@3@$0A@@std@@@std@@KAAADPAU_Node@?$_Tree_nod@V?$_Tmap_traits@IPAUpatch_scrap@@U?$less@I@std@@V?$allocator@U?$pair@$$CBIPAUpatch_scrap@@@std@@@3@$0A@@std@@@2@@Z ; std::_Tree<std::_Tmap_traits<unsigned int,patch_scrap *,std::less<unsigned int>,std::allocator<std::pair<unsigned int const ,patch_scrap *> >,0> >::_Color
PUBLIC	?max_size@?$_Tree@V?$_Tmap_traits@IPAUpatch_scrap@@U?$less@I@std@@V?$allocator@U?$pair@$$CBIPAUpatch_scrap@@@std@@@3@$0A@@std@@@std@@QBEIXZ ; std::_Tree<std::_Tmap_traits<unsigned int,patch_scrap *,std::less<unsigned int>,std::allocator<std::pair<unsigned int const ,patch_scrap *> >,0> >::max_size
PUBLIC	?erase@?$_Tree@V?$_Tmap_traits@IPAUpatch_scrap@@U?$less@I@std@@V?$allocator@U?$pair@$$CBIPAUpatch_scrap@@@std@@@3@$0A@@std@@@std@@QAE?AViterator@12@V312@@Z ; std::_Tree<std::_Tmap_traits<unsigned int,patch_scrap *,std::less<unsigned int>,std::allocator<std::pair<unsigned int const ,patch_scrap *> >,0> >::erase
PUBLIC	?_Lrotate@?$_Tree@V?$_Tmap_traits@IPAUpatch_scrap@@U?$less@I@std@@V?$allocator@U?$pair@$$CBIPAUpatch_scrap@@@std@@@3@$0A@@std@@@std@@IAEXPAU_Node@?$_Tree_nod@V?$_Tmap_traits@IPAUpatch_scrap@@U?$less@I@std@@V?$allocator@U?$pair@$$CBIPAUpatch_scrap@@@std@@@3@$0A@@std@@@2@@Z ; std::_Tree<std::_Tmap_traits<unsigned int,patch_scrap *,std::less<unsigned int>,std::allocator<std::pair<unsigned int const ,patch_scrap *> >,0> >::_Lrotate
PUBLIC	?_Root@?$_Tree@V?$_Tmap_traits@IPAUpatch_scrap@@U?$less@I@std@@V?$allocator@U?$pair@$$CBIPAUpatch_scrap@@@std@@@3@$0A@@std@@@std@@IBEAAPAU_Node@?$_Tree_nod@V?$_Tmap_traits@IPAUpatch_scrap@@U?$less@I@std@@V?$allocator@U?$pair@$$CBIPAUpatch_scrap@@@std@@@3@$0A@@std@@@2@XZ ; std::_Tree<std::_Tmap_traits<unsigned int,patch_scrap *,std::less<unsigned int>,std::allocator<std::pair<unsigned int const ,patch_scrap *> >,0> >::_Root
PUBLIC	?_Rrotate@?$_Tree@V?$_Tmap_traits@IPAUpatch_scrap@@U?$less@I@std@@V?$allocator@U?$pair@$$CBIPAUpatch_scrap@@@std@@@3@$0A@@std@@@std@@IAEXPAU_Node@?$_Tree_nod@V?$_Tmap_traits@IPAUpatch_scrap@@U?$less@I@std@@V?$allocator@U?$pair@$$CBIPAUpatch_scrap@@@std@@@3@$0A@@std@@@2@@Z ; std::_Tree<std::_Tmap_traits<unsigned int,patch_scrap *,std::less<unsigned int>,std::allocator<std::pair<unsigned int const ,patch_scrap *> >,0> >::_Rrotate
PUBLIC	?_Ubound@?$_Tree@V?$_Tmap_traits@IPAUpatch_scrap@@U?$less@I@std@@V?$allocator@U?$pair@$$CBIPAUpatch_scrap@@@std@@@3@$0A@@std@@@std@@IBEPAU_Node@?$_Tree_nod@V?$_Tmap_traits@IPAUpatch_scrap@@U?$less@I@std@@V?$allocator@U?$pair@$$CBIPAUpatch_scrap@@@std@@@3@$0A@@std@@@2@ABI@Z ; std::_Tree<std::_Tmap_traits<unsigned int,patch_scrap *,std::less<unsigned int>,std::allocator<std::pair<unsigned int const ,patch_scrap *> >,0> >::_Ubound
PUBLIC	?_Buynode@?$_Tree@V?$_Tmap_traits@IPAUpatch_scrap@@U?$less@I@std@@V?$allocator@U?$pair@$$CBIPAUpatch_scrap@@@std@@@3@$0A@@std@@@std@@IAEPAU_Node@?$_Tree_nod@V?$_Tmap_traits@IPAUpatch_scrap@@U?$less@I@std@@V?$allocator@U?$pair@$$CBIPAUpatch_scrap@@@std@@@3@$0A@@std@@@2@XZ ; std::_Tree<std::_Tmap_traits<unsigned int,patch_scrap *,std::less<unsigned int>,std::allocator<std::pair<unsigned int const ,patch_scrap *> >,0> >::_Buynode
PUBLIC	?_Buynode@?$_Tree@V?$_Tmap_traits@IPAUpatch_scrap@@U?$less@I@std@@V?$allocator@U?$pair@$$CBIPAUpatch_scrap@@@std@@@3@$0A@@std@@@std@@IAEPAU_Node@?$_Tree_nod@V?$_Tmap_traits@IPAUpatch_scrap@@U?$less@I@std@@V?$allocator@U?$pair@$$CBIPAUpatch_scrap@@@std@@@3@$0A@@std@@@2@PAU342@00ABU?$pair@$$CBIPAUpatch_scrap@@@2@D@Z ; std::_Tree<std::_Tmap_traits<unsigned int,patch_scrap *,std::less<unsigned int>,std::allocator<std::pair<unsigned int const ,patch_scrap *> >,0> >::_Buynode
PUBLIC	??0?$_Tree_ptr@V?$_Tmap_traits@IPAUpatch_scrap@@U?$less@I@std@@V?$allocator@U?$pair@$$CBIPAUpatch_scrap@@@std@@@3@$0A@@std@@@std@@IAE@ABU?$less@I@1@V?$allocator@U?$pair@$$CBIPAUpatch_scrap@@@std@@@1@@Z ; std::_Tree_ptr<std::_Tmap_traits<unsigned int,patch_scrap *,std::less<unsigned int>,std::allocator<std::pair<unsigned int const ,patch_scrap *> >,0> >::_Tree_ptr<std::_Tmap_traits<unsigned int,patch_scrap *,std::less<unsigned int>,std::allocator<std::pair<unsigned int const ,patch_scrap *> >,0> >
PUBLIC	??Fconst_iterator@?$_Tree@V?$_Tmap_traits@IPAUpatch_scrap@@U?$less@I@std@@V?$allocator@U?$pair@$$CBIPAUpatch_scrap@@@std@@@3@$0A@@std@@@std@@QAEAAV012@XZ ; std::_Tree<std::_Tmap_traits<unsigned int,patch_scrap *,std::less<unsigned int>,std::allocator<std::pair<unsigned int const ,patch_scrap *> >,0> >::const_iterator::operator--
PUBLIC	?_Inc@const_iterator@?$_Tree@V?$_Tmap_traits@IPAUpatch_scrap@@U?$less@I@std@@V?$allocator@U?$pair@$$CBIPAUpatch_scrap@@@std@@@3@$0A@@std@@@std@@QAEXXZ ; std::_Tree<std::_Tmap_traits<unsigned int,patch_scrap *,std::less<unsigned int>,std::allocator<std::pair<unsigned int const ,patch_scrap *> >,0> >::const_iterator::_Inc
PUBLIC	??0?$pair@Viterator@?$_Tree@V?$_Tmap_traits@IPAUpatch_scrap@@U?$less@I@std@@V?$allocator@U?$pair@$$CBIPAUpatch_scrap@@@std@@@3@$0A@@std@@@std@@_N@std@@QAE@ABViterator@?$_Tree@V?$_Tmap_traits@IPAUpatch_scrap@@U?$less@I@std@@V?$allocator@U?$pair@$$CBIPAUpatch_scrap@@@std@@@3@$0A@@std@@@1@AB_N@Z ; std::pair<std::_Tree<std::_Tmap_traits<unsigned int,patch_scrap *,std::less<unsigned int>,std::allocator<std::pair<unsigned int const ,patch_scrap *> >,0> >::iterator,bool>::pair<std::_Tree<std::_Tmap_traits<unsigned int,patch_scrap *,std::less<unsigned int>,std::allocator<std::pair<unsigned int const ,patch_scrap *> >,0> >::iterator,bool>
PUBLIC	?_Max@?$_Tree@V?$_Tmap_traits@IPAUpatch_scrap@@U?$less@I@std@@V?$allocator@U?$pair@$$CBIPAUpatch_scrap@@@std@@@3@$0A@@std@@@std@@KAPAU_Node@?$_Tree_nod@V?$_Tmap_traits@IPAUpatch_scrap@@U?$less@I@std@@V?$allocator@U?$pair@$$CBIPAUpatch_scrap@@@std@@@3@$0A@@std@@@2@PAU342@@Z ; std::_Tree<std::_Tmap_traits<unsigned int,patch_scrap *,std::less<unsigned int>,std::allocator<std::pair<unsigned int const ,patch_scrap *> >,0> >::_Max
PUBLIC	?_Min@?$_Tree@V?$_Tmap_traits@IPAUpatch_scrap@@U?$less@I@std@@V?$allocator@U?$pair@$$CBIPAUpatch_scrap@@@std@@@3@$0A@@std@@@std@@KAPAU_Node@?$_Tree_nod@V?$_Tmap_traits@IPAUpatch_scrap@@U?$less@I@std@@V?$allocator@U?$pair@$$CBIPAUpatch_scrap@@@std@@@3@$0A@@std@@@2@PAU342@@Z ; std::_Tree<std::_Tmap_traits<unsigned int,patch_scrap *,std::less<unsigned int>,std::allocator<std::pair<unsigned int const ,patch_scrap *> >,0> >::_Min
PUBLIC	??0?$_Tree_nod@V?$_Tmap_traits@IPAUpatch_scrap@@U?$less@I@std@@V?$allocator@U?$pair@$$CBIPAUpatch_scrap@@@std@@@3@$0A@@std@@@std@@IAE@ABU?$less@I@1@V?$allocator@U?$pair@$$CBIPAUpatch_scrap@@@std@@@1@@Z ; std::_Tree_nod<std::_Tmap_traits<unsigned int,patch_scrap *,std::less<unsigned int>,std::allocator<std::pair<unsigned int const ,patch_scrap *> >,0> >::_Tree_nod<std::_Tmap_traits<unsigned int,patch_scrap *,std::less<unsigned int>,std::allocator<std::pair<unsigned int const ,patch_scrap *> >,0> >
PUBLIC	?max_size@?$allocator@U?$pair@$$CBIPAUpatch_scrap@@@std@@@std@@QBEIXZ ; std::allocator<std::pair<unsigned int const ,patch_scrap *> >::max_size
PUBLIC	?allocate@?$allocator@U_Node@?$_Tree_nod@V?$_Tmap_traits@IPAUpatch_scrap@@U?$less@I@std@@V?$allocator@U?$pair@$$CBIPAUpatch_scrap@@@std@@@3@$0A@@std@@@std@@@std@@QAEPAU_Node@?$_Tree_nod@V?$_Tmap_traits@IPAUpatch_scrap@@U?$less@I@std@@V?$allocator@U?$pair@$$CBIPAUpatch_scrap@@@std@@@3@$0A@@std@@@2@I@Z ; std::allocator<std::_Tree_nod<std::_Tmap_traits<unsigned int,patch_scrap *,std::less<unsigned int>,std::allocator<std::pair<unsigned int const ,patch_scrap *> >,0> >::_Node>::allocate
PUBLIC	?construct@?$allocator@PAU_Node@?$_Tree_nod@V?$_Tmap_traits@IPAUpatch_scrap@@U?$less@I@std@@V?$allocator@U?$pair@$$CBIPAUpatch_scrap@@@std@@@3@$0A@@std@@@std@@@std@@QAEXPAPAU_Node@?$_Tree_nod@V?$_Tmap_traits@IPAUpatch_scrap@@U?$less@I@std@@V?$allocator@U?$pair@$$CBIPAUpatch_scrap@@@std@@@3@$0A@@std@@@2@ABQAU342@@Z ; std::allocator<std::_Tree_nod<std::_Tmap_traits<unsigned int,patch_scrap *,std::less<unsigned int>,std::allocator<std::pair<unsigned int const ,patch_scrap *> >,0> >::_Node *>::construct
PUBLIC	?_Dec@const_iterator@?$_Tree@V?$_Tmap_traits@IPAUpatch_scrap@@U?$less@I@std@@V?$allocator@U?$pair@$$CBIPAUpatch_scrap@@@std@@@3@$0A@@std@@@std@@QAEXXZ ; std::_Tree<std::_Tmap_traits<unsigned int,patch_scrap *,std::less<unsigned int>,std::allocator<std::pair<unsigned int const ,patch_scrap *> >,0> >::const_iterator::_Dec
PUBLIC	??0_Node@?$_Tree_nod@V?$_Tmap_traits@IPAUpatch_scrap@@U?$less@I@std@@V?$allocator@U?$pair@$$CBIPAUpatch_scrap@@@std@@@3@$0A@@std@@@std@@QAE@PAU012@00ABU?$pair@$$CBIPAUpatch_scrap@@@2@D@Z ; std::_Tree_nod<std::_Tmap_traits<unsigned int,patch_scrap *,std::less<unsigned int>,std::allocator<std::pair<unsigned int const ,patch_scrap *> >,0> >::_Node::_Node
PUBLIC	??0?$_Tmap_traits@IPAUpatch_scrap@@U?$less@I@std@@V?$allocator@U?$pair@$$CBIPAUpatch_scrap@@@std@@@3@$0A@@std@@QAE@U?$less@I@1@@Z ; std::_Tmap_traits<unsigned int,patch_scrap *,std::less<unsigned int>,std::allocator<std::pair<unsigned int const ,patch_scrap *> >,0>::_Tmap_traits<unsigned int,patch_scrap *,std::less<unsigned int>,std::allocator<std::pair<unsigned int const ,patch_scrap *> >,0>
PUBLIC	??$_Distance@Vconst_iterator@?$_Tree@V?$_Tmap_traits@IPAUpatch_scrap@@U?$less@I@std@@V?$allocator@U?$pair@$$CBIPAUpatch_scrap@@@std@@@3@$0A@@std@@@std@@I@std@@YAXVconst_iterator@?$_Tree@V?$_Tmap_traits@IPAUpatch_scrap@@U?$less@I@std@@V?$allocator@U?$pair@$$CBIPAUpatch_scrap@@@std@@@3@$0A@@std@@@0@0AAI@Z ; std::_Distance<std::_Tree<std::_Tmap_traits<unsigned int,patch_scrap *,std::less<unsigned int>,std::allocator<std::pair<unsigned int const ,patch_scrap *> >,0> >::const_iterator,unsigned int>
PUBLIC	??$_Destroy@U_Node@?$_Tree_nod@V?$_Tmap_traits@IPAUpatch_scrap@@U?$less@I@std@@V?$allocator@U?$pair@$$CBIPAUpatch_scrap@@@std@@@3@$0A@@std@@@std@@@std@@YAXPAU_Node@?$_Tree_nod@V?$_Tmap_traits@IPAUpatch_scrap@@U?$less@I@std@@V?$allocator@U?$pair@$$CBIPAUpatch_scrap@@@std@@@3@$0A@@std@@@0@@Z ; std::_Destroy<std::_Tree_nod<std::_Tmap_traits<unsigned int,patch_scrap *,std::less<unsigned int>,std::allocator<std::pair<unsigned int const ,patch_scrap *> >,0> >::_Node>
PUBLIC	??$_Destroy@PAU_Node@?$_Tree_nod@V?$_Tmap_traits@IPAUpatch_scrap@@U?$less@I@std@@V?$allocator@U?$pair@$$CBIPAUpatch_scrap@@@std@@@3@$0A@@std@@@std@@@std@@YAXPAPAU_Node@?$_Tree_nod@V?$_Tmap_traits@IPAUpatch_scrap@@U?$less@I@std@@V?$allocator@U?$pair@$$CBIPAUpatch_scrap@@@std@@@3@$0A@@std@@@0@@Z ; std::_Destroy<std::_Tree_nod<std::_Tmap_traits<unsigned int,patch_scrap *,std::less<unsigned int>,std::allocator<std::pair<unsigned int const ,patch_scrap *> >,0> >::_Node *>
PUBLIC	??$?0U?$pair@$$CBIPAUpatch_scrap@@@std@@@?$allocator@PAU_Node@?$_Tree_nod@V?$_Tmap_traits@IPAUpatch_scrap@@U?$less@I@std@@V?$allocator@U?$pair@$$CBIPAUpatch_scrap@@@std@@@3@$0A@@std@@@std@@@std@@QAE@ABV?$allocator@U?$pair@$$CBIPAUpatch_scrap@@@std@@@1@@Z ; std::allocator<std::_Tree_nod<std::_Tmap_traits<unsigned int,patch_scrap *,std::less<unsigned int>,std::allocator<std::pair<unsigned int const ,patch_scrap *> >,0> >::_Node *>::allocator<std::_Tree_nod<std::_Tmap_traits<unsigned int,patch_scrap *,std::less<unsigned int>,std::allocator<std::pair<unsigned int const ,patch_scrap *> >,0> >::_Node *><std::pair<unsigned int const ,patch_scrap *> >
PUBLIC	??$?0U?$pair@$$CBIPAUpatch_scrap@@@std@@@?$allocator@U_Node@?$_Tree_nod@V?$_Tmap_traits@IPAUpatch_scrap@@U?$less@I@std@@V?$allocator@U?$pair@$$CBIPAUpatch_scrap@@@std@@@3@$0A@@std@@@std@@@std@@QAE@ABV?$allocator@U?$pair@$$CBIPAUpatch_scrap@@@std@@@1@@Z ; std::allocator<std::_Tree_nod<std::_Tmap_traits<unsigned int,patch_scrap *,std::less<unsigned int>,std::allocator<std::pair<unsigned int const ,patch_scrap *> >,0> >::_Node>::allocator<std::_Tree_nod<std::_Tmap_traits<unsigned int,patch_scrap *,std::less<unsigned int>,std::allocator<std::pair<unsigned int const ,patch_scrap *> >,0> >::_Node><std::pair<unsigned int const ,patch_scrap *> >
PUBLIC	??$_Allocate@U_Node@?$_Tree_nod@V?$_Tmap_traits@IPAUpatch_scrap@@U?$less@I@std@@V?$allocator@U?$pair@$$CBIPAUpatch_scrap@@@std@@@3@$0A@@std@@@std@@@std@@YAPAU_Node@?$_Tree_nod@V?$_Tmap_traits@IPAUpatch_scrap@@U?$less@I@std@@V?$allocator@U?$pair@$$CBIPAUpatch_scrap@@@std@@@3@$0A@@std@@@0@IPAU120@@Z ; std::_Allocate<std::_Tree_nod<std::_Tmap_traits<unsigned int,patch_scrap *,std::less<unsigned int>,std::allocator<std::pair<unsigned int const ,patch_scrap *> >,0> >::_Node>
PUBLIC	??$_Construct@PAU_Node@?$_Tree_nod@V?$_Tmap_traits@IPAUpatch_scrap@@U?$less@I@std@@V?$allocator@U?$pair@$$CBIPAUpatch_scrap@@@std@@@3@$0A@@std@@@std@@PAU123@@std@@YAXPAPAU_Node@?$_Tree_nod@V?$_Tmap_traits@IPAUpatch_scrap@@U?$less@I@std@@V?$allocator@U?$pair@$$CBIPAUpatch_scrap@@@std@@@3@$0A@@std@@@0@ABQAU120@@Z ; std::_Construct<std::_Tree_nod<std::_Tmap_traits<unsigned int,patch_scrap *,std::less<unsigned int>,std::allocator<std::pair<unsigned int const ,patch_scrap *> >,0> >::_Node *,std::_Tree_nod<std::_Tmap_traits<unsigned int,patch_scrap *,std::less<unsigned int>,std::allocator<std::pair<unsigned int const ,patch_scrap *> >,0> >::_Node *>
PUBLIC	??$_Iter_cat@Vconst_iterator@?$_Tree@V?$_Tmap_traits@IPAUpatch_scrap@@U?$less@I@std@@V?$allocator@U?$pair@$$CBIPAUpatch_scrap@@@std@@@3@$0A@@std@@@std@@@std@@YA?AUbidirectional_iterator_tag@0@ABVconst_iterator@?$_Tree@V?$_Tmap_traits@IPAUpatch_scrap@@U?$less@I@std@@V?$allocator@U?$pair@$$CBIPAUpatch_scrap@@@std@@@3@$0A@@std@@@0@@Z ; std::_Iter_cat<std::_Tree<std::_Tmap_traits<unsigned int,patch_scrap *,std::less<unsigned int>,std::allocator<std::pair<unsigned int const ,patch_scrap *> >,0> >::const_iterator>
PUBLIC	??$_Distance2@Vconst_iterator@?$_Tree@V?$_Tmap_traits@IPAUpatch_scrap@@U?$less@I@std@@V?$allocator@U?$pair@$$CBIPAUpatch_scrap@@@std@@@3@$0A@@std@@@std@@I@std@@YAXVconst_iterator@?$_Tree@V?$_Tmap_traits@IPAUpatch_scrap@@U?$less@I@std@@V?$allocator@U?$pair@$$CBIPAUpatch_scrap@@@std@@@3@$0A@@std@@@0@0AAIUbidirectional_iterator_tag@0@@Z ; std::_Distance2<std::_Tree<std::_Tmap_traits<unsigned int,patch_scrap *,std::less<unsigned int>,std::allocator<std::pair<unsigned int const ,patch_scrap *> >,0> >::const_iterator,unsigned int>
PUBLIC	?get_iEn@Patch@@QAEIXZ				; Patch::get_iEn
PUBLIC	?get_sw_En@Patch@@QAE_NXZ			; Patch::get_sw_En
PUBLIC	?get_fEn@Patch@@QAE_NXZ				; Patch::get_fEn
PUBLIC	?get_iEm@Patch@@QAEIXZ				; Patch::get_iEm
PUBLIC	?get_sw_Em@Patch@@QAE_NXZ			; Patch::get_sw_Em
PUBLIC	?get_fEm@Patch@@QAE_NXZ				; Patch::get_fEm
PUBLIC	?get_iEvol@Patch@@QAEIXZ			; Patch::get_iEvol
PUBLIC	?get_sw_Evol@Patch@@QAE_NXZ			; Patch::get_sw_Evol
PUBLIC	?get_fEvol@Patch@@QAE_NXZ			; Patch::get_fEvol
PUBLIC	?get_iEvoi@Patch@@QAEIXZ			; Patch::get_iEvoi
PUBLIC	?get_fEvoi@Patch@@QAE_NXZ			; Patch::get_fEvoi
PUBLIC	?get_iVoi@Patch@@QAEIXZ				; Patch::get_iVoi
PUBLIC	?get_fVoi@Patch@@QAE_NXZ			; Patch::get_fVoi
PUBLIC	?get_iSweep@Patch@@QAEEXZ			; Patch::get_iSweep
PUBLIC	?get_fSweep@Patch@@QAE_NXZ			; Patch::get_fSweep
PUBLIC	?get_iKey@Patch@@QAEIXZ				; Patch::get_iKey
PUBLIC	?get_fKey@Patch@@QAE_NXZ			; Patch::get_fKey
PUBLIC	?get_fSub_opt@Patch@@QAE_NXZ			; Patch::get_fSub_opt
PUBLIC	?get_iSub@Patch@@QAEIXZ				; Patch::get_iSub
PUBLIC	?get_fSub@Patch@@QAE_NXZ			; Patch::get_fSub
PUBLIC	?get_iGate_u@Patch@@QAEIXZ			; Patch::get_iGate_u
PUBLIC	?get_fGate_u@Patch@@QAE_NXZ			; Patch::get_fGate_u
PUBLIC	?get_iGate_q@Patch@@QAEIXZ			; Patch::get_iGate_q
PUBLIC	?get_fGate_q@Patch@@QAE_NXZ			; Patch::get_fGate_q
; Listing generated by Microsoft (R) Optimizing Compiler Version 13.10.3077 

	TITLE	.\Patch.cpp
	.386P
include listing.inc
if @Version gt 510
.model FLAT
else
;	COMDAT ??_C@_02MOBCCJHH@$$?$AA@
CONST	SEGMENT DWORD USE32 PUBLIC 'CONST'
CONST	ENDS
;	COMDAT ??_C@_03GNIAMJAE@E?$EA?$CK?$AA@
CONST	SEGMENT DWORD USE32 PUBLIC 'CONST'
CONST	ENDS
;	COMDAT ??_C@_03ENGGFACG@Ev?$CK?$AA@
CONST	SEGMENT DWORD USE32 PUBLIC 'CONST'
CONST	ENDS
;	COMDAT ??_C@_03FNBFBMLH@Em?$CK?$AA@
CONST	SEGMENT DWORD USE32 PUBLIC 'CONST'
CONST	ENDS
;	COMDAT ??_C@_03FPFDKCOO@En?$CK?$AA@
CONST	SEGMENT DWORD USE32 PUBLIC 'CONST'
CONST	ENDS
;	COMDAT ??_C@_02IGJGCGMD@E?$EA?$AA@
CONST	SEGMENT DWORD USE32 PUBLIC 'CONST'
CONST	ENDS
;	COMDAT ??_C@_02PIKLHLG@Ev?$AA@
CONST	SEGMENT DWORD USE32 PUBLIC 'CONST'
CONST	ENDS
;	COMDAT ??_C@_02KGLMHMCM@Em?$AA@
CONST	SEGMENT DWORD USE32 PUBLIC 'CONST'
CONST	ENDS
;	COMDAT ??_C@_02INJBCPOP@En?$AA@
CONST	SEGMENT DWORD USE32 PUBLIC 'CONST'
CONST	ENDS
;	COMDAT ??_C@_01IIACKFLH@q?$AA@
CONST	SEGMENT DWORD USE32 PUBLIC 'CONST'
CONST	ENDS
;	COMDAT ??_C@_01OMGOGALD@u?$AA@
CONST	SEGMENT DWORD USE32 PUBLIC 'CONST'
CONST	ENDS
;	COMDAT ??_C@_01LKDEMHDF@s?$AA@
CONST	SEGMENT DWORD USE32 PUBLIC 'CONST'
CONST	ENDS
;	COMDAT ??_C@_03KODNNGID@?$EANS?$AA@
CONST	SEGMENT DWORD USE32 PUBLIC 'CONST'
CONST	ENDS
;	COMDAT ??_C@_01EOFPKCAF@?$EA?$AA@
CONST	SEGMENT DWORD USE32 PUBLIC 'CONST'
CONST	ENDS
;	COMDAT ??_C@_01IDAFKMJL@_?$AA@
CONST	SEGMENT DWORD USE32 PUBLIC 'CONST'
CONST	ENDS
;	COMDAT ??_C@_1DE@KNJKOFFK@?$JH?s?$ICr0?$KI0?s0?Y0?m0?$PM0?W0hT?$AMfB0k?$FL?$JK?$HP?$KJ0Y0?$IL0S0h0o0g@
CONST	SEGMENT DWORD USE32 PUBLIC 'CONST'
CONST	ENDS
;	COMDAT ??_C@_1BG@OGNIMPKO@?$JH?s?$ICr0n?$PP?$BC?$JB?M?$FL?$JK?$HP?$KJ0g0Y0?$AC?$AA?$AA@
CONST	SEGMENT DWORD USE32 PUBLIC 'CONST'
CONST	ENDS
;	COMDAT ??_C@_1CM@IEKMDFIE@?$JH?s?$ICr0o?$AA0?$PP?$FO?$AA2?$AA5?$AA50n?$HL?DV?r0gc?$AH?$FL?$JK0W0f0O0?$GA0U0D@
CONST	SEGMENT DWORD USE32 PUBLIC 'CONST'
CONST	ENDS
;	COMDAT ??_C@_1DC@GHMDBEFP@?$JH?s?$ICr0?$KI0?s0?Y0?m0?$PM0?W0o0?$AB?$AA?$EA0?$LD0?$NO0?s0?I0gq?$CBR?$LJ0k0g@
CONST	SEGMENT DWORD USE32 PUBLIC 'CONST'
CONST	ENDS
;	COMDAT ??_C@_1CC@OODHOOPP@?$JH?s?$JB?O0?$KI0?s0?Y0?m0?$PM0?W0n?$PP?$BC?$JB?M?$FL?$JK?$HP?$KJ0g0Y0?$AC?$AA?$AA@
CONST	SEGMENT DWORD USE32 PUBLIC 'CONST'
CONST	ENDS
;	COMDAT ??_C@_1CC@HCKABCOF@?$JH?sz?$AL0?$KI0?s0?Y0?m0?$PM0?W0n?$PP?$BC?$JB?M?$FL?$JK?$HP?$KJ0g0Y0?$AC?$AA?$AA@
CONST	SEGMENT DWORD USE32 PUBLIC 'CONST'
CONST	ENDS
;	COMDAT ??_C@_1CE@MHEDGKOC@0?N0?$PM0?H0?$KI0?s0?Y0?m0?$PM0?W0n?$PP?$BC?$JB?M?$FL?$JK?$HP?$KJ0g0Y0?$AC?$AA?$AA@
CONST	SEGMENT DWORD USE32 PUBLIC 'CONST'
CONST	ENDS
;	COMDAT ??_C@_1CC@LNAFLFDL@?$JH?s?$ICr0?$KI0?s0?Y0?m0?$PM0?W0n?$PP?$BC?$JB?M?$FL?$JK?$HP?$KJ0g0Y0?$AC?$AA?$AA@
CONST	SEGMENT DWORD USE32 PUBLIC 'CONST'
CONST	ENDS
;	COMDAT ??_C@_1CI@FCLDAKAL@?$JH?s?$ICr0hT?$AMfB0k?$FL?$JK?$HP?$KJ0Y0?$IL0S0h0o0g0M0?$HO0?$FL0?$JD0?$AC?$AA?$AA@
CONST	SEGMENT DWORD USE32 PUBLIC 'CONST'
CONST	ENDS
;	COMDAT ??_C@_1BM@CDGIHPDA@?$AAq0?$LD0?$NO0?s0?I0n?$PP?$BC?$JB?M?$FL?$JK?$HP?$KJ0g0Y0?$AC?$AA?$AA@
CONST	SEGMENT DWORD USE32 PUBLIC 'CONST'
CONST	ENDS
;	COMDAT ??_C@_1BM@CFLPILEE@?$AAu0?$LD0?$NO0?s0?I0n?$PP?$BC?$JB?M?$FL?$JK?$HP?$KJ0g0Y0?$AC?$AA?$AA@
CONST	SEGMENT DWORD USE32 PUBLIC 'CONST'
CONST	ENDS
;	COMDAT ??_C@_1BG@DMDHOLIG@y?$PL?$IK?$LP0n?$PP?$BC?$JB?M?$FL?$JK?$HP?$KJ0g0Y0?$AC?$AA?$AA@
CONST	SEGMENT DWORD USE32 PUBLIC 'CONST'
CONST	ENDS
;	COMDAT ??_C@_1BM@CAADIFAK@?$AAs0?$LD0?$NO0?s0?I0n?$PP?$BC?$JB?M?$FL?$JK?$HP?$KJ0g0Y0?$AC?$AA?$AA@
CONST	SEGMENT DWORD USE32 PUBLIC 'CONST'
CONST	ENDS
;	COMDAT ??_C@_1DC@OMNANPHO@?$AAs0?$LD0?$NO0?s0?I0o?$AA0?$PP?$FO?$AA2?$AA5?$AA50n?$HL?DV?r0gc?$AH?$FL?$JK0W0f0O@
CONST	SEGMENT DWORD USE32 PUBLIC 'CONST'
CONST	ENDS
;	COMDAT ??_C@_1EA@FGFBAIAO@?$AAs0?$LD0?$NO0?s0?I0n?$HL?0?$AA10?Q0?i0?a0?$PM0?$LP0o?$AA0?$PP?$FO?$AA1?$AA50n?$HL?D@
CONST	SEGMENT DWORD USE32 PUBLIC 'CONST'
CONST	ENDS
;	COMDAT ??_C@_1EA@BHDCEFM@?$AAs0?$LD0?$NO0?s0?I0n?$HL?0?$AA20?Q0?i0?a0?$PM0?$LP0o?$AA0?$PP?$FO?$AA1?$AA50n?$HL?D@
CONST	SEGMENT DWORD USE32 PUBLIC 'CONST'
CONST	ENDS
;	COMDAT ??_C@_1CE@JMKANNFP@?$AA?$EA0?$LD0?$NO0?s0?I0Le?b0kc?$AH?$FL?$JK0U0?$IM0f0D0?$HO0Y0?$AC?$AA?$AA@
CONST	SEGMENT DWORD USE32 PUBLIC 'CONST'
CONST	ENDS
;	COMDAT ??_C@_1CG@DIPDDOH@?$AAE?$AA?$EA0?$LD0?$NO0?s0?I0Le?b0kc?$AH?$FL?$JK0U0?$IM0f0D0?$HO0Y0?$AC?$AA?$AA@
CONST	SEGMENT DWORD USE32 PUBLIC 'CONST'
CONST	ENDS
;	COMDAT ??_C@_1DM@DHGNPNAI@?$AAn?$AA1?$AA6?$AAx0nl?b_b?$JF?$ILY?Kp?$LJ0o?$AA0?$PP?$FO?$AA2?$AA5?$AA20n?$HL?DV?r0g@
CONST	SEGMENT DWORD USE32 PUBLIC 'CONST'
CONST	ENDS
;	COMDAT ??_C@_1DE@ODMGCHFJ@?$AAn?$AA1?$AA6?$AAx0nl?b_b?$JF?$ILY?Kp?$LJ0o?$AA40nP?$ANep0gc?$AH?$FL?$JK0W0f@
CONST	SEGMENT DWORD USE32 PUBLIC 'CONST'
CONST	ENDS
;	COMDAT ??_C@_1CE@PCAGAE@?$AAs0?$LD0?$NO0?s0?I0Le?b0kc?$AH?$FL?$JK0U0?$IM0f0D0?$HO0Y0?$AC?$AA?$AA@
CONST	SEGMENT DWORD USE32 PUBLIC 'CONST'
CONST	ENDS
;	COMDAT ??_C@_1DM@DDNJDHDJ@?$AAn?$AA1?$AA6?$AAx0n0?$LF0?s0?W0?k?$JFw0o?$AA4?$PP?$FO?$AA2?$AA5?$AA60n?$HL?DV?r0g@
CONST	SEGMENT DWORD USE32 PUBLIC 'CONST'
CONST	ENDS
;	COMDAT ??_C@_1DE@MPDFLMLF@?$AAn?$AA1?$AA6?$AAx0n0?$LF0?s0?W0?k?$JFw0o?$AA40nP?$ANep0gc?$AH?$FL?$JK0W0f@
CONST	SEGMENT DWORD USE32 PUBLIC 'CONST'
CONST	ENDS
;	COMDAT ??_C@_1BO@CKOOCKJC@0?$LF0?V0?k0?$PM0?A0?s0n?$PP?$BC?$JB?M?$FL?$JK?$HP?$KJ0g0Y0?$AC?$AA?$AA@
CONST	SEGMENT DWORD USE32 PUBLIC 'CONST'
CONST	ENDS
;	COMDAT ??_C@_1DO@BDHNDBK@0?$LF0?V0?k0?$PM0?A0?s0ng?$AA?$JAiS?$BG0?U0?i0?$LA0o?$AA0?$PP?$FO?$AA10n?$HL?DV?r@
CONST	SEGMENT DWORD USE32 PUBLIC 'CONST'
CONST	ENDS
;	COMDAT ??_C@_08JGNHFCII@?$CJ?5?$FN?5?$DN?$DN?$DN?$DN?$AA@
CONST	SEGMENT DWORD USE32 PUBLIC 'CONST'
CONST	ENDS
;	COMDAT ??_C@_0O@IDEMKPMC@?$DN?$DN?$DN?$DN?5?$FL?5Patch?$CI?$AA@
CONST	SEGMENT DWORD USE32 PUBLIC 'CONST'
CONST	ENDS
;	COMDAT ??_C@_03LNLKIPBE@?5?5n?$AA@
CONST	SEGMENT DWORD USE32 PUBLIC 'CONST'
CONST	ENDS
;	COMDAT ??_C@_03HAOAIBIK@?5?5q?$AA@
CONST	SEGMENT DWORD USE32 PUBLIC 'CONST'
CONST	ENDS
;	COMDAT ??_C@_03BEIMEEIO@?5?5u?$AA@
CONST	SEGMENT DWORD USE32 PUBLIC 'CONST'
CONST	ENDS
;	COMDAT ??_C@_03NHFCMHKK@?5?5S?$AA@
CONST	SEGMENT DWORD USE32 PUBLIC 'CONST'
CONST	ENDS
;	COMDAT ??_C@_03HLOHIIKG@?5?5_?$AA@
CONST	SEGMENT DWORD USE32 PUBLIC 'CONST'
CONST	ENDS
;	COMDAT ??_C@_03ECNGODAI@?5?5s?$AA@
CONST	SEGMENT DWORD USE32 PUBLIC 'CONST'
CONST	ENDS
;	COMDAT ??_C@_03LGLNIGDI@?5?5?$EA?$AA@
CONST	SEGMENT DWORD USE32 PUBLIC 'CONST'
CONST	ENDS
;	COMDAT ??_C@_03PIKBIPPD@?5E?$EA?$AA@
CONST	SEGMENT DWORD USE32 PUBLIC 'CONST'
CONST	ENDS
;	COMDAT ??_C@_04GLMBFHCD@?5Ev?$CK?$AA@
CONST	SEGMENT DWORD USE32 PUBLIC 'CONST'
CONST	ENDS
;	COMDAT ??_C@_03HBLNBOIG@?5Ev?$AA@
CONST	SEGMENT DWORD USE32 PUBLIC 'CONST'
CONST	ENDS
;	COMDAT ??_C@_04HLLCBLLC@?5Em?$CK?$AA@
CONST	SEGMENT DWORD USE32 PUBLIC 'CONST'
CONST	ENDS
;	COMDAT ??_C@_03NIILNFBM@?5Em?$AA@
CONST	SEGMENT DWORD USE32 PUBLIC 'CONST'
CONST	ENDS
;	COMDAT ??_C@_04HJPEKFOL@?5En?$CK?$AA@
CONST	SEGMENT DWORD USE32 PUBLIC 'CONST'
CONST	ENDS
;	COMDAT ??_C@_03PDKGIGNP@?5En?$AA@
CONST	SEGMENT DWORD USE32 PUBLIC 'CONST'
CONST	ENDS
text$yc	SEGMENT PARA USE32 PUBLIC 'CODE'
text$yc	ENDS
;	COMDAT ??1?$map@IPAUpatch_scrap@@U?$less@I@std@@V?$allocator@U?$pair@$$CBIPAUpatch_scrap@@@std@@@3@@std@@QAE@XZ
_TEXT	SEGMENT PARA USE32 PUBLIC 'CODE'
_TEXT	ENDS
;	COMDAT ??6?$basic_ostream@DU?$char_traits@D@std@@@std@@QAEAAV01@_N@Z
_TEXT	SEGMENT PARA USE32 PUBLIC 'CODE'
_TEXT	ENDS
;	COMDAT ??0?$map@IPAUpatch_scrap@@U?$less@I@std@@V?$allocator@U?$pair@$$CBIPAUpatch_scrap@@@std@@@3@@std@@QAE@XZ
_TEXT	SEGMENT PARA USE32 PUBLIC 'CODE'
_TEXT	ENDS
;	COMDAT ??A?$map@IPAUpatch_scrap@@U?$less@I@std@@V?$allocator@U?$pair@$$CBIPAUpatch_scrap@@@std@@@3@@std@@QAEAAPAUpatch_scrap@@ABI@Z
_TEXT	SEGMENT PARA USE32 PUBLIC 'CODE'
_TEXT	ENDS
;	COMDAT ??1?$_Tree@V?$_Tmap_traits@IPAUpatch_scrap@@U?$less@I@std@@V?$allocator@U?$pair@$$CBIPAUpatch_scrap@@@std@@@3@$0A@@std@@@std@@QAE@XZ
_TEXT	SEGMENT PARA USE32 PUBLIC 'CODE'
_TEXT	ENDS
;	COMDAT ?begin@?$_Tree@V?$_Tmap_traits@IPAUpatch_scrap@@U?$less@I@std@@V?$allocator@U?$pair@$$CBIPAUpatch_scrap@@@std@@@3@$0A@@std@@@std@@QAE?AViterator@12@XZ
_TEXT	SEGMENT PARA USE32 PUBLIC 'CODE'
_TEXT	ENDS
;	COMDAT ?end@?$_Tree@V?$_Tmap_traits@IPAUpatch_scrap@@U?$less@I@std@@V?$allocator@U?$pair@$$CBIPAUpatch_scrap@@@std@@@3@$0A@@std@@@std@@QAE?AViterator@12@XZ
_TEXT	SEGMENT PARA USE32 PUBLIC 'CODE'
_TEXT	ENDS
;	COMDAT ?empty@?$_Tree@V?$_Tmap_traits@IPAUpatch_scrap@@U?$less@I@std@@V?$allocator@U?$pair@$$CBIPAUpatch_scrap@@@std@@@3@$0A@@std@@@std@@QBE_NXZ
_TEXT	SEGMENT PARA USE32 PUBLIC 'CODE'
_TEXT	ENDS
;	COMDAT ?clear@?$_Tree@V?$_Tmap_traits@IPAUpatch_scrap@@U?$less@I@std@@V?$allocator@U?$pair@$$CBIPAUpatch_scrap@@@std@@@3@$0A@@std@@@std@@QAEXXZ
_TEXT	SEGMENT PARA USE32 PUBLIC 'CODE'
_TEXT	ENDS
;	COMDAT ?count@?$_Tree@V?$_Tmap_traits@IPAUpatch_scrap@@U?$less@I@std@@V?$allocator@U?$pair@$$CBIPAUpatch_scrap@@@std@@@3@$0A@@std@@@std@@QBEIABI@Z
_TEXT	SEGMENT PARA USE32 PUBLIC 'CODE'
_TEXT	ENDS
;	COMDAT ??0iterator@?$_Tree@V?$_Tmap_traits@IPAUpatch_scrap@@U?$less@I@std@@V?$allocator@U?$pair@$$CBIPAUpatch_scrap@@@std@@@3@$0A@@std@@@std@@QAE@XZ
_TEXT	SEGMENT PARA USE32 PUBLIC 'CODE'
_TEXT	ENDS
;	COMDAT ??Citerator@?$_Tree@V?$_Tmap_traits@IPAUpatch_scrap@@U?$less@I@std@@V?$allocator@U?$pair@$$CBIPAUpatch_scrap@@@std@@@3@$0A@@std@@@std@@QBEPAU?$pair@$$CBIPAUpatch_scrap@@@2@XZ
_TEXT	SEGMENT PARA USE32 PUBLIC 'CODE'
_TEXT	ENDS
;	COMDAT ??Eiterator@?$_Tree@V?$_Tmap_traits@IPAUpatch_scrap@@U?$less@I@std@@V?$allocator@U?$pair@$$CBIPAUpatch_scrap@@@std@@@3@$0A@@std@@@std@@QAE?AV012@H@Z
_TEXT	SEGMENT PARA USE32 PUBLIC 'CODE'
_TEXT	ENDS
;	COMDAT ??9const_iterator@?$_Tree@V?$_Tmap_traits@IPAUpatch_scrap@@U?$less@I@std@@V?$allocator@U?$pair@$$CBIPAUpatch_scrap@@@std@@@3@$0A@@std@@@std@@QBE_NABV012@@Z
_TEXT	SEGMENT PARA USE32 PUBLIC 'CODE'
_TEXT	ENDS
;	COMDAT ?_Key@?$_Tree@V?$_Tmap_traits@IPAUpatch_scrap@@U?$less@I@std@@V?$allocator@U?$pair@$$CBIPAUpatch_scrap@@@std@@@3@$0A@@std@@@std@@KAABIPAU_Node@?$_Tree_nod@V?$_Tmap_traits@IPAUpatch_scrap@@U?$less@I@std@@V?$allocator@U?$pair@$$CBIPAUpatch_scrap@@@std@@@3@$0A@@std@@@2@@Z
_TEXT	SEGMENT PARA USE32 PUBLIC 'CODE'
_TEXT	ENDS
;	COMDAT ??0?$_Tree@V?$_Tmap_traits@IPAUpatch_scrap@@U?$less@I@std@@V?$allocator@U?$pair@$$CBIPAUpatch_scrap@@@std@@@3@$0A@@std@@@std@@QAE@ABU?$less@I@1@ABV?$allocator@U?$pair@$$CBIPAUpatch_scrap@@@std@@@1@@Z
_TEXT	SEGMENT PARA USE32 PUBLIC 'CODE'
_TEXT	ENDS
;	COMDAT ?size@?$_Tree@V?$_Tmap_traits@IPAUpatch_scrap@@U?$less@I@std@@V?$allocator@U?$pair@$$CBIPAUpatch_scrap@@@std@@@3@$0A@@std@@@std@@QBEIXZ
_TEXT	SEGMENT PARA USE32 PUBLIC 'CODE'
_TEXT	ENDS
;	COMDAT ?insert@?$_Tree@V?$_Tmap_traits@IPAUpatch_scrap@@U?$less@I@std@@V?$allocator@U?$pair@$$CBIPAUpatch_scrap@@@std@@@3@$0A@@std@@@std@@QAE?AViterator@12@V312@ABU?$pair@$$CBIPAUpatch_scrap@@@2@@Z
_TEXT	SEGMENT PARA USE32 PUBLIC 'CODE'
_TEXT	ENDS
;	COMDAT ?lower_bound@?$_Tree@V?$_Tmap_traits@IPAUpatch_scrap@@U?$less@I@std@@V?$allocator@U?$pair@$$CBIPAUpatch_scrap@@@std@@@3@$0A@@std@@@std@@QAE?AViterator@12@ABI@Z
_TEXT	SEGMENT PARA USE32 PUBLIC 'CODE'
_TEXT	ENDS
;	COMDAT ?equal_range@?$_Tree@V?$_Tmap_traits@IPAUpatch_scrap@@U?$less@I@std@@V?$allocator@U?$pair@$$CBIPAUpatch_scrap@@@std@@@3@$0A@@std@@@std@@QBE?AU?$pair@Vconst_iterator@?$_Tree@V?$_Tmap_traits@IPAUpatch_scrap@@U?$less@I@std@@V?$allocator@U?$pair@$$CBIPAUpatch_scrap@@@std@@@3@$0A@@std@@@std@@V123@@2@ABI@Z
_TEXT	SEGMENT PARA USE32 PUBLIC 'CODE'
_TEXT	ENDS
;	COMDAT ?_Erase@?$_Tree@V?$_Tmap_traits@IPAUpatch_scrap@@U?$less@I@std@@V?$allocator@U?$pair@$$CBIPAUpatch_scrap@@@std@@@3@$0A@@std@@@std@@IAEXPAU_Node@?$_Tree_nod@V?$_Tmap_traits@IPAUpatch_scrap@@U?$less@I@std@@V?$allocator@U?$pair@$$CBIPAUpatch_scrap@@@std@@@3@$0A@@std@@@2@@Z
_TEXT	SEGMENT PARA USE32 PUBLIC 'CODE'
_TEXT	ENDS
;	COMDAT ?_Lmost@?$_Tree@V?$_Tmap_traits@IPAUpatch_scrap@@U?$less@I@std@@V?$allocator@U?$pair@$$CBIPAUpatch_scrap@@@std@@@3@$0A@@std@@@std@@IAEAAPAU_Node@?$_Tree_nod@V?$_Tmap_traits@IPAUpatch_scrap@@U?$less@I@std@@V?$allocator@U?$pair@$$CBIPAUpatch_scrap@@@std@@@3@$0A@@std@@@2@XZ
_TEXT	SEGMENT PARA USE32 PUBLIC 'CODE'
_TEXT	ENDS
;	COMDAT ?_Rmost@?$_Tree@V?$_Tmap_traits@IPAUpatch_scrap@@U?$less@I@std@@V?$allocator@U?$pair@$$CBIPAUpatch_scrap@@@std@@@3@$0A@@std@@@std@@IAEAAPAU_Node@?$_Tree_nod@V?$_Tmap_traits@IPAUpatch_scrap@@U?$less@I@std@@V?$allocator@U?$pair@$$CBIPAUpatch_scrap@@@std@@@3@$0A@@std@@@2@XZ
_TEXT	SEGMENT PARA USE32 PUBLIC 'CODE'
_TEXT	ENDS
;	COMDAT ?_Root@?$_Tree@V?$_Tmap_traits@IPAUpatch_scrap@@U?$less@I@std@@V?$allocator@U?$pair@$$CBIPAUpatch_scrap@@@std@@@3@$0A@@std@@@std@@IAEAAPAU_Node@?$_Tree_nod@V?$_Tmap_traits@IPAUpatch_scrap@@U?$less@I@std@@V?$allocator@U?$pair@$$CBIPAUpatch_scrap@@@std@@@3@$0A@@std@@@2@XZ
_TEXT	SEGMENT PARA USE32 PUBLIC 'CODE'
_TEXT	ENDS
;	COMDAT ?_Tidy@?$_Tree@V?$_Tmap_traits@IPAUpatch_scrap@@U?$less@I@std@@V?$allocator@U?$pair@$$CBIPAUpatch_scrap@@@std@@@3@$0A@@std@@@std@@IAEXXZ
_TEXT	SEGMENT PARA USE32 PUBLIC 'CODE'
_TEXT	ENDS
;	COMDAT ??0?$allocator@U?$pair@$$CBIPAUpatch_scrap@@@std@@@std@@QAE@XZ
_TEXT	SEGMENT PARA USE32 PUBLIC 'CODE'
_TEXT	ENDS
;	COMDAT ??R?$less@I@std@@QBE_NABI0@Z
_TEXT	SEGMENT PARA USE32 PUBLIC 'CODE'
_TEXT	ENDS
;	COMDAT ??0iterator@?$_Tree@V?$_Tmap_traits@IPAUpatch_scrap@@U?$less@I@std@@V?$allocator@U?$pair@$$CBIPAUpatch_scrap@@@std@@@3@$0A@@std@@@std@@QAE@PAU_Node@?$_Tree_nod@V?$_Tmap_traits@IPAUpatch_scrap@@U?$less@I@std@@V?$allocator@U?$pair@$$CBIPAUpatch_scrap@@@std@@@3@$0A@@std@@@2@@Z
_TEXT	SEGMENT PARA USE32 PUBLIC 'CODE'
_TEXT	ENDS
;	COMDAT ??Diterator@?$_Tree@V?$_Tmap_traits@IPAUpatch_scrap@@U?$less@I@std@@V?$allocator@U?$pair@$$CBIPAUpatch_scrap@@@std@@@3@$0A@@std@@@std@@QBEAAU?$pair@$$CBIPAUpatch_scrap@@@2@XZ
_TEXT	SEGMENT PARA USE32 PUBLIC 'CODE'
_TEXT	ENDS
;	COMDAT ??Eiterator@?$_Tree@V?$_Tmap_traits@IPAUpatch_scrap@@U?$less@I@std@@V?$allocator@U?$pair@$$CBIPAUpatch_scrap@@@std@@@3@$0A@@std@@@std@@QAEAAV012@XZ
_TEXT	SEGMENT PARA USE32 PUBLIC 'CODE'
_TEXT	ENDS
;	COMDAT ??0const_iterator@?$_Tree@V?$_Tmap_traits@IPAUpatch_scrap@@U?$less@I@std@@V?$allocator@U?$pair@$$CBIPAUpatch_scrap@@@std@@@3@$0A@@std@@@std@@QAE@XZ
_TEXT	SEGMENT PARA USE32 PUBLIC 'CODE'
_TEXT	ENDS
;	COMDAT ??8const_iterator@?$_Tree@V?$_Tmap_traits@IPAUpatch_scrap@@U?$less@I@std@@V?$allocator@U?$pair@$$CBIPAUpatch_scrap@@@std@@@3@$0A@@std@@@std@@QBE_NABV012@@Z
_TEXT	SEGMENT PARA USE32 PUBLIC 'CODE'
_TEXT	ENDS
;	COMDAT ?_Mynode@const_iterator@?$_Tree@V?$_Tmap_traits@IPAUpatch_scrap@@U?$less@I@std@@V?$allocator@U?$pair@$$CBIPAUpatch_scrap@@@std@@@3@$0A@@std@@@std@@QBEPAU_Node@?$_Tree_nod@V?$_Tmap_traits@IPAUpatch_scrap@@U?$less@I@std@@V?$allocator@U?$pair@$$CBIPAUpatch_scrap@@@std@@@3@$0A@@std@@@3@XZ
_TEXT	SEGMENT PARA USE32 PUBLIC 'CODE'
_TEXT	ENDS
;	COMDAT ??0?$pair@$$CBIPAUpatch_scrap@@@std@@QAE@ABIABQAUpatch_scrap@@@Z
_TEXT	SEGMENT PARA USE32 PUBLIC 'CODE'
_TEXT	ENDS
;	COMDAT ?put@?$num_put@DV?$ostreambuf_iterator@DU?$char_traits@D@std@@@std@@@std@@QBE?AV?$ostreambuf_iterator@DU?$char_traits@D@std@@@2@V32@AAVios_base@2@D_N@Z
_TEXT	SEGMENT PARA USE32 PUBLIC 'CODE'
_TEXT	ENDS
;	COMDAT ?_Isnil@?$_Tree@V?$_Tmap_traits@IPAUpatch_scrap@@U?$less@I@std@@V?$allocator@U?$pair@$$CBIPAUpatch_scrap@@@std@@@3@$0A@@std@@@std@@KAAADPAU_Node@?$_Tree_nod@V?$_Tmap_traits@IPAUpatch_scrap@@U?$less@I@std@@V?$allocator@U?$pair@$$CBIPAUpatch_scrap@@@std@@@3@$0A@@std@@@2@@Z
_TEXT	SEGMENT PARA USE32 PUBLIC 'CODE'
_TEXT	ENDS
;	COMDAT ?_Left@?$_Tree@V?$_Tmap_traits@IPAUpatch_scrap@@U?$less@I@std@@V?$allocator@U?$pair@$$CBIPAUpatch_scrap@@@std@@@3@$0A@@std@@@std@@KAAAPAU_Node@?$_Tree_nod@V?$_Tmap_traits@IPAUpatch_scrap@@U?$less@I@std@@V?$allocator@U?$pair@$$CBIPAUpatch_scrap@@@std@@@3@$0A@@std@@@2@PAU342@@Z
_TEXT	SEGMENT PARA USE32 PUBLIC 'CODE'
_TEXT	ENDS
;	COMDAT ?_Parent@?$_Tree@V?$_Tmap_traits@IPAUpatch_scrap@@U?$less@I@std@@V?$allocator@U?$pair@$$CBIPAUpatch_scrap@@@std@@@3@$0A@@std@@@std@@KAAAPAU_Node@?$_Tree_nod@V?$_Tmap_traits@IPAUpatch_scrap@@U?$less@I@std@@V?$allocator@U?$pair@$$CBIPAUpatch_scrap@@@std@@@3@$0A@@std@@@2@PAU342@@Z
_TEXT	SEGMENT PARA USE32 PUBLIC 'CODE'
_TEXT	ENDS
;	COMDAT ?_Right@?$_Tree@V?$_Tmap_traits@IPAUpatch_scrap@@U?$less@I@std@@V?$allocator@U?$pair@$$CBIPAUpatch_scrap@@@std@@@3@$0A@@std@@@std@@KAAAPAU_Node@?$_Tree_nod@V?$_Tmap_traits@IPAUpatch_scrap@@U?$less@I@std@@V?$allocator@U?$pair@$$CBIPAUpatch_scrap@@@std@@@3@$0A@@std@@@2@PAU342@@Z
_TEXT	SEGMENT PARA USE32 PUBLIC 'CODE'
_TEXT	ENDS
;	COMDAT ?_Myval@?$_Tree@V?$_Tmap_traits@IPAUpatch_scrap@@U?$less@I@std@@V?$allocator@U?$pair@$$CBIPAUpatch_scrap@@@std@@@3@$0A@@std@@@std@@KAAAU?$pair@$$CBIPAUpatch_scrap@@@2@PAU_Node@?$_Tree_nod@V?$_Tmap_traits@IPAUpatch_scrap@@U?$less@I@std@@V?$allocator@U?$pair@$$CBIPAUpatch_scrap@@@std@@@3@$0A@@std@@@2@@Z
_TEXT	SEGMENT PARA USE32 PUBLIC 'CODE'
_TEXT	ENDS
;	COMDAT ?insert@?$_Tree@V?$_Tmap_traits@IPAUpatch_scrap@@U?$less@I@std@@V?$allocator@U?$pair@$$CBIPAUpatch_scrap@@@std@@@3@$0A@@std@@@std@@QAE?AU?$pair@Viterator@?$_Tree@V?$_Tmap_traits@IPAUpatch_scrap@@U?$less@I@std@@V?$allocator@U?$pair@$$CBIPAUpatch_scrap@@@std@@@3@$0A@@std@@@std@@_N@2@ABU?$pair@$$CBIPAUpatch_scrap@@@2@@Z
_TEXT	SEGMENT PARA USE32 PUBLIC 'CODE'
_TEXT	ENDS
;	COMDAT ?erase@?$_Tree@V?$_Tmap_traits@IPAUpatch_scrap@@U?$less@I@std@@V?$allocator@U?$pair@$$CBIPAUpatch_scrap@@@std@@@3@$0A@@std@@@std@@QAE?AViterator@12@V312@0@Z
_TEXT	SEGMENT PARA USE32 PUBLIC 'CODE'
_TEXT	ENDS
;	COMDAT ?lower_bound@?$_Tree@V?$_Tmap_traits@IPAUpatch_scrap@@U?$less@I@std@@V?$allocator@U?$pair@$$CBIPAUpatch_scrap@@@std@@@3@$0A@@std@@@std@@QBE?AVconst_iterator@12@ABI@Z
_TEXT	SEGMENT PARA USE32 PUBLIC 'CODE'
_TEXT	ENDS
;	COMDAT ?upper_bound@?$_Tree@V?$_Tmap_traits@IPAUpatch_scrap@@U?$less@I@std@@V?$allocator@U?$pair@$$CBIPAUpatch_scrap@@@std@@@3@$0A@@std@@@std@@QBE?AVconst_iterator@12@ABI@Z
_TEXT	SEGMENT PARA USE32 PUBLIC 'CODE'
_TEXT	ENDS
;	COMDAT ?_Init@?$_Tree@V?$_Tmap_traits@IPAUpatch_scrap@@U?$less@I@std@@V?$allocator@U?$pair@$$CBIPAUpatch_scrap@@@std@@@3@$0A@@std@@@std@@IAEXXZ
_TEXT	SEGMENT PARA USE32 PUBLIC 'CODE'
_TEXT	ENDS
;	COMDAT ?_Insert@?$_Tree@V?$_Tmap_traits@IPAUpatch_scrap@@U?$less@I@std@@V?$allocator@U?$pair@$$CBIPAUpatch_scrap@@@std@@@3@$0A@@std@@@std@@IAE?AViterator@12@_NPAU_Node@?$_Tree_nod@V?$_Tmap_traits@IPAUpatch_scrap@@U?$less@I@std@@V?$allocator@U?$pair@$$CBIPAUpatch_scrap@@@std@@@3@$0A@@std@@@2@ABU?$pair@$$CBIPAUpatch_scrap@@@2@@Z
_TEXT	SEGMENT PARA USE32 PUBLIC 'CODE'
_TEXT	ENDS
;	COMDAT ?_Lbound@?$_Tree@V?$_Tmap_traits@IPAUpatch_scrap@@U?$less@I@std@@V?$allocator@U?$pair@$$CBIPAUpatch_scrap@@@std@@@3@$0A@@std@@@std@@IBEPAU_Node@?$_Tree_nod@V?$_Tmap_traits@IPAUpatch_scrap@@U?$less@I@std@@V?$allocator@U?$pair@$$CBIPAUpatch_scrap@@@std@@@3@$0A@@std@@@2@ABI@Z
_TEXT	SEGMENT PARA USE32 PUBLIC 'CODE'
_TEXT	ENDS
;	COMDAT ??0?$_Tree_val@V?$_Tmap_traits@IPAUpatch_scrap@@U?$less@I@std@@V?$allocator@U?$pair@$$CBIPAUpatch_scrap@@@std@@@3@$0A@@std@@@std@@IAE@ABU?$less@I@1@V?$allocator@U?$pair@$$CBIPAUpatch_scrap@@@std@@@1@@Z
_TEXT	SEGMENT PARA USE32 PUBLIC 'CODE'
_TEXT	ENDS
;	COMDAT ?_Kfn@?$_Tmap_traits@IPAUpatch_scrap@@U?$less@I@std@@V?$allocator@U?$pair@$$CBIPAUpatch_scrap@@@std@@@3@$0A@@std@@SAABIABU?$pair@$$CBIPAUpatch_scrap@@@2@@Z
_TEXT	SEGMENT PARA USE32 PUBLIC 'CODE'
_TEXT	ENDS
;	COMDAT ??0?$allocator@U?$pair@$$CBIPAUpatch_scrap@@@std@@@std@@QAE@ABV01@@Z
_TEXT	SEGMENT PARA USE32 PUBLIC 'CODE'
_TEXT	ENDS
;	COMDAT ?deallocate@?$allocator@U_Node@?$_Tree_nod@V?$_Tmap_traits@IPAUpatch_scrap@@U?$less@I@std@@V?$allocator@U?$pair@$$CBIPAUpatch_scrap@@@std@@@3@$0A@@std@@@std@@@std@@QAEXPAU_Node@?$_Tree_nod@V?$_Tmap_traits@IPAUpatch_scrap@@U?$less@I@std@@V?$allocator@U?$pair@$$CBIPAUpatch_scrap@@@std@@@3@$0A@@std@@@2@I@Z
_TEXT	SEGMENT PARA USE32 PUBLIC 'CODE'
_TEXT	ENDS
;	COMDAT ?destroy@?$allocator@U_Node@?$_Tree_nod@V?$_Tmap_traits@IPAUpatch_scrap@@U?$less@I@std@@V?$allocator@U?$pair@$$CBIPAUpatch_scrap@@@std@@@3@$0A@@std@@@std@@@std@@QAEXPAU_Node@?$_Tree_nod@V?$_Tmap_traits@IPAUpatch_scrap@@U?$less@I@std@@V?$allocator@U?$pair@$$CBIPAUpatch_scrap@@@std@@@3@$0A@@std@@@2@@Z
_TEXT	SEGMENT PARA USE32 PUBLIC 'CODE'
_TEXT	ENDS
;	COMDAT ?destroy@?$allocator@PAU_Node@?$_Tree_nod@V?$_Tmap_traits@IPAUpatch_scrap@@U?$less@I@std@@V?$allocator@U?$pair@$$CBIPAUpatch_scrap@@@std@@@3@$0A@@std@@@std@@@std@@QAEXPAPAU_Node@?$_Tree_nod@V?$_Tmap_traits@IPAUpatch_scrap@@U?$less@I@std@@V?$allocator@U?$pair@$$CBIPAUpatch_scrap@@@std@@@3@$0A@@std@@@2@@Z
_TEXT	SEGMENT PARA USE32 PUBLIC 'CODE'
_TEXT	ENDS
;	COMDAT ??Fiterator@?$_Tree@V?$_Tmap_traits@IPAUpatch_scrap@@U?$less@I@std@@V?$allocator@U?$pair@$$CBIPAUpatch_scrap@@@std@@@3@$0A@@std@@@std@@QAEAAV012@XZ
_TEXT	SEGMENT PARA USE32 PUBLIC 'CODE'
_TEXT	ENDS
;	COMDAT ??0const_iterator@?$_Tree@V?$_Tmap_traits@IPAUpatch_scrap@@U?$less@I@std@@V?$allocator@U?$pair@$$CBIPAUpatch_scrap@@@std@@@3@$0A@@std@@@std@@QAE@PAU_Node@?$_Tree_nod@V?$_Tmap_traits@IPAUpatch_scrap@@U?$less@I@std@@V?$allocator@U?$pair@$$CBIPAUpatch_scrap@@@std@@@3@$0A@@std@@@2@@Z
_TEXT	SEGMENT PARA USE32 PUBLIC 'CODE'
_TEXT	ENDS
;	COMDAT ??Dconst_iterator@?$_Tree@V?$_Tmap_traits@IPAUpatch_scrap@@U?$less@I@std@@V?$allocator@U?$pair@$$CBIPAUpatch_scrap@@@std@@@3@$0A@@std@@@std@@QBEABU?$pair@$$CBIPAUpatch_scrap@@@2@XZ
_TEXT	SEGMENT PARA USE32 PUBLIC 'CODE'
_TEXT	ENDS
;	COMDAT ??Econst_iterator@?$_Tree@V?$_Tmap_traits@IPAUpatch_scrap@@U?$less@I@std@@V?$allocator@U?$pair@$$CBIPAUpatch_scrap@@@std@@@3@$0A@@std@@@std@@QAEAAV012@XZ
_TEXT	SEGMENT PARA USE32 PUBLIC 'CODE'
_TEXT	ENDS
;	COMDAT ??0?$pair@Vconst_iterator@?$_Tree@V?$_Tmap_traits@IPAUpatch_scrap@@U?$less@I@std@@V?$allocator@U?$pair@$$CBIPAUpatch_scrap@@@std@@@3@$0A@@std@@@std@@V123@@std@@QAE@ABVconst_iterator@?$_Tree@V?$_Tmap_traits@IPAUpatch_scrap@@U?$less@I@std@@V?$allocator@U?$pair@$$CBIPAUpatch_scrap@@@std@@@3@$0A@@std@@@1@0@Z
_TEXT	SEGMENT PARA USE32 PUBLIC 'CODE'
_TEXT	ENDS
;	COMDAT ?_Color@?$_Tree@V?$_Tmap_traits@IPAUpatch_scrap@@U?$less@I@std@@V?$allocator@U?$pair@$$CBIPAUpatch_scrap@@@std@@@3@$0A@@std@@@std@@KAAADPAU_Node@?$_Tree_nod@V?$_Tmap_traits@IPAUpatch_scrap@@U?$less@I@std@@V?$allocator@U?$pair@$$CBIPAUpatch_scrap@@@std@@@3@$0A@@std@@@2@@Z
_TEXT	SEGMENT PARA USE32 PUBLIC 'CODE'
_TEXT	ENDS
;	COMDAT ?max_size@?$_Tree@V?$_Tmap_traits@IPAUpatch_scrap@@U?$less@I@std@@V?$allocator@U?$pair@$$CBIPAUpatch_scrap@@@std@@@3@$0A@@std@@@std@@QBEIXZ
_TEXT	SEGMENT PARA USE32 PUBLIC 'CODE'
_TEXT	ENDS
;	COMDAT ?erase@?$_Tree@V?$_Tmap_traits@IPAUpatch_scrap@@U?$less@I@std@@V?$allocator@U?$pair@$$CBIPAUpatch_scrap@@@std@@@3@$0A@@std@@@std@@QAE?AViterator@12@V312@@Z
_TEXT	SEGMENT PARA USE32 PUBLIC 'CODE'
_TEXT	ENDS
;	COMDAT ?_Lrotate@?$_Tree@V?$_Tmap_traits@IPAUpatch_scrap@@U?$less@I@std@@V?$allocator@U?$pair@$$CBIPAUpatch_scrap@@@std@@@3@$0A@@std@@@std@@IAEXPAU_Node@?$_Tree_nod@V?$_Tmap_traits@IPAUpatch_scrap@@U?$less@I@std@@V?$allocator@U?$pair@$$CBIPAUpatch_scrap@@@std@@@3@$0A@@std@@@2@@Z
_TEXT	SEGMENT PARA USE32 PUBLIC 'CODE'
_TEXT	ENDS
;	COMDAT ?_Root@?$_Tree@V?$_Tmap_traits@IPAUpatch_scrap@@U?$less@I@std@@V?$allocator@U?$pair@$$CBIPAUpatch_scrap@@@std@@@3@$0A@@std@@@std@@IBEAAPAU_Node@?$_Tree_nod@V?$_Tmap_traits@IPAUpatch_scrap@@U?$less@I@std@@V?$allocator@U?$pair@$$CBIPAUpatch_scrap@@@std@@@3@$0A@@std@@@2@XZ
_TEXT	SEGMENT PARA USE32 PUBLIC 'CODE'
_TEXT	ENDS
;	COMDAT ?_Rrotate@?$_Tree@V?$_Tmap_traits@IPAUpatch_scrap@@U?$less@I@std@@V?$allocator@U?$pair@$$CBIPAUpatch_scrap@@@std@@@3@$0A@@std@@@std@@IAEXPAU_Node@?$_Tree_nod@V?$_Tmap_traits@IPAUpatch_scrap@@U?$less@I@std@@V?$allocator@U?$pair@$$CBIPAUpatch_scrap@@@std@@@3@$0A@@std@@@2@@Z
_TEXT	SEGMENT PARA USE32 PUBLIC 'CODE'
_TEXT	ENDS
;	COMDAT ?_Ubound@?$_Tree@V?$_Tmap_traits@IPAUpatch_scrap@@U?$less@I@std@@V?$allocator@U?$pair@$$CBIPAUpatch_scrap@@@std@@@3@$0A@@std@@@std@@IBEPAU_Node@?$_Tree_nod@V?$_Tmap_traits@IPAUpatch_scrap@@U?$less@I@std@@V?$allocator@U?$pair@$$CBIPAUpatch_scrap@@@std@@@3@$0A@@std@@@2@ABI@Z
_TEXT	SEGMENT PARA USE32 PUBLIC 'CODE'
_TEXT	ENDS
;	COMDAT ?_Buynode@?$_Tree@V?$_Tmap_traits@IPAUpatch_scrap@@U?$less@I@std@@V?$allocator@U?$pair@$$CBIPAUpatch_scrap@@@std@@@3@$0A@@std@@@std@@IAEPAU_Node@?$_Tree_nod@V?$_Tmap_traits@IPAUpatch_scrap@@U?$less@I@std@@V?$allocator@U?$pair@$$CBIPAUpatch_scrap@@@std@@@3@$0A@@std@@@2@XZ
_TEXT	SEGMENT PARA USE32 PUBLIC 'CODE'
_TEXT	ENDS
;	COMDAT ?_Buynode@?$_Tree@V?$_Tmap_traits@IPAUpatch_scrap@@U?$less@I@std@@V?$allocator@U?$pair@$$CBIPAUpatch_scrap@@@std@@@3@$0A@@std@@@std@@IAEPAU_Node@?$_Tree_nod@V?$_Tmap_traits@IPAUpatch_scrap@@U?$less@I@std@@V?$allocator@U?$pair@$$CBIPAUpatch_scrap@@@std@@@3@$0A@@std@@@2@PAU342@00ABU?$pair@$$CBIPAUpatch_scrap@@@2@D@Z
_TEXT	SEGMENT PARA USE32 PUBLIC 'CODE'
_TEXT	ENDS
;	COMDAT ??0?$_Tree_ptr@V?$_Tmap_traits@IPAUpatch_scrap@@U?$less@I@std@@V?$allocator@U?$pair@$$CBIPAUpatch_scrap@@@std@@@3@$0A@@std@@@std@@IAE@ABU?$less@I@1@V?$allocator@U?$pair@$$CBIPAUpatch_scrap@@@std@@@1@@Z
_TEXT	SEGMENT PARA USE32 PUBLIC 'CODE'
_TEXT	ENDS
;	COMDAT ??Fconst_iterator@?$_Tree@V?$_Tmap_traits@IPAUpatch_scrap@@U?$less@I@std@@V?$allocator@U?$pair@$$CBIPAUpatch_scrap@@@std@@@3@$0A@@std@@@std@@QAEAAV012@XZ
_TEXT	SEGMENT PARA USE32 PUBLIC 'CODE'
_TEXT	ENDS
;	COMDAT ?_Inc@const_iterator@?$_Tree@V?$_Tmap_traits@IPAUpatch_scrap@@U?$less@I@std@@V?$allocator@U?$pair@$$CBIPAUpatch_scrap@@@std@@@3@$0A@@std@@@std@@QAEXXZ
_TEXT	SEGMENT PARA USE32 PUBLIC 'CODE'
_TEXT	ENDS
;	COMDAT ??0?$pair@Viterator@?$_Tree@V?$_Tmap_traits@IPAUpatch_scrap@@U?$less@I@std@@V?$allocator@U?$pair@$$CBIPAUpatch_scrap@@@std@@@3@$0A@@std@@@std@@_N@std@@QAE@ABViterator@?$_Tree@V?$_Tmap_traits@IPAUpatch_scrap@@U?$less@I@std@@V?$allocator@U?$pair@$$CBIPAUpatch_scrap@@@std@@@3@$0A@@std@@@1@AB_N@Z
_TEXT	SEGMENT PARA USE32 PUBLIC 'CODE'
_TEXT	ENDS
;	COMDAT ?_Max@?$_Tree@V?$_Tmap_traits@IPAUpatch_scrap@@U?$less@I@std@@V?$allocator@U?$pair@$$CBIPAUpatch_scrap@@@std@@@3@$0A@@std@@@std@@KAPAU_Node@?$_Tree_nod@V?$_Tmap_traits@IPAUpatch_scrap@@U?$less@I@std@@V?$allocator@U?$pair@$$CBIPAUpatch_scrap@@@std@@@3@$0A@@std@@@2@PAU342@@Z
_TEXT	SEGMENT PARA USE32 PUBLIC 'CODE'
_TEXT	ENDS
;	COMDAT ?_Min@?$_Tree@V?$_Tmap_traits@IPAUpatch_scrap@@U?$less@I@std@@V?$allocator@U?$pair@$$CBIPAUpatch_scrap@@@std@@@3@$0A@@std@@@std@@KAPAU_Node@?$_Tree_nod@V?$_Tmap_traits@IPAUpatch_scrap@@U?$less@I@std@@V?$allocator@U?$pair@$$CBIPAUpatch_scrap@@@std@@@3@$0A@@std@@@2@PAU342@@Z
_TEXT	SEGMENT PARA USE32 PUBLIC 'CODE'
_TEXT	ENDS
;	COMDAT ??0?$_Tree_nod@V?$_Tmap_traits@IPAUpatch_scrap@@U?$less@I@std@@V?$allocator@U?$pair@$$CBIPAUpatch_scrap@@@std@@@3@$0A@@std@@@std@@IAE@ABU?$less@I@1@V?$allocator@U?$pair@$$CBIPAUpatch_scrap@@@std@@@1@@Z
_TEXT	SEGMENT PARA USE32 PUBLIC 'CODE'
_TEXT	ENDS
;	COMDAT ?max_size@?$allocator@U?$pair@$$CBIPAUpatch_scrap@@@std@@@std@@QBEIXZ
_TEXT	SEGMENT PARA USE32 PUBLIC 'CODE'
_TEXT	ENDS
;	COMDAT ?allocate@?$allocator@U_Node@?$_Tree_nod@V?$_Tmap_traits@IPAUpatch_scrap@@U?$less@I@std@@V?$allocator@U?$pair@$$CBIPAUpatch_scrap@@@std@@@3@$0A@@std@@@std@@@std@@QAEPAU_Node@?$_Tree_nod@V?$_Tmap_traits@IPAUpatch_scrap@@U?$less@I@std@@V?$allocator@U?$pair@$$CBIPAUpatch_scrap@@@std@@@3@$0A@@std@@@2@I@Z
_TEXT	SEGMENT PARA USE32 PUBLIC 'CODE'
_TEXT	ENDS
;	COMDAT ?construct@?$allocator@PAU_Node@?$_Tree_nod@V?$_Tmap_traits@IPAUpatch_scrap@@U?$less@I@std@@V?$allocator@U?$pair@$$CBIPAUpatch_scrap@@@std@@@3@$0A@@std@@@std@@@std@@QAEXPAPAU_Node@?$_Tree_nod@V?$_Tmap_traits@IPAUpatch_scrap@@U?$less@I@std@@V?$allocator@U?$pair@$$CBIPAUpatch_scrap@@@std@@@3@$0A@@std@@@2@ABQAU342@@Z
_TEXT	SEGMENT PARA USE32 PUBLIC 'CODE'
_TEXT	ENDS
;	COMDAT ?_Dec@const_iterator@?$_Tree@V?$_Tmap_traits@IPAUpatch_scrap@@U?$less@I@std@@V?$allocator@U?$pair@$$CBIPAUpatch_scrap@@@std@@@3@$0A@@std@@@std@@QAEXXZ
_TEXT	SEGMENT PARA USE32 PUBLIC 'CODE'
_TEXT	ENDS
;	COMDAT ??0_Node@?$_Tree_nod@V?$_Tmap_traits@IPAUpatch_scrap@@U?$less@I@std@@V?$allocator@U?$pair@$$CBIPAUpatch_scrap@@@std@@@3@$0A@@std@@@std@@QAE@PAU012@00ABU?$pair@$$CBIPAUpatch_scrap@@@2@D@Z
_TEXT	SEGMENT PARA USE32 PUBLIC 'CODE'
_TEXT	ENDS
;	COMDAT ??0?$_Tmap_traits@IPAUpatch_scrap@@U?$less@I@std@@V?$allocator@U?$pair@$$CBIPAUpatch_scrap@@@std@@@3@$0A@@std@@QAE@U?$less@I@1@@Z
_TEXT	SEGMENT PARA USE32 PUBLIC 'CODE'
_TEXT	ENDS
;	COMDAT _$E1
text$yc	SEGMENT PARA USE32 PUBLIC 'CODE'
text$yc	ENDS
;	COMDAT ??$_Distance@Vconst_iterator@?$_Tree@V?$_Tmap_traits@IPAUpatch_scrap@@U?$less@I@std@@V?$allocator@U?$pair@$$CBIPAUpatch_scrap@@@std@@@3@$0A@@std@@@std@@I@std@@YAXVconst_iterator@?$_Tree@V?$_Tmap_traits@IPAUpatch_scrap@@U?$less@I@std@@V?$allocator@U?$pair@$$CBIPAUpatch_scrap@@@std@@@3@$0A@@std@@@0@0AAI@Z
_TEXT	SEGMENT PARA USE32 PUBLIC 'CODE'
_TEXT	ENDS
;	COMDAT ??$_Destroy@U_Node@?$_Tree_nod@V?$_Tmap_traits@IPAUpatch_scrap@@U?$less@I@std@@V?$allocator@U?$pair@$$CBIPAUpatch_scrap@@@std@@@3@$0A@@std@@@std@@@std@@YAXPAU_Node@?$_Tree_nod@V?$_Tmap_traits@IPAUpatch_scrap@@U?$less@I@std@@V?$allocator@U?$pair@$$CBIPAUpatch_scrap@@@std@@@3@$0A@@std@@@0@@Z
_TEXT	SEGMENT PARA USE32 PUBLIC 'CODE'
_TEXT	ENDS
;	COMDAT ??$_Destroy@PAU_Node@?$_Tree_nod@V?$_Tmap_traits@IPAUpatch_scrap@@U?$less@I@std@@V?$allocator@U?$pair@$$CBIPAUpatch_scrap@@@std@@@3@$0A@@std@@@std@@@std@@YAXPAPAU_Node@?$_Tree_nod@V?$_Tmap_traits@IPAUpatch_scrap@@U?$less@I@std@@V?$allocator@U?$pair@$$CBIPAUpatch_scrap@@@std@@@3@$0A@@std@@@0@@Z
_TEXT	SEGMENT PARA USE32 PUBLIC 'CODE'
_TEXT	ENDS
;	COMDAT ??$?0U?$pair@$$CBIPAUpatch_scrap@@@std@@@?$allocator@PAU_Node@?$_Tree_nod@V?$_Tmap_traits@IPAUpatch_scrap@@U?$less@I@std@@V?$allocator@U?$pair@$$CBIPAUpatch_scrap@@@std@@@3@$0A@@std@@@std@@@std@@QAE@ABV?$allocator@U?$pair@$$CBIPAUpatch_scrap@@@std@@@1@@Z
_TEXT	SEGMENT PARA USE32 PUBLIC 'CODE'
_TEXT	ENDS
;	COMDAT ??$?0U?$pair@$$CBIPAUpatch_scrap@@@std@@@?$allocator@U_Node@?$_Tree_nod@V?$_Tmap_traits@IPAUpatch_scrap@@U?$less@I@std@@V?$allocator@U?$pair@$$CBIPAUpatch_scrap@@@std@@@3@$0A@@std@@@std@@@std@@QAE@ABV?$allocator@U?$pair@$$CBIPAUpatch_scrap@@@std@@@1@@Z
_TEXT	SEGMENT PARA USE32 PUBLIC 'CODE'
_TEXT	ENDS
;	COMDAT ??$_Allocate@U_Node@?$_Tree_nod@V?$_Tmap_traits@IPAUpatch_scrap@@U?$less@I@std@@V?$allocator@U?$pair@$$CBIPAUpatch_scrap@@@std@@@3@$0A@@std@@@std@@@std@@YAPAU_Node@?$_Tree_nod@V?$_Tmap_traits@IPAUpatch_scrap@@U?$less@I@std@@V?$allocator@U?$pair@$$CBIPAUpatch_scrap@@@std@@@3@$0A@@std@@@0@IPAU120@@Z
_TEXT	SEGMENT PARA USE32 PUBLIC 'CODE'
_TEXT	ENDS
;	COMDAT ??$_Construct@PAU_Node@?$_Tree_nod@V?$_Tmap_traits@IPAUpatch_scrap@@U?$less@I@std@@V?$allocator@U?$pair@$$CBIPAUpatch_scrap@@@std@@@3@$0A@@std@@@std@@PAU123@@std@@YAXPAPAU_Node@?$_Tree_nod@V?$_Tmap_traits@IPAUpatch_scrap@@U?$less@I@std@@V?$allocator@U?$pair@$$CBIPAUpatch_scrap@@@std@@@3@$0A@@std@@@0@ABQAU120@@Z
_TEXT	SEGMENT PARA USE32 PUBLIC 'CODE'
_TEXT	ENDS
;	COMDAT _$E3
text$yc	SEGMENT PARA USE32 PUBLIC 'CODE'
text$yc	ENDS
;	COMDAT ??$_Iter_cat@Vconst_iterator@?$_Tree@V?$_Tmap_traits@IPAUpatch_scrap@@U?$less@I@std@@V?$allocator@U?$pair@$$CBIPAUpatch_scrap@@@std@@@3@$0A@@std@@@std@@@std@@YA?AUbidirectional_iterator_tag@0@ABVconst_iterator@?$_Tree@V?$_Tmap_traits@IPAUpatch_scrap@@U?$less@I@std@@V?$allocator@U?$pair@$$CBIPAUpatch_scrap@@@std@@@3@$0A@@std@@@0@@Z
_TEXT	SEGMENT PARA USE32 PUBLIC 'CODE'
_TEXT	ENDS
;	COMDAT ??$_Distance2@Vconst_iterator@?$_Tree@V?$_Tmap_traits@IPAUpatch_scrap@@U?$less@I@std@@V?$allocator@U?$pair@$$CBIPAUpatch_scrap@@@std@@@3@$0A@@std@@@std@@I@std@@YAXVconst_iterator@?$_Tree@V?$_Tmap_traits@IPAUpatch_scrap@@U?$less@I@std@@V?$allocator@U?$pair@$$CBIPAUpatch_scrap@@@std@@@3@$0A@@std@@@0@0AAIUbidirectional_iterator_tag@0@@Z
_TEXT	SEGMENT PARA USE32 PUBLIC 'CODE'
_TEXT	ENDS
;	COMDAT _$E5
text$yc	SEGMENT PARA USE32 PUBLIC 'CODE'
text$yc	ENDS
;	COMDAT ?get_iEn@Patch@@QAEIXZ
_TEXT	SEGMENT PARA USE32 PUBLIC 'CODE'
_TEXT	ENDS
;	COMDAT ?get_sw_En@Patch@@QAE_NXZ
_TEXT	SEGMENT PARA USE32 PUBLIC 'CODE'
_TEXT	ENDS
;	COMDAT ?get_fEn@Patch@@QAE_NXZ
_TEXT	SEGMENT PARA USE32 PUBLIC 'CODE'
_TEXT	ENDS
;	COMDAT ?get_iEm@Patch@@QAEIXZ
_TEXT	SEGMENT PARA USE32 PUBLIC 'CODE'
_TEXT	ENDS
;	COMDAT ?get_sw_Em@Patch@@QAE_NXZ
_TEXT	SEGMENT PARA USE32 PUBLIC 'CODE'
_TEXT	ENDS
;	COMDAT ?get_fEm@Patch@@QAE_NXZ
_TEXT	SEGMENT PARA USE32 PUBLIC 'CODE'
_TEXT	ENDS
;	COMDAT ?get_iEvol@Patch@@QAEIXZ
_TEXT	SEGMENT PARA USE32 PUBLIC 'CODE'
_TEXT	ENDS
;	COMDAT ?get_sw_Evol@Patch@@QAE_NXZ
_TEXT	SEGMENT PARA USE32 PUBLIC 'CODE'
_TEXT	ENDS
;	COMDAT ?get_fEvol@Patch@@QAE_NXZ
_TEXT	SEGMENT PARA USE32 PUBLIC 'CODE'
_TEXT	ENDS
;	COMDAT ?get_iEvoi@Patch@@QAEIXZ
_TEXT	SEGMENT PARA USE32 PUBLIC 'CODE'
_TEXT	ENDS
;	COMDAT ?get_fEvoi@Patch@@QAE_NXZ
_TEXT	SEGMENT PARA USE32 PUBLIC 'CODE'
_TEXT	ENDS
;	COMDAT ?get_iVoi@Patch@@QAEIXZ
_TEXT	SEGMENT PARA USE32 PUBLIC 'CODE'
_TEXT	ENDS
;	COMDAT ?get_fVoi@Patch@@QAE_NXZ
_TEXT	SEGMENT PARA USE32 PUBLIC 'CODE'
_TEXT	ENDS
;	COMDAT ?get_iSweep@Patch@@QAEEXZ
_TEXT	SEGMENT PARA USE32 PUBLIC 'CODE'
_TEXT	ENDS
;	COMDAT ?get_fSweep@Patch@@QAE_NXZ
_TEXT	SEGMENT PARA USE32 PUBLIC 'CODE'
_TEXT	ENDS
;	COMDAT ?get_iKey@Patch@@QAEIXZ
_TEXT	SEGMENT PARA USE32 PUBLIC 'CODE'
_TEXT	ENDS
;	COMDAT ?get_fKey@Patch@@QAE_NXZ
_TEXT	SEGMENT PARA USE32 PUBLIC 'CODE'
_TEXT	ENDS
;	COMDAT ?get_fSub_opt@Patch@@QAE_NXZ
_TEXT	SEGMENT PARA USE32 PUBLIC 'CODE'
_TEXT	ENDS
;	COMDAT ?get_iSub@Patch@@QAEIXZ
_TEXT	SEGMENT PARA USE32 PUBLIC 'CODE'
_TEXT	ENDS
;	COMDAT ?get_fSub@Patch@@QAE_NXZ
_TEXT	SEGMENT PARA USE32 PUBLIC 'CODE'
_TEXT	ENDS
;	COMDAT ?get_iGate_u@Patch@@QAEIXZ
_TEXT	SEGMENT PARA USE32 PUBLIC 'CODE'
_TEXT	ENDS
;	COMDAT ?get_fGate_u@Patch@@QAE_NXZ
_TEXT	SEGMENT PARA USE32 PUBLIC 'CODE'
_TEXT	ENDS
;	COMDAT ?get_iGate_q@Patch@@QAEIXZ
_TEXT	SEGMENT PARA USE32 PUBLIC 'CODE'
_TEXT	ENDS
;	COMDAT ?get_fGate_q@Patch@@QAE_NXZ
_TEXT	SEGMENT PARA USE32 PUBLIC 'CODE'
_TEXT	ENDS
;	COMDAT ?Command@?1???0Patch@@QAE@PAVMMLfile@@H@Z@4QBUCommand_Info@@B
CONST	SEGMENT DWORD USE32 PUBLIC 'CONST'
CONST	ENDS
FLAT	GROUP _DATA, CONST, _BSS
	ASSUME	CS: FLAT, DS: FLAT, SS: FLAT
endif

INCLUDELIB LIBCMT
INCLUDELIB OLDNAMES

PUBLIC	??_C@_02MOBCCJHH@$$?$AA@			; `string'
PUBLIC	??_C@_03GNIAMJAE@E?$EA?$CK?$AA@			; `string'
PUBLIC	??_C@_03ENGGFACG@Ev?$CK?$AA@			; `string'
PUBLIC	??_C@_03FNBFBMLH@Em?$CK?$AA@			; `string'
PUBLIC	??_C@_03FPFDKCOO@En?$CK?$AA@			; `string'
PUBLIC	??_C@_02IGJGCGMD@E?$EA?$AA@			; `string'
PUBLIC	??_C@_02PIKLHLG@Ev?$AA@				; `string'
PUBLIC	??_C@_02KGLMHMCM@Em?$AA@			; `string'
PUBLIC	??_C@_02INJBCPOP@En?$AA@			; `string'
PUBLIC	??_C@_01IIACKFLH@q?$AA@				; `string'
PUBLIC	??_C@_01OMGOGALD@u?$AA@				; `string'
PUBLIC	??_C@_01LKDEMHDF@s?$AA@				; `string'
PUBLIC	??_C@_03KODNNGID@?$EANS?$AA@			; `string'
PUBLIC	??_C@_01EOFPKCAF@?$EA?$AA@			; `string'
PUBLIC	??_C@_01IDAFKMJL@_?$AA@				; `string'
PUBLIC	??_C@_1DE@KNJKOFFK@?$JH?s?$ICr0?$KI0?s0?Y0?m0?$PM0?W0hT?$AMfB0k?$FL?$JK?$HP?$KJ0Y0?$IL0S0h0o0g@ ; `string'
PUBLIC	??_C@_1BG@OGNIMPKO@?$JH?s?$ICr0n?$PP?$BC?$JB?M?$FL?$JK?$HP?$KJ0g0Y0?$AC?$AA?$AA@ ; `string'
PUBLIC	??_C@_1CM@IEKMDFIE@?$JH?s?$ICr0o?$AA0?$PP?$FO?$AA2?$AA5?$AA50n?$HL?DV?r0gc?$AH?$FL?$JK0W0f0O0?$GA0U0D@ ; `string'
PUBLIC	??_C@_1DC@GHMDBEFP@?$JH?s?$ICr0?$KI0?s0?Y0?m0?$PM0?W0o0?$AB?$AA?$EA0?$LD0?$NO0?s0?I0gq?$CBR?$LJ0k0g@ ; `string'
PUBLIC	??_C@_1CC@OODHOOPP@?$JH?s?$JB?O0?$KI0?s0?Y0?m0?$PM0?W0n?$PP?$BC?$JB?M?$FL?$JK?$HP?$KJ0g0Y0?$AC?$AA?$AA@ ; `string'
PUBLIC	??_C@_1CC@HCKABCOF@?$JH?sz?$AL0?$KI0?s0?Y0?m0?$PM0?W0n?$PP?$BC?$JB?M?$FL?$JK?$HP?$KJ0g0Y0?$AC?$AA?$AA@ ; `string'
PUBLIC	??_C@_1CE@MHEDGKOC@0?N0?$PM0?H0?$KI0?s0?Y0?m0?$PM0?W0n?$PP?$BC?$JB?M?$FL?$JK?$HP?$KJ0g0Y0?$AC?$AA?$AA@ ; `string'
PUBLIC	??_C@_1CC@LNAFLFDL@?$JH?s?$ICr0?$KI0?s0?Y0?m0?$PM0?W0n?$PP?$BC?$JB?M?$FL?$JK?$HP?$KJ0g0Y0?$AC?$AA?$AA@ ; `string'
PUBLIC	??_C@_1CI@FCLDAKAL@?$JH?s?$ICr0hT?$AMfB0k?$FL?$JK?$HP?$KJ0Y0?$IL0S0h0o0g0M0?$HO0?$FL0?$JD0?$AC?$AA?$AA@ ; `string'
PUBLIC	??_C@_1BM@CDGIHPDA@?$AAq0?$LD0?$NO0?s0?I0n?$PP?$BC?$JB?M?$FL?$JK?$HP?$KJ0g0Y0?$AC?$AA?$AA@ ; `string'
PUBLIC	??_C@_1BM@CFLPILEE@?$AAu0?$LD0?$NO0?s0?I0n?$PP?$BC?$JB?M?$FL?$JK?$HP?$KJ0g0Y0?$AC?$AA?$AA@ ; `string'
PUBLIC	??_C@_1BG@DMDHOLIG@y?$PL?$IK?$LP0n?$PP?$BC?$JB?M?$FL?$JK?$HP?$KJ0g0Y0?$AC?$AA?$AA@ ; `string'
PUBLIC	??_C@_1BM@CAADIFAK@?$AAs0?$LD0?$NO0?s0?I0n?$PP?$BC?$JB?M?$FL?$JK?$HP?$KJ0g0Y0?$AC?$AA?$AA@ ; `string'
PUBLIC	??_C@_1DC@OMNANPHO@?$AAs0?$LD0?$NO0?s0?I0o?$AA0?$PP?$FO?$AA2?$AA5?$AA50n?$HL?DV?r0gc?$AH?$FL?$JK0W0f0O@ ; `string'
PUBLIC	??_C@_1EA@FGFBAIAO@?$AAs0?$LD0?$NO0?s0?I0n?$HL?0?$AA10?Q0?i0?a0?$PM0?$LP0o?$AA0?$PP?$FO?$AA1?$AA50n?$HL?D@ ; `string'
PUBLIC	??_C@_1EA@BHDCEFM@?$AAs0?$LD0?$NO0?s0?I0n?$HL?0?$AA20?Q0?i0?a0?$PM0?$LP0o?$AA0?$PP?$FO?$AA1?$AA50n?$HL?D@ ; `string'
PUBLIC	??_C@_1CE@JMKANNFP@?$AA?$EA0?$LD0?$NO0?s0?I0Le?b0kc?$AH?$FL?$JK0U0?$IM0f0D0?$HO0Y0?$AC?$AA?$AA@ ; `string'
PUBLIC	??_C@_1CG@DIPDDOH@?$AAE?$AA?$EA0?$LD0?$NO0?s0?I0Le?b0kc?$AH?$FL?$JK0U0?$IM0f0D0?$HO0Y0?$AC?$AA?$AA@ ; `string'
PUBLIC	??_C@_1DM@DHGNPNAI@?$AAn?$AA1?$AA6?$AAx0nl?b_b?$JF?$ILY?Kp?$LJ0o?$AA0?$PP?$FO?$AA2?$AA5?$AA20n?$HL?DV?r0g@ ; `string'
PUBLIC	??_C@_1DE@ODMGCHFJ@?$AAn?$AA1?$AA6?$AAx0nl?b_b?$JF?$ILY?Kp?$LJ0o?$AA40nP?$ANep0gc?$AH?$FL?$JK0W0f@ ; `string'
PUBLIC	??_C@_1CE@PCAGAE@?$AAs0?$LD0?$NO0?s0?I0Le?b0kc?$AH?$FL?$JK0U0?$IM0f0D0?$HO0Y0?$AC?$AA?$AA@ ; `string'
PUBLIC	??_C@_1DM@DDNJDHDJ@?$AAn?$AA1?$AA6?$AAx0n0?$LF0?s0?W0?k?$JFw0o?$AA4?$PP?$FO?$AA2?$AA5?$AA60n?$HL?DV?r0g@ ; `string'
PUBLIC	??_C@_1DE@MPDFLMLF@?$AAn?$AA1?$AA6?$AAx0n0?$LF0?s0?W0?k?$JFw0o?$AA40nP?$ANep0gc?$AH?$FL?$JK0W0f@ ; `string'
PUBLIC	??_C@_1BO@CKOOCKJC@0?$LF0?V0?k0?$PM0?A0?s0n?$PP?$BC?$JB?M?$FL?$JK?$HP?$KJ0g0Y0?$AC?$AA?$AA@ ; `string'
PUBLIC	??_C@_1DO@BDHNDBK@0?$LF0?V0?k0?$PM0?A0?s0ng?$AA?$JAiS?$BG0?U0?i0?$LA0o?$AA0?$PP?$FO?$AA10n?$HL?DV?r@ ; `string'
PUBLIC	??_C@_08JGNHFCII@?$CJ?5?$FN?5?$DN?$DN?$DN?$DN?$AA@ ; `string'
PUBLIC	??_C@_0O@IDEMKPMC@?$DN?$DN?$DN?$DN?5?$FL?5Patch?$CI?$AA@ ; `string'
PUBLIC	??_C@_03LNLKIPBE@?5?5n?$AA@			; `string'
PUBLIC	??_C@_03HAOAIBIK@?5?5q?$AA@			; `string'
PUBLIC	??_C@_03BEIMEEIO@?5?5u?$AA@			; `string'
PUBLIC	??_C@_03NHFCMHKK@?5?5S?$AA@			; `string'
PUBLIC	??_C@_03HLOHIIKG@?5?5_?$AA@			; `string'
PUBLIC	??_C@_03ECNGODAI@?5?5s?$AA@			; `string'
PUBLIC	??_C@_03LGLNIGDI@?5?5?$EA?$AA@			; `string'
PUBLIC	??_C@_03PIKBIPPD@?5E?$EA?$AA@			; `string'
PUBLIC	??_C@_04GLMBFHCD@?5Ev?$CK?$AA@			; `string'
PUBLIC	??_C@_03HBLNBOIG@?5Ev?$AA@			; `string'
PUBLIC	??_C@_04HLLCBLLC@?5Em?$CK?$AA@			; `string'
PUBLIC	??_C@_03NIILNFBM@?5Em?$AA@			; `string'
PUBLIC	??_C@_04HJPEKFOL@?5En?$CK?$AA@			; `string'
PUBLIC	??_C@_03PDKGIGNP@?5En?$AA@			; `string'
;	COMDAT ??_C@_02MOBCCJHH@$$?$AA@
CONST	SEGMENT
??_C@_02MOBCCJHH@$$?$AA@ DB '$$', 00H			; `string'
CONST	ENDS
;	COMDAT ??_C@_03GNIAMJAE@E?$EA?$CK?$AA@
CONST	SEGMENT
??_C@_03GNIAMJAE@E?$EA?$CK?$AA@ DB 'E@*', 00H		; `string'
CONST	ENDS
;	COMDAT ??_C@_03ENGGFACG@Ev?$CK?$AA@
CONST	SEGMENT
??_C@_03ENGGFACG@Ev?$CK?$AA@ DB 'Ev*', 00H		; `string'
CONST	ENDS
;	COMDAT ??_C@_03FNBFBMLH@Em?$CK?$AA@
CONST	SEGMENT
??_C@_03FNBFBMLH@Em?$CK?$AA@ DB 'Em*', 00H		; `string'
CONST	ENDS
;	COMDAT ??_C@_03FPFDKCOO@En?$CK?$AA@
CONST	SEGMENT
??_C@_03FPFDKCOO@En?$CK?$AA@ DB 'En*', 00H		; `string'
CONST	ENDS
;	COMDAT ??_C@_02IGJGCGMD@E?$EA?$AA@
CONST	SEGMENT
??_C@_02IGJGCGMD@E?$EA?$AA@ DB 'E@', 00H		; `string'
CONST	ENDS
;	COMDAT ??_C@_02PIKLHLG@Ev?$AA@
CONST	SEGMENT
??_C@_02PIKLHLG@Ev?$AA@ DB 'Ev', 00H			; `string'
CONST	ENDS
;	COMDAT ??_C@_02KGLMHMCM@Em?$AA@
CONST	SEGMENT
??_C@_02KGLMHMCM@Em?$AA@ DB 'Em', 00H			; `string'
CONST	ENDS
;	COMDAT ??_C@_02INJBCPOP@En?$AA@
CONST	SEGMENT
??_C@_02INJBCPOP@En?$AA@ DB 'En', 00H			; `string'
CONST	ENDS
;	COMDAT ??_C@_01IIACKFLH@q?$AA@
CONST	SEGMENT
??_C@_01IIACKFLH@q?$AA@ DB 'q', 00H			; `string'
CONST	ENDS
;	COMDAT ??_C@_01OMGOGALD@u?$AA@
CONST	SEGMENT
??_C@_01OMGOGALD@u?$AA@ DB 'u', 00H			; `string'
CONST	ENDS
;	COMDAT ??_C@_01LKDEMHDF@s?$AA@
CONST	SEGMENT
??_C@_01LKDEMHDF@s?$AA@ DB 's', 00H			; `string'
CONST	ENDS
;	COMDAT ??_C@_03KODNNGID@?$EANS?$AA@
CONST	SEGMENT
??_C@_03KODNNGID@?$EANS?$AA@ DB '@NS', 00H		; `string'
CONST	ENDS
;	COMDAT ??_C@_01EOFPKCAF@?$EA?$AA@
CONST	SEGMENT
??_C@_01EOFPKCAF@?$EA?$AA@ DB '@', 00H			; `string'
CONST	ENDS
;	COMDAT ??_C@_01IDAFKMJL@_?$AA@
CONST	SEGMENT
??_C@_01IDAFKMJL@_?$AA@ DB '_', 00H			; `string'
CONST	ENDS
;	COMDAT ?Command@?1???0Patch@@QAE@PAVMMLfile@@H@Z@4QBUCommand_Info@@B
CONST	SEGMENT
?Command@?1???0Patch@@QAE@PAVMMLfile@@H@Z@4QBUCommand_Info@@B DD FLAT:??_C@_02MOBCCJHH@$$?$AA@ ; `Patch::Patch'::`2'::Command
	DD	00H
	DD	FLAT:??_C@_01EPMOAMKG@$?$AA@
	DD	01H
	DD	FLAT:??_C@_02PEIGCEPF@c?$CD?$AA@
	DD	03H
	DD	FLAT:??_C@_02PBMJDCHA@d?$CD?$AA@
	DD	05H
	DD	FLAT:??_C@_02PCENOGBO@f?$CD?$AA@
	DD	08H
	DD	FLAT:??_C@_02PDIPIMCJ@g?$CD?$AA@
	DD	0aH
	DD	FLAT:??_C@_02PHACPAJL@a?$CD?$AA@
	DD	0cH
	DD	FLAT:??_C@_02DMFPKOPN@c?$CL?$AA@
	DD	03H
	DD	FLAT:??_C@_02DJBALIHI@d?$CL?$AA@
	DD	05H
	DD	FLAT:??_C@_02DKJEGMBG@f?$CL?$AA@
	DD	08H
	DD	FLAT:??_C@_02DLFGAGCB@g?$CL?$AA@
	DD	0aH
	DD	FLAT:??_C@_02DPNLHKJD@a?$CL?$AA@
	DD	0cH
	DD	FLAT:??_C@_02GPEKBPPO@d?9?$AA@
	DD	03H
	DD	FLAT:??_C@_02GOIIHFMJ@e?9?$AA@
	DD	05H
	DD	FLAT:??_C@_02GNAMKBKH@g?9?$AA@
	DD	08H
	DD	FLAT:??_C@_02GJIBNNBF@a?9?$AA@
	DD	0aH
	DD	FLAT:??_C@_02GLMHGDEM@b?9?$AA@
	DD	0cH
	DD	FLAT:??_C@_01PAPGNFGE@c?$AA@
	DD	02H
	DD	FLAT:??_C@_01LPLHEDKD@d?$AA@
	DD	04H
	DD	FLAT:??_C@_01KGKMHCOC@e?$AA@
	DD	06H
	DD	FLAT:??_C@_01INIBCBCB@f?$AA@
	DD	07H
	DD	FLAT:??_C@_01JEJKBAGA@g?$AA@
	DD	09H
	DD	FLAT:??_C@_01MCMALHOG@a?$AA@
	DD	0bH
	DD	FLAT:??_C@_01OJONOECF@b?$AA@
	DD	0dH
	DD	FLAT:??_C@_03LDKCKJPH@?$IC?G?$CD?$AA@
	DD	03H
	DD	FLAT:??_C@_03IDDHHMEE@?$IC?j?$CD?$AA@
	DD	05H
	DD	FLAT:??_C@_05NMKGBIBK@?$IC?S?$IC?$JP?$CD?$AA@
	DD	08H
	DD	FLAT:??_C@_03KIINKCFL@?$IC?S?$CD?$AA@
	DD	08H
	DD	FLAT:??_C@_03OOEJDIMD@?$IC?$LL?$CD?$AA@
	DD	0aH
	DD	FLAT:??_C@_03ILOPOPBH@?$IC?g?$CD?$AA@
	DD	0cH
	DD	FLAT:??_C@_03BNLEFBMK@?$IC?j?9?$AA@
	DD	03H
	DD	FLAT:??_C@_03DMJAKCNP@?$IC?$NN?9?$AA@
	DD	05H
	DD	FLAT:??_C@_03HAMKBFEN@?$IC?$LL?9?$AA@
	DD	08H
	DD	FLAT:??_C@_03BFGMMCJJ@?$IC?g?9?$AA@
	DD	0aH
	DD	FLAT:??_C@_03HKFEDIEH@?$IC?$LF?9?$AA@
	DD	0cH
	DD	FLAT:??_C@_02GGLEKIIK@?$IC?G?$AA@
	DD	02H
	DD	FLAT:??_C@_02EGJOPCGF@?$IC?j?$AA@
	DD	04H
	DD	FLAT:??_C@_02NGJJFCFB@?$IC?$NN?$AA@
	DD	06H
	DD	FLAT:??_C@_04NCHCKEFM@?$IC?S?$IC?$JP?$AA@
	DD	07H
	DD	FLAT:??_C@_02EIBKHPNP@?$IC?S?$AA@
	DD	07H
	DD	FLAT:??_C@_02OFDOJOHA@?$IC?$LL?$AA@
	DD	09H
	DD	FLAT:??_C@_02PDDAIMCI@?$IC?g?$AA@
	DD	0bH
	DD	FLAT:??_C@_02HLLNLDPO@?$IC?$LF?$AA@
	DD	0dH
	DD	FLAT:??_C@_03NJDKNEMP@?$IDh?$CD?$AA@
	DD	03H
	DD	FLAT:??_C@_03HHNBKMLD@?$ID?$IM?$CD?$AA@
	DD	05H
	DD	FLAT:??_C@_05OLJEJNFB@?$IDt?$ID?$EA?$CD?$AA@
	DD	08H
	DD	FLAT:??_C@_03MMAGIONL@?$IDt?$CD?$AA@
	DD	08H
	DD	FLAT:??_C@_03PKFIJJID@?$ID?2?$CD?$AA@
	DD	0aH
	DD	FLAT:??_C@_03HBBKGOFI@?$ID?$IJ?$CD?$AA@
	DD	0cH
	DD	FLAT:??_C@_03OJFCIBDN@?$ID?$IM?9?$AA@
	DD	03H
	DD	FLAT:??_C@_03FPBCCGID@?$ID?$HO?9?$AA@
	DD	05H
	DD	FLAT:??_C@_03GENLLEAN@?$ID?2?9?$AA@
	DD	08H
	DD	FLAT:??_C@_03OPJJEDNG@?$ID?$IJ?9?$AA@
	DD	0aH
	DD	FLAT:??_C@_03GJEMDBNL@?$IDV?9?$AA@
	DD	0cH
	DD	FLAT:??_C@_02EOOJGCJL@?$IDh?$AA@
	DD	02H
	DD	FLAT:??_C@_02HEPLFEHD@?$ID?$IM?$AA@
	DD	04H
	DD	FLAT:??_C@_02FCHBNHEM@?$ID?$HO?$AA@
	DD	06H
	DD	FLAT:??_C@_04DIMMBPLH@?$IDt?$ID?$EA?$AA@
	DD	07H
	DD	FLAT:??_C@_02KIJODPMG@?$IDt?$AA@
	DD	07H
	DD	FLAT:??_C@_02PFMDJBGM@?$ID?2?$AA@
	DD	09H
	DD	FLAT:??_C@_02JIMKADG@?$ID?$IJ?$AA@
	DD	0bH
	DD	FLAT:??_C@_02PCMHJOG@?$IDV?$AA@
	DD	0dH
	DD	FLAT:??_C@_01EFFIKLCJ@n?$AA@
	DD	0eH
	DD	FLAT:??_C@_03GNIAMJAE@E?$EA?$CK?$AA@
	DD	0fH
	DD	FLAT:??_C@_03ENGGFACG@Ev?$CK?$AA@
	DD	010H
	DD	FLAT:??_C@_03FNBFBMLH@Em?$CK?$AA@
	DD	011H
	DD	FLAT:??_C@_03FPFDKCOO@En?$CK?$AA@
	DD	012H
	DD	FLAT:??_C@_02IGJGCGMD@E?$EA?$AA@
	DD	013H
	DD	FLAT:??_C@_02PIKLHLG@Ev?$AA@
	DD	014H
	DD	FLAT:??_C@_02KGLMHMCM@Em?$AA@
	DD	015H
	DD	FLAT:??_C@_02INJBCPOP@En?$AA@
	DD	016H
	DD	FLAT:??_C@_01IIACKFLH@q?$AA@
	DD	017H
	DD	FLAT:??_C@_01OMGOGALD@u?$AA@
	DD	018H
	DD	FLAT:??_C@_01LKDEMHDF@s?$AA@
	DD	01cH
	DD	FLAT:??_C@_03KODNNGID@?$EANS?$AA@
	DD	01bH
	DD	FLAT:??_C@_01EOFPKCAF@?$EA?$AA@
	DD	019H
	DD	FLAT:??_C@_01IDAFKMJL@_?$AA@
	DD	01aH
	DD	FLAT:??_C@_01CPLAODJH@S?$AA@
	DD	01dH
CONST	ENDS
;	COMDAT ??_C@_1DE@KNJKOFFK@?$JH?s?$ICr0?$KI0?s0?Y0?m0?$PM0?W0hT?$AMfB0k?$FL?$JK?$HP?$KJ0Y0?$IL0S0h0o0g@
CONST	SEGMENT
??_C@_1DE@KNJKOFFK@?$JH?s?$ICr0?$KI0?s0?Y0?m0?$PM0?W0hT?$AMfB0k?$FL?$JK?$HP?$KJ0Y0?$IL0S0h0o0g@ DB 0f3H
	DB	097H, 'r', 082H, 0a8H, '0', 0f3H, '0', 0d9H, '0', 0edH, '0', 0fcH
	DB	'0', 0d7H, '0h0', 0cH, 'TBfk0', 09aH, '[', 0a9H, 07fH, 'Y0', 08bH
	DB	'0S0h0o0g0M0~0[0', 093H, '0', 02H, '0', 00H, 00H ; `string'
CONST	ENDS
;	COMDAT ??_C@_1BG@OGNIMPKO@?$JH?s?$ICr0n?$PP?$BC?$JB?M?$FL?$JK?$HP?$KJ0g0Y0?$AC?$AA?$AA@
CONST	SEGMENT
??_C@_1BG@OGNIMPKO@?$JH?s?$ICr0n?$PP?$BC?$JB?M?$FL?$JK?$HP?$KJ0g0Y0?$AC?$AA?$AA@ DB 0f3H
	DB	097H, 'r', 082H, 'n0', 012H, 0ffH, 0cdH, 091H, 09aH, '[', 0a9H
	DB	07fH, 'g0Y0', 02H, '0', 00H, 00H		; `string'
CONST	ENDS
;	COMDAT ??_C@_1CM@IEKMDFIE@?$JH?s?$ICr0o?$AA0?$PP?$FO?$AA2?$AA5?$AA50n?$HL?DV?r0gc?$AH?$FL?$JK0W0f0O0?$GA0U0D@
CONST	SEGMENT
??_C@_1CM@IEKMDFIE@?$JH?s?$ICr0o?$AA0?$PP?$FO?$AA2?$AA5?$AA50n?$HL?DV?r0gc?$AH?$FL?$JK0W0f0O0?$GA0U0D@ DB 0f3H
	DB	097H, 'r', 082H, 'o00', 00H, '^', 0ffH, '2', 00H, '5', 00H, '5'
	DB	00H, 'n0', 0c4H, '{', 0f2H, 'Vg0', 07H, 'c', 09aH, '[W0f0O0`0U'
	DB	'0D0', 02H, '0', 00H, 00H			; `string'
CONST	ENDS
;	COMDAT ??_C@_1DC@GHMDBEFP@?$JH?s?$ICr0?$KI0?s0?Y0?m0?$PM0?W0o0?$AB?$AA?$EA0?$LD0?$NO0?s0?I0gq?$CBR?$LJ0k0g@
CONST	SEGMENT
??_C@_1DC@GHMDBEFP@?$JH?s?$ICr0?$KI0?s0?Y0?m0?$PM0?W0o0?$AB?$AA?$EA0?$LD0?$NO0?s0?I0gq?$CBR?$LJ0k0g@ DB 0f3H
	DB	097H, 'r', 082H, 0a8H, '0', 0f3H, '0', 0d9H, '0', 0edH, '0', 0fcH
	DB	'0', 0d7H, '0o0', 01H, '0@', 00H, 0b3H, '0', 0deH, '0', 0f3H, '0'
	DB	0c9H, '0g0!q', 0b9H, 'Rk0g0M0~0Y0', 02H, '0', 00H, 00H ; `string'
CONST	ENDS
;	COMDAT ??_C@_1CC@OODHOOPP@?$JH?s?$JB?O0?$KI0?s0?Y0?m0?$PM0?W0n?$PP?$BC?$JB?M?$FL?$JK?$HP?$KJ0g0Y0?$AC?$AA?$AA@
CONST	SEGMENT
??_C@_1CC@OODHOOPP@?$JH?s?$JB?O0?$KI0?s0?Y0?m0?$PM0?W0n?$PP?$BC?$JB?M?$FL?$JK?$HP?$KJ0g0Y0?$AC?$AA?$AA@ DB 0f3H
	DB	097H, 0cfH, 091H, 0a8H, '0', 0f3H, '0', 0d9H, '0', 0edH, '0', 0fcH
	DB	'0', 0d7H, '0n0', 012H, 0ffH, 0cdH, 091H, 09aH, '[', 0a9H, 07fH
	DB	'g0Y0', 02H, '0', 00H, 00H			; `string'
CONST	ENDS
;	COMDAT ??_C@_1CC@HCKABCOF@?$JH?sz?$AL0?$KI0?s0?Y0?m0?$PM0?W0n?$PP?$BC?$JB?M?$FL?$JK?$HP?$KJ0g0Y0?$AC?$AA?$AA@
CONST	SEGMENT
??_C@_1CC@HCKABCOF@?$JH?sz?$AL0?$KI0?s0?Y0?m0?$PM0?W0n?$PP?$BC?$JB?M?$FL?$JK?$HP?$KJ0g0Y0?$AC?$AA?$AA@ DB 0f3H
	DB	097H, 0bH, 'z', 0a8H, '0', 0f3H, '0', 0d9H, '0', 0edH, '0', 0fcH
	DB	'0', 0d7H, '0n0', 012H, 0ffH, 0cdH, 091H, 09aH, '[', 0a9H, 07fH
	DB	'g0Y0', 02H, '0', 00H, 00H			; `string'
CONST	ENDS
;	COMDAT ??_C@_1CE@MHEDGKOC@0?N0?$PM0?H0?$KI0?s0?Y0?m0?$PM0?W0n?$PP?$BC?$JB?M?$FL?$JK?$HP?$KJ0g0Y0?$AC?$AA?$AA@
CONST	SEGMENT
??_C@_1CE@MHEDGKOC@0?N0?$PM0?H0?$KI0?s0?Y0?m0?$PM0?W0n?$PP?$BC?$JB?M?$FL?$JK?$HP?$KJ0g0Y0?$AC?$AA?$AA@ DB 0ceH
	DB	'0', 0fcH, '0', 0c8H, '0', 0a8H, '0', 0f3H, '0', 0d9H, '0', 0edH
	DB	'0', 0fcH, '0', 0d7H, '0n0', 012H, 0ffH, 0cdH, 091H, 09aH, '[', 0a9H
	DB	07fH, 'g0Y0', 02H, '0', 00H, 00H		; `string'
CONST	ENDS
;	COMDAT ??_C@_1CC@LNAFLFDL@?$JH?s?$ICr0?$KI0?s0?Y0?m0?$PM0?W0n?$PP?$BC?$JB?M?$FL?$JK?$HP?$KJ0g0Y0?$AC?$AA?$AA@
CONST	SEGMENT
??_C@_1CC@LNAFLFDL@?$JH?s?$ICr0?$KI0?s0?Y0?m0?$PM0?W0n?$PP?$BC?$JB?M?$FL?$JK?$HP?$KJ0g0Y0?$AC?$AA?$AA@ DB 0f3H
	DB	097H, 'r', 082H, 0a8H, '0', 0f3H, '0', 0d9H, '0', 0edH, '0', 0fcH
	DB	'0', 0d7H, '0n0', 012H, 0ffH, 0cdH, 091H, 09aH, '[', 0a9H, 07fH
	DB	'g0Y0', 02H, '0', 00H, 00H			; `string'
CONST	ENDS
;	COMDAT ??_C@_1CI@FCLDAKAL@?$JH?s?$ICr0hT?$AMfB0k?$FL?$JK?$HP?$KJ0Y0?$IL0S0h0o0g0M0?$HO0?$FL0?$JD0?$AC?$AA?$AA@
CONST	SEGMENT
??_C@_1CI@FCLDAKAL@?$JH?s?$ICr0hT?$AMfB0k?$FL?$JK?$HP?$KJ0Y0?$IL0S0h0o0g0M0?$HO0?$FL0?$JD0?$AC?$AA?$AA@ DB 0f3H
	DB	097H, 'r', 082H, 'h0', 0cH, 'TBfk0', 09aH, '[', 0a9H, 07fH, 'Y'
	DB	'0', 08bH, '0S0h0o0g0M0~0[0', 093H, '0', 02H, '0', 00H, 00H ; `string'
CONST	ENDS
;	COMDAT ??_C@_1BM@CDGIHPDA@?$AAq0?$LD0?$NO0?s0?I0n?$PP?$BC?$JB?M?$FL?$JK?$HP?$KJ0g0Y0?$AC?$AA?$AA@
CONST	SEGMENT
??_C@_1BM@CDGIHPDA@?$AAq0?$LD0?$NO0?s0?I0n?$PP?$BC?$JB?M?$FL?$JK?$HP?$KJ0g0Y0?$AC?$AA?$AA@ DB 'q'
	DB	00H, 0b3H, '0', 0deH, '0', 0f3H, '0', 0c9H, '0n0', 012H, 0ffH, 0cdH
	DB	091H, 09aH, '[', 0a9H, 07fH, 'g0Y0', 02H, '0', 00H, 00H ; `string'
CONST	ENDS
;	COMDAT ??_C@_1BM@CFLPILEE@?$AAu0?$LD0?$NO0?s0?I0n?$PP?$BC?$JB?M?$FL?$JK?$HP?$KJ0g0Y0?$AC?$AA?$AA@
CONST	SEGMENT
??_C@_1BM@CFLPILEE@?$AAu0?$LD0?$NO0?s0?I0n?$PP?$BC?$JB?M?$FL?$JK?$HP?$KJ0g0Y0?$AC?$AA?$AA@ DB 'u'
	DB	00H, 0b3H, '0', 0deH, '0', 0f3H, '0', 0c9H, '0n0', 012H, 0ffH, 0cdH
	DB	091H, 09aH, '[', 0a9H, 07fH, 'g0Y0', 02H, '0', 00H, 00H ; `string'
CONST	ENDS
;	COMDAT ??_C@_1BG@DMDHOLIG@y?$PL?$IK?$LP0n?$PP?$BC?$JB?M?$FL?$JK?$HP?$KJ0g0Y0?$AC?$AA?$AA@
CONST	SEGMENT
??_C@_1BG@DMDHOLIG@y?$PL?$IK?$LP0n?$PP?$BC?$JB?M?$FL?$JK?$HP?$KJ0g0Y0?$AC?$AA?$AA@ DB 0fbH
	DB	'y', 0bfH, 08aH, 'n0', 012H, 0ffH, 0cdH, 091H, 09aH, '[', 0a9H
	DB	07fH, 'g0Y0', 02H, '0', 00H, 00H		; `string'
CONST	ENDS
;	COMDAT ??_C@_1BM@CAADIFAK@?$AAs0?$LD0?$NO0?s0?I0n?$PP?$BC?$JB?M?$FL?$JK?$HP?$KJ0g0Y0?$AC?$AA?$AA@
CONST	SEGMENT
??_C@_1BM@CAADIFAK@?$AAs0?$LD0?$NO0?s0?I0n?$PP?$BC?$JB?M?$FL?$JK?$HP?$KJ0g0Y0?$AC?$AA?$AA@ DB 's'
	DB	00H, 0b3H, '0', 0deH, '0', 0f3H, '0', 0c9H, '0n0', 012H, 0ffH, 0cdH
	DB	091H, 09aH, '[', 0a9H, 07fH, 'g0Y0', 02H, '0', 00H, 00H ; `string'
CONST	ENDS
;	COMDAT ??_C@_1DC@OMNANPHO@?$AAs0?$LD0?$NO0?s0?I0o?$AA0?$PP?$FO?$AA2?$AA5?$AA50n?$HL?DV?r0gc?$AH?$FL?$JK0W0f0O@
CONST	SEGMENT
??_C@_1DC@OMNANPHO@?$AAs0?$LD0?$NO0?s0?I0o?$AA0?$PP?$FO?$AA2?$AA5?$AA50n?$HL?DV?r0gc?$AH?$FL?$JK0W0f0O@ DB 's'
	DB	00H, 0b3H, '0', 0deH, '0', 0f3H, '0', 0c9H, '0o00', 00H, '^', 0ffH
	DB	'2', 00H, '5', 00H, '5', 00H, 'n0', 0c4H, '{', 0f2H, 'Vg0', 07H
	DB	'c', 09aH, '[W0f0O0`0U0D0', 02H, '0', 00H, 00H ; `string'
CONST	ENDS
;	COMDAT ??_C@_1EA@FGFBAIAO@?$AAs0?$LD0?$NO0?s0?I0n?$HL?0?$AA10?Q0?i0?a0?$PM0?$LP0o?$AA0?$PP?$FO?$AA1?$AA50n?$HL?D@
CONST	SEGMENT
??_C@_1EA@FGFBAIAO@?$AAs0?$LD0?$NO0?s0?I0n?$HL?0?$AA10?Q0?i0?a0?$PM0?$LP0o?$AA0?$PP?$FO?$AA1?$AA50n?$HL?D@ DB 's'
	DB	00H, 0b3H, '0', 0deH, '0', 0f3H, '0', 0c9H, '0n0,{1', 00H, 0d1H
	DB	'0', 0e9H, '0', 0e1H, '0', 0fcH, '0', 0bfH, '0o00', 00H, '^', 0ffH
	DB	'1', 00H, '5', 00H, 'n0', 0c4H, '{', 0f2H, 'Vg0', 07H, 'c', 09aH
	DB	'[W0f0O0`0U0D0', 02H, '0', 00H, 00H		; `string'
CONST	ENDS
;	COMDAT ??_C@_1EA@BHDCEFM@?$AAs0?$LD0?$NO0?s0?I0n?$HL?0?$AA20?Q0?i0?a0?$PM0?$LP0o?$AA0?$PP?$FO?$AA1?$AA50n?$HL?D@
CONST	SEGMENT
??_C@_1EA@BHDCEFM@?$AAs0?$LD0?$NO0?s0?I0n?$HL?0?$AA20?Q0?i0?a0?$PM0?$LP0o?$AA0?$PP?$FO?$AA1?$AA50n?$HL?D@ DB 's'
	DB	00H, 0b3H, '0', 0deH, '0', 0f3H, '0', 0c9H, '0n0,{2', 00H, 0d1H
	DB	'0', 0e9H, '0', 0e1H, '0', 0fcH, '0', 0bfH, '0o00', 00H, '^', 0ffH
	DB	'1', 00H, '5', 00H, 'n0', 0c4H, '{', 0f2H, 'Vg0', 07H, 'c', 09aH
	DB	'[W0f0O0`0U0D0', 02H, '0', 00H, 00H		; `string'
CONST	ENDS
;	COMDAT ??_C@_1CE@JMKANNFP@?$AA?$EA0?$LD0?$NO0?s0?I0Le?b0kc?$AH?$FL?$JK0U0?$IM0f0D0?$HO0Y0?$AC?$AA?$AA@
CONST	SEGMENT
??_C@_1CE@JMKANNFP@?$AA?$EA0?$LD0?$NO0?s0?I0Le?b0kc?$AH?$FL?$JK0U0?$IM0f0D0?$HO0Y0?$AC?$AA?$AA@ DB '@'
	DB	00H, 0b3H, '0', 0deH, '0', 0f3H, '0', 0c9H, '0L0', 0e2H, 'ek0', 07H
	DB	'c', 09aH, '[U0', 08cH, '0f0D0~0Y0', 02H, '0', 00H, 00H ; `string'
CONST	ENDS
;	COMDAT ??_C@_1CG@DIPDDOH@?$AAE?$AA?$EA0?$LD0?$NO0?s0?I0Le?b0kc?$AH?$FL?$JK0U0?$IM0f0D0?$HO0Y0?$AC?$AA?$AA@
CONST	SEGMENT
??_C@_1CG@DIPDDOH@?$AAE?$AA?$EA0?$LD0?$NO0?s0?I0Le?b0kc?$AH?$FL?$JK0U0?$IM0f0D0?$HO0Y0?$AC?$AA?$AA@ DB 'E'
	DB	00H, '@', 00H, 0b3H, '0', 0deH, '0', 0f3H, '0', 0c9H, '0L0', 0e2H
	DB	'ek0', 07H, 'c', 09aH, '[U0', 08cH, '0f0D0~0Y0', 02H, '0', 00H
	DB	00H						; `string'
CONST	ENDS
;	COMDAT ??_C@_1DM@DHGNPNAI@?$AAn?$AA1?$AA6?$AAx0nl?b_b?$JF?$ILY?Kp?$LJ0o?$AA0?$PP?$FO?$AA2?$AA5?$AA20n?$HL?DV?r0g@
CONST	SEGMENT
??_C@_1DM@DHGNPNAI@?$AAn?$AA1?$AA6?$AAx0nl?b_b?$JF?$ILY?Kp?$LJ0o?$AA0?$PP?$FO?$AA2?$AA5?$AA20n?$HL?DV?r0g@ DB 'n'
	DB	00H, '1', 00H, '6', 00H, 'x', 00H, 'n0', 0e2H, 'lb_', 08bH, 095H
	DB	0cbH, 'Y', 0b9H, 'po00', 00H, '^', 0ffH, '2', 00H, '5', 00H, '2'
	DB	00H, 'n0', 0c4H, '{', 0f2H, 'Vg0', 07H, 'c', 09aH, '[W0f0O0`0U'
	DB	'0D0', 02H, '0', 00H, 00H			; `string'
CONST	ENDS
;	COMDAT ??_C@_1DE@ODMGCHFJ@?$AAn?$AA1?$AA6?$AAx0nl?b_b?$JF?$ILY?Kp?$LJ0o?$AA40nP?$ANep0gc?$AH?$FL?$JK0W0f@
CONST	SEGMENT
??_C@_1DE@ODMGCHFJ@?$AAn?$AA1?$AA6?$AAx0nl?b_b?$JF?$ILY?Kp?$LJ0o?$AA40nP?$ANep0gc?$AH?$FL?$JK0W0f@ DB 'n'
	DB	00H, '1', 00H, '6', 00H, 'x', 00H, 'n0', 0e2H, 'lb_', 08bH, 095H
	DB	0cbH, 'Y', 0b9H, 'po04', 00H, 'n0', 0dH, 'Ppeg0', 07H, 'c', 09aH
	DB	'[W0f0O0`0U0D0', 02H, '0', 00H, 00H		; `string'
CONST	ENDS
;	COMDAT ??_C@_1CE@PCAGAE@?$AAs0?$LD0?$NO0?s0?I0Le?b0kc?$AH?$FL?$JK0U0?$IM0f0D0?$HO0Y0?$AC?$AA?$AA@
CONST	SEGMENT
??_C@_1CE@PCAGAE@?$AAs0?$LD0?$NO0?s0?I0Le?b0kc?$AH?$FL?$JK0U0?$IM0f0D0?$HO0Y0?$AC?$AA?$AA@ DB 's'
	DB	00H, 0b3H, '0', 0deH, '0', 0f3H, '0', 0c9H, '0L0', 0e2H, 'ek0', 07H
	DB	'c', 09aH, '[U0', 08cH, '0f0D0~0Y0', 02H, '0', 00H, 00H ; `string'
CONST	ENDS
;	COMDAT ??_C@_1DM@DDNJDHDJ@?$AAn?$AA1?$AA6?$AAx0n0?$LF0?s0?W0?k?$JFw0o?$AA4?$PP?$FO?$AA2?$AA5?$AA60n?$HL?DV?r0g@
CONST	SEGMENT
??_C@_1DM@DDNJDHDJ@?$AAn?$AA1?$AA6?$AAx0n0?$LF0?s0?W0?k?$JFw0o?$AA4?$PP?$FO?$AA2?$AA5?$AA60n?$HL?DV?r0g@ DB 'n'
	DB	00H, '1', 00H, '6', 00H, 'x', 00H, 'n0', 0b5H, '0', 0f3H, '0', 0d7H
	DB	'0', 0ebH, '0w', 095H, 'o04', 00H, '^', 0ffH, '2', 00H, '5', 00H
	DB	'6', 00H, 'n0', 0c4H, '{', 0f2H, 'Vg0', 07H, 'c', 09aH, '[W0f0'
	DB	'O0`0U0D0', 02H, '0', 00H, 00H		; `string'
CONST	ENDS
;	COMDAT ??_C@_1DE@MPDFLMLF@?$AAn?$AA1?$AA6?$AAx0n0?$LF0?s0?W0?k?$JFw0o?$AA40nP?$ANep0gc?$AH?$FL?$JK0W0f@
CONST	SEGMENT
??_C@_1DE@MPDFLMLF@?$AAn?$AA1?$AA6?$AAx0n0?$LF0?s0?W0?k?$JFw0o?$AA40nP?$ANep0gc?$AH?$FL?$JK0W0f@ DB 'n'
	DB	00H, '1', 00H, '6', 00H, 'x', 00H, 'n0', 0b5H, '0', 0f3H, '0', 0d7H
	DB	'0', 0ebH, '0w', 095H, 'o04', 00H, 'n0', 0dH, 'Ppeg0', 07H, 'c'
	DB	09aH, '[W0f0O0`0U0D0', 02H, '0', 00H, 00H	; `string'
CONST	ENDS
;	COMDAT ??_C@_1BO@CKOOCKJC@0?$LF0?V0?k0?$PM0?A0?s0n?$PP?$BC?$JB?M?$FL?$JK?$HP?$KJ0g0Y0?$AC?$AA?$AA@
CONST	SEGMENT
??_C@_1BO@CKOOCKJC@0?$LF0?V0?k0?$PM0?A0?s0n?$PP?$BC?$JB?M?$FL?$JK?$HP?$KJ0g0Y0?$AC?$AA?$AA@ DB 0b5H
	DB	'0', 0d6H, '0', 0ebH, '0', 0fcH, '0', 0c1H, '0', 0f3H, '0n0', 012H
	DB	0ffH, 0cdH, 091H, 09aH, '[', 0a9H, 07fH, 'g0Y0', 02H, '0', 00H
	DB	00H						; `string'
CONST	ENDS
;	COMDAT ??_C@_1DO@BDHNDBK@0?$LF0?V0?k0?$PM0?A0?s0ng?$AA?$JAiS?$BG0?U0?i0?$LA0o?$AA0?$PP?$FO?$AA10n?$HL?DV?r@
CONST	SEGMENT
??_C@_1DO@BDHNDBK@0?$LF0?V0?k0?$PM0?A0?s0ng?$AA?$JAiS?$BG0?U0?i0?$LA0o?$AA0?$PP?$FO?$AA10n?$HL?DV?r@ DB 0b5H
	DB	'0', 0d6H, '0', 0ebH, '0', 0fcH, '0', 0c1H, '0', 0f3H, '0n0', 00H
	DB	'gi', 090H, 016H, 'S', 0d5H, '0', 0e9H, '0', 0b0H, '0o00', 00H
	DB	'^', 0ffH, '1', 00H, 'n0', 0c4H, '{', 0f2H, 'Vg0', 07H, 'c', 09aH
	DB	'[W0f0O0`0U0D0', 02H, '0', 00H, 00H		; `string'
CONST	ENDS
;	COMDAT ??_C@_08JGNHFCII@?$CJ?5?$FN?5?$DN?$DN?$DN?$DN?$AA@
CONST	SEGMENT
??_C@_08JGNHFCII@?$CJ?5?$FN?5?$DN?$DN?$DN?$DN?$AA@ DB ') ] ====', 00H ; `string'
CONST	ENDS
;	COMDAT ??_C@_0O@IDEMKPMC@?$DN?$DN?$DN?$DN?5?$FL?5Patch?$CI?$AA@
CONST	SEGMENT
??_C@_0O@IDEMKPMC@?$DN?$DN?$DN?$DN?5?$FL?5Patch?$CI?$AA@ DB '==== [ Patch'
	DB	'(', 00H					; `string'
CONST	ENDS
;	COMDAT ??_C@_03LNLKIPBE@?5?5n?$AA@
CONST	SEGMENT
??_C@_03LNLKIPBE@?5?5n?$AA@ DB '  n', 00H		; `string'
CONST	ENDS
;	COMDAT ??_C@_03HAOAIBIK@?5?5q?$AA@
CONST	SEGMENT
??_C@_03HAOAIBIK@?5?5q?$AA@ DB '  q', 00H		; `string'
CONST	ENDS
;	COMDAT ??_C@_03BEIMEEIO@?5?5u?$AA@
CONST	SEGMENT
??_C@_03BEIMEEIO@?5?5u?$AA@ DB '  u', 00H		; `string'
CONST	ENDS
;	COMDAT ??_C@_03NHFCMHKK@?5?5S?$AA@
CONST	SEGMENT
??_C@_03NHFCMHKK@?5?5S?$AA@ DB '  S', 00H		; `string'
CONST	ENDS
;	COMDAT ??_C@_03HLOHIIKG@?5?5_?$AA@
CONST	SEGMENT
??_C@_03HLOHIIKG@?5?5_?$AA@ DB '  _', 00H		; `string'
CONST	ENDS
;	COMDAT ??_C@_03ECNGODAI@?5?5s?$AA@
CONST	SEGMENT
??_C@_03ECNGODAI@?5?5s?$AA@ DB '  s', 00H		; `string'
CONST	ENDS
;	COMDAT ??_C@_03LGLNIGDI@?5?5?$EA?$AA@
CONST	SEGMENT
??_C@_03LGLNIGDI@?5?5?$EA?$AA@ DB '  @', 00H		; `string'
CONST	ENDS
;	COMDAT ??_C@_03PIKBIPPD@?5E?$EA?$AA@
CONST	SEGMENT
??_C@_03PIKBIPPD@?5E?$EA?$AA@ DB ' E@', 00H		; `string'
CONST	ENDS
;	COMDAT ??_C@_04GLMBFHCD@?5Ev?$CK?$AA@
CONST	SEGMENT
??_C@_04GLMBFHCD@?5Ev?$CK?$AA@ DB ' Ev*', 00H		; `string'
CONST	ENDS
;	COMDAT ??_C@_03HBLNBOIG@?5Ev?$AA@
CONST	SEGMENT
??_C@_03HBLNBOIG@?5Ev?$AA@ DB ' Ev', 00H		; `string'
CONST	ENDS
;	COMDAT ??_C@_04HLLCBLLC@?5Em?$CK?$AA@
CONST	SEGMENT
??_C@_04HLLCBLLC@?5Em?$CK?$AA@ DB ' Em*', 00H		; `string'
CONST	ENDS
;	COMDAT ??_C@_03NIILNFBM@?5Em?$AA@
CONST	SEGMENT
??_C@_03NIILNFBM@?5Em?$AA@ DB ' Em', 00H		; `string'
CONST	ENDS
;	COMDAT ??_C@_04HJPEKFOL@?5En?$CK?$AA@
CONST	SEGMENT
??_C@_04HJPEKFOL@?5En?$CK?$AA@ DB ' En*', 00H		; `string'
CONST	ENDS
;	COMDAT ??_C@_03PDKGIGNP@?5En?$AA@
CONST	SEGMENT
??_C@_03PDKGIGNP@?5En?$AA@ DB ' En', 00H		; `string'
; Function compile flags: /Ogsy
; File f:\nes\nsdl\src\nsc\patch.h
;	COMDAT ?get_fGate_q@Patch@@QAE_NXZ
_TEXT	SEGMENT
?get_fGate_q@Patch@@QAE_NXZ PROC NEAR			; Patch::get_fGate_q, COMDAT
; _this$ = eax

; 104  : 				bool	get_fGate_q(void){	return(m_now_Patch->fGate_q);};

  00000	8b 40 14	 mov	 eax, DWORD PTR [eax+20]
  00003	8a 40 31	 mov	 al, BYTE PTR [eax+49]
  00006	c3		 ret	 0
?get_fGate_q@Patch@@QAE_NXZ ENDP			; Patch::get_fGate_q
; Function compile flags: /Ogsy
_TEXT	ENDS
;	COMDAT ?get_iGate_q@Patch@@QAEIXZ
_TEXT	SEGMENT
?get_iGate_q@Patch@@QAEIXZ PROC NEAR			; Patch::get_iGate_q, COMDAT
; _this$ = eax

; 92   : 	unsigned	int		get_iGate_q(void){	return(m_now_Patch->iGate_q);};

  00000	8b 40 14	 mov	 eax, DWORD PTR [eax+20]
  00003	8b 40 20	 mov	 eax, DWORD PTR [eax+32]
  00006	c3		 ret	 0
?get_iGate_q@Patch@@QAEIXZ ENDP				; Patch::get_iGate_q
; Function compile flags: /Ogsy
_TEXT	ENDS
;	COMDAT ?get_fGate_u@Patch@@QAE_NXZ
_TEXT	SEGMENT
?get_fGate_u@Patch@@QAE_NXZ PROC NEAR			; Patch::get_fGate_u, COMDAT
; _this$ = eax

; 105  : 				bool	get_fGate_u(void){	return(m_now_Patch->fGate_u);};

  00000	8b 40 14	 mov	 eax, DWORD PTR [eax+20]
  00003	8a 40 32	 mov	 al, BYTE PTR [eax+50]
  00006	c3		 ret	 0
?get_fGate_u@Patch@@QAE_NXZ ENDP			; Patch::get_fGate_u
; Function compile flags: /Ogsy
_TEXT	ENDS
;	COMDAT ?get_iGate_u@Patch@@QAEIXZ
_TEXT	SEGMENT
?get_iGate_u@Patch@@QAEIXZ PROC NEAR			; Patch::get_iGate_u, COMDAT
; _this$ = eax

; 93   : 	unsigned	int		get_iGate_u(void){	return(m_now_Patch->iGate_u);};

  00000	8b 40 14	 mov	 eax, DWORD PTR [eax+20]
  00003	8b 40 24	 mov	 eax, DWORD PTR [eax+36]
  00006	c3		 ret	 0
?get_iGate_u@Patch@@QAEIXZ ENDP				; Patch::get_iGate_u
; Function compile flags: /Ogsy
_TEXT	ENDS
;	COMDAT ?get_fSub@Patch@@QAE_NXZ
_TEXT	SEGMENT
?get_fSub@Patch@@QAE_NXZ PROC NEAR			; Patch::get_fSub, COMDAT
; _this$ = eax

; 102  : 				bool	get_fSub(void){		return(m_now_Patch->fSub);};

  00000	8b 40 14	 mov	 eax, DWORD PTR [eax+20]
  00003	8a 40 2f	 mov	 al, BYTE PTR [eax+47]
  00006	c3		 ret	 0
?get_fSub@Patch@@QAE_NXZ ENDP				; Patch::get_fSub
; Function compile flags: /Ogsy
_TEXT	ENDS
;	COMDAT ?get_iSub@Patch@@QAEIXZ
_TEXT	SEGMENT
?get_iSub@Patch@@QAEIXZ PROC NEAR			; Patch::get_iSub, COMDAT
; _this$ = eax

; 91   : 	unsigned	int		get_iSub(void){		return(m_now_Patch->iSub);};

  00000	8b 40 14	 mov	 eax, DWORD PTR [eax+20]
  00003	8b 40 1c	 mov	 eax, DWORD PTR [eax+28]
  00006	c3		 ret	 0
?get_iSub@Patch@@QAEIXZ ENDP				; Patch::get_iSub
; Function compile flags: /Ogsy
_TEXT	ENDS
;	COMDAT ?get_fSub_opt@Patch@@QAE_NXZ
_TEXT	SEGMENT
?get_fSub_opt@Patch@@QAE_NXZ PROC NEAR			; Patch::get_fSub_opt, COMDAT
; _this$ = eax

; 103  : 				bool	get_fSub_opt(void){	return(m_now_Patch->fSub_opt);};

  00000	8b 40 14	 mov	 eax, DWORD PTR [eax+20]
  00003	8a 40 30	 mov	 al, BYTE PTR [eax+48]
  00006	c3		 ret	 0
?get_fSub_opt@Patch@@QAE_NXZ ENDP			; Patch::get_fSub_opt
; Function compile flags: /Ogsy
_TEXT	ENDS
;	COMDAT ?get_fKey@Patch@@QAE_NXZ
_TEXT	SEGMENT
?get_fKey@Patch@@QAE_NXZ PROC NEAR			; Patch::get_fKey, COMDAT
; _this$ = eax

; 100  : 				bool	get_fKey(void){		return(m_now_Patch->fKey);};

  00000	8b 40 14	 mov	 eax, DWORD PTR [eax+20]
  00003	8a 40 2d	 mov	 al, BYTE PTR [eax+45]
  00006	c3		 ret	 0
?get_fKey@Patch@@QAE_NXZ ENDP				; Patch::get_fKey
; Function compile flags: /Ogsy
_TEXT	ENDS
;	COMDAT ?get_iKey@Patch@@QAEIXZ
_TEXT	SEGMENT
?get_iKey@Patch@@QAEIXZ PROC NEAR			; Patch::get_iKey, COMDAT
; _this$ = eax

; 89   : 	unsigned	int		get_iKey(void){		return(m_now_Patch->iKey);};

  00000	8b 40 14	 mov	 eax, DWORD PTR [eax+20]
  00003	8b 40 14	 mov	 eax, DWORD PTR [eax+20]
  00006	c3		 ret	 0
?get_iKey@Patch@@QAEIXZ ENDP				; Patch::get_iKey
; Function compile flags: /Ogsy
_TEXT	ENDS
;	COMDAT ?get_fSweep@Patch@@QAE_NXZ
_TEXT	SEGMENT
?get_fSweep@Patch@@QAE_NXZ PROC NEAR			; Patch::get_fSweep, COMDAT
; _this$ = eax

; 101  : 				bool	get_fSweep(void){	return(m_now_Patch->fSweep);};

  00000	8b 40 14	 mov	 eax, DWORD PTR [eax+20]
  00003	8a 40 2e	 mov	 al, BYTE PTR [eax+46]
  00006	c3		 ret	 0
?get_fSweep@Patch@@QAE_NXZ ENDP				; Patch::get_fSweep
; Function compile flags: /Ogsy
_TEXT	ENDS
;	COMDAT ?get_iSweep@Patch@@QAEEXZ
_TEXT	SEGMENT
?get_iSweep@Patch@@QAEEXZ PROC NEAR			; Patch::get_iSweep, COMDAT
; _this$ = eax

; 90   : 	unsigned	char	get_iSweep(void){	return(m_now_Patch->iSweep);};

  00000	8b 40 14	 mov	 eax, DWORD PTR [eax+20]
  00003	8a 40 18	 mov	 al, BYTE PTR [eax+24]
  00006	c3		 ret	 0
?get_iSweep@Patch@@QAEEXZ ENDP				; Patch::get_iSweep
; Function compile flags: /Ogsy
_TEXT	ENDS
;	COMDAT ?get_fVoi@Patch@@QAE_NXZ
_TEXT	SEGMENT
?get_fVoi@Patch@@QAE_NXZ PROC NEAR			; Patch::get_fVoi, COMDAT
; _this$ = eax

; 95   : 				bool	get_fVoi(void){		return(m_now_Patch->fVoi);};

  00000	8b 40 14	 mov	 eax, DWORD PTR [eax+20]
  00003	8a 40 28	 mov	 al, BYTE PTR [eax+40]
  00006	c3		 ret	 0
?get_fVoi@Patch@@QAE_NXZ ENDP				; Patch::get_fVoi
; Function compile flags: /Ogsy
_TEXT	ENDS
;	COMDAT ?get_iVoi@Patch@@QAEIXZ
_TEXT	SEGMENT
?get_iVoi@Patch@@QAEIXZ PROC NEAR			; Patch::get_iVoi, COMDAT
; _this$ = eax

; 84   : 	unsigned	int		get_iVoi(void){		return(m_now_Patch->iVoi);};

  00000	8b 40 14	 mov	 eax, DWORD PTR [eax+20]
  00003	8b 00		 mov	 eax, DWORD PTR [eax]
  00005	c3		 ret	 0
?get_iVoi@Patch@@QAEIXZ ENDP				; Patch::get_iVoi
; Function compile flags: /Ogsy
_TEXT	ENDS
;	COMDAT ?get_fEvoi@Patch@@QAE_NXZ
_TEXT	SEGMENT
?get_fEvoi@Patch@@QAE_NXZ PROC NEAR			; Patch::get_fEvoi, COMDAT
; _this$ = eax

; 96   : 				bool	get_fEvoi(void){	return(m_now_Patch->fEvoi);};

  00000	8b 40 14	 mov	 eax, DWORD PTR [eax+20]
  00003	8a 40 29	 mov	 al, BYTE PTR [eax+41]
  00006	c3		 ret	 0
?get_fEvoi@Patch@@QAE_NXZ ENDP				; Patch::get_fEvoi
; Function compile flags: /Ogsy
_TEXT	ENDS
;	COMDAT ?get_iEvoi@Patch@@QAEIXZ
_TEXT	SEGMENT
?get_iEvoi@Patch@@QAEIXZ PROC NEAR			; Patch::get_iEvoi, COMDAT
; _this$ = eax

; 85   : 	unsigned	int		get_iEvoi(void){	return(m_now_Patch->iEvoi);};

  00000	8b 40 14	 mov	 eax, DWORD PTR [eax+20]
  00003	8b 40 04	 mov	 eax, DWORD PTR [eax+4]
  00006	c3		 ret	 0
?get_iEvoi@Patch@@QAEIXZ ENDP				; Patch::get_iEvoi
; Function compile flags: /Ogsy
_TEXT	ENDS
;	COMDAT ?get_fEvol@Patch@@QAE_NXZ
_TEXT	SEGMENT
?get_fEvol@Patch@@QAE_NXZ PROC NEAR			; Patch::get_fEvol, COMDAT
; _this$ = eax

; 97   : 				bool	get_fEvol(void){	return(m_now_Patch->fEvol);};

  00000	8b 40 14	 mov	 eax, DWORD PTR [eax+20]
  00003	8a 40 2a	 mov	 al, BYTE PTR [eax+42]
  00006	c3		 ret	 0
?get_fEvol@Patch@@QAE_NXZ ENDP				; Patch::get_fEvol
; Function compile flags: /Ogsy
_TEXT	ENDS
;	COMDAT ?get_sw_Evol@Patch@@QAE_NXZ
_TEXT	SEGMENT
?get_sw_Evol@Patch@@QAE_NXZ PROC NEAR			; Patch::get_sw_Evol, COMDAT
; _this$ = eax

; 108  : 				bool	get_sw_Evol(void){	return(m_now_Patch->sw_Evol);};

  00000	8b 40 14	 mov	 eax, DWORD PTR [eax+20]
  00003	8a 40 34	 mov	 al, BYTE PTR [eax+52]
  00006	c3		 ret	 0
?get_sw_Evol@Patch@@QAE_NXZ ENDP			; Patch::get_sw_Evol
; Function compile flags: /Ogsy
_TEXT	ENDS
;	COMDAT ?get_iEvol@Patch@@QAEIXZ
_TEXT	SEGMENT
?get_iEvol@Patch@@QAEIXZ PROC NEAR			; Patch::get_iEvol, COMDAT
; _this$ = eax

; 86   : 	unsigned	int		get_iEvol(void){	return(m_now_Patch->iEvol);};

  00000	8b 40 14	 mov	 eax, DWORD PTR [eax+20]
  00003	8b 40 08	 mov	 eax, DWORD PTR [eax+8]
  00006	c3		 ret	 0
?get_iEvol@Patch@@QAEIXZ ENDP				; Patch::get_iEvol
; Function compile flags: /Ogsy
_TEXT	ENDS
;	COMDAT ?get_fEm@Patch@@QAE_NXZ
_TEXT	SEGMENT
?get_fEm@Patch@@QAE_NXZ PROC NEAR			; Patch::get_fEm, COMDAT
; _this$ = eax

; 98   : 				bool	get_fEm(void){		return(m_now_Patch->fEm);};

  00000	8b 40 14	 mov	 eax, DWORD PTR [eax+20]
  00003	8a 40 2b	 mov	 al, BYTE PTR [eax+43]
  00006	c3		 ret	 0
?get_fEm@Patch@@QAE_NXZ ENDP				; Patch::get_fEm
; Function compile flags: /Ogsy
_TEXT	ENDS
;	COMDAT ?get_sw_Em@Patch@@QAE_NXZ
_TEXT	SEGMENT
?get_sw_Em@Patch@@QAE_NXZ PROC NEAR			; Patch::get_sw_Em, COMDAT
; _this$ = eax

; 109  : 				bool	get_sw_Em(void){	return(m_now_Patch->sw_Em);};

  00000	8b 40 14	 mov	 eax, DWORD PTR [eax+20]
  00003	8a 40 35	 mov	 al, BYTE PTR [eax+53]
  00006	c3		 ret	 0
?get_sw_Em@Patch@@QAE_NXZ ENDP				; Patch::get_sw_Em
; Function compile flags: /Ogsy
_TEXT	ENDS
;	COMDAT ?get_iEm@Patch@@QAEIXZ
_TEXT	SEGMENT
?get_iEm@Patch@@QAEIXZ PROC NEAR			; Patch::get_iEm, COMDAT
; _this$ = eax

; 87   : 	unsigned	int		get_iEm(void){		return(m_now_Patch->iEm);};

  00000	8b 40 14	 mov	 eax, DWORD PTR [eax+20]
  00003	8b 40 0c	 mov	 eax, DWORD PTR [eax+12]
  00006	c3		 ret	 0
?get_iEm@Patch@@QAEIXZ ENDP				; Patch::get_iEm
; Function compile flags: /Ogsy
_TEXT	ENDS
;	COMDAT ?get_fEn@Patch@@QAE_NXZ
_TEXT	SEGMENT
?get_fEn@Patch@@QAE_NXZ PROC NEAR			; Patch::get_fEn, COMDAT
; _this$ = eax

; 99   : 				bool	get_fEn(void){		return(m_now_Patch->fEn);};

  00000	8b 40 14	 mov	 eax, DWORD PTR [eax+20]
  00003	8a 40 2c	 mov	 al, BYTE PTR [eax+44]
  00006	c3		 ret	 0
?get_fEn@Patch@@QAE_NXZ ENDP				; Patch::get_fEn
; Function compile flags: /Ogsy
_TEXT	ENDS
;	COMDAT ?get_sw_En@Patch@@QAE_NXZ
_TEXT	SEGMENT
?get_sw_En@Patch@@QAE_NXZ PROC NEAR			; Patch::get_sw_En, COMDAT
; _this$ = eax

; 110  : 				bool	get_sw_En(void){	return(m_now_Patch->sw_En);};

  00000	8b 40 14	 mov	 eax, DWORD PTR [eax+20]
  00003	8a 40 36	 mov	 al, BYTE PTR [eax+54]
  00006	c3		 ret	 0
?get_sw_En@Patch@@QAE_NXZ ENDP				; Patch::get_sw_En
; Function compile flags: /Ogsy
_TEXT	ENDS
;	COMDAT ?get_iEn@Patch@@QAEIXZ
_TEXT	SEGMENT
?get_iEn@Patch@@QAEIXZ PROC NEAR			; Patch::get_iEn, COMDAT
; _this$ = eax

; 88   : 	unsigned	int		get_iEn(void){		return(m_now_Patch->iEn);};

  00000	8b 40 14	 mov	 eax, DWORD PTR [eax+20]
  00003	8b 40 10	 mov	 eax, DWORD PTR [eax+16]
  00006	c3		 ret	 0
?get_iEn@Patch@@QAEIXZ ENDP				; Patch::get_iEn
; Function compile flags: /Ogsy
; File c:\program files (x86)\microsoft visual studio .net 2003\vc7\include\xutility
_TEXT	ENDS
;	COMDAT ??$_Iter_cat@Vconst_iterator@?$_Tree@V?$_Tmap_traits@IPAUpatch_scrap@@U?$less@I@std@@V?$allocator@U?$pair@$$CBIPAUpatch_scrap@@@std@@@3@$0A@@std@@@std@@@std@@YA?AUbidirectional_iterator_tag@0@ABVconst_iterator@?$_Tree@V?$_Tmap_traits@IPAUpatch_scrap@@U?$less@I@std@@V?$allocator@U?$pair@$$CBIPAUpatch_scrap@@@std@@@3@$0A@@std@@@0@@Z
_TEXT	SEGMENT
??$_Iter_cat@Vconst_iterator@?$_Tree@V?$_Tmap_traits@IPAUpatch_scrap@@U?$less@I@std@@V?$allocator@U?$pair@$$CBIPAUpatch_scrap@@@std@@@3@$0A@@std@@@std@@@std@@YA?AUbidirectional_iterator_tag@0@ABVconst_iterator@?$_Tree@V?$_Tmap_traits@IPAUpatch_scrap@@U?$less@I@std@@V?$allocator@U?$pair@$$CBIPAUpatch_scrap@@@std@@@3@$0A@@std@@@0@@Z PROC NEAR ; std::_Iter_cat<std::_Tree<std::_Tmap_traits<unsigned int,patch_scrap *,std::less<unsigned int>,std::allocator<std::pair<unsigned int const ,patch_scrap *> >,0> >::const_iterator>, COMDAT
; ___$ReturnUdt$ = eax

; 202  : 	typename iterator_traits<_Iter>::iterator_category _Cat;
; 203  : 	return (_Cat);
; 204  : 	}

  00000	c3		 ret	 0
??$_Iter_cat@Vconst_iterator@?$_Tree@V?$_Tmap_traits@IPAUpatch_scrap@@U?$less@I@std@@V?$allocator@U?$pair@$$CBIPAUpatch_scrap@@@std@@@3@$0A@@std@@@std@@@std@@YA?AUbidirectional_iterator_tag@0@ABVconst_iterator@?$_Tree@V?$_Tmap_traits@IPAUpatch_scrap@@U?$less@I@std@@V?$allocator@U?$pair@$$CBIPAUpatch_scrap@@@std@@@3@$0A@@std@@@0@@Z ENDP ; std::_Iter_cat<std::_Tree<std::_Tmap_traits<unsigned int,patch_scrap *,std::less<unsigned int>,std::allocator<std::pair<unsigned int const ,patch_scrap *> >,0> >::const_iterator>
; Function compile flags: /Ogsy
; File c:\program files (x86)\microsoft visual studio .net 2003\vc7\include\xmemory
_TEXT	ENDS
;	COMDAT ??$_Allocate@U_Node@?$_Tree_nod@V?$_Tmap_traits@IPAUpatch_scrap@@U?$less@I@std@@V?$allocator@U?$pair@$$CBIPAUpatch_scrap@@@std@@@3@$0A@@std@@@std@@@std@@YAPAU_Node@?$_Tree_nod@V?$_Tmap_traits@IPAUpatch_scrap@@U?$less@I@std@@V?$allocator@U?$pair@$$CBIPAUpatch_scrap@@@std@@@3@$0A@@std@@@0@IPAU120@@Z
_TEXT	SEGMENT
??$_Allocate@U_Node@?$_Tree_nod@V?$_Tmap_traits@IPAUpatch_scrap@@U?$less@I@std@@V?$allocator@U?$pair@$$CBIPAUpatch_scrap@@@std@@@3@$0A@@std@@@std@@@std@@YAPAU_Node@?$_Tree_nod@V?$_Tmap_traits@IPAUpatch_scrap@@U?$less@I@std@@V?$allocator@U?$pair@$$CBIPAUpatch_scrap@@@std@@@3@$0A@@std@@@0@IPAU120@@Z PROC NEAR ; std::_Allocate<std::_Tree_nod<std::_Tmap_traits<unsigned int,patch_scrap *,std::less<unsigned int>,std::allocator<std::pair<unsigned int const ,patch_scrap *> >,0> >::_Node>, COMDAT
; __Count$ = eax

; 34   : 	return ((_Ty _FARQ *)operator new(_Count * sizeof (_Ty)));

  00000	8d 04 40	 lea	 eax, DWORD PTR [eax+eax*2]
  00003	c1 e0 03	 shl	 eax, 3
  00006	50		 push	 eax
  00007	e8 00 00 00 00	 call	 ??2@YAPAXI@Z		; operator new
  0000c	59		 pop	 ecx

; 35   : 	}

  0000d	c3		 ret	 0
??$_Allocate@U_Node@?$_Tree_nod@V?$_Tmap_traits@IPAUpatch_scrap@@U?$less@I@std@@V?$allocator@U?$pair@$$CBIPAUpatch_scrap@@@std@@@3@$0A@@std@@@std@@@std@@YAPAU_Node@?$_Tree_nod@V?$_Tmap_traits@IPAUpatch_scrap@@U?$less@I@std@@V?$allocator@U?$pair@$$CBIPAUpatch_scrap@@@std@@@3@$0A@@std@@@0@IPAU120@@Z ENDP ; std::_Allocate<std::_Tree_nod<std::_Tmap_traits<unsigned int,patch_scrap *,std::less<unsigned int>,std::allocator<std::pair<unsigned int const ,patch_scrap *> >,0> >::_Node>
; Function compile flags: /Ogsy
_TEXT	ENDS
;	COMDAT ??$?0U?$pair@$$CBIPAUpatch_scrap@@@std@@@?$allocator@U_Node@?$_Tree_nod@V?$_Tmap_traits@IPAUpatch_scrap@@U?$less@I@std@@V?$allocator@U?$pair@$$CBIPAUpatch_scrap@@@std@@@3@$0A@@std@@@std@@@std@@QAE@ABV?$allocator@U?$pair@$$CBIPAUpatch_scrap@@@std@@@1@@Z
_TEXT	SEGMENT
??$?0U?$pair@$$CBIPAUpatch_scrap@@@std@@@?$allocator@U_Node@?$_Tree_nod@V?$_Tmap_traits@IPAUpatch_scrap@@U?$less@I@std@@V?$allocator@U?$pair@$$CBIPAUpatch_scrap@@@std@@@3@$0A@@std@@@std@@@std@@QAE@ABV?$allocator@U?$pair@$$CBIPAUpatch_scrap@@@std@@@1@@Z PROC NEAR ; std::allocator<std::_Tree_nod<std::_Tmap_traits<unsigned int,patch_scrap *,std::less<unsigned int>,std::allocator<std::pair<unsigned int const ,patch_scrap *> >,0> >::_Node>::allocator<std::_Tree_nod<std::_Tmap_traits<unsigned int,patch_scrap *,std::less<unsigned int>,std::allocator<std::pair<unsigned int const ,patch_scrap *> >,0> >::_Node><std::pair<unsigned int const ,patch_scrap *> >, COMDAT
; _this$ = eax

; 121  : 		{	// construct from a related allocator (do nothing)
; 122  : 		}

  00000	c3		 ret	 0
??$?0U?$pair@$$CBIPAUpatch_scrap@@@std@@@?$allocator@U_Node@?$_Tree_nod@V?$_Tmap_traits@IPAUpatch_scrap@@U?$less@I@std@@V?$allocator@U?$pair@$$CBIPAUpatch_scrap@@@std@@@3@$0A@@std@@@std@@@std@@QAE@ABV?$allocator@U?$pair@$$CBIPAUpatch_scrap@@@std@@@1@@Z ENDP ; std::allocator<std::_Tree_nod<std::_Tmap_traits<unsigned int,patch_scrap *,std::less<unsigned int>,std::allocator<std::pair<unsigned int const ,patch_scrap *> >,0> >::_Node>::allocator<std::_Tree_nod<std::_Tmap_traits<unsigned int,patch_scrap *,std::less<unsigned int>,std::allocator<std::pair<unsigned int const ,patch_scrap *> >,0> >::_Node><std::pair<unsigned int const ,patch_scrap *> >
; Function compile flags: /Ogsy
_TEXT	ENDS
;	COMDAT ??$?0U?$pair@$$CBIPAUpatch_scrap@@@std@@@?$allocator@PAU_Node@?$_Tree_nod@V?$_Tmap_traits@IPAUpatch_scrap@@U?$less@I@std@@V?$allocator@U?$pair@$$CBIPAUpatch_scrap@@@std@@@3@$0A@@std@@@std@@@std@@QAE@ABV?$allocator@U?$pair@$$CBIPAUpatch_scrap@@@std@@@1@@Z
_TEXT	SEGMENT
??$?0U?$pair@$$CBIPAUpatch_scrap@@@std@@@?$allocator@PAU_Node@?$_Tree_nod@V?$_Tmap_traits@IPAUpatch_scrap@@U?$less@I@std@@V?$allocator@U?$pair@$$CBIPAUpatch_scrap@@@std@@@3@$0A@@std@@@std@@@std@@QAE@ABV?$allocator@U?$pair@$$CBIPAUpatch_scrap@@@std@@@1@@Z PROC NEAR ; std::allocator<std::_Tree_nod<std::_Tmap_traits<unsigned int,patch_scrap *,std::less<unsigned int>,std::allocator<std::pair<unsigned int const ,patch_scrap *> >,0> >::_Node *>::allocator<std::_Tree_nod<std::_Tmap_traits<unsigned int,patch_scrap *,std::less<unsigned int>,std::allocator<std::pair<unsigned int const ,patch_scrap *> >,0> >::_Node *><std::pair<unsigned int const ,patch_scrap *> >, COMDAT
; _this$ = eax

; 121  : 		{	// construct from a related allocator (do nothing)
; 122  : 		}

  00000	c3		 ret	 0
??$?0U?$pair@$$CBIPAUpatch_scrap@@@std@@@?$allocator@PAU_Node@?$_Tree_nod@V?$_Tmap_traits@IPAUpatch_scrap@@U?$less@I@std@@V?$allocator@U?$pair@$$CBIPAUpatch_scrap@@@std@@@3@$0A@@std@@@std@@@std@@QAE@ABV?$allocator@U?$pair@$$CBIPAUpatch_scrap@@@std@@@1@@Z ENDP ; std::allocator<std::_Tree_nod<std::_Tmap_traits<unsigned int,patch_scrap *,std::less<unsigned int>,std::allocator<std::pair<unsigned int const ,patch_scrap *> >,0> >::_Node *>::allocator<std::_Tree_nod<std::_Tmap_traits<unsigned int,patch_scrap *,std::less<unsigned int>,std::allocator<std::pair<unsigned int const ,patch_scrap *> >,0> >::_Node *><std::pair<unsigned int const ,patch_scrap *> >
; Function compile flags: /Ogsy
_TEXT	ENDS
;	COMDAT ??$_Destroy@PAU_Node@?$_Tree_nod@V?$_Tmap_traits@IPAUpatch_scrap@@U?$less@I@std@@V?$allocator@U?$pair@$$CBIPAUpatch_scrap@@@std@@@3@$0A@@std@@@std@@@std@@YAXPAPAU_Node@?$_Tree_nod@V?$_Tmap_traits@IPAUpatch_scrap@@U?$less@I@std@@V?$allocator@U?$pair@$$CBIPAUpatch_scrap@@@std@@@3@$0A@@std@@@0@@Z
_TEXT	SEGMENT
??$_Destroy@PAU_Node@?$_Tree_nod@V?$_Tmap_traits@IPAUpatch_scrap@@U?$less@I@std@@V?$allocator@U?$pair@$$CBIPAUpatch_scrap@@@std@@@3@$0A@@std@@@std@@@std@@YAXPAPAU_Node@?$_Tree_nod@V?$_Tmap_traits@IPAUpatch_scrap@@U?$less@I@std@@V?$allocator@U?$pair@$$CBIPAUpatch_scrap@@@std@@@3@$0A@@std@@@0@@Z PROC NEAR ; std::_Destroy<std::_Tree_nod<std::_Tmap_traits<unsigned int,patch_scrap *,std::less<unsigned int>,std::allocator<std::pair<unsigned int const ,patch_scrap *> >,0> >::_Node *>, COMDAT

; 49   : 	_DESTRUCTOR(_Ty, _Ptr);
; 50   : 	}

  00000	c3		 ret	 0
??$_Destroy@PAU_Node@?$_Tree_nod@V?$_Tmap_traits@IPAUpatch_scrap@@U?$less@I@std@@V?$allocator@U?$pair@$$CBIPAUpatch_scrap@@@std@@@3@$0A@@std@@@std@@@std@@YAXPAPAU_Node@?$_Tree_nod@V?$_Tmap_traits@IPAUpatch_scrap@@U?$less@I@std@@V?$allocator@U?$pair@$$CBIPAUpatch_scrap@@@std@@@3@$0A@@std@@@0@@Z ENDP ; std::_Destroy<std::_Tree_nod<std::_Tmap_traits<unsigned int,patch_scrap *,std::less<unsigned int>,std::allocator<std::pair<unsigned int const ,patch_scrap *> >,0> >::_Node *>
; Function compile flags: /Ogsy
_TEXT	ENDS
;	COMDAT ??$_Destroy@U_Node@?$_Tree_nod@V?$_Tmap_traits@IPAUpatch_scrap@@U?$less@I@std@@V?$allocator@U?$pair@$$CBIPAUpatch_scrap@@@std@@@3@$0A@@std@@@std@@@std@@YAXPAU_Node@?$_Tree_nod@V?$_Tmap_traits@IPAUpatch_scrap@@U?$less@I@std@@V?$allocator@U?$pair@$$CBIPAUpatch_scrap@@@std@@@3@$0A@@std@@@0@@Z
_TEXT	SEGMENT
??$_Destroy@U_Node@?$_Tree_nod@V?$_Tmap_traits@IPAUpatch_scrap@@U?$less@I@std@@V?$allocator@U?$pair@$$CBIPAUpatch_scrap@@@std@@@3@$0A@@std@@@std@@@std@@YAXPAU_Node@?$_Tree_nod@V?$_Tmap_traits@IPAUpatch_scrap@@U?$less@I@std@@V?$allocator@U?$pair@$$CBIPAUpatch_scrap@@@std@@@3@$0A@@std@@@0@@Z PROC NEAR ; std::_Destroy<std::_Tree_nod<std::_Tmap_traits<unsigned int,patch_scrap *,std::less<unsigned int>,std::allocator<std::pair<unsigned int const ,patch_scrap *> >,0> >::_Node>, COMDAT

; 49   : 	_DESTRUCTOR(_Ty, _Ptr);
; 50   : 	}

  00000	c3		 ret	 0
??$_Destroy@U_Node@?$_Tree_nod@V?$_Tmap_traits@IPAUpatch_scrap@@U?$less@I@std@@V?$allocator@U?$pair@$$CBIPAUpatch_scrap@@@std@@@3@$0A@@std@@@std@@@std@@YAXPAU_Node@?$_Tree_nod@V?$_Tmap_traits@IPAUpatch_scrap@@U?$less@I@std@@V?$allocator@U?$pair@$$CBIPAUpatch_scrap@@@std@@@3@$0A@@std@@@0@@Z ENDP ; std::_Destroy<std::_Tree_nod<std::_Tmap_traits<unsigned int,patch_scrap *,std::less<unsigned int>,std::allocator<std::pair<unsigned int const ,patch_scrap *> >,0> >::_Node>
; Function compile flags: /Ogsy
; File c:\program files (x86)\microsoft visual studio .net 2003\vc7\include\map
_TEXT	ENDS
;	COMDAT ??0?$_Tmap_traits@IPAUpatch_scrap@@U?$less@I@std@@V?$allocator@U?$pair@$$CBIPAUpatch_scrap@@@std@@@3@$0A@@std@@QAE@U?$less@I@1@@Z
_TEXT	SEGMENT
__Parg$ = 8						; size = 1
??0?$_Tmap_traits@IPAUpatch_scrap@@U?$less@I@std@@V?$allocator@U?$pair@$$CBIPAUpatch_scrap@@@std@@@3@$0A@@std@@QAE@U?$less@I@1@@Z PROC NEAR ; std::_Tmap_traits<unsigned int,patch_scrap *,std::less<unsigned int>,std::allocator<std::pair<unsigned int const ,patch_scrap *> >,0>::_Tmap_traits<unsigned int,patch_scrap *,std::less<unsigned int>,std::allocator<std::pair<unsigned int const ,patch_scrap *> >,0>, COMDAT
; _this$ = eax

; 39   : 		}

  00000	c2 04 00	 ret	 4
??0?$_Tmap_traits@IPAUpatch_scrap@@U?$less@I@std@@V?$allocator@U?$pair@$$CBIPAUpatch_scrap@@@std@@@3@$0A@@std@@QAE@U?$less@I@1@@Z ENDP ; std::_Tmap_traits<unsigned int,patch_scrap *,std::less<unsigned int>,std::allocator<std::pair<unsigned int const ,patch_scrap *> >,0>::_Tmap_traits<unsigned int,patch_scrap *,std::less<unsigned int>,std::allocator<std::pair<unsigned int const ,patch_scrap *> >,0>
; Function compile flags: /Ogsy
; File c:\program files (x86)\microsoft visual studio .net 2003\vc7\include\xtree
_TEXT	ENDS
;	COMDAT ??0_Node@?$_Tree_nod@V?$_Tmap_traits@IPAUpatch_scrap@@U?$less@I@std@@V?$allocator@U?$pair@$$CBIPAUpatch_scrap@@@std@@@3@$0A@@std@@@std@@QAE@PAU012@00ABU?$pair@$$CBIPAUpatch_scrap@@@2@D@Z
_TEXT	SEGMENT
__Parg$ = 8						; size = 4
__Rarg$ = 12						; size = 4
__Carg$ = 16						; size = 1
??0_Node@?$_Tree_nod@V?$_Tmap_traits@IPAUpatch_scrap@@U?$less@I@std@@V?$allocator@U?$pair@$$CBIPAUpatch_scrap@@@std@@@3@$0A@@std@@@std@@QAE@PAU012@00ABU?$pair@$$CBIPAUpatch_scrap@@@2@D@Z PROC NEAR ; std::_Tree_nod<std::_Tmap_traits<unsigned int,patch_scrap *,std::less<unsigned int>,std::allocator<std::pair<unsigned int const ,patch_scrap *> >,0> >::_Node::_Node, COMDAT
; _this$ = eax
; __Larg$ = edx
; __Val$ = ecx

; 40   : 			{	// construct a node with value

  00000	89 10		 mov	 DWORD PTR [eax], edx
  00002	8b 54 24 04	 mov	 edx, DWORD PTR __Parg$[esp-4]
  00006	89 50 04	 mov	 DWORD PTR [eax+4], edx
  00009	8b 54 24 08	 mov	 edx, DWORD PTR __Rarg$[esp-4]
  0000d	89 50 08	 mov	 DWORD PTR [eax+8], edx
  00010	8b 11		 mov	 edx, DWORD PTR [ecx]
  00012	89 50 0c	 mov	 DWORD PTR [eax+12], edx
  00015	8b 49 04	 mov	 ecx, DWORD PTR [ecx+4]
  00018	89 48 10	 mov	 DWORD PTR [eax+16], ecx
  0001b	8a 4c 24 0c	 mov	 cl, BYTE PTR __Carg$[esp-4]
  0001f	88 48 14	 mov	 BYTE PTR [eax+20], cl
  00022	c6 40 15 00	 mov	 BYTE PTR [eax+21], 0

; 41   : 			}

  00026	c2 0c 00	 ret	 12			; 0000000cH
??0_Node@?$_Tree_nod@V?$_Tmap_traits@IPAUpatch_scrap@@U?$less@I@std@@V?$allocator@U?$pair@$$CBIPAUpatch_scrap@@@std@@@3@$0A@@std@@@std@@QAE@PAU012@00ABU?$pair@$$CBIPAUpatch_scrap@@@2@D@Z ENDP ; std::_Tree_nod<std::_Tmap_traits<unsigned int,patch_scrap *,std::less<unsigned int>,std::allocator<std::pair<unsigned int const ,patch_scrap *> >,0> >::_Node::_Node
; Function compile flags: /Ogsy
; File c:\program files (x86)\microsoft visual studio .net 2003\vc7\include\xmemory
_TEXT	ENDS
;	COMDAT ?allocate@?$allocator@U_Node@?$_Tree_nod@V?$_Tmap_traits@IPAUpatch_scrap@@U?$less@I@std@@V?$allocator@U?$pair@$$CBIPAUpatch_scrap@@@std@@@3@$0A@@std@@@std@@@std@@QAEPAU_Node@?$_Tree_nod@V?$_Tmap_traits@IPAUpatch_scrap@@U?$less@I@std@@V?$allocator@U?$pair@$$CBIPAUpatch_scrap@@@std@@@3@$0A@@std@@@2@I@Z
_TEXT	SEGMENT
?allocate@?$allocator@U_Node@?$_Tree_nod@V?$_Tmap_traits@IPAUpatch_scrap@@U?$less@I@std@@V?$allocator@U?$pair@$$CBIPAUpatch_scrap@@@std@@@3@$0A@@std@@@std@@@std@@QAEPAU_Node@?$_Tree_nod@V?$_Tmap_traits@IPAUpatch_scrap@@U?$less@I@std@@V?$allocator@U?$pair@$$CBIPAUpatch_scrap@@@std@@@3@$0A@@std@@@2@I@Z PROC NEAR ; std::allocator<std::_Tree_nod<std::_Tmap_traits<unsigned int,patch_scrap *,std::less<unsigned int>,std::allocator<std::pair<unsigned int const ,patch_scrap *> >,0> >::_Node>::allocate, COMDAT
; __Count$ = eax

; 137  : 		return (_Allocate(_Count, (pointer)0));

  00000	8d 04 40	 lea	 eax, DWORD PTR [eax+eax*2]
  00003	c1 e0 03	 shl	 eax, 3
  00006	50		 push	 eax
  00007	e8 00 00 00 00	 call	 ??2@YAPAXI@Z		; operator new
  0000c	59		 pop	 ecx

; 138  : 		}

  0000d	c3		 ret	 0
?allocate@?$allocator@U_Node@?$_Tree_nod@V?$_Tmap_traits@IPAUpatch_scrap@@U?$less@I@std@@V?$allocator@U?$pair@$$CBIPAUpatch_scrap@@@std@@@3@$0A@@std@@@std@@@std@@QAEPAU_Node@?$_Tree_nod@V?$_Tmap_traits@IPAUpatch_scrap@@U?$less@I@std@@V?$allocator@U?$pair@$$CBIPAUpatch_scrap@@@std@@@3@$0A@@std@@@2@I@Z ENDP ; std::allocator<std::_Tree_nod<std::_Tmap_traits<unsigned int,patch_scrap *,std::less<unsigned int>,std::allocator<std::pair<unsigned int const ,patch_scrap *> >,0> >::_Node>::allocate
; Function compile flags: /Ogsy
_TEXT	ENDS
;	COMDAT ?max_size@?$allocator@U?$pair@$$CBIPAUpatch_scrap@@@std@@@std@@QBEIXZ
_TEXT	SEGMENT
?max_size@?$allocator@U?$pair@$$CBIPAUpatch_scrap@@@std@@@std@@QBEIXZ PROC NEAR ; std::allocator<std::pair<unsigned int const ,patch_scrap *> >::max_size, COMDAT

; 157  : 		_SIZT _Count = (_SIZT)(-1) / sizeof (_Ty);
; 158  : 		return (0 < _Count ? _Count : 1);

  00000	b8 ff ff ff 1f	 mov	 eax, 536870911		; 1fffffffH

; 159  : 		}

  00005	c3		 ret	 0
?max_size@?$allocator@U?$pair@$$CBIPAUpatch_scrap@@@std@@@std@@QBEIXZ ENDP ; std::allocator<std::pair<unsigned int const ,patch_scrap *> >::max_size
; Function compile flags: /Ogsy
; File c:\program files (x86)\microsoft visual studio .net 2003\vc7\include\xtree
_TEXT	ENDS
;	COMDAT ??0?$_Tree_nod@V?$_Tmap_traits@IPAUpatch_scrap@@U?$less@I@std@@V?$allocator@U?$pair@$$CBIPAUpatch_scrap@@@std@@@3@$0A@@std@@@std@@IAE@ABU?$less@I@1@V?$allocator@U?$pair@$$CBIPAUpatch_scrap@@@std@@@1@@Z
_TEXT	SEGMENT
__Al$ = 8						; size = 1
??0?$_Tree_nod@V?$_Tmap_traits@IPAUpatch_scrap@@U?$less@I@std@@V?$allocator@U?$pair@$$CBIPAUpatch_scrap@@@std@@@3@$0A@@std@@@std@@IAE@ABU?$less@I@1@V?$allocator@U?$pair@$$CBIPAUpatch_scrap@@@std@@@1@@Z PROC NEAR ; std::_Tree_nod<std::_Tmap_traits<unsigned int,patch_scrap *,std::less<unsigned int>,std::allocator<std::pair<unsigned int const ,patch_scrap *> >,0> >::_Tree_nod<std::_Tmap_traits<unsigned int,patch_scrap *,std::less<unsigned int>,std::allocator<std::pair<unsigned int const ,patch_scrap *> >,0> >, COMDAT
; _this$ = eax

; 55   : 		}

  00000	c2 04 00	 ret	 4
??0?$_Tree_nod@V?$_Tmap_traits@IPAUpatch_scrap@@U?$less@I@std@@V?$allocator@U?$pair@$$CBIPAUpatch_scrap@@@std@@@3@$0A@@std@@@std@@IAE@ABU?$less@I@1@V?$allocator@U?$pair@$$CBIPAUpatch_scrap@@@std@@@1@@Z ENDP ; std::_Tree_nod<std::_Tmap_traits<unsigned int,patch_scrap *,std::less<unsigned int>,std::allocator<std::pair<unsigned int const ,patch_scrap *> >,0> >::_Tree_nod<std::_Tmap_traits<unsigned int,patch_scrap *,std::less<unsigned int>,std::allocator<std::pair<unsigned int const ,patch_scrap *> >,0> >
; Function compile flags: /Ogsy
; File c:\program files (x86)\microsoft visual studio .net 2003\vc7\include\utility
_TEXT	ENDS
;	COMDAT ??0?$pair@Viterator@?$_Tree@V?$_Tmap_traits@IPAUpatch_scrap@@U?$less@I@std@@V?$allocator@U?$pair@$$CBIPAUpatch_scrap@@@std@@@3@$0A@@std@@@std@@_N@std@@QAE@ABViterator@?$_Tree@V?$_Tmap_traits@IPAUpatch_scrap@@U?$less@I@std@@V?$allocator@U?$pair@$$CBIPAUpatch_scrap@@@std@@@3@$0A@@std@@@1@AB_N@Z
_TEXT	SEGMENT
__Val2$ = 8						; size = 4
??0?$pair@Viterator@?$_Tree@V?$_Tmap_traits@IPAUpatch_scrap@@U?$less@I@std@@V?$allocator@U?$pair@$$CBIPAUpatch_scrap@@@std@@@3@$0A@@std@@@std@@_N@std@@QAE@ABViterator@?$_Tree@V?$_Tmap_traits@IPAUpatch_scrap@@U?$less@I@std@@V?$allocator@U?$pair@$$CBIPAUpatch_scrap@@@std@@@3@$0A@@std@@@1@AB_N@Z PROC NEAR ; std::pair<std::_Tree<std::_Tmap_traits<unsigned int,patch_scrap *,std::less<unsigned int>,std::allocator<std::pair<unsigned int const ,patch_scrap *> >,0> >::iterator,bool>::pair<std::_Tree<std::_Tmap_traits<unsigned int,patch_scrap *,std::less<unsigned int>,std::allocator<std::pair<unsigned int const ,patch_scrap *> >,0> >::iterator,bool>, COMDAT
; _this$ = eax
; __Val1$ = ecx

; 34   : 		{	// construct from specified values

  00000	8b 09		 mov	 ecx, DWORD PTR [ecx]
  00002	89 08		 mov	 DWORD PTR [eax], ecx
  00004	8b 4c 24 04	 mov	 ecx, DWORD PTR __Val2$[esp-4]
  00008	8a 09		 mov	 cl, BYTE PTR [ecx]
  0000a	88 48 04	 mov	 BYTE PTR [eax+4], cl

; 35   : 		}

  0000d	c2 04 00	 ret	 4
??0?$pair@Viterator@?$_Tree@V?$_Tmap_traits@IPAUpatch_scrap@@U?$less@I@std@@V?$allocator@U?$pair@$$CBIPAUpatch_scrap@@@std@@@3@$0A@@std@@@std@@_N@std@@QAE@ABViterator@?$_Tree@V?$_Tmap_traits@IPAUpatch_scrap@@U?$less@I@std@@V?$allocator@U?$pair@$$CBIPAUpatch_scrap@@@std@@@3@$0A@@std@@@1@AB_N@Z ENDP ; std::pair<std::_Tree<std::_Tmap_traits<unsigned int,patch_scrap *,std::less<unsigned int>,std::allocator<std::pair<unsigned int const ,patch_scrap *> >,0> >::iterator,bool>::pair<std::_Tree<std::_Tmap_traits<unsigned int,patch_scrap *,std::less<unsigned int>,std::allocator<std::pair<unsigned int const ,patch_scrap *> >,0> >::iterator,bool>
; Function compile flags: /Ogsy
; File c:\program files (x86)\microsoft visual studio .net 2003\vc7\include\xtree
_TEXT	ENDS
;	COMDAT ?max_size@?$_Tree@V?$_Tmap_traits@IPAUpatch_scrap@@U?$less@I@std@@V?$allocator@U?$pair@$$CBIPAUpatch_scrap@@@std@@@3@$0A@@std@@@std@@QBEIXZ
_TEXT	SEGMENT
?max_size@?$_Tree@V?$_Tmap_traits@IPAUpatch_scrap@@U?$less@I@std@@V?$allocator@U?$pair@$$CBIPAUpatch_scrap@@@std@@@3@$0A@@std@@@std@@QBEIXZ PROC NEAR ; std::_Tree<std::_Tmap_traits<unsigned int,patch_scrap *,std::less<unsigned int>,std::allocator<std::pair<unsigned int const ,patch_scrap *> >,0> >::max_size, COMDAT

; 453  : 		return (this->_Alval.max_size());

  00000	b8 ff ff ff 1f	 mov	 eax, 536870911		; 1fffffffH

; 454  : 		}

  00005	c3		 ret	 0
?max_size@?$_Tree@V?$_Tmap_traits@IPAUpatch_scrap@@U?$less@I@std@@V?$allocator@U?$pair@$$CBIPAUpatch_scrap@@@std@@@3@$0A@@std@@@std@@QBEIXZ ENDP ; std::_Tree<std::_Tmap_traits<unsigned int,patch_scrap *,std::less<unsigned int>,std::allocator<std::pair<unsigned int const ,patch_scrap *> >,0> >::max_size
; Function compile flags: /Ogsy
_TEXT	ENDS
;	COMDAT ?_Color@?$_Tree@V?$_Tmap_traits@IPAUpatch_scrap@@U?$less@I@std@@V?$allocator@U?$pair@$$CBIPAUpatch_scrap@@@std@@@3@$0A@@std@@@std@@KAAADPAU_Node@?$_Tree_nod@V?$_Tmap_traits@IPAUpatch_scrap@@U?$less@I@std@@V?$allocator@U?$pair@$$CBIPAUpatch_scrap@@@std@@@3@$0A@@std@@@2@@Z
_TEXT	SEGMENT
?_Color@?$_Tree@V?$_Tmap_traits@IPAUpatch_scrap@@U?$less@I@std@@V?$allocator@U?$pair@$$CBIPAUpatch_scrap@@@std@@@3@$0A@@std@@@std@@KAAADPAU_Node@?$_Tree_nod@V?$_Tmap_traits@IPAUpatch_scrap@@U?$less@I@std@@V?$allocator@U?$pair@$$CBIPAUpatch_scrap@@@std@@@3@$0A@@std@@@2@@Z PROC NEAR ; std::_Tree<std::_Tmap_traits<unsigned int,patch_scrap *,std::less<unsigned int>,std::allocator<std::pair<unsigned int const ,patch_scrap *> >,0> >::_Color, COMDAT
; __Pnode$ = eax

; 132  : 		return ((_Charref)(*_Pnode)._Color);

  00000	83 c0 14	 add	 eax, 20			; 00000014H

; 133  : 		}

  00003	c3		 ret	 0
?_Color@?$_Tree@V?$_Tmap_traits@IPAUpatch_scrap@@U?$less@I@std@@V?$allocator@U?$pair@$$CBIPAUpatch_scrap@@@std@@@3@$0A@@std@@@std@@KAAADPAU_Node@?$_Tree_nod@V?$_Tmap_traits@IPAUpatch_scrap@@U?$less@I@std@@V?$allocator@U?$pair@$$CBIPAUpatch_scrap@@@std@@@3@$0A@@std@@@2@@Z ENDP ; std::_Tree<std::_Tmap_traits<unsigned int,patch_scrap *,std::less<unsigned int>,std::allocator<std::pair<unsigned int const ,patch_scrap *> >,0> >::_Color
; Function compile flags: /Ogsy
; File c:\program files (x86)\microsoft visual studio .net 2003\vc7\include\utility
_TEXT	ENDS
;	COMDAT ??0?$pair@Vconst_iterator@?$_Tree@V?$_Tmap_traits@IPAUpatch_scrap@@U?$less@I@std@@V?$allocator@U?$pair@$$CBIPAUpatch_scrap@@@std@@@3@$0A@@std@@@std@@V123@@std@@QAE@ABVconst_iterator@?$_Tree@V?$_Tmap_traits@IPAUpatch_scrap@@U?$less@I@std@@V?$allocator@U?$pair@$$CBIPAUpatch_scrap@@@std@@@3@$0A@@std@@@1@0@Z
_TEXT	SEGMENT
__Val2$ = 8						; size = 4
??0?$pair@Vconst_iterator@?$_Tree@V?$_Tmap_traits@IPAUpatch_scrap@@U?$less@I@std@@V?$allocator@U?$pair@$$CBIPAUpatch_scrap@@@std@@@3@$0A@@std@@@std@@V123@@std@@QAE@ABVconst_iterator@?$_Tree@V?$_Tmap_traits@IPAUpatch_scrap@@U?$less@I@std@@V?$allocator@U?$pair@$$CBIPAUpatch_scrap@@@std@@@3@$0A@@std@@@1@0@Z PROC NEAR ; std::pair<std::_Tree<std::_Tmap_traits<unsigned int,patch_scrap *,std::less<unsigned int>,std::allocator<std::pair<unsigned int const ,patch_scrap *> >,0> >::const_iterator,std::_Tree<std::_Tmap_traits<unsigned int,patch_scrap *,std::less<unsigned int>,std::allocator<std::pair<unsigned int const ,patch_scrap *> >,0> >::const_iterator>::pair<std::_Tree<std::_Tmap_traits<unsigned int,patch_scrap *,std::less<unsigned int>,std::allocator<std::pair<unsigned int const ,patch_scrap *> >,0> >::const_iterator,std::_Tree<std::_Tmap_traits<unsigned int,patch_scrap *,std::less<unsigned int>,std::allocator<std::pair<unsigned int const ,patch_scrap *> >,0> >::const_iterator>, COMDAT
; _this$ = eax
; __Val1$ = ecx

; 34   : 		{	// construct from specified values

  00000	8b 09		 mov	 ecx, DWORD PTR [ecx]
  00002	89 08		 mov	 DWORD PTR [eax], ecx
  00004	8b 4c 24 04	 mov	 ecx, DWORD PTR __Val2$[esp-4]
  00008	8b 09		 mov	 ecx, DWORD PTR [ecx]
  0000a	89 48 04	 mov	 DWORD PTR [eax+4], ecx

; 35   : 		}

  0000d	c2 04 00	 ret	 4
??0?$pair@Vconst_iterator@?$_Tree@V?$_Tmap_traits@IPAUpatch_scrap@@U?$less@I@std@@V?$allocator@U?$pair@$$CBIPAUpatch_scrap@@@std@@@3@$0A@@std@@@std@@V123@@std@@QAE@ABVconst_iterator@?$_Tree@V?$_Tmap_traits@IPAUpatch_scrap@@U?$less@I@std@@V?$allocator@U?$pair@$$CBIPAUpatch_scrap@@@std@@@3@$0A@@std@@@1@0@Z ENDP ; std::pair<std::_Tree<std::_Tmap_traits<unsigned int,patch_scrap *,std::less<unsigned int>,std::allocator<std::pair<unsigned int const ,patch_scrap *> >,0> >::const_iterator,std::_Tree<std::_Tmap_traits<unsigned int,patch_scrap *,std::less<unsigned int>,std::allocator<std::pair<unsigned int const ,patch_scrap *> >,0> >::const_iterator>::pair<std::_Tree<std::_Tmap_traits<unsigned int,patch_scrap *,std::less<unsigned int>,std::allocator<std::pair<unsigned int const ,patch_scrap *> >,0> >::const_iterator,std::_Tree<std::_Tmap_traits<unsigned int,patch_scrap *,std::less<unsigned int>,std::allocator<std::pair<unsigned int const ,patch_scrap *> >,0> >::const_iterator>
; Function compile flags: /Ogsy
; File c:\program files (x86)\microsoft visual studio .net 2003\vc7\include\xtree
_TEXT	ENDS
;	COMDAT ??0const_iterator@?$_Tree@V?$_Tmap_traits@IPAUpatch_scrap@@U?$less@I@std@@V?$allocator@U?$pair@$$CBIPAUpatch_scrap@@@std@@@3@$0A@@std@@@std@@QAE@PAU_Node@?$_Tree_nod@V?$_Tmap_traits@IPAUpatch_scrap@@U?$less@I@std@@V?$allocator@U?$pair@$$CBIPAUpatch_scrap@@@std@@@3@$0A@@std@@@2@@Z
_TEXT	SEGMENT
??0const_iterator@?$_Tree@V?$_Tmap_traits@IPAUpatch_scrap@@U?$less@I@std@@V?$allocator@U?$pair@$$CBIPAUpatch_scrap@@@std@@@3@$0A@@std@@@std@@QAE@PAU_Node@?$_Tree_nod@V?$_Tmap_traits@IPAUpatch_scrap@@U?$less@I@std@@V?$allocator@U?$pair@$$CBIPAUpatch_scrap@@@std@@@3@$0A@@std@@@2@@Z PROC NEAR ; std::_Tree<std::_Tmap_traits<unsigned int,patch_scrap *,std::less<unsigned int>,std::allocator<std::pair<unsigned int const ,patch_scrap *> >,0> >::const_iterator::const_iterator, COMDAT
; _this$ = eax
; __Pnode$ = ecx

; 200  : 			{	// construct with node pointer _Pnode

  00000	89 08		 mov	 DWORD PTR [eax], ecx

; 201  : 			}

  00002	c3		 ret	 0
??0const_iterator@?$_Tree@V?$_Tmap_traits@IPAUpatch_scrap@@U?$less@I@std@@V?$allocator@U?$pair@$$CBIPAUpatch_scrap@@@std@@@3@$0A@@std@@@std@@QAE@PAU_Node@?$_Tree_nod@V?$_Tmap_traits@IPAUpatch_scrap@@U?$less@I@std@@V?$allocator@U?$pair@$$CBIPAUpatch_scrap@@@std@@@3@$0A@@std@@@2@@Z ENDP ; std::_Tree<std::_Tmap_traits<unsigned int,patch_scrap *,std::less<unsigned int>,std::allocator<std::pair<unsigned int const ,patch_scrap *> >,0> >::const_iterator::const_iterator
; Function compile flags: /Ogsy
; File c:\program files (x86)\microsoft visual studio .net 2003\vc7\include\xmemory
_TEXT	ENDS
;	COMDAT ?destroy@?$allocator@PAU_Node@?$_Tree_nod@V?$_Tmap_traits@IPAUpatch_scrap@@U?$less@I@std@@V?$allocator@U?$pair@$$CBIPAUpatch_scrap@@@std@@@3@$0A@@std@@@std@@@std@@QAEXPAPAU_Node@?$_Tree_nod@V?$_Tmap_traits@IPAUpatch_scrap@@U?$less@I@std@@V?$allocator@U?$pair@$$CBIPAUpatch_scrap@@@std@@@3@$0A@@std@@@2@@Z
_TEXT	SEGMENT
?destroy@?$allocator@PAU_Node@?$_Tree_nod@V?$_Tmap_traits@IPAUpatch_scrap@@U?$less@I@std@@V?$allocator@U?$pair@$$CBIPAUpatch_scrap@@@std@@@3@$0A@@std@@@std@@@std@@QAEXPAPAU_Node@?$_Tree_nod@V?$_Tmap_traits@IPAUpatch_scrap@@U?$less@I@std@@V?$allocator@U?$pair@$$CBIPAUpatch_scrap@@@std@@@3@$0A@@std@@@2@@Z PROC NEAR ; std::allocator<std::_Tree_nod<std::_Tmap_traits<unsigned int,patch_scrap *,std::less<unsigned int>,std::allocator<std::pair<unsigned int const ,patch_scrap *> >,0> >::_Node *>::destroy, COMDAT

; 152  : 		_Destroy(_Ptr);
; 153  : 		}

  00000	c3		 ret	 0
?destroy@?$allocator@PAU_Node@?$_Tree_nod@V?$_Tmap_traits@IPAUpatch_scrap@@U?$less@I@std@@V?$allocator@U?$pair@$$CBIPAUpatch_scrap@@@std@@@3@$0A@@std@@@std@@@std@@QAEXPAPAU_Node@?$_Tree_nod@V?$_Tmap_traits@IPAUpatch_scrap@@U?$less@I@std@@V?$allocator@U?$pair@$$CBIPAUpatch_scrap@@@std@@@3@$0A@@std@@@2@@Z ENDP ; std::allocator<std::_Tree_nod<std::_Tmap_traits<unsigned int,patch_scrap *,std::less<unsigned int>,std::allocator<std::pair<unsigned int const ,patch_scrap *> >,0> >::_Node *>::destroy
; Function compile flags: /Ogsy
_TEXT	ENDS
;	COMDAT ?destroy@?$allocator@U_Node@?$_Tree_nod@V?$_Tmap_traits@IPAUpatch_scrap@@U?$less@I@std@@V?$allocator@U?$pair@$$CBIPAUpatch_scrap@@@std@@@3@$0A@@std@@@std@@@std@@QAEXPAU_Node@?$_Tree_nod@V?$_Tmap_traits@IPAUpatch_scrap@@U?$less@I@std@@V?$allocator@U?$pair@$$CBIPAUpatch_scrap@@@std@@@3@$0A@@std@@@2@@Z
_TEXT	SEGMENT
?destroy@?$allocator@U_Node@?$_Tree_nod@V?$_Tmap_traits@IPAUpatch_scrap@@U?$less@I@std@@V?$allocator@U?$pair@$$CBIPAUpatch_scrap@@@std@@@3@$0A@@std@@@std@@@std@@QAEXPAU_Node@?$_Tree_nod@V?$_Tmap_traits@IPAUpatch_scrap@@U?$less@I@std@@V?$allocator@U?$pair@$$CBIPAUpatch_scrap@@@std@@@3@$0A@@std@@@2@@Z PROC NEAR ; std::allocator<std::_Tree_nod<std::_Tmap_traits<unsigned int,patch_scrap *,std::less<unsigned int>,std::allocator<std::pair<unsigned int const ,patch_scrap *> >,0> >::_Node>::destroy, COMDAT

; 152  : 		_Destroy(_Ptr);
; 153  : 		}

  00000	c3		 ret	 0
?destroy@?$allocator@U_Node@?$_Tree_nod@V?$_Tmap_traits@IPAUpatch_scrap@@U?$less@I@std@@V?$allocator@U?$pair@$$CBIPAUpatch_scrap@@@std@@@3@$0A@@std@@@std@@@std@@QAEXPAU_Node@?$_Tree_nod@V?$_Tmap_traits@IPAUpatch_scrap@@U?$less@I@std@@V?$allocator@U?$pair@$$CBIPAUpatch_scrap@@@std@@@3@$0A@@std@@@2@@Z ENDP ; std::allocator<std::_Tree_nod<std::_Tmap_traits<unsigned int,patch_scrap *,std::less<unsigned int>,std::allocator<std::pair<unsigned int const ,patch_scrap *> >,0> >::_Node>::destroy
; Function compile flags: /Ogsy
_TEXT	ENDS
;	COMDAT ?deallocate@?$allocator@U_Node@?$_Tree_nod@V?$_Tmap_traits@IPAUpatch_scrap@@U?$less@I@std@@V?$allocator@U?$pair@$$CBIPAUpatch_scrap@@@std@@@3@$0A@@std@@@std@@@std@@QAEXPAU_Node@?$_Tree_nod@V?$_Tmap_traits@IPAUpatch_scrap@@U?$less@I@std@@V?$allocator@U?$pair@$$CBIPAUpatch_scrap@@@std@@@3@$0A@@std@@@2@I@Z
_TEXT	SEGMENT
__Ptr$ = 8						; size = 4
?deallocate@?$allocator@U_Node@?$_Tree_nod@V?$_Tmap_traits@IPAUpatch_scrap@@U?$less@I@std@@V?$allocator@U?$pair@$$CBIPAUpatch_scrap@@@std@@@3@$0A@@std@@@std@@@std@@QAEXPAU_Node@?$_Tree_nod@V?$_Tmap_traits@IPAUpatch_scrap@@U?$less@I@std@@V?$allocator@U?$pair@$$CBIPAUpatch_scrap@@@std@@@3@$0A@@std@@@2@I@Z PROC NEAR ; std::allocator<std::_Tree_nod<std::_Tmap_traits<unsigned int,patch_scrap *,std::less<unsigned int>,std::allocator<std::pair<unsigned int const ,patch_scrap *> >,0> >::_Node>::deallocate, COMDAT

; 132  : 		operator delete(_Ptr);

  00000	ff 74 24 04	 push	 DWORD PTR __Ptr$[esp-4]
  00004	e8 00 00 00 00	 call	 ??3@YAXPAX@Z		; operator delete
  00009	59		 pop	 ecx

; 133  : 		}

  0000a	c2 04 00	 ret	 4
?deallocate@?$allocator@U_Node@?$_Tree_nod@V?$_Tmap_traits@IPAUpatch_scrap@@U?$less@I@std@@V?$allocator@U?$pair@$$CBIPAUpatch_scrap@@@std@@@3@$0A@@std@@@std@@@std@@QAEXPAU_Node@?$_Tree_nod@V?$_Tmap_traits@IPAUpatch_scrap@@U?$less@I@std@@V?$allocator@U?$pair@$$CBIPAUpatch_scrap@@@std@@@3@$0A@@std@@@2@I@Z ENDP ; std::allocator<std::_Tree_nod<std::_Tmap_traits<unsigned int,patch_scrap *,std::less<unsigned int>,std::allocator<std::pair<unsigned int const ,patch_scrap *> >,0> >::_Node>::deallocate
; Function compile flags: /Ogsy
_TEXT	ENDS
;	COMDAT ??0?$allocator@U?$pair@$$CBIPAUpatch_scrap@@@std@@@std@@QAE@ABV01@@Z
_TEXT	SEGMENT
??0?$allocator@U?$pair@$$CBIPAUpatch_scrap@@@std@@@std@@QAE@ABV01@@Z PROC NEAR ; std::allocator<std::pair<unsigned int const ,patch_scrap *> >::allocator<std::pair<unsigned int const ,patch_scrap *> >, COMDAT
; _this$ = eax

; 116  : 		{	// construct by copying (do nothing)
; 117  : 		}

  00000	c3		 ret	 0
??0?$allocator@U?$pair@$$CBIPAUpatch_scrap@@@std@@@std@@QAE@ABV01@@Z ENDP ; std::allocator<std::pair<unsigned int const ,patch_scrap *> >::allocator<std::pair<unsigned int const ,patch_scrap *> >
; Function compile flags: /Ogsy
; File c:\program files (x86)\microsoft visual studio .net 2003\vc7\include\map
_TEXT	ENDS
;	COMDAT ?_Kfn@?$_Tmap_traits@IPAUpatch_scrap@@U?$less@I@std@@V?$allocator@U?$pair@$$CBIPAUpatch_scrap@@@std@@@3@$0A@@std@@SAABIABU?$pair@$$CBIPAUpatch_scrap@@@2@@Z
_TEXT	SEGMENT
?_Kfn@?$_Tmap_traits@IPAUpatch_scrap@@U?$less@I@std@@V?$allocator@U?$pair@$$CBIPAUpatch_scrap@@@std@@@3@$0A@@std@@SAABIABU?$pair@$$CBIPAUpatch_scrap@@@2@@Z PROC NEAR ; std::_Tmap_traits<unsigned int,patch_scrap *,std::less<unsigned int>,std::allocator<std::pair<unsigned int const ,patch_scrap *> >,0>::_Kfn, COMDAT
; __Val$ = eax

; 64   : 		return (_Val.first);
; 65   : 		}

  00000	c3		 ret	 0
?_Kfn@?$_Tmap_traits@IPAUpatch_scrap@@U?$less@I@std@@V?$allocator@U?$pair@$$CBIPAUpatch_scrap@@@std@@@3@$0A@@std@@SAABIABU?$pair@$$CBIPAUpatch_scrap@@@2@@Z ENDP ; std::_Tmap_traits<unsigned int,patch_scrap *,std::less<unsigned int>,std::allocator<std::pair<unsigned int const ,patch_scrap *> >,0>::_Kfn
; Function compile flags: /Ogsy
; File c:\program files (x86)\microsoft visual studio .net 2003\vc7\include\xtree
_TEXT	ENDS
;	COMDAT ?_Myval@?$_Tree@V?$_Tmap_traits@IPAUpatch_scrap@@U?$less@I@std@@V?$allocator@U?$pair@$$CBIPAUpatch_scrap@@@std@@@3@$0A@@std@@@std@@KAAAU?$pair@$$CBIPAUpatch_scrap@@@2@PAU_Node@?$_Tree_nod@V?$_Tmap_traits@IPAUpatch_scrap@@U?$less@I@std@@V?$allocator@U?$pair@$$CBIPAUpatch_scrap@@@std@@@3@$0A@@std@@@2@@Z
_TEXT	SEGMENT
?_Myval@?$_Tree@V?$_Tmap_traits@IPAUpatch_scrap@@U?$less@I@std@@V?$allocator@U?$pair@$$CBIPAUpatch_scrap@@@std@@@3@$0A@@std@@@std@@KAAAU?$pair@$$CBIPAUpatch_scrap@@@2@PAU_Node@?$_Tree_nod@V?$_Tmap_traits@IPAUpatch_scrap@@U?$less@I@std@@V?$allocator@U?$pair@$$CBIPAUpatch_scrap@@@std@@@3@$0A@@std@@@2@@Z PROC NEAR ; std::_Tree<std::_Tmap_traits<unsigned int,patch_scrap *,std::less<unsigned int>,std::allocator<std::pair<unsigned int const ,patch_scrap *> >,0> >::_Myval, COMDAT
; __Pnode$ = eax

; 162  : 		return ((_Vref)(*_Pnode)._Myval);

  00000	83 c0 0c	 add	 eax, 12			; 0000000cH

; 163  : 		}

  00003	c3		 ret	 0
?_Myval@?$_Tree@V?$_Tmap_traits@IPAUpatch_scrap@@U?$less@I@std@@V?$allocator@U?$pair@$$CBIPAUpatch_scrap@@@std@@@3@$0A@@std@@@std@@KAAAU?$pair@$$CBIPAUpatch_scrap@@@2@PAU_Node@?$_Tree_nod@V?$_Tmap_traits@IPAUpatch_scrap@@U?$less@I@std@@V?$allocator@U?$pair@$$CBIPAUpatch_scrap@@@std@@@3@$0A@@std@@@2@@Z ENDP ; std::_Tree<std::_Tmap_traits<unsigned int,patch_scrap *,std::less<unsigned int>,std::allocator<std::pair<unsigned int const ,patch_scrap *> >,0> >::_Myval
; Function compile flags: /Ogsy
_TEXT	ENDS
;	COMDAT ?_Right@?$_Tree@V?$_Tmap_traits@IPAUpatch_scrap@@U?$less@I@std@@V?$allocator@U?$pair@$$CBIPAUpatch_scrap@@@std@@@3@$0A@@std@@@std@@KAAAPAU_Node@?$_Tree_nod@V?$_Tmap_traits@IPAUpatch_scrap@@U?$less@I@std@@V?$allocator@U?$pair@$$CBIPAUpatch_scrap@@@std@@@3@$0A@@std@@@2@PAU342@@Z
_TEXT	SEGMENT
?_Right@?$_Tree@V?$_Tmap_traits@IPAUpatch_scrap@@U?$less@I@std@@V?$allocator@U?$pair@$$CBIPAUpatch_scrap@@@std@@@3@$0A@@std@@@std@@KAAAPAU_Node@?$_Tree_nod@V?$_Tmap_traits@IPAUpatch_scrap@@U?$less@I@std@@V?$allocator@U?$pair@$$CBIPAUpatch_scrap@@@std@@@3@$0A@@std@@@2@PAU342@@Z PROC NEAR ; std::_Tree<std::_Tmap_traits<unsigned int,patch_scrap *,std::less<unsigned int>,std::allocator<std::pair<unsigned int const ,patch_scrap *> >,0> >::_Right, COMDAT
; __Pnode$ = eax

; 157  : 		return ((_Nodepref)(*_Pnode)._Right);

  00000	83 c0 08	 add	 eax, 8

; 158  : 		}

  00003	c3		 ret	 0
?_Right@?$_Tree@V?$_Tmap_traits@IPAUpatch_scrap@@U?$less@I@std@@V?$allocator@U?$pair@$$CBIPAUpatch_scrap@@@std@@@3@$0A@@std@@@std@@KAAAPAU_Node@?$_Tree_nod@V?$_Tmap_traits@IPAUpatch_scrap@@U?$less@I@std@@V?$allocator@U?$pair@$$CBIPAUpatch_scrap@@@std@@@3@$0A@@std@@@2@PAU342@@Z ENDP ; std::_Tree<std::_Tmap_traits<unsigned int,patch_scrap *,std::less<unsigned int>,std::allocator<std::pair<unsigned int const ,patch_scrap *> >,0> >::_Right
; Function compile flags: /Ogsy
_TEXT	ENDS
;	COMDAT ?_Parent@?$_Tree@V?$_Tmap_traits@IPAUpatch_scrap@@U?$less@I@std@@V?$allocator@U?$pair@$$CBIPAUpatch_scrap@@@std@@@3@$0A@@std@@@std@@KAAAPAU_Node@?$_Tree_nod@V?$_Tmap_traits@IPAUpatch_scrap@@U?$less@I@std@@V?$allocator@U?$pair@$$CBIPAUpatch_scrap@@@std@@@3@$0A@@std@@@2@PAU342@@Z
_TEXT	SEGMENT
?_Parent@?$_Tree@V?$_Tmap_traits@IPAUpatch_scrap@@U?$less@I@std@@V?$allocator@U?$pair@$$CBIPAUpatch_scrap@@@std@@@3@$0A@@std@@@std@@KAAAPAU_Node@?$_Tree_nod@V?$_Tmap_traits@IPAUpatch_scrap@@U?$less@I@std@@V?$allocator@U?$pair@$$CBIPAUpatch_scrap@@@std@@@3@$0A@@std@@@2@PAU342@@Z PROC NEAR ; std::_Tree<std::_Tmap_traits<unsigned int,patch_scrap *,std::less<unsigned int>,std::allocator<std::pair<unsigned int const ,patch_scrap *> >,0> >::_Parent, COMDAT
; __Pnode$ = eax

; 152  : 		return ((_Nodepref)(*_Pnode)._Parent);

  00000	83 c0 04	 add	 eax, 4

; 153  : 		}

  00003	c3		 ret	 0
?_Parent@?$_Tree@V?$_Tmap_traits@IPAUpatch_scrap@@U?$less@I@std@@V?$allocator@U?$pair@$$CBIPAUpatch_scrap@@@std@@@3@$0A@@std@@@std@@KAAAPAU_Node@?$_Tree_nod@V?$_Tmap_traits@IPAUpatch_scrap@@U?$less@I@std@@V?$allocator@U?$pair@$$CBIPAUpatch_scrap@@@std@@@3@$0A@@std@@@2@PAU342@@Z ENDP ; std::_Tree<std::_Tmap_traits<unsigned int,patch_scrap *,std::less<unsigned int>,std::allocator<std::pair<unsigned int const ,patch_scrap *> >,0> >::_Parent
; Function compile flags: /Ogsy
_TEXT	ENDS
;	COMDAT ?_Left@?$_Tree@V?$_Tmap_traits@IPAUpatch_scrap@@U?$less@I@std@@V?$allocator@U?$pair@$$CBIPAUpatch_scrap@@@std@@@3@$0A@@std@@@std@@KAAAPAU_Node@?$_Tree_nod@V?$_Tmap_traits@IPAUpatch_scrap@@U?$less@I@std@@V?$allocator@U?$pair@$$CBIPAUpatch_scrap@@@std@@@3@$0A@@std@@@2@PAU342@@Z
_TEXT	SEGMENT
?_Left@?$_Tree@V?$_Tmap_traits@IPAUpatch_scrap@@U?$less@I@std@@V?$allocator@U?$pair@$$CBIPAUpatch_scrap@@@std@@@3@$0A@@std@@@std@@KAAAPAU_Node@?$_Tree_nod@V?$_Tmap_traits@IPAUpatch_scrap@@U?$less@I@std@@V?$allocator@U?$pair@$$CBIPAUpatch_scrap@@@std@@@3@$0A@@std@@@2@PAU342@@Z PROC NEAR ; std::_Tree<std::_Tmap_traits<unsigned int,patch_scrap *,std::less<unsigned int>,std::allocator<std::pair<unsigned int const ,patch_scrap *> >,0> >::_Left, COMDAT
; __Pnode$ = eax

; 147  : 		return ((_Nodepref)(*_Pnode)._Left);
; 148  : 		}

  00000	c3		 ret	 0
?_Left@?$_Tree@V?$_Tmap_traits@IPAUpatch_scrap@@U?$less@I@std@@V?$allocator@U?$pair@$$CBIPAUpatch_scrap@@@std@@@3@$0A@@std@@@std@@KAAAPAU_Node@?$_Tree_nod@V?$_Tmap_traits@IPAUpatch_scrap@@U?$less@I@std@@V?$allocator@U?$pair@$$CBIPAUpatch_scrap@@@std@@@3@$0A@@std@@@2@PAU342@@Z ENDP ; std::_Tree<std::_Tmap_traits<unsigned int,patch_scrap *,std::less<unsigned int>,std::allocator<std::pair<unsigned int const ,patch_scrap *> >,0> >::_Left
; Function compile flags: /Ogsy
_TEXT	ENDS
;	COMDAT ?_Isnil@?$_Tree@V?$_Tmap_traits@IPAUpatch_scrap@@U?$less@I@std@@V?$allocator@U?$pair@$$CBIPAUpatch_scrap@@@std@@@3@$0A@@std@@@std@@KAAADPAU_Node@?$_Tree_nod@V?$_Tmap_traits@IPAUpatch_scrap@@U?$less@I@std@@V?$allocator@U?$pair@$$CBIPAUpatch_scrap@@@std@@@3@$0A@@std@@@2@@Z
_TEXT	SEGMENT
?_Isnil@?$_Tree@V?$_Tmap_traits@IPAUpatch_scrap@@U?$less@I@std@@V?$allocator@U?$pair@$$CBIPAUpatch_scrap@@@std@@@3@$0A@@std@@@std@@KAAADPAU_Node@?$_Tree_nod@V?$_Tmap_traits@IPAUpatch_scrap@@U?$less@I@std@@V?$allocator@U?$pair@$$CBIPAUpatch_scrap@@@std@@@3@$0A@@std@@@2@@Z PROC NEAR ; std::_Tree<std::_Tmap_traits<unsigned int,patch_scrap *,std::less<unsigned int>,std::allocator<std::pair<unsigned int const ,patch_scrap *> >,0> >::_Isnil, COMDAT
; __Pnode$ = eax

; 137  : 		return ((_Charref)(*_Pnode)._Isnil);

  00000	83 c0 15	 add	 eax, 21			; 00000015H

; 138  : 		}

  00003	c3		 ret	 0
?_Isnil@?$_Tree@V?$_Tmap_traits@IPAUpatch_scrap@@U?$less@I@std@@V?$allocator@U?$pair@$$CBIPAUpatch_scrap@@@std@@@3@$0A@@std@@@std@@KAAADPAU_Node@?$_Tree_nod@V?$_Tmap_traits@IPAUpatch_scrap@@U?$less@I@std@@V?$allocator@U?$pair@$$CBIPAUpatch_scrap@@@std@@@3@$0A@@std@@@2@@Z ENDP ; std::_Tree<std::_Tmap_traits<unsigned int,patch_scrap *,std::less<unsigned int>,std::allocator<std::pair<unsigned int const ,patch_scrap *> >,0> >::_Isnil
; Function compile flags: /Ogsy
; File c:\program files (x86)\microsoft visual studio .net 2003\vc7\include\xlocnum
_TEXT	ENDS
;	COMDAT ?put@?$num_put@DV?$ostreambuf_iterator@DU?$char_traits@D@std@@@std@@@std@@QBE?AV?$ostreambuf_iterator@DU?$char_traits@D@std@@@2@V32@AAVios_base@2@D_N@Z
_TEXT	SEGMENT
___$ReturnUdt$ = 8					; size = 4
__Dest$ = 12						; size = 8
__Iosbase$ = 20						; size = 4
__Fill$ = 24						; size = 1
__Val$ = 28						; size = 1
?put@?$num_put@DV?$ostreambuf_iterator@DU?$char_traits@D@std@@@std@@@std@@QBE?AV?$ostreambuf_iterator@DU?$char_traits@D@std@@@2@V32@AAVios_base@2@D_N@Z PROC NEAR ; std::num_put<char,std::ostreambuf_iterator<char,std::char_traits<char> > >::put, COMDAT
; _this$ = ecx

; 830  : 		{	// put formatted bool to _Dest

  00000	55		 push	 ebp
  00001	8b ec		 mov	 ebp, esp

; 831  : 		return (do_put(_Dest, _Iosbase, _Fill, _Val));

  00003	ff 75 1c	 push	 DWORD PTR __Val$[ebp]
  00006	8b 01		 mov	 eax, DWORD PTR [ecx]
  00008	ff 75 18	 push	 DWORD PTR __Fill$[ebp]
  0000b	ff 75 14	 push	 DWORD PTR __Iosbase$[ebp]
  0000e	ff 75 10	 push	 DWORD PTR __Dest$[ebp+4]
  00011	ff 75 0c	 push	 DWORD PTR __Dest$[ebp]
  00014	ff 75 08	 push	 DWORD PTR ___$ReturnUdt$[ebp]
  00017	ff 50 20	 call	 DWORD PTR [eax+32]
  0001a	8b 45 08	 mov	 eax, DWORD PTR ___$ReturnUdt$[ebp]

; 832  : 		}

  0001d	5d		 pop	 ebp
  0001e	c2 18 00	 ret	 24			; 00000018H
?put@?$num_put@DV?$ostreambuf_iterator@DU?$char_traits@D@std@@@std@@@std@@QBE?AV?$ostreambuf_iterator@DU?$char_traits@D@std@@@2@V32@AAVios_base@2@D_N@Z ENDP ; std::num_put<char,std::ostreambuf_iterator<char,std::char_traits<char> > >::put
; Function compile flags: /Ogsy
; File c:\program files (x86)\microsoft visual studio .net 2003\vc7\include\utility
_TEXT	ENDS
;	COMDAT ??0?$pair@$$CBIPAUpatch_scrap@@@std@@QAE@ABIABQAUpatch_scrap@@@Z
_TEXT	SEGMENT
__Val2$ = 8						; size = 4
??0?$pair@$$CBIPAUpatch_scrap@@@std@@QAE@ABIABQAUpatch_scrap@@@Z PROC NEAR ; std::pair<unsigned int const ,patch_scrap *>::pair<unsigned int const ,patch_scrap *>, COMDAT
; _this$ = eax
; __Val1$ = ecx

; 34   : 		{	// construct from specified values

  00000	8b 09		 mov	 ecx, DWORD PTR [ecx]
  00002	89 08		 mov	 DWORD PTR [eax], ecx
  00004	8b 4c 24 04	 mov	 ecx, DWORD PTR __Val2$[esp-4]
  00008	8b 09		 mov	 ecx, DWORD PTR [ecx]
  0000a	89 48 04	 mov	 DWORD PTR [eax+4], ecx

; 35   : 		}

  0000d	c2 04 00	 ret	 4
??0?$pair@$$CBIPAUpatch_scrap@@@std@@QAE@ABIABQAUpatch_scrap@@@Z ENDP ; std::pair<unsigned int const ,patch_scrap *>::pair<unsigned int const ,patch_scrap *>
; Function compile flags: /Ogsy
; File c:\program files (x86)\microsoft visual studio .net 2003\vc7\include\xtree
_TEXT	ENDS
;	COMDAT ?_Mynode@const_iterator@?$_Tree@V?$_Tmap_traits@IPAUpatch_scrap@@U?$less@I@std@@V?$allocator@U?$pair@$$CBIPAUpatch_scrap@@@std@@@3@$0A@@std@@@std@@QBEPAU_Node@?$_Tree_nod@V?$_Tmap_traits@IPAUpatch_scrap@@U?$less@I@std@@V?$allocator@U?$pair@$$CBIPAUpatch_scrap@@@std@@@3@$0A@@std@@@3@XZ
_TEXT	SEGMENT
?_Mynode@const_iterator@?$_Tree@V?$_Tmap_traits@IPAUpatch_scrap@@U?$less@I@std@@V?$allocator@U?$pair@$$CBIPAUpatch_scrap@@@std@@@3@$0A@@std@@@std@@QBEPAU_Node@?$_Tree_nod@V?$_Tmap_traits@IPAUpatch_scrap@@U?$less@I@std@@V?$allocator@U?$pair@$$CBIPAUpatch_scrap@@@std@@@3@$0A@@std@@@3@XZ PROC NEAR ; std::_Tree<std::_Tmap_traits<unsigned int,patch_scrap *,std::less<unsigned int>,std::allocator<std::pair<unsigned int const ,patch_scrap *> >,0> >::const_iterator::_Mynode, COMDAT
; _this$ = eax

; 284  : 			return (_Ptr);

  00000	8b 00		 mov	 eax, DWORD PTR [eax]

; 285  : 			}

  00002	c3		 ret	 0
?_Mynode@const_iterator@?$_Tree@V?$_Tmap_traits@IPAUpatch_scrap@@U?$less@I@std@@V?$allocator@U?$pair@$$CBIPAUpatch_scrap@@@std@@@3@$0A@@std@@@std@@QBEPAU_Node@?$_Tree_nod@V?$_Tmap_traits@IPAUpatch_scrap@@U?$less@I@std@@V?$allocator@U?$pair@$$CBIPAUpatch_scrap@@@std@@@3@$0A@@std@@@3@XZ ENDP ; std::_Tree<std::_Tmap_traits<unsigned int,patch_scrap *,std::less<unsigned int>,std::allocator<std::pair<unsigned int const ,patch_scrap *> >,0> >::const_iterator::_Mynode
; Function compile flags: /Ogsy
_TEXT	ENDS
;	COMDAT ??8const_iterator@?$_Tree@V?$_Tmap_traits@IPAUpatch_scrap@@U?$less@I@std@@V?$allocator@U?$pair@$$CBIPAUpatch_scrap@@@std@@@3@$0A@@std@@@std@@QBE_NABV012@@Z
_TEXT	SEGMENT
??8const_iterator@?$_Tree@V?$_Tmap_traits@IPAUpatch_scrap@@U?$less@I@std@@V?$allocator@U?$pair@$$CBIPAUpatch_scrap@@@std@@@3@$0A@@std@@@std@@QBE_NABV012@@Z PROC NEAR ; std::_Tree<std::_Tmap_traits<unsigned int,patch_scrap *,std::less<unsigned int>,std::allocator<std::pair<unsigned int const ,patch_scrap *> >,0> >::const_iterator::operator==, COMDAT
; _this$ = eax
; __Right$ = ecx

; 241  : 			return (_Ptr == _Right._Ptr);

  00000	8b 00		 mov	 eax, DWORD PTR [eax]
  00002	2b 01		 sub	 eax, DWORD PTR [ecx]
  00004	f7 d8		 neg	 eax
  00006	1b c0		 sbb	 eax, eax
  00008	40		 inc	 eax

; 242  : 			}

  00009	c3		 ret	 0
??8const_iterator@?$_Tree@V?$_Tmap_traits@IPAUpatch_scrap@@U?$less@I@std@@V?$allocator@U?$pair@$$CBIPAUpatch_scrap@@@std@@@3@$0A@@std@@@std@@QBE_NABV012@@Z ENDP ; std::_Tree<std::_Tmap_traits<unsigned int,patch_scrap *,std::less<unsigned int>,std::allocator<std::pair<unsigned int const ,patch_scrap *> >,0> >::const_iterator::operator==
; Function compile flags: /Ogsy
_TEXT	ENDS
;	COMDAT ??0const_iterator@?$_Tree@V?$_Tmap_traits@IPAUpatch_scrap@@U?$less@I@std@@V?$allocator@U?$pair@$$CBIPAUpatch_scrap@@@std@@@3@$0A@@std@@@std@@QAE@XZ
_TEXT	SEGMENT
??0const_iterator@?$_Tree@V?$_Tmap_traits@IPAUpatch_scrap@@U?$less@I@std@@V?$allocator@U?$pair@$$CBIPAUpatch_scrap@@@std@@@3@$0A@@std@@@std@@QAE@XZ PROC NEAR ; std::_Tree<std::_Tmap_traits<unsigned int,patch_scrap *,std::less<unsigned int>,std::allocator<std::pair<unsigned int const ,patch_scrap *> >,0> >::const_iterator::const_iterator, COMDAT
; _this$ = eax

; 193  : 			{	// construct with null node pointer

  00000	83 20 00	 and	 DWORD PTR [eax], 0

; 194  : 			}

  00003	c3		 ret	 0
??0const_iterator@?$_Tree@V?$_Tmap_traits@IPAUpatch_scrap@@U?$less@I@std@@V?$allocator@U?$pair@$$CBIPAUpatch_scrap@@@std@@@3@$0A@@std@@@std@@QAE@XZ ENDP ; std::_Tree<std::_Tmap_traits<unsigned int,patch_scrap *,std::less<unsigned int>,std::allocator<std::pair<unsigned int const ,patch_scrap *> >,0> >::const_iterator::const_iterator
; Function compile flags: /Ogsy
_TEXT	ENDS
;	COMDAT ??0iterator@?$_Tree@V?$_Tmap_traits@IPAUpatch_scrap@@U?$less@I@std@@V?$allocator@U?$pair@$$CBIPAUpatch_scrap@@@std@@@3@$0A@@std@@@std@@QAE@PAU_Node@?$_Tree_nod@V?$_Tmap_traits@IPAUpatch_scrap@@U?$less@I@std@@V?$allocator@U?$pair@$$CBIPAUpatch_scrap@@@std@@@3@$0A@@std@@@2@@Z
_TEXT	SEGMENT
??0iterator@?$_Tree@V?$_Tmap_traits@IPAUpatch_scrap@@U?$less@I@std@@V?$allocator@U?$pair@$$CBIPAUpatch_scrap@@@std@@@3@$0A@@std@@@std@@QAE@PAU_Node@?$_Tree_nod@V?$_Tmap_traits@IPAUpatch_scrap@@U?$less@I@std@@V?$allocator@U?$pair@$$CBIPAUpatch_scrap@@@std@@@3@$0A@@std@@@2@@Z PROC NEAR ; std::_Tree<std::_Tmap_traits<unsigned int,patch_scrap *,std::less<unsigned int>,std::allocator<std::pair<unsigned int const ,patch_scrap *> >,0> >::iterator::iterator, COMDAT
; _this$ = eax
; __Pnode$ = ecx

; 312  : 			{	// construct with node pointer _Pnode

  00000	89 08		 mov	 DWORD PTR [eax], ecx

; 313  : 			}

  00002	c3		 ret	 0
??0iterator@?$_Tree@V?$_Tmap_traits@IPAUpatch_scrap@@U?$less@I@std@@V?$allocator@U?$pair@$$CBIPAUpatch_scrap@@@std@@@3@$0A@@std@@@std@@QAE@PAU_Node@?$_Tree_nod@V?$_Tmap_traits@IPAUpatch_scrap@@U?$less@I@std@@V?$allocator@U?$pair@$$CBIPAUpatch_scrap@@@std@@@3@$0A@@std@@@2@@Z ENDP ; std::_Tree<std::_Tmap_traits<unsigned int,patch_scrap *,std::less<unsigned int>,std::allocator<std::pair<unsigned int const ,patch_scrap *> >,0> >::iterator::iterator
; Function compile flags: /Ogsy
; File c:\program files (x86)\microsoft visual studio .net 2003\vc7\include\functional
_TEXT	ENDS
;	COMDAT ??R?$less@I@std@@QBE_NABI0@Z
_TEXT	SEGMENT
??R?$less@I@std@@QBE_NABI0@Z PROC NEAR			; std::less<unsigned int>::operator(), COMDAT
; __Left$ = eax
; __Right$ = ecx

; 139  : 		return (_Left < _Right);

  00000	8b 00		 mov	 eax, DWORD PTR [eax]
  00002	3b 01		 cmp	 eax, DWORD PTR [ecx]
  00004	1b c0		 sbb	 eax, eax
  00006	f7 d8		 neg	 eax

; 140  : 		}

  00008	c3		 ret	 0
??R?$less@I@std@@QBE_NABI0@Z ENDP			; std::less<unsigned int>::operator()
; Function compile flags: /Ogsy
; File c:\program files (x86)\microsoft visual studio .net 2003\vc7\include\xmemory
_TEXT	ENDS
;	COMDAT ??0?$allocator@U?$pair@$$CBIPAUpatch_scrap@@@std@@@std@@QAE@XZ
_TEXT	SEGMENT
??0?$allocator@U?$pair@$$CBIPAUpatch_scrap@@@std@@@std@@QAE@XZ PROC NEAR ; std::allocator<std::pair<unsigned int const ,patch_scrap *> >::allocator<std::pair<unsigned int const ,patch_scrap *> >, COMDAT
; _this$ = eax

; 112  : 		{	// construct default allocator (do nothing)
; 113  : 		}

  00000	c3		 ret	 0
??0?$allocator@U?$pair@$$CBIPAUpatch_scrap@@@std@@@std@@QAE@XZ ENDP ; std::allocator<std::pair<unsigned int const ,patch_scrap *> >::allocator<std::pair<unsigned int const ,patch_scrap *> >
; Function compile flags: /Ogsy
; File c:\program files (x86)\microsoft visual studio .net 2003\vc7\include\xtree
_TEXT	ENDS
;	COMDAT ?_Root@?$_Tree@V?$_Tmap_traits@IPAUpatch_scrap@@U?$less@I@std@@V?$allocator@U?$pair@$$CBIPAUpatch_scrap@@@std@@@3@$0A@@std@@@std@@IAEAAPAU_Node@?$_Tree_nod@V?$_Tmap_traits@IPAUpatch_scrap@@U?$less@I@std@@V?$allocator@U?$pair@$$CBIPAUpatch_scrap@@@std@@@3@$0A@@std@@@2@XZ
_TEXT	SEGMENT
?_Root@?$_Tree@V?$_Tmap_traits@IPAUpatch_scrap@@U?$less@I@std@@V?$allocator@U?$pair@$$CBIPAUpatch_scrap@@@std@@@3@$0A@@std@@@std@@IAEAAPAU_Node@?$_Tree_nod@V?$_Tmap_traits@IPAUpatch_scrap@@U?$less@I@std@@V?$allocator@U?$pair@$$CBIPAUpatch_scrap@@@std@@@3@$0A@@std@@@2@XZ PROC NEAR ; std::_Tree<std::_Tmap_traits<unsigned int,patch_scrap *,std::less<unsigned int>,std::allocator<std::pair<unsigned int const ,patch_scrap *> >,0> >::_Root, COMDAT
; _this$ = eax

; 1059 : 		return (_Parent(_Myhead));

  00000	8b 40 04	 mov	 eax, DWORD PTR [eax+4]
  00003	83 c0 04	 add	 eax, 4

; 1060 : 		}

  00006	c3		 ret	 0
?_Root@?$_Tree@V?$_Tmap_traits@IPAUpatch_scrap@@U?$less@I@std@@V?$allocator@U?$pair@$$CBIPAUpatch_scrap@@@std@@@3@$0A@@std@@@std@@IAEAAPAU_Node@?$_Tree_nod@V?$_Tmap_traits@IPAUpatch_scrap@@U?$less@I@std@@V?$allocator@U?$pair@$$CBIPAUpatch_scrap@@@std@@@3@$0A@@std@@@2@XZ ENDP ; std::_Tree<std::_Tmap_traits<unsigned int,patch_scrap *,std::less<unsigned int>,std::allocator<std::pair<unsigned int const ,patch_scrap *> >,0> >::_Root
; Function compile flags: /Ogsy
_TEXT	ENDS
;	COMDAT ?_Rmost@?$_Tree@V?$_Tmap_traits@IPAUpatch_scrap@@U?$less@I@std@@V?$allocator@U?$pair@$$CBIPAUpatch_scrap@@@std@@@3@$0A@@std@@@std@@IAEAAPAU_Node@?$_Tree_nod@V?$_Tmap_traits@IPAUpatch_scrap@@U?$less@I@std@@V?$allocator@U?$pair@$$CBIPAUpatch_scrap@@@std@@@3@$0A@@std@@@2@XZ
_TEXT	SEGMENT
?_Rmost@?$_Tree@V?$_Tmap_traits@IPAUpatch_scrap@@U?$less@I@std@@V?$allocator@U?$pair@$$CBIPAUpatch_scrap@@@std@@@3@$0A@@std@@@std@@IAEAAPAU_Node@?$_Tree_nod@V?$_Tmap_traits@IPAUpatch_scrap@@U?$less@I@std@@V?$allocator@U?$pair@$$CBIPAUpatch_scrap@@@std@@@3@$0A@@std@@@2@XZ PROC NEAR ; std::_Tree<std::_Tmap_traits<unsigned int,patch_scrap *,std::less<unsigned int>,std::allocator<std::pair<unsigned int const ,patch_scrap *> >,0> >::_Rmost, COMDAT
; _this$ = eax

; 1049 : 		return (_Right(_Myhead));

  00000	8b 40 04	 mov	 eax, DWORD PTR [eax+4]
  00003	83 c0 08	 add	 eax, 8

; 1050 : 		}

  00006	c3		 ret	 0
?_Rmost@?$_Tree@V?$_Tmap_traits@IPAUpatch_scrap@@U?$less@I@std@@V?$allocator@U?$pair@$$CBIPAUpatch_scrap@@@std@@@3@$0A@@std@@@std@@IAEAAPAU_Node@?$_Tree_nod@V?$_Tmap_traits@IPAUpatch_scrap@@U?$less@I@std@@V?$allocator@U?$pair@$$CBIPAUpatch_scrap@@@std@@@3@$0A@@std@@@2@XZ ENDP ; std::_Tree<std::_Tmap_traits<unsigned int,patch_scrap *,std::less<unsigned int>,std::allocator<std::pair<unsigned int const ,patch_scrap *> >,0> >::_Rmost
; Function compile flags: /Ogsy
_TEXT	ENDS
;	COMDAT ?_Lmost@?$_Tree@V?$_Tmap_traits@IPAUpatch_scrap@@U?$less@I@std@@V?$allocator@U?$pair@$$CBIPAUpatch_scrap@@@std@@@3@$0A@@std@@@std@@IAEAAPAU_Node@?$_Tree_nod@V?$_Tmap_traits@IPAUpatch_scrap@@U?$less@I@std@@V?$allocator@U?$pair@$$CBIPAUpatch_scrap@@@std@@@3@$0A@@std@@@2@XZ
_TEXT	SEGMENT
?_Lmost@?$_Tree@V?$_Tmap_traits@IPAUpatch_scrap@@U?$less@I@std@@V?$allocator@U?$pair@$$CBIPAUpatch_scrap@@@std@@@3@$0A@@std@@@std@@IAEAAPAU_Node@?$_Tree_nod@V?$_Tmap_traits@IPAUpatch_scrap@@U?$less@I@std@@V?$allocator@U?$pair@$$CBIPAUpatch_scrap@@@std@@@3@$0A@@std@@@2@XZ PROC NEAR ; std::_Tree<std::_Tmap_traits<unsigned int,patch_scrap *,std::less<unsigned int>,std::allocator<std::pair<unsigned int const ,patch_scrap *> >,0> >::_Lmost, COMDAT
; _this$ = eax

; 1005 : 		return (_Left(_Myhead));

  00000	8b 40 04	 mov	 eax, DWORD PTR [eax+4]

; 1006 : 		}

  00003	c3		 ret	 0
?_Lmost@?$_Tree@V?$_Tmap_traits@IPAUpatch_scrap@@U?$less@I@std@@V?$allocator@U?$pair@$$CBIPAUpatch_scrap@@@std@@@3@$0A@@std@@@std@@IAEAAPAU_Node@?$_Tree_nod@V?$_Tmap_traits@IPAUpatch_scrap@@U?$less@I@std@@V?$allocator@U?$pair@$$CBIPAUpatch_scrap@@@std@@@3@$0A@@std@@@2@XZ ENDP ; std::_Tree<std::_Tmap_traits<unsigned int,patch_scrap *,std::less<unsigned int>,std::allocator<std::pair<unsigned int const ,patch_scrap *> >,0> >::_Lmost
; Function compile flags: /Ogsy
_TEXT	ENDS
;	COMDAT ?_Erase@?$_Tree@V?$_Tmap_traits@IPAUpatch_scrap@@U?$less@I@std@@V?$allocator@U?$pair@$$CBIPAUpatch_scrap@@@std@@@3@$0A@@std@@@std@@IAEXPAU_Node@?$_Tree_nod@V?$_Tmap_traits@IPAUpatch_scrap@@U?$less@I@std@@V?$allocator@U?$pair@$$CBIPAUpatch_scrap@@@std@@@3@$0A@@std@@@2@@Z
_TEXT	SEGMENT
__Rootnode$ = 8						; size = 4
?_Erase@?$_Tree@V?$_Tmap_traits@IPAUpatch_scrap@@U?$less@I@std@@V?$allocator@U?$pair@$$CBIPAUpatch_scrap@@@std@@@3@$0A@@std@@@std@@IAEXPAU_Node@?$_Tree_nod@V?$_Tmap_traits@IPAUpatch_scrap@@U?$less@I@std@@V?$allocator@U?$pair@$$CBIPAUpatch_scrap@@@std@@@3@$0A@@std@@@2@@Z PROC NEAR ; std::_Tree<std::_Tmap_traits<unsigned int,patch_scrap *,std::less<unsigned int>,std::allocator<std::pair<unsigned int const ,patch_scrap *> >,0> >::_Erase, COMDAT
; _this$ = ecx

; 890  : 		{	// free entire subtree, recursively

  00000	53		 push	 ebx
  00001	56		 push	 esi
  00002	57		 push	 edi

; 891  : 		for (_Nodeptr _Pnode = _Rootnode; !_Isnil(_Pnode); _Rootnode = _Pnode)

  00003	8b 7c 24 10	 mov	 edi, DWORD PTR __Rootnode$[esp+8]
  00007	80 7f 15 00	 cmp	 BYTE PTR [edi+21], 0
  0000b	8b d9		 mov	 ebx, ecx
  0000d	8b f7		 mov	 esi, edi
  0000f	75 1b		 jne	 SHORT $L24812
$L24810:

; 892  : 			{	// free subtrees, then node
; 893  : 			_Erase(_Right(_Pnode));

  00011	ff 76 08	 push	 DWORD PTR [esi+8]
  00014	8b cb		 mov	 ecx, ebx
  00016	e8 00 00 00 00	 call	 ?_Erase@?$_Tree@V?$_Tmap_traits@IPAUpatch_scrap@@U?$less@I@std@@V?$allocator@U?$pair@$$CBIPAUpatch_scrap@@@std@@@3@$0A@@std@@@std@@IAEXPAU_Node@?$_Tree_nod@V?$_Tmap_traits@IPAUpatch_scrap@@U?$less@I@std@@V?$allocator@U?$pair@$$CBIPAUpatch_scrap@@@std@@@3@$0A@@std@@@2@@Z ; std::_Tree<std::_Tmap_traits<unsigned int,patch_scrap *,std::less<unsigned int>,std::allocator<std::pair<unsigned int const ,patch_scrap *> >,0> >::_Erase

; 894  : 			_Pnode = _Left(_Pnode);

  0001b	8b 36		 mov	 esi, DWORD PTR [esi]

; 895  : 			this->_Alnod.destroy(_Rootnode);	// destroy, free erased node
; 896  : 			this->_Alnod.deallocate(_Rootnode, 1);

  0001d	57		 push	 edi
  0001e	e8 00 00 00 00	 call	 ??3@YAXPAX@Z		; operator delete
  00023	80 7e 15 00	 cmp	 BYTE PTR [esi+21], 0
  00027	59		 pop	 ecx
  00028	8b fe		 mov	 edi, esi
  0002a	74 e5		 je	 SHORT $L24810
$L24812:
  0002c	5f		 pop	 edi
  0002d	5e		 pop	 esi
  0002e	5b		 pop	 ebx

; 897  : 			}
; 898  : 		}

  0002f	c2 04 00	 ret	 4
?_Erase@?$_Tree@V?$_Tmap_traits@IPAUpatch_scrap@@U?$less@I@std@@V?$allocator@U?$pair@$$CBIPAUpatch_scrap@@@std@@@3@$0A@@std@@@std@@IAEXPAU_Node@?$_Tree_nod@V?$_Tmap_traits@IPAUpatch_scrap@@U?$less@I@std@@V?$allocator@U?$pair@$$CBIPAUpatch_scrap@@@std@@@3@$0A@@std@@@2@@Z ENDP ; std::_Tree<std::_Tmap_traits<unsigned int,patch_scrap *,std::less<unsigned int>,std::allocator<std::pair<unsigned int const ,patch_scrap *> >,0> >::_Erase
; Function compile flags: /Ogsy
_TEXT	ENDS
;	COMDAT ?size@?$_Tree@V?$_Tmap_traits@IPAUpatch_scrap@@U?$less@I@std@@V?$allocator@U?$pair@$$CBIPAUpatch_scrap@@@std@@@3@$0A@@std@@@std@@QBEIXZ
_TEXT	SEGMENT
?size@?$_Tree@V?$_Tmap_traits@IPAUpatch_scrap@@U?$less@I@std@@V?$allocator@U?$pair@$$CBIPAUpatch_scrap@@@std@@@3@$0A@@std@@@std@@QBEIXZ PROC NEAR ; std::_Tree<std::_Tmap_traits<unsigned int,patch_scrap *,std::less<unsigned int>,std::allocator<std::pair<unsigned int const ,patch_scrap *> >,0> >::size, COMDAT
; _this$ = eax

; 448  : 		return (_Mysize);

  00000	8b 40 08	 mov	 eax, DWORD PTR [eax+8]

; 449  : 		}

  00003	c3		 ret	 0
?size@?$_Tree@V?$_Tmap_traits@IPAUpatch_scrap@@U?$less@I@std@@V?$allocator@U?$pair@$$CBIPAUpatch_scrap@@@std@@@3@$0A@@std@@@std@@QBEIXZ ENDP ; std::_Tree<std::_Tmap_traits<unsigned int,patch_scrap *,std::less<unsigned int>,std::allocator<std::pair<unsigned int const ,patch_scrap *> >,0> >::size
; Function compile flags: /Ogsy
_TEXT	ENDS
;	COMDAT ?_Key@?$_Tree@V?$_Tmap_traits@IPAUpatch_scrap@@U?$less@I@std@@V?$allocator@U?$pair@$$CBIPAUpatch_scrap@@@std@@@3@$0A@@std@@@std@@KAABIPAU_Node@?$_Tree_nod@V?$_Tmap_traits@IPAUpatch_scrap@@U?$less@I@std@@V?$allocator@U?$pair@$$CBIPAUpatch_scrap@@@std@@@3@$0A@@std@@@2@@Z
_TEXT	SEGMENT
?_Key@?$_Tree@V?$_Tmap_traits@IPAUpatch_scrap@@U?$less@I@std@@V?$allocator@U?$pair@$$CBIPAUpatch_scrap@@@std@@@3@$0A@@std@@@std@@KAABIPAU_Node@?$_Tree_nod@V?$_Tmap_traits@IPAUpatch_scrap@@U?$less@I@std@@V?$allocator@U?$pair@$$CBIPAUpatch_scrap@@@std@@@3@$0A@@std@@@2@@Z PROC NEAR ; std::_Tree<std::_Tmap_traits<unsigned int,patch_scrap *,std::less<unsigned int>,std::allocator<std::pair<unsigned int const ,patch_scrap *> >,0> >::_Key, COMDAT
; __Pnode$ = eax

; 142  : 		return (_Mybase::_Kfn(_Myval(_Pnode)));

  00000	83 c0 0c	 add	 eax, 12			; 0000000cH

; 143  : 		}

  00003	c3		 ret	 0
?_Key@?$_Tree@V?$_Tmap_traits@IPAUpatch_scrap@@U?$less@I@std@@V?$allocator@U?$pair@$$CBIPAUpatch_scrap@@@std@@@3@$0A@@std@@@std@@KAABIPAU_Node@?$_Tree_nod@V?$_Tmap_traits@IPAUpatch_scrap@@U?$less@I@std@@V?$allocator@U?$pair@$$CBIPAUpatch_scrap@@@std@@@3@$0A@@std@@@2@@Z ENDP ; std::_Tree<std::_Tmap_traits<unsigned int,patch_scrap *,std::less<unsigned int>,std::allocator<std::pair<unsigned int const ,patch_scrap *> >,0> >::_Key
; Function compile flags: /Ogsy
_TEXT	ENDS
;	COMDAT ??9const_iterator@?$_Tree@V?$_Tmap_traits@IPAUpatch_scrap@@U?$less@I@std@@V?$allocator@U?$pair@$$CBIPAUpatch_scrap@@@std@@@3@$0A@@std@@@std@@QBE_NABV012@@Z
_TEXT	SEGMENT
??9const_iterator@?$_Tree@V?$_Tmap_traits@IPAUpatch_scrap@@U?$less@I@std@@V?$allocator@U?$pair@$$CBIPAUpatch_scrap@@@std@@@3@$0A@@std@@@std@@QBE_NABV012@@Z PROC NEAR ; std::_Tree<std::_Tmap_traits<unsigned int,patch_scrap *,std::less<unsigned int>,std::allocator<std::pair<unsigned int const ,patch_scrap *> >,0> >::const_iterator::operator!=, COMDAT
; _this$ = eax
; __Right$ = edx

; 246  : 			return (!(*this == _Right));

  00000	8b 00		 mov	 eax, DWORD PTR [eax]
  00002	33 c9		 xor	 ecx, ecx
  00004	3b 02		 cmp	 eax, DWORD PTR [edx]
  00006	0f 95 c1	 setne	 cl
  00009	8a c1		 mov	 al, cl

; 247  : 			}

  0000b	c3		 ret	 0
??9const_iterator@?$_Tree@V?$_Tmap_traits@IPAUpatch_scrap@@U?$less@I@std@@V?$allocator@U?$pair@$$CBIPAUpatch_scrap@@@std@@@3@$0A@@std@@@std@@QBE_NABV012@@Z ENDP ; std::_Tree<std::_Tmap_traits<unsigned int,patch_scrap *,std::less<unsigned int>,std::allocator<std::pair<unsigned int const ,patch_scrap *> >,0> >::const_iterator::operator!=
; Function compile flags: /Ogsy
_TEXT	ENDS
;	COMDAT ??0iterator@?$_Tree@V?$_Tmap_traits@IPAUpatch_scrap@@U?$less@I@std@@V?$allocator@U?$pair@$$CBIPAUpatch_scrap@@@std@@@3@$0A@@std@@@std@@QAE@XZ
_TEXT	SEGMENT
??0iterator@?$_Tree@V?$_Tmap_traits@IPAUpatch_scrap@@U?$less@I@std@@V?$allocator@U?$pair@$$CBIPAUpatch_scrap@@@std@@@3@$0A@@std@@@std@@QAE@XZ PROC NEAR ; std::_Tree<std::_Tmap_traits<unsigned int,patch_scrap *,std::less<unsigned int>,std::allocator<std::pair<unsigned int const ,patch_scrap *> >,0> >::iterator::iterator, COMDAT
; _this$ = eax

; 304  : 		iterator()

  00000	83 20 00	 and	 DWORD PTR [eax], 0

; 305  : 			{	// construct with null node pointer
; 306  : 			}

  00003	c3		 ret	 0
??0iterator@?$_Tree@V?$_Tmap_traits@IPAUpatch_scrap@@U?$less@I@std@@V?$allocator@U?$pair@$$CBIPAUpatch_scrap@@@std@@@3@$0A@@std@@@std@@QAE@XZ ENDP ; std::_Tree<std::_Tmap_traits<unsigned int,patch_scrap *,std::less<unsigned int>,std::allocator<std::pair<unsigned int const ,patch_scrap *> >,0> >::iterator::iterator
; Function compile flags: /Ogsy
_TEXT	ENDS
;	COMDAT ?clear@?$_Tree@V?$_Tmap_traits@IPAUpatch_scrap@@U?$less@I@std@@V?$allocator@U?$pair@$$CBIPAUpatch_scrap@@@std@@@3@$0A@@std@@@std@@QAEXXZ
_TEXT	SEGMENT
?clear@?$_Tree@V?$_Tmap_traits@IPAUpatch_scrap@@U?$less@I@std@@V?$allocator@U?$pair@$$CBIPAUpatch_scrap@@@std@@@3@$0A@@std@@@std@@QAEXXZ PROC NEAR ; std::_Tree<std::_Tmap_traits<unsigned int,patch_scrap *,std::less<unsigned int>,std::allocator<std::pair<unsigned int const ,patch_scrap *> >,0> >::clear, COMDAT
; _this$ = edi

; 780  : 		{	// erase all

  00000	56		 push	 esi

; 781  : 		_Erase(_Root());

  00001	8d 77 04	 lea	 esi, DWORD PTR [edi+4]
  00004	8b 06		 mov	 eax, DWORD PTR [esi]
  00006	ff 70 04	 push	 DWORD PTR [eax+4]
  00009	8b cf		 mov	 ecx, edi
  0000b	e8 00 00 00 00	 call	 ?_Erase@?$_Tree@V?$_Tmap_traits@IPAUpatch_scrap@@U?$less@I@std@@V?$allocator@U?$pair@$$CBIPAUpatch_scrap@@@std@@@3@$0A@@std@@@std@@IAEXPAU_Node@?$_Tree_nod@V?$_Tmap_traits@IPAUpatch_scrap@@U?$less@I@std@@V?$allocator@U?$pair@$$CBIPAUpatch_scrap@@@std@@@3@$0A@@std@@@2@@Z ; std::_Tree<std::_Tmap_traits<unsigned int,patch_scrap *,std::less<unsigned int>,std::allocator<std::pair<unsigned int const ,patch_scrap *> >,0> >::_Erase

; 782  : 		_Root() = _Myhead, _Mysize = 0;

  00010	8b 06		 mov	 eax, DWORD PTR [esi]
  00012	89 40 04	 mov	 DWORD PTR [eax+4], eax

; 783  : 		_Lmost() = _Myhead, _Rmost() = _Myhead;

  00015	8b 06		 mov	 eax, DWORD PTR [esi]
  00017	83 67 08 00	 and	 DWORD PTR [edi+8], 0
  0001b	89 00		 mov	 DWORD PTR [eax], eax
  0001d	8b 36		 mov	 esi, DWORD PTR [esi]
  0001f	89 76 08	 mov	 DWORD PTR [esi+8], esi
  00022	5e		 pop	 esi

; 784  : 		}

  00023	c3		 ret	 0
?clear@?$_Tree@V?$_Tmap_traits@IPAUpatch_scrap@@U?$less@I@std@@V?$allocator@U?$pair@$$CBIPAUpatch_scrap@@@std@@@3@$0A@@std@@@std@@QAEXXZ ENDP ; std::_Tree<std::_Tmap_traits<unsigned int,patch_scrap *,std::less<unsigned int>,std::allocator<std::pair<unsigned int const ,patch_scrap *> >,0> >::clear
; Function compile flags: /Ogsy
_TEXT	ENDS
;	COMDAT ?empty@?$_Tree@V?$_Tmap_traits@IPAUpatch_scrap@@U?$less@I@std@@V?$allocator@U?$pair@$$CBIPAUpatch_scrap@@@std@@@3@$0A@@std@@@std@@QBE_NXZ
_TEXT	SEGMENT
?empty@?$_Tree@V?$_Tmap_traits@IPAUpatch_scrap@@U?$less@I@std@@V?$allocator@U?$pair@$$CBIPAUpatch_scrap@@@std@@@3@$0A@@std@@@std@@QBE_NXZ PROC NEAR ; std::_Tree<std::_Tmap_traits<unsigned int,patch_scrap *,std::less<unsigned int>,std::allocator<std::pair<unsigned int const ,patch_scrap *> >,0> >::empty, COMDAT
; _this$ = ecx

; 458  : 		return (size() == 0);

  00000	33 c0		 xor	 eax, eax
  00002	39 41 08	 cmp	 DWORD PTR [ecx+8], eax
  00005	0f 94 c0	 sete	 al

; 459  : 		}

  00008	c3		 ret	 0
?empty@?$_Tree@V?$_Tmap_traits@IPAUpatch_scrap@@U?$less@I@std@@V?$allocator@U?$pair@$$CBIPAUpatch_scrap@@@std@@@3@$0A@@std@@@std@@QBE_NXZ ENDP ; std::_Tree<std::_Tmap_traits<unsigned int,patch_scrap *,std::less<unsigned int>,std::allocator<std::pair<unsigned int const ,patch_scrap *> >,0> >::empty
; Function compile flags: /Ogsy
_TEXT	ENDS
;	COMDAT ?end@?$_Tree@V?$_Tmap_traits@IPAUpatch_scrap@@U?$less@I@std@@V?$allocator@U?$pair@$$CBIPAUpatch_scrap@@@std@@@3@$0A@@std@@@std@@QAE?AViterator@12@XZ
_TEXT	SEGMENT
?end@?$_Tree@V?$_Tmap_traits@IPAUpatch_scrap@@U?$less@I@std@@V?$allocator@U?$pair@$$CBIPAUpatch_scrap@@@std@@@3@$0A@@std@@@std@@QAE?AViterator@12@XZ PROC NEAR ; std::_Tree<std::_Tmap_traits<unsigned int,patch_scrap *,std::less<unsigned int>,std::allocator<std::pair<unsigned int const ,patch_scrap *> >,0> >::end, COMDAT
; _this$ = ecx
; ___$ReturnUdt$ = eax

; 418  : 		return (_TREE_ITERATOR(_Myhead));

  00000	8b 49 04	 mov	 ecx, DWORD PTR [ecx+4]
  00003	89 08		 mov	 DWORD PTR [eax], ecx

; 419  : 		}

  00005	c3		 ret	 0
?end@?$_Tree@V?$_Tmap_traits@IPAUpatch_scrap@@U?$less@I@std@@V?$allocator@U?$pair@$$CBIPAUpatch_scrap@@@std@@@3@$0A@@std@@@std@@QAE?AViterator@12@XZ ENDP ; std::_Tree<std::_Tmap_traits<unsigned int,patch_scrap *,std::less<unsigned int>,std::allocator<std::pair<unsigned int const ,patch_scrap *> >,0> >::end
; Function compile flags: /Ogsy
_TEXT	ENDS
;	COMDAT ?begin@?$_Tree@V?$_Tmap_traits@IPAUpatch_scrap@@U?$less@I@std@@V?$allocator@U?$pair@$$CBIPAUpatch_scrap@@@std@@@3@$0A@@std@@@std@@QAE?AViterator@12@XZ
_TEXT	SEGMENT
?begin@?$_Tree@V?$_Tmap_traits@IPAUpatch_scrap@@U?$less@I@std@@V?$allocator@U?$pair@$$CBIPAUpatch_scrap@@@std@@@3@$0A@@std@@@std@@QAE?AViterator@12@XZ PROC NEAR ; std::_Tree<std::_Tmap_traits<unsigned int,patch_scrap *,std::less<unsigned int>,std::allocator<std::pair<unsigned int const ,patch_scrap *> >,0> >::begin, COMDAT
; _this$ = ecx
; ___$ReturnUdt$ = eax

; 408  : 		return (_TREE_ITERATOR(_Lmost()));

  00000	8b 49 04	 mov	 ecx, DWORD PTR [ecx+4]
  00003	8b 09		 mov	 ecx, DWORD PTR [ecx]
  00005	89 08		 mov	 DWORD PTR [eax], ecx

; 409  : 		}

  00007	c3		 ret	 0
?begin@?$_Tree@V?$_Tmap_traits@IPAUpatch_scrap@@U?$less@I@std@@V?$allocator@U?$pair@$$CBIPAUpatch_scrap@@@std@@@3@$0A@@std@@@std@@QAE?AViterator@12@XZ ENDP ; std::_Tree<std::_Tmap_traits<unsigned int,patch_scrap *,std::less<unsigned int>,std::allocator<std::pair<unsigned int const ,patch_scrap *> >,0> >::begin
; Function compile flags: /Ogsy
; File c:\program files (x86)\microsoft visual studio .net 2003\vc7\include\xmemory
;	COMDAT ??$_Construct@PAU_Node@?$_Tree_nod@V?$_Tmap_traits@IPAUpatch_scrap@@U?$less@I@std@@V?$allocator@U?$pair@$$CBIPAUpatch_scrap@@@std@@@3@$0A@@std@@@std@@PAU123@@std@@YAXPAPAU_Node@?$_Tree_nod@V?$_Tmap_traits@IPAUpatch_scrap@@U?$less@I@std@@V?$allocator@U?$pair@$$CBIPAUpatch_scrap@@@std@@@3@$0A@@std@@@0@ABQAU120@@Z
_TEXT	SEGMENT
??$_Construct@PAU_Node@?$_Tree_nod@V?$_Tmap_traits@IPAUpatch_scrap@@U?$less@I@std@@V?$allocator@U?$pair@$$CBIPAUpatch_scrap@@@std@@@3@$0A@@std@@@std@@PAU123@@std@@YAXPAPAU_Node@?$_Tree_nod@V?$_Tmap_traits@IPAUpatch_scrap@@U?$less@I@std@@V?$allocator@U?$pair@$$CBIPAUpatch_scrap@@@std@@@3@$0A@@std@@@0@ABQAU120@@Z PROC NEAR ; std::_Construct<std::_Tree_nod<std::_Tmap_traits<unsigned int,patch_scrap *,std::less<unsigned int>,std::allocator<std::pair<unsigned int const ,patch_scrap *> >,0> >::_Node *,std::_Tree_nod<std::_Tmap_traits<unsigned int,patch_scrap *,std::less<unsigned int>,std::allocator<std::pair<unsigned int const ,patch_scrap *> >,0> >::_Node *>, COMDAT
; __Ptr$ = eax
; __Val$ = ecx

; 42   : 	new ((void _FARQ *)_Ptr) _T1(_Val);

  00000	85 c0		 test	 eax, eax
  00002	74 04		 je	 SHORT $L45557
  00004	8b 09		 mov	 ecx, DWORD PTR [ecx]
  00006	89 08		 mov	 DWORD PTR [eax], ecx
$L45557:

; 43   : 	}

  00008	c3		 ret	 0
??$_Construct@PAU_Node@?$_Tree_nod@V?$_Tmap_traits@IPAUpatch_scrap@@U?$less@I@std@@V?$allocator@U?$pair@$$CBIPAUpatch_scrap@@@std@@@3@$0A@@std@@@std@@PAU123@@std@@YAXPAPAU_Node@?$_Tree_nod@V?$_Tmap_traits@IPAUpatch_scrap@@U?$less@I@std@@V?$allocator@U?$pair@$$CBIPAUpatch_scrap@@@std@@@3@$0A@@std@@@0@ABQAU120@@Z ENDP ; std::_Construct<std::_Tree_nod<std::_Tmap_traits<unsigned int,patch_scrap *,std::less<unsigned int>,std::allocator<std::pair<unsigned int const ,patch_scrap *> >,0> >::_Node *,std::_Tree_nod<std::_Tmap_traits<unsigned int,patch_scrap *,std::less<unsigned int>,std::allocator<std::pair<unsigned int const ,patch_scrap *> >,0> >::_Node *>
; Function compile flags: /Ogsy
_TEXT	ENDS
;	COMDAT ?construct@?$allocator@PAU_Node@?$_Tree_nod@V?$_Tmap_traits@IPAUpatch_scrap@@U?$less@I@std@@V?$allocator@U?$pair@$$CBIPAUpatch_scrap@@@std@@@3@$0A@@std@@@std@@@std@@QAEXPAPAU_Node@?$_Tree_nod@V?$_Tmap_traits@IPAUpatch_scrap@@U?$less@I@std@@V?$allocator@U?$pair@$$CBIPAUpatch_scrap@@@std@@@3@$0A@@std@@@2@ABQAU342@@Z
_TEXT	SEGMENT
?construct@?$allocator@PAU_Node@?$_Tree_nod@V?$_Tmap_traits@IPAUpatch_scrap@@U?$less@I@std@@V?$allocator@U?$pair@$$CBIPAUpatch_scrap@@@std@@@3@$0A@@std@@@std@@@std@@QAEXPAPAU_Node@?$_Tree_nod@V?$_Tmap_traits@IPAUpatch_scrap@@U?$less@I@std@@V?$allocator@U?$pair@$$CBIPAUpatch_scrap@@@std@@@3@$0A@@std@@@2@ABQAU342@@Z PROC NEAR ; std::allocator<std::_Tree_nod<std::_Tmap_traits<unsigned int,patch_scrap *,std::less<unsigned int>,std::allocator<std::pair<unsigned int const ,patch_scrap *> >,0> >::_Node *>::construct, COMDAT
; __Ptr$ = eax
; __Val$ = ecx

; 147  : 		_Construct(_Ptr, _Val);

  00000	85 c0		 test	 eax, eax
  00002	74 04		 je	 SHORT $L45575
  00004	8b 09		 mov	 ecx, DWORD PTR [ecx]
  00006	89 08		 mov	 DWORD PTR [eax], ecx
$L45575:

; 148  : 		}

  00008	c3		 ret	 0
?construct@?$allocator@PAU_Node@?$_Tree_nod@V?$_Tmap_traits@IPAUpatch_scrap@@U?$less@I@std@@V?$allocator@U?$pair@$$CBIPAUpatch_scrap@@@std@@@3@$0A@@std@@@std@@@std@@QAEXPAPAU_Node@?$_Tree_nod@V?$_Tmap_traits@IPAUpatch_scrap@@U?$less@I@std@@V?$allocator@U?$pair@$$CBIPAUpatch_scrap@@@std@@@3@$0A@@std@@@2@ABQAU342@@Z ENDP ; std::allocator<std::_Tree_nod<std::_Tmap_traits<unsigned int,patch_scrap *,std::less<unsigned int>,std::allocator<std::pair<unsigned int const ,patch_scrap *> >,0> >::_Node *>::construct
; Function compile flags: /Ogsy
; File c:\program files (x86)\microsoft visual studio .net 2003\vc7\include\xtree
_TEXT	ENDS
;	COMDAT ?_Min@?$_Tree@V?$_Tmap_traits@IPAUpatch_scrap@@U?$less@I@std@@V?$allocator@U?$pair@$$CBIPAUpatch_scrap@@@std@@@3@$0A@@std@@@std@@KAPAU_Node@?$_Tree_nod@V?$_Tmap_traits@IPAUpatch_scrap@@U?$less@I@std@@V?$allocator@U?$pair@$$CBIPAUpatch_scrap@@@std@@@3@$0A@@std@@@2@PAU342@@Z
_TEXT	SEGMENT
?_Min@?$_Tree@V?$_Tmap_traits@IPAUpatch_scrap@@U?$less@I@std@@V?$allocator@U?$pair@$$CBIPAUpatch_scrap@@@std@@@3@$0A@@std@@@std@@KAPAU_Node@?$_Tree_nod@V?$_Tmap_traits@IPAUpatch_scrap@@U?$less@I@std@@V?$allocator@U?$pair@$$CBIPAUpatch_scrap@@@std@@@3@$0A@@std@@@2@PAU342@@Z PROC NEAR ; std::_Tree<std::_Tmap_traits<unsigned int,patch_scrap *,std::less<unsigned int>,std::allocator<std::pair<unsigned int const ,patch_scrap *> >,0> >::_Min, COMDAT
; __Pnode$ = eax

; 1042 : 		while (!_Isnil(_Left(_Pnode)))

  00000	eb 02		 jmp	 SHORT $L45594
$L25536:

; 1043 : 			_Pnode = _Left(_Pnode);

  00002	8b c1		 mov	 eax, ecx
$L45594:

; 1042 : 		while (!_Isnil(_Left(_Pnode)))

  00004	8b 08		 mov	 ecx, DWORD PTR [eax]
  00006	80 79 15 00	 cmp	 BYTE PTR [ecx+21], 0
  0000a	74 f6		 je	 SHORT $L25536

; 1044 : 		return (_Pnode);
; 1045 : 		}

  0000c	c3		 ret	 0
?_Min@?$_Tree@V?$_Tmap_traits@IPAUpatch_scrap@@U?$less@I@std@@V?$allocator@U?$pair@$$CBIPAUpatch_scrap@@@std@@@3@$0A@@std@@@std@@KAPAU_Node@?$_Tree_nod@V?$_Tmap_traits@IPAUpatch_scrap@@U?$less@I@std@@V?$allocator@U?$pair@$$CBIPAUpatch_scrap@@@std@@@3@$0A@@std@@@2@PAU342@@Z ENDP ; std::_Tree<std::_Tmap_traits<unsigned int,patch_scrap *,std::less<unsigned int>,std::allocator<std::pair<unsigned int const ,patch_scrap *> >,0> >::_Min
; Function compile flags: /Ogsy
_TEXT	ENDS
;	COMDAT ?_Max@?$_Tree@V?$_Tmap_traits@IPAUpatch_scrap@@U?$less@I@std@@V?$allocator@U?$pair@$$CBIPAUpatch_scrap@@@std@@@3@$0A@@std@@@std@@KAPAU_Node@?$_Tree_nod@V?$_Tmap_traits@IPAUpatch_scrap@@U?$less@I@std@@V?$allocator@U?$pair@$$CBIPAUpatch_scrap@@@std@@@3@$0A@@std@@@2@PAU342@@Z
_TEXT	SEGMENT
?_Max@?$_Tree@V?$_Tmap_traits@IPAUpatch_scrap@@U?$less@I@std@@V?$allocator@U?$pair@$$CBIPAUpatch_scrap@@@std@@@3@$0A@@std@@@std@@KAPAU_Node@?$_Tree_nod@V?$_Tmap_traits@IPAUpatch_scrap@@U?$less@I@std@@V?$allocator@U?$pair@$$CBIPAUpatch_scrap@@@std@@@3@$0A@@std@@@2@PAU342@@Z PROC NEAR ; std::_Tree<std::_Tmap_traits<unsigned int,patch_scrap *,std::less<unsigned int>,std::allocator<std::pair<unsigned int const ,patch_scrap *> >,0> >::_Max, COMDAT
; __Pnode$ = eax

; 1035 : 		while (!_Isnil(_Right(_Pnode)))

  00000	eb 02		 jmp	 SHORT $L45610
$L25532:

; 1036 : 			_Pnode = _Right(_Pnode);

  00002	8b c1		 mov	 eax, ecx
$L45610:

; 1035 : 		while (!_Isnil(_Right(_Pnode)))

  00004	8b 48 08	 mov	 ecx, DWORD PTR [eax+8]
  00007	80 79 15 00	 cmp	 BYTE PTR [ecx+21], 0
  0000b	74 f5		 je	 SHORT $L25532

; 1037 : 		return (_Pnode);
; 1038 : 		}

  0000d	c3		 ret	 0
?_Max@?$_Tree@V?$_Tmap_traits@IPAUpatch_scrap@@U?$less@I@std@@V?$allocator@U?$pair@$$CBIPAUpatch_scrap@@@std@@@3@$0A@@std@@@std@@KAPAU_Node@?$_Tree_nod@V?$_Tmap_traits@IPAUpatch_scrap@@U?$less@I@std@@V?$allocator@U?$pair@$$CBIPAUpatch_scrap@@@std@@@3@$0A@@std@@@2@PAU342@@Z ENDP ; std::_Tree<std::_Tmap_traits<unsigned int,patch_scrap *,std::less<unsigned int>,std::allocator<std::pair<unsigned int const ,patch_scrap *> >,0> >::_Max
; Function compile flags: /Ogsy
_TEXT	ENDS
;	COMDAT ?_Inc@const_iterator@?$_Tree@V?$_Tmap_traits@IPAUpatch_scrap@@U?$less@I@std@@V?$allocator@U?$pair@$$CBIPAUpatch_scrap@@@std@@@3@$0A@@std@@@std@@QAEXXZ
_TEXT	SEGMENT
?_Inc@const_iterator@?$_Tree@V?$_Tmap_traits@IPAUpatch_scrap@@U?$less@I@std@@V?$allocator@U?$pair@$$CBIPAUpatch_scrap@@@std@@@3@$0A@@std@@@std@@QAEXXZ PROC NEAR ; std::_Tree<std::_Tmap_traits<unsigned int,patch_scrap *,std::less<unsigned int>,std::allocator<std::pair<unsigned int const ,patch_scrap *> >,0> >::const_iterator::_Inc, COMDAT
; _this$ = edx

; 268  : 			if (_Isnil(_Ptr))

  00000	8b 02		 mov	 eax, DWORD PTR [edx]
  00002	53		 push	 ebx
  00003	32 db		 xor	 bl, bl
  00005	38 58 15	 cmp	 BYTE PTR [eax+21], bl
  00008	75 2a		 jne	 SHORT $L25466

; 269  : 				;	// end() shouldn't be incremented, don't move
; 270  : 			else if (!_Isnil(_Right(_Ptr)))

  0000a	8b 48 08	 mov	 ecx, DWORD PTR [eax+8]
  0000d	38 59 15	 cmp	 BYTE PTR [ecx+21], bl
  00010	75 18		 jne	 SHORT $L45657

; 271  : 				_Ptr = _Min(_Right(_Ptr));	// ==> smallest of right subtree

  00012	eb 02		 jmp	 SHORT $L45661
$L45644:
  00014	8b c8		 mov	 ecx, eax
$L45661:
  00016	8b 01		 mov	 eax, DWORD PTR [ecx]
  00018	38 58 15	 cmp	 BYTE PTR [eax+21], bl
  0001b	74 f7		 je	 SHORT $L45644
  0001d	89 0a		 mov	 DWORD PTR [edx], ecx
  0001f	5b		 pop	 ebx

; 279  : 				}
; 280  : 			}

  00020	c3		 ret	 0
$L25469:

; 272  : 			else
; 273  : 				{	// climb looking for right subtree
; 274  : 				_Nodeptr _Pnode;
; 275  : 				while (!_Isnil(_Pnode = _Parent(_Ptr))
; 276  : 					&& _Ptr == _Right(_Pnode))

  00021	8b 0a		 mov	 ecx, DWORD PTR [edx]
  00023	3b 48 08	 cmp	 ecx, DWORD PTR [eax+8]
  00026	75 0a		 jne	 SHORT $L25470

; 277  : 					_Ptr = _Pnode;	// ==> parent while right subtree

  00028	89 02		 mov	 DWORD PTR [edx], eax
$L45657:

; 272  : 			else
; 273  : 				{	// climb looking for right subtree
; 274  : 				_Nodeptr _Pnode;
; 275  : 				while (!_Isnil(_Pnode = _Parent(_Ptr))
; 276  : 					&& _Ptr == _Right(_Pnode))

  0002a	8b 40 04	 mov	 eax, DWORD PTR [eax+4]
  0002d	38 58 15	 cmp	 BYTE PTR [eax+21], bl
  00030	74 ef		 je	 SHORT $L25469
$L25470:

; 278  : 				_Ptr = _Pnode;	// ==> parent (head if end())

  00032	89 02		 mov	 DWORD PTR [edx], eax
$L25466:
  00034	5b		 pop	 ebx

; 279  : 				}
; 280  : 			}

  00035	c3		 ret	 0
?_Inc@const_iterator@?$_Tree@V?$_Tmap_traits@IPAUpatch_scrap@@U?$less@I@std@@V?$allocator@U?$pair@$$CBIPAUpatch_scrap@@@std@@@3@$0A@@std@@@std@@QAEXXZ ENDP ; std::_Tree<std::_Tmap_traits<unsigned int,patch_scrap *,std::less<unsigned int>,std::allocator<std::pair<unsigned int const ,patch_scrap *> >,0> >::const_iterator::_Inc
; Function compile flags: /Ogsy
_TEXT	ENDS
;	COMDAT ??0?$_Tree_ptr@V?$_Tmap_traits@IPAUpatch_scrap@@U?$less@I@std@@V?$allocator@U?$pair@$$CBIPAUpatch_scrap@@@std@@@3@$0A@@std@@@std@@IAE@ABU?$less@I@1@V?$allocator@U?$pair@$$CBIPAUpatch_scrap@@@std@@@1@@Z
_TEXT	SEGMENT
__Al$ = 8						; size = 1
??0?$_Tree_ptr@V?$_Tmap_traits@IPAUpatch_scrap@@U?$less@I@std@@V?$allocator@U?$pair@$$CBIPAUpatch_scrap@@@std@@@3@$0A@@std@@@std@@IAE@ABU?$less@I@1@V?$allocator@U?$pair@$$CBIPAUpatch_scrap@@@std@@@1@@Z PROC NEAR ; std::_Tree_ptr<std::_Tmap_traits<unsigned int,patch_scrap *,std::less<unsigned int>,std::allocator<std::pair<unsigned int const ,patch_scrap *> >,0> >::_Tree_ptr<std::_Tmap_traits<unsigned int,patch_scrap *,std::less<unsigned int>,std::allocator<std::pair<unsigned int const ,patch_scrap *> >,0> >, COMDAT
; _this$ = eax

; 77   : 		}

  00000	c2 04 00	 ret	 4
??0?$_Tree_ptr@V?$_Tmap_traits@IPAUpatch_scrap@@U?$less@I@std@@V?$allocator@U?$pair@$$CBIPAUpatch_scrap@@@std@@@3@$0A@@std@@@std@@IAE@ABU?$less@I@1@V?$allocator@U?$pair@$$CBIPAUpatch_scrap@@@std@@@1@@Z ENDP ; std::_Tree_ptr<std::_Tmap_traits<unsigned int,patch_scrap *,std::less<unsigned int>,std::allocator<std::pair<unsigned int const ,patch_scrap *> >,0> >::_Tree_ptr<std::_Tmap_traits<unsigned int,patch_scrap *,std::less<unsigned int>,std::allocator<std::pair<unsigned int const ,patch_scrap *> >,0> >
; Function compile flags: /Ogsy
_TEXT	ENDS
;	COMDAT ?_Buynode@?$_Tree@V?$_Tmap_traits@IPAUpatch_scrap@@U?$less@I@std@@V?$allocator@U?$pair@$$CBIPAUpatch_scrap@@@std@@@3@$0A@@std@@@std@@IAEPAU_Node@?$_Tree_nod@V?$_Tmap_traits@IPAUpatch_scrap@@U?$less@I@std@@V?$allocator@U?$pair@$$CBIPAUpatch_scrap@@@std@@@3@$0A@@std@@@2@PAU342@00ABU?$pair@$$CBIPAUpatch_scrap@@@2@D@Z
_TEXT	SEGMENT
__Larg$ = 8						; size = 4
__Parg$ = 12						; size = 4
__Rarg$ = 16						; size = 4
__Val$ = 20						; size = 4
__Carg$ = 24						; size = 1
?_Buynode@?$_Tree@V?$_Tmap_traits@IPAUpatch_scrap@@U?$less@I@std@@V?$allocator@U?$pair@$$CBIPAUpatch_scrap@@@std@@@3@$0A@@std@@@std@@IAEPAU_Node@?$_Tree_nod@V?$_Tmap_traits@IPAUpatch_scrap@@U?$less@I@std@@V?$allocator@U?$pair@$$CBIPAUpatch_scrap@@@std@@@3@$0A@@std@@@2@PAU342@00ABU?$pair@$$CBIPAUpatch_scrap@@@2@D@Z PROC NEAR ; std::_Tree<std::_Tmap_traits<unsigned int,patch_scrap *,std::less<unsigned int>,std::allocator<std::pair<unsigned int const ,patch_scrap *> >,0> >::_Buynode, COMDAT

; 1130 : 		{	// allocate a node with pointers, value, and color

  00000	55		 push	 ebp
  00001	8b ec		 mov	 ebp, esp
  00003	56		 push	 esi

; 1131 : 		_Nodeptr _Wherenode = this->_Alnod.allocate(1);

  00004	6a 18		 push	 24			; 00000018H
  00006	e8 00 00 00 00	 call	 ??2@YAPAXI@Z		; operator new
  0000b	8b f0		 mov	 esi, eax

; 1132 : 		_TRY_BEGIN
; 1133 : 		new (_Wherenode) _Node(_Larg, _Parg, _Rarg, _Val, _Carg);

  0000d	85 f6		 test	 esi, esi
  0000f	59		 pop	 ecx
  00010	74 14		 je	 SHORT $L45692
  00012	ff 75 18	 push	 DWORD PTR __Carg$[ebp]
  00015	8b 4d 14	 mov	 ecx, DWORD PTR __Val$[ebp]
  00018	ff 75 10	 push	 DWORD PTR __Rarg$[ebp]
  0001b	8b 55 08	 mov	 edx, DWORD PTR __Larg$[ebp]
  0001e	ff 75 0c	 push	 DWORD PTR __Parg$[ebp]
  00021	e8 00 00 00 00	 call	 ??0_Node@?$_Tree_nod@V?$_Tmap_traits@IPAUpatch_scrap@@U?$less@I@std@@V?$allocator@U?$pair@$$CBIPAUpatch_scrap@@@std@@@3@$0A@@std@@@std@@QAE@PAU012@00ABU?$pair@$$CBIPAUpatch_scrap@@@2@D@Z ; std::_Tree_nod<std::_Tmap_traits<unsigned int,patch_scrap *,std::less<unsigned int>,std::allocator<std::pair<unsigned int const ,patch_scrap *> >,0> >::_Node::_Node
$L45692:

; 1134 : 		_CATCH_ALL
; 1135 : 		this->_Alnod.deallocate(_Wherenode, 1);
; 1136 : 		_RERAISE;
; 1137 : 		_CATCH_END
; 1138 : 		return (_Wherenode);

  00026	8b c6		 mov	 eax, esi
  00028	5e		 pop	 esi

; 1139 : 		}

  00029	5d		 pop	 ebp
  0002a	c2 14 00	 ret	 20			; 00000014H
?_Buynode@?$_Tree@V?$_Tmap_traits@IPAUpatch_scrap@@U?$less@I@std@@V?$allocator@U?$pair@$$CBIPAUpatch_scrap@@@std@@@3@$0A@@std@@@std@@IAEPAU_Node@?$_Tree_nod@V?$_Tmap_traits@IPAUpatch_scrap@@U?$less@I@std@@V?$allocator@U?$pair@$$CBIPAUpatch_scrap@@@std@@@3@$0A@@std@@@2@PAU342@00ABU?$pair@$$CBIPAUpatch_scrap@@@2@D@Z ENDP ; std::_Tree<std::_Tmap_traits<unsigned int,patch_scrap *,std::less<unsigned int>,std::allocator<std::pair<unsigned int const ,patch_scrap *> >,0> >::_Buynode
; Function compile flags: /Ogsy
_TEXT	ENDS
;	COMDAT ?_Buynode@?$_Tree@V?$_Tmap_traits@IPAUpatch_scrap@@U?$less@I@std@@V?$allocator@U?$pair@$$CBIPAUpatch_scrap@@@std@@@3@$0A@@std@@@std@@IAEPAU_Node@?$_Tree_nod@V?$_Tmap_traits@IPAUpatch_scrap@@U?$less@I@std@@V?$allocator@U?$pair@$$CBIPAUpatch_scrap@@@std@@@3@$0A@@std@@@2@XZ
_TEXT	SEGMENT
?_Buynode@?$_Tree@V?$_Tmap_traits@IPAUpatch_scrap@@U?$less@I@std@@V?$allocator@U?$pair@$$CBIPAUpatch_scrap@@@std@@@3@$0A@@std@@@std@@IAEPAU_Node@?$_Tree_nod@V?$_Tmap_traits@IPAUpatch_scrap@@U?$less@I@std@@V?$allocator@U?$pair@$$CBIPAUpatch_scrap@@@std@@@3@$0A@@std@@@2@XZ PROC NEAR ; std::_Tree<std::_Tmap_traits<unsigned int,patch_scrap *,std::less<unsigned int>,std::allocator<std::pair<unsigned int const ,patch_scrap *> >,0> >::_Buynode, COMDAT

; 1106 : 		_Nodeptr _Wherenode = this->_Alnod.allocate(1);

  00000	6a 18		 push	 24			; 00000018H
  00002	e8 00 00 00 00	 call	 ??2@YAPAXI@Z		; operator new

; 1107 : 		int _Linkcnt = 0;
; 1108 : 
; 1109 : 		_TRY_BEGIN
; 1110 : 		this->_Alptr.construct(&_Left(_Wherenode), 0);

  00007	33 d2		 xor	 edx, edx
  00009	3b c2		 cmp	 eax, edx
  0000b	59		 pop	 ecx
  0000c	74 02		 je	 SHORT $L45750
  0000e	89 10		 mov	 DWORD PTR [eax], edx
$L45750:

; 1111 : 		++_Linkcnt;
; 1112 : 		this->_Alptr.construct(&_Parent(_Wherenode), 0);

  00010	8d 48 04	 lea	 ecx, DWORD PTR [eax+4]
  00013	3b ca		 cmp	 ecx, edx
  00015	74 02		 je	 SHORT $L45777
  00017	89 11		 mov	 DWORD PTR [ecx], edx
$L45777:

; 1113 : 		++_Linkcnt;
; 1114 : 		this->_Alptr.construct(&_Right(_Wherenode), 0);

  00019	8d 48 08	 lea	 ecx, DWORD PTR [eax+8]
  0001c	3b ca		 cmp	 ecx, edx
  0001e	74 02		 je	 SHORT $L45804
  00020	89 11		 mov	 DWORD PTR [ecx], edx
$L45804:

; 1115 : 		_CATCH_ALL
; 1116 : 		if (1 < _Linkcnt)
; 1117 : 			this->_Alptr.destroy(&_Parent(_Wherenode));
; 1118 : 		if (0 < _Linkcnt)
; 1119 : 			this->_Alptr.destroy(&_Left(_Wherenode));
; 1120 : 		this->_Alnod.deallocate(_Wherenode, 1);
; 1121 : 		_RERAISE;
; 1122 : 		_CATCH_END
; 1123 : 		_Color(_Wherenode) = _Black;

  00022	c6 40 14 01	 mov	 BYTE PTR [eax+20], 1

; 1124 : 		_Isnil(_Wherenode) = false;

  00026	88 50 15	 mov	 BYTE PTR [eax+21], dl

; 1125 : 		return (_Wherenode);
; 1126 : 		}

  00029	c3		 ret	 0
?_Buynode@?$_Tree@V?$_Tmap_traits@IPAUpatch_scrap@@U?$less@I@std@@V?$allocator@U?$pair@$$CBIPAUpatch_scrap@@@std@@@3@$0A@@std@@@std@@IAEPAU_Node@?$_Tree_nod@V?$_Tmap_traits@IPAUpatch_scrap@@U?$less@I@std@@V?$allocator@U?$pair@$$CBIPAUpatch_scrap@@@std@@@3@$0A@@std@@@2@XZ ENDP ; std::_Tree<std::_Tmap_traits<unsigned int,patch_scrap *,std::less<unsigned int>,std::allocator<std::pair<unsigned int const ,patch_scrap *> >,0> >::_Buynode
; Function compile flags: /Ogsy
_TEXT	ENDS
;	COMDAT ?_Rrotate@?$_Tree@V?$_Tmap_traits@IPAUpatch_scrap@@U?$less@I@std@@V?$allocator@U?$pair@$$CBIPAUpatch_scrap@@@std@@@3@$0A@@std@@@std@@IAEXPAU_Node@?$_Tree_nod@V?$_Tmap_traits@IPAUpatch_scrap@@U?$less@I@std@@V?$allocator@U?$pair@$$CBIPAUpatch_scrap@@@std@@@3@$0A@@std@@@2@@Z
_TEXT	SEGMENT
_this$ = 8						; size = 4
?_Rrotate@?$_Tree@V?$_Tmap_traits@IPAUpatch_scrap@@U?$less@I@std@@V?$allocator@U?$pair@$$CBIPAUpatch_scrap@@@std@@@3@$0A@@std@@@std@@IAEXPAU_Node@?$_Tree_nod@V?$_Tmap_traits@IPAUpatch_scrap@@U?$less@I@std@@V?$allocator@U?$pair@$$CBIPAUpatch_scrap@@@std@@@3@$0A@@std@@@2@@Z PROC NEAR ; std::_Tree<std::_Tmap_traits<unsigned int,patch_scrap *,std::less<unsigned int>,std::allocator<std::pair<unsigned int const ,patch_scrap *> >,0> >::_Rrotate, COMDAT
; __Wherenode$ = ecx

; 1069 : 		_Nodeptr _Pnode = _Left(_Wherenode);

  00000	8b 01		 mov	 eax, DWORD PTR [ecx]

; 1070 : 		_Left(_Wherenode) = _Right(_Pnode);

  00002	8b 50 08	 mov	 edx, DWORD PTR [eax+8]
  00005	89 11		 mov	 DWORD PTR [ecx], edx

; 1071 : 
; 1072 : 		if (!_Isnil(_Right(_Pnode)))

  00007	8b 50 08	 mov	 edx, DWORD PTR [eax+8]
  0000a	80 7a 15 00	 cmp	 BYTE PTR [edx+21], 0
  0000e	75 03		 jne	 SHORT $L25420

; 1073 : 			_Parent(_Right(_Pnode)) = _Wherenode;

  00010	89 4a 04	 mov	 DWORD PTR [edx+4], ecx
$L25420:

; 1074 : 		_Parent(_Pnode) = _Parent(_Wherenode);

  00013	8b 51 04	 mov	 edx, DWORD PTR [ecx+4]
  00016	89 50 04	 mov	 DWORD PTR [eax+4], edx

; 1075 : 
; 1076 : 		if (_Wherenode == _Root())

  00019	8b 54 24 04	 mov	 edx, DWORD PTR _this$[esp-4]
  0001d	8b 52 04	 mov	 edx, DWORD PTR [edx+4]
  00020	3b 4a 04	 cmp	 ecx, DWORD PTR [edx+4]
  00023	75 05		 jne	 SHORT $L25421

; 1077 : 			_Root() = _Pnode;

  00025	89 42 04	 mov	 DWORD PTR [edx+4], eax

; 1078 : 		else if (_Wherenode == _Right(_Parent(_Wherenode)))

  00028	eb 0f		 jmp	 SHORT $L25424
$L25421:
  0002a	8b 51 04	 mov	 edx, DWORD PTR [ecx+4]
  0002d	3b 4a 08	 cmp	 ecx, DWORD PTR [edx+8]
  00030	75 05		 jne	 SHORT $L25423

; 1079 : 			_Right(_Parent(_Wherenode)) = _Pnode;

  00032	89 42 08	 mov	 DWORD PTR [edx+8], eax

; 1080 : 		else

  00035	eb 02		 jmp	 SHORT $L25424
$L25423:

; 1081 : 			_Left(_Parent(_Wherenode)) = _Pnode;

  00037	89 02		 mov	 DWORD PTR [edx], eax
$L25424:

; 1082 : 
; 1083 : 		_Right(_Pnode) = _Wherenode;

  00039	89 48 08	 mov	 DWORD PTR [eax+8], ecx

; 1084 : 		_Parent(_Wherenode) = _Pnode;

  0003c	89 41 04	 mov	 DWORD PTR [ecx+4], eax

; 1085 : 		}

  0003f	c2 04 00	 ret	 4
?_Rrotate@?$_Tree@V?$_Tmap_traits@IPAUpatch_scrap@@U?$less@I@std@@V?$allocator@U?$pair@$$CBIPAUpatch_scrap@@@std@@@3@$0A@@std@@@std@@IAEXPAU_Node@?$_Tree_nod@V?$_Tmap_traits@IPAUpatch_scrap@@U?$less@I@std@@V?$allocator@U?$pair@$$CBIPAUpatch_scrap@@@std@@@3@$0A@@std@@@2@@Z ENDP ; std::_Tree<std::_Tmap_traits<unsigned int,patch_scrap *,std::less<unsigned int>,std::allocator<std::pair<unsigned int const ,patch_scrap *> >,0> >::_Rrotate
; Function compile flags: /Ogsy
_TEXT	ENDS
;	COMDAT ?_Root@?$_Tree@V?$_Tmap_traits@IPAUpatch_scrap@@U?$less@I@std@@V?$allocator@U?$pair@$$CBIPAUpatch_scrap@@@std@@@3@$0A@@std@@@std@@IBEAAPAU_Node@?$_Tree_nod@V?$_Tmap_traits@IPAUpatch_scrap@@U?$less@I@std@@V?$allocator@U?$pair@$$CBIPAUpatch_scrap@@@std@@@3@$0A@@std@@@2@XZ
_TEXT	SEGMENT
?_Root@?$_Tree@V?$_Tmap_traits@IPAUpatch_scrap@@U?$less@I@std@@V?$allocator@U?$pair@$$CBIPAUpatch_scrap@@@std@@@3@$0A@@std@@@std@@IBEAAPAU_Node@?$_Tree_nod@V?$_Tmap_traits@IPAUpatch_scrap@@U?$less@I@std@@V?$allocator@U?$pair@$$CBIPAUpatch_scrap@@@std@@@3@$0A@@std@@@2@XZ PROC NEAR ; std::_Tree<std::_Tmap_traits<unsigned int,patch_scrap *,std::less<unsigned int>,std::allocator<std::pair<unsigned int const ,patch_scrap *> >,0> >::_Root, COMDAT
; _this$ = eax

; 1064 : 		return (_Parent(_Myhead));

  00000	8b 40 04	 mov	 eax, DWORD PTR [eax+4]
  00003	83 c0 04	 add	 eax, 4

; 1065 : 		}

  00006	c3		 ret	 0
?_Root@?$_Tree@V?$_Tmap_traits@IPAUpatch_scrap@@U?$less@I@std@@V?$allocator@U?$pair@$$CBIPAUpatch_scrap@@@std@@@3@$0A@@std@@@std@@IBEAAPAU_Node@?$_Tree_nod@V?$_Tmap_traits@IPAUpatch_scrap@@U?$less@I@std@@V?$allocator@U?$pair@$$CBIPAUpatch_scrap@@@std@@@3@$0A@@std@@@2@XZ ENDP ; std::_Tree<std::_Tmap_traits<unsigned int,patch_scrap *,std::less<unsigned int>,std::allocator<std::pair<unsigned int const ,patch_scrap *> >,0> >::_Root
; Function compile flags: /Ogsy
_TEXT	ENDS
;	COMDAT ?_Lrotate@?$_Tree@V?$_Tmap_traits@IPAUpatch_scrap@@U?$less@I@std@@V?$allocator@U?$pair@$$CBIPAUpatch_scrap@@@std@@@3@$0A@@std@@@std@@IAEXPAU_Node@?$_Tree_nod@V?$_Tmap_traits@IPAUpatch_scrap@@U?$less@I@std@@V?$allocator@U?$pair@$$CBIPAUpatch_scrap@@@std@@@3@$0A@@std@@@2@@Z
_TEXT	SEGMENT
_this$ = 8						; size = 4
?_Lrotate@?$_Tree@V?$_Tmap_traits@IPAUpatch_scrap@@U?$less@I@std@@V?$allocator@U?$pair@$$CBIPAUpatch_scrap@@@std@@@3@$0A@@std@@@std@@IAEXPAU_Node@?$_Tree_nod@V?$_Tmap_traits@IPAUpatch_scrap@@U?$less@I@std@@V?$allocator@U?$pair@$$CBIPAUpatch_scrap@@@std@@@3@$0A@@std@@@2@@Z PROC NEAR ; std::_Tree<std::_Tmap_traits<unsigned int,patch_scrap *,std::less<unsigned int>,std::allocator<std::pair<unsigned int const ,patch_scrap *> >,0> >::_Lrotate, COMDAT
; __Wherenode$ = ecx

; 1015 : 		_Nodeptr _Pnode = _Right(_Wherenode);

  00000	8b 41 08	 mov	 eax, DWORD PTR [ecx+8]

; 1016 : 		_Right(_Wherenode) = _Left(_Pnode);

  00003	8b 10		 mov	 edx, DWORD PTR [eax]
  00005	89 51 08	 mov	 DWORD PTR [ecx+8], edx

; 1017 : 
; 1018 : 		if (!_Isnil(_Left(_Pnode)))

  00008	8b 10		 mov	 edx, DWORD PTR [eax]
  0000a	80 7a 15 00	 cmp	 BYTE PTR [edx+21], 0
  0000e	75 03		 jne	 SHORT $L25410

; 1019 : 			_Parent(_Left(_Pnode)) = _Wherenode;

  00010	89 4a 04	 mov	 DWORD PTR [edx+4], ecx
$L25410:

; 1020 : 		_Parent(_Pnode) = _Parent(_Wherenode);

  00013	8b 51 04	 mov	 edx, DWORD PTR [ecx+4]
  00016	89 50 04	 mov	 DWORD PTR [eax+4], edx

; 1021 : 
; 1022 : 		if (_Wherenode == _Root())

  00019	8b 54 24 04	 mov	 edx, DWORD PTR _this$[esp-4]
  0001d	8b 52 04	 mov	 edx, DWORD PTR [edx+4]
  00020	3b 4a 04	 cmp	 ecx, DWORD PTR [edx+4]
  00023	75 05		 jne	 SHORT $L25411

; 1023 : 			_Root() = _Pnode;

  00025	89 42 04	 mov	 DWORD PTR [edx+4], eax

; 1024 : 		else if (_Wherenode == _Left(_Parent(_Wherenode)))

  00028	eb 0e		 jmp	 SHORT $L25414
$L25411:
  0002a	8b 51 04	 mov	 edx, DWORD PTR [ecx+4]
  0002d	3b 0a		 cmp	 ecx, DWORD PTR [edx]
  0002f	75 04		 jne	 SHORT $L25413

; 1025 : 			_Left(_Parent(_Wherenode)) = _Pnode;

  00031	89 02		 mov	 DWORD PTR [edx], eax

; 1026 : 		else

  00033	eb 03		 jmp	 SHORT $L25414
$L25413:

; 1027 : 			_Right(_Parent(_Wherenode)) = _Pnode;

  00035	89 42 08	 mov	 DWORD PTR [edx+8], eax
$L25414:

; 1028 : 
; 1029 : 		_Left(_Pnode) = _Wherenode;

  00038	89 08		 mov	 DWORD PTR [eax], ecx

; 1030 : 		_Parent(_Wherenode) = _Pnode;

  0003a	89 41 04	 mov	 DWORD PTR [ecx+4], eax

; 1031 : 		}

  0003d	c2 04 00	 ret	 4
?_Lrotate@?$_Tree@V?$_Tmap_traits@IPAUpatch_scrap@@U?$less@I@std@@V?$allocator@U?$pair@$$CBIPAUpatch_scrap@@@std@@@3@$0A@@std@@@std@@IAEXPAU_Node@?$_Tree_nod@V?$_Tmap_traits@IPAUpatch_scrap@@U?$less@I@std@@V?$allocator@U?$pair@$$CBIPAUpatch_scrap@@@std@@@3@$0A@@std@@@2@@Z ENDP ; std::_Tree<std::_Tmap_traits<unsigned int,patch_scrap *,std::less<unsigned int>,std::allocator<std::pair<unsigned int const ,patch_scrap *> >,0> >::_Lrotate
; Function compile flags: /Ogsy
_TEXT	ENDS
;	COMDAT ??Econst_iterator@?$_Tree@V?$_Tmap_traits@IPAUpatch_scrap@@U?$less@I@std@@V?$allocator@U?$pair@$$CBIPAUpatch_scrap@@@std@@@3@$0A@@std@@@std@@QAEAAV012@XZ
_TEXT	SEGMENT
_this$ = 8						; size = 4
??Econst_iterator@?$_Tree@V?$_Tmap_traits@IPAUpatch_scrap@@U?$less@I@std@@V?$allocator@U?$pair@$$CBIPAUpatch_scrap@@@std@@@3@$0A@@std@@@std@@QAEAAV012@XZ PROC NEAR ; std::_Tree<std::_Tmap_traits<unsigned int,patch_scrap *,std::less<unsigned int>,std::allocator<std::pair<unsigned int const ,patch_scrap *> >,0> >::const_iterator::operator++, COMDAT

; 215  : 			_Inc();

  00000	8b 54 24 04	 mov	 edx, DWORD PTR _this$[esp-4]
  00004	e8 00 00 00 00	 call	 ?_Inc@const_iterator@?$_Tree@V?$_Tmap_traits@IPAUpatch_scrap@@U?$less@I@std@@V?$allocator@U?$pair@$$CBIPAUpatch_scrap@@@std@@@3@$0A@@std@@@std@@QAEXXZ ; std::_Tree<std::_Tmap_traits<unsigned int,patch_scrap *,std::less<unsigned int>,std::allocator<std::pair<unsigned int const ,patch_scrap *> >,0> >::const_iterator::_Inc

; 216  : 			return (*this);

  00009	8b 44 24 04	 mov	 eax, DWORD PTR _this$[esp-4]

; 217  : 			}

  0000d	c2 04 00	 ret	 4
??Econst_iterator@?$_Tree@V?$_Tmap_traits@IPAUpatch_scrap@@U?$less@I@std@@V?$allocator@U?$pair@$$CBIPAUpatch_scrap@@@std@@@3@$0A@@std@@@std@@QAEAAV012@XZ ENDP ; std::_Tree<std::_Tmap_traits<unsigned int,patch_scrap *,std::less<unsigned int>,std::allocator<std::pair<unsigned int const ,patch_scrap *> >,0> >::const_iterator::operator++
; Function compile flags: /Ogsy
_TEXT	ENDS
;	COMDAT ??Dconst_iterator@?$_Tree@V?$_Tmap_traits@IPAUpatch_scrap@@U?$less@I@std@@V?$allocator@U?$pair@$$CBIPAUpatch_scrap@@@std@@@3@$0A@@std@@@std@@QBEABU?$pair@$$CBIPAUpatch_scrap@@@2@XZ
_TEXT	SEGMENT
??Dconst_iterator@?$_Tree@V?$_Tmap_traits@IPAUpatch_scrap@@U?$less@I@std@@V?$allocator@U?$pair@$$CBIPAUpatch_scrap@@@std@@@3@$0A@@std@@@std@@QBEABU?$pair@$$CBIPAUpatch_scrap@@@2@XZ PROC NEAR ; std::_Tree<std::_Tmap_traits<unsigned int,patch_scrap *,std::less<unsigned int>,std::allocator<std::pair<unsigned int const ,patch_scrap *> >,0> >::const_iterator::operator*, COMDAT
; _this$ = eax

; 205  : 			return (_Myval(_Ptr));

  00000	8b 00		 mov	 eax, DWORD PTR [eax]
  00002	83 c0 0c	 add	 eax, 12			; 0000000cH

; 206  : 			}

  00005	c3		 ret	 0
??Dconst_iterator@?$_Tree@V?$_Tmap_traits@IPAUpatch_scrap@@U?$less@I@std@@V?$allocator@U?$pair@$$CBIPAUpatch_scrap@@@std@@@3@$0A@@std@@@std@@QBEABU?$pair@$$CBIPAUpatch_scrap@@@2@XZ ENDP ; std::_Tree<std::_Tmap_traits<unsigned int,patch_scrap *,std::less<unsigned int>,std::allocator<std::pair<unsigned int const ,patch_scrap *> >,0> >::const_iterator::operator*
; Function compile flags: /Ogsy
_TEXT	ENDS
;	COMDAT ??0?$_Tree_val@V?$_Tmap_traits@IPAUpatch_scrap@@U?$less@I@std@@V?$allocator@U?$pair@$$CBIPAUpatch_scrap@@@std@@@3@$0A@@std@@@std@@IAE@ABU?$less@I@1@V?$allocator@U?$pair@$$CBIPAUpatch_scrap@@@std@@@1@@Z
_TEXT	SEGMENT
__Al$ = 8						; size = 1
??0?$_Tree_val@V?$_Tmap_traits@IPAUpatch_scrap@@U?$less@I@std@@V?$allocator@U?$pair@$$CBIPAUpatch_scrap@@@std@@@3@$0A@@std@@@std@@IAE@ABU?$less@I@1@V?$allocator@U?$pair@$$CBIPAUpatch_scrap@@@std@@@1@@Z PROC NEAR ; std::_Tree_val<std::_Tmap_traits<unsigned int,patch_scrap *,std::less<unsigned int>,std::allocator<std::pair<unsigned int const ,patch_scrap *> >,0> >::_Tree_val<std::_Tmap_traits<unsigned int,patch_scrap *,std::less<unsigned int>,std::allocator<std::pair<unsigned int const ,patch_scrap *> >,0> >, COMDAT
; _this$ = eax

; 96   : 		}

  00000	c2 04 00	 ret	 4
??0?$_Tree_val@V?$_Tmap_traits@IPAUpatch_scrap@@U?$less@I@std@@V?$allocator@U?$pair@$$CBIPAUpatch_scrap@@@std@@@3@$0A@@std@@@std@@IAE@ABU?$less@I@1@V?$allocator@U?$pair@$$CBIPAUpatch_scrap@@@std@@@1@@Z ENDP ; std::_Tree_val<std::_Tmap_traits<unsigned int,patch_scrap *,std::less<unsigned int>,std::allocator<std::pair<unsigned int const ,patch_scrap *> >,0> >::_Tree_val<std::_Tmap_traits<unsigned int,patch_scrap *,std::less<unsigned int>,std::allocator<std::pair<unsigned int const ,patch_scrap *> >,0> >
; Function compile flags: /Ogsy
_TEXT	ENDS
;	COMDAT ?_Lbound@?$_Tree@V?$_Tmap_traits@IPAUpatch_scrap@@U?$less@I@std@@V?$allocator@U?$pair@$$CBIPAUpatch_scrap@@@std@@@3@$0A@@std@@@std@@IBEPAU_Node@?$_Tree_nod@V?$_Tmap_traits@IPAUpatch_scrap@@U?$less@I@std@@V?$allocator@U?$pair@$$CBIPAUpatch_scrap@@@std@@@3@$0A@@std@@@2@ABI@Z
_TEXT	SEGMENT
?_Lbound@?$_Tree@V?$_Tmap_traits@IPAUpatch_scrap@@U?$less@I@std@@V?$allocator@U?$pair@$$CBIPAUpatch_scrap@@@std@@@3@$0A@@std@@@std@@IBEPAU_Node@?$_Tree_nod@V?$_Tmap_traits@IPAUpatch_scrap@@U?$less@I@std@@V?$allocator@U?$pair@$$CBIPAUpatch_scrap@@@std@@@3@$0A@@std@@@2@ABI@Z PROC NEAR ; std::_Tree<std::_Tmap_traits<unsigned int,patch_scrap *,std::less<unsigned int>,std::allocator<std::pair<unsigned int const ,patch_scrap *> >,0> >::_Lbound, COMDAT
; _this$ = eax
; __Keyval$ = edx

; 988  : 		_Nodeptr _Pnode = _Root();

  00000	8b 40 04	 mov	 eax, DWORD PTR [eax+4]
  00003	8b 48 04	 mov	 ecx, DWORD PTR [eax+4]

; 989  : 		_Nodeptr _Wherenode = _Myhead;	// end() if search fails
; 990  : 
; 991  : 		while (!_Isnil(_Pnode))

  00006	80 79 15 00	 cmp	 BYTE PTR [ecx+21], 0
  0000a	75 16		 jne	 SHORT $L25137
  0000c	8b 12		 mov	 edx, DWORD PTR [edx]
$L25136:

; 992  : 			if (this->comp(_Key(_Pnode), _Keyval))

  0000e	39 51 0c	 cmp	 DWORD PTR [ecx+12], edx
  00011	73 05		 jae	 SHORT $L25138

; 993  : 				_Pnode = _Right(_Pnode);	// descend right subtree

  00013	8b 49 08	 mov	 ecx, DWORD PTR [ecx+8]

; 994  : 			else

  00016	eb 04		 jmp	 SHORT $L25139
$L25138:

; 995  : 				{	// _Pnode not less than _Keyval, remember it
; 996  : 				_Wherenode = _Pnode;

  00018	8b c1		 mov	 eax, ecx

; 997  : 				_Pnode = _Left(_Pnode);	// descend left subtree

  0001a	8b 09		 mov	 ecx, DWORD PTR [ecx]
$L25139:

; 989  : 		_Nodeptr _Wherenode = _Myhead;	// end() if search fails
; 990  : 
; 991  : 		while (!_Isnil(_Pnode))

  0001c	80 79 15 00	 cmp	 BYTE PTR [ecx+21], 0
  00020	74 ec		 je	 SHORT $L25136
$L25137:

; 998  : 				}
; 999  : 
; 1000 : 		return (_Wherenode);	// return best remembered candidate
; 1001 : 		}

  00022	c3		 ret	 0
?_Lbound@?$_Tree@V?$_Tmap_traits@IPAUpatch_scrap@@U?$less@I@std@@V?$allocator@U?$pair@$$CBIPAUpatch_scrap@@@std@@@3@$0A@@std@@@std@@IBEPAU_Node@?$_Tree_nod@V?$_Tmap_traits@IPAUpatch_scrap@@U?$less@I@std@@V?$allocator@U?$pair@$$CBIPAUpatch_scrap@@@std@@@3@$0A@@std@@@2@ABI@Z ENDP ; std::_Tree<std::_Tmap_traits<unsigned int,patch_scrap *,std::less<unsigned int>,std::allocator<std::pair<unsigned int const ,patch_scrap *> >,0> >::_Lbound
; Function compile flags: /Ogsy
_TEXT	ENDS
;	COMDAT ?_Init@?$_Tree@V?$_Tmap_traits@IPAUpatch_scrap@@U?$less@I@std@@V?$allocator@U?$pair@$$CBIPAUpatch_scrap@@@std@@@3@$0A@@std@@@std@@IAEXXZ
_TEXT	SEGMENT
?_Init@?$_Tree@V?$_Tmap_traits@IPAUpatch_scrap@@U?$less@I@std@@V?$allocator@U?$pair@$$CBIPAUpatch_scrap@@@std@@@3@$0A@@std@@@std@@IAEXXZ PROC NEAR ; std::_Tree<std::_Tmap_traits<unsigned int,patch_scrap *,std::less<unsigned int>,std::allocator<std::pair<unsigned int const ,patch_scrap *> >,0> >::_Init, COMDAT
; _this$ = esi

; 902  : 		_Myhead = _Buynode();

  00000	e8 00 00 00 00	 call	 ?_Buynode@?$_Tree@V?$_Tmap_traits@IPAUpatch_scrap@@U?$less@I@std@@V?$allocator@U?$pair@$$CBIPAUpatch_scrap@@@std@@@3@$0A@@std@@@std@@IAEPAU_Node@?$_Tree_nod@V?$_Tmap_traits@IPAUpatch_scrap@@U?$less@I@std@@V?$allocator@U?$pair@$$CBIPAUpatch_scrap@@@std@@@3@$0A@@std@@@2@XZ ; std::_Tree<std::_Tmap_traits<unsigned int,patch_scrap *,std::less<unsigned int>,std::allocator<std::pair<unsigned int const ,patch_scrap *> >,0> >::_Buynode
  00005	8d 4e 04	 lea	 ecx, DWORD PTR [esi+4]
  00008	89 01		 mov	 DWORD PTR [ecx], eax

; 903  : 		_Isnil(_Myhead) = true;

  0000a	c6 40 15 01	 mov	 BYTE PTR [eax+21], 1

; 904  : 		_Root() = _Myhead;

  0000e	8b 01		 mov	 eax, DWORD PTR [ecx]
  00010	89 40 04	 mov	 DWORD PTR [eax+4], eax

; 905  : 		_Lmost() = _Myhead, _Rmost() = _Myhead;

  00013	8b 01		 mov	 eax, DWORD PTR [ecx]
  00015	89 00		 mov	 DWORD PTR [eax], eax
  00017	8b 09		 mov	 ecx, DWORD PTR [ecx]
  00019	89 49 08	 mov	 DWORD PTR [ecx+8], ecx

; 906  : 		_Mysize = 0;

  0001c	83 66 08 00	 and	 DWORD PTR [esi+8], 0

; 907  : 		}

  00020	c3		 ret	 0
?_Init@?$_Tree@V?$_Tmap_traits@IPAUpatch_scrap@@U?$less@I@std@@V?$allocator@U?$pair@$$CBIPAUpatch_scrap@@@std@@@3@$0A@@std@@@std@@IAEXXZ ENDP ; std::_Tree<std::_Tmap_traits<unsigned int,patch_scrap *,std::less<unsigned int>,std::allocator<std::pair<unsigned int const ,patch_scrap *> >,0> >::_Init
; Function compile flags: /Ogsy
_TEXT	ENDS
;	COMDAT ?lower_bound@?$_Tree@V?$_Tmap_traits@IPAUpatch_scrap@@U?$less@I@std@@V?$allocator@U?$pair@$$CBIPAUpatch_scrap@@@std@@@3@$0A@@std@@@std@@QBE?AVconst_iterator@12@ABI@Z
_TEXT	SEGMENT
?lower_bound@?$_Tree@V?$_Tmap_traits@IPAUpatch_scrap@@U?$less@I@std@@V?$allocator@U?$pair@$$CBIPAUpatch_scrap@@@std@@@3@$0A@@std@@@std@@QBE?AVconst_iterator@12@ABI@Z PROC NEAR ; std::_Tree<std::_Tmap_traits<unsigned int,patch_scrap *,std::less<unsigned int>,std::allocator<std::pair<unsigned int const ,patch_scrap *> >,0> >::lower_bound, COMDAT
; _this$ = eax
; ___$ReturnUdt$ = esi
; __Keyval$ = edx

; 815  : 		return (_TREE_CONST_ITERATOR(_Lbound(_Keyval)));

  00000	e8 00 00 00 00	 call	 ?_Lbound@?$_Tree@V?$_Tmap_traits@IPAUpatch_scrap@@U?$less@I@std@@V?$allocator@U?$pair@$$CBIPAUpatch_scrap@@@std@@@3@$0A@@std@@@std@@IBEPAU_Node@?$_Tree_nod@V?$_Tmap_traits@IPAUpatch_scrap@@U?$less@I@std@@V?$allocator@U?$pair@$$CBIPAUpatch_scrap@@@std@@@3@$0A@@std@@@2@ABI@Z ; std::_Tree<std::_Tmap_traits<unsigned int,patch_scrap *,std::less<unsigned int>,std::allocator<std::pair<unsigned int const ,patch_scrap *> >,0> >::_Lbound
  00005	89 06		 mov	 DWORD PTR [esi], eax
  00007	8b c6		 mov	 eax, esi

; 816  : 		}

  00009	c3		 ret	 0
?lower_bound@?$_Tree@V?$_Tmap_traits@IPAUpatch_scrap@@U?$less@I@std@@V?$allocator@U?$pair@$$CBIPAUpatch_scrap@@@std@@@3@$0A@@std@@@std@@QBE?AVconst_iterator@12@ABI@Z ENDP ; std::_Tree<std::_Tmap_traits<unsigned int,patch_scrap *,std::less<unsigned int>,std::allocator<std::pair<unsigned int const ,patch_scrap *> >,0> >::lower_bound
; Function compile flags: /Ogsy
_TEXT	ENDS
;	COMDAT ??Eiterator@?$_Tree@V?$_Tmap_traits@IPAUpatch_scrap@@U?$less@I@std@@V?$allocator@U?$pair@$$CBIPAUpatch_scrap@@@std@@@3@$0A@@std@@@std@@QAEAAV012@XZ
_TEXT	SEGMENT
_this$ = 8						; size = 4
??Eiterator@?$_Tree@V?$_Tmap_traits@IPAUpatch_scrap@@U?$less@I@std@@V?$allocator@U?$pair@$$CBIPAUpatch_scrap@@@std@@@3@$0A@@std@@@std@@QAEAAV012@XZ PROC NEAR ; std::_Tree<std::_Tmap_traits<unsigned int,patch_scrap *,std::less<unsigned int>,std::allocator<std::pair<unsigned int const ,patch_scrap *> >,0> >::iterator::operator++, COMDAT

; 327  : 			++(*(const_iterator *)this);

  00000	8b 54 24 04	 mov	 edx, DWORD PTR _this$[esp-4]
  00004	e8 00 00 00 00	 call	 ?_Inc@const_iterator@?$_Tree@V?$_Tmap_traits@IPAUpatch_scrap@@U?$less@I@std@@V?$allocator@U?$pair@$$CBIPAUpatch_scrap@@@std@@@3@$0A@@std@@@std@@QAEXXZ ; std::_Tree<std::_Tmap_traits<unsigned int,patch_scrap *,std::less<unsigned int>,std::allocator<std::pair<unsigned int const ,patch_scrap *> >,0> >::const_iterator::_Inc

; 328  : 			return (*this);

  00009	8b 44 24 04	 mov	 eax, DWORD PTR _this$[esp-4]

; 329  : 			}

  0000d	c2 04 00	 ret	 4
??Eiterator@?$_Tree@V?$_Tmap_traits@IPAUpatch_scrap@@U?$less@I@std@@V?$allocator@U?$pair@$$CBIPAUpatch_scrap@@@std@@@3@$0A@@std@@@std@@QAEAAV012@XZ ENDP ; std::_Tree<std::_Tmap_traits<unsigned int,patch_scrap *,std::less<unsigned int>,std::allocator<std::pair<unsigned int const ,patch_scrap *> >,0> >::iterator::operator++
; Function compile flags: /Ogsy
_TEXT	ENDS
;	COMDAT ??Diterator@?$_Tree@V?$_Tmap_traits@IPAUpatch_scrap@@U?$less@I@std@@V?$allocator@U?$pair@$$CBIPAUpatch_scrap@@@std@@@3@$0A@@std@@@std@@QBEAAU?$pair@$$CBIPAUpatch_scrap@@@2@XZ
_TEXT	SEGMENT
??Diterator@?$_Tree@V?$_Tmap_traits@IPAUpatch_scrap@@U?$less@I@std@@V?$allocator@U?$pair@$$CBIPAUpatch_scrap@@@std@@@3@$0A@@std@@@std@@QBEAAU?$pair@$$CBIPAUpatch_scrap@@@2@XZ PROC NEAR ; std::_Tree<std::_Tmap_traits<unsigned int,patch_scrap *,std::less<unsigned int>,std::allocator<std::pair<unsigned int const ,patch_scrap *> >,0> >::iterator::operator*, COMDAT
; _this$ = eax

; 317  : 			return ((reference)**(const_iterator *)this);

  00000	8b 00		 mov	 eax, DWORD PTR [eax]
  00002	83 c0 0c	 add	 eax, 12			; 0000000cH

; 318  : 			}

  00005	c3		 ret	 0
??Diterator@?$_Tree@V?$_Tmap_traits@IPAUpatch_scrap@@U?$less@I@std@@V?$allocator@U?$pair@$$CBIPAUpatch_scrap@@@std@@@3@$0A@@std@@@std@@QBEAAU?$pair@$$CBIPAUpatch_scrap@@@2@XZ ENDP ; std::_Tree<std::_Tmap_traits<unsigned int,patch_scrap *,std::less<unsigned int>,std::allocator<std::pair<unsigned int const ,patch_scrap *> >,0> >::iterator::operator*
; Function compile flags: /Ogsy
_TEXT	ENDS
;	COMDAT ?lower_bound@?$_Tree@V?$_Tmap_traits@IPAUpatch_scrap@@U?$less@I@std@@V?$allocator@U?$pair@$$CBIPAUpatch_scrap@@@std@@@3@$0A@@std@@@std@@QAE?AViterator@12@ABI@Z
_TEXT	SEGMENT
?lower_bound@?$_Tree@V?$_Tmap_traits@IPAUpatch_scrap@@U?$less@I@std@@V?$allocator@U?$pair@$$CBIPAUpatch_scrap@@@std@@@3@$0A@@std@@@std@@QAE?AViterator@12@ABI@Z PROC NEAR ; std::_Tree<std::_Tmap_traits<unsigned int,patch_scrap *,std::less<unsigned int>,std::allocator<std::pair<unsigned int const ,patch_scrap *> >,0> >::lower_bound, COMDAT
; _this$ = eax
; ___$ReturnUdt$ = esi
; __Keyval$ = edx

; 810  : 		return (_TREE_ITERATOR(_Lbound(_Keyval)));

  00000	e8 00 00 00 00	 call	 ?_Lbound@?$_Tree@V?$_Tmap_traits@IPAUpatch_scrap@@U?$less@I@std@@V?$allocator@U?$pair@$$CBIPAUpatch_scrap@@@std@@@3@$0A@@std@@@std@@IBEPAU_Node@?$_Tree_nod@V?$_Tmap_traits@IPAUpatch_scrap@@U?$less@I@std@@V?$allocator@U?$pair@$$CBIPAUpatch_scrap@@@std@@@3@$0A@@std@@@2@ABI@Z ; std::_Tree<std::_Tmap_traits<unsigned int,patch_scrap *,std::less<unsigned int>,std::allocator<std::pair<unsigned int const ,patch_scrap *> >,0> >::_Lbound
  00005	89 06		 mov	 DWORD PTR [esi], eax
  00007	8b c6		 mov	 eax, esi

; 811  : 		}

  00009	c3		 ret	 0
?lower_bound@?$_Tree@V?$_Tmap_traits@IPAUpatch_scrap@@U?$less@I@std@@V?$allocator@U?$pair@$$CBIPAUpatch_scrap@@@std@@@3@$0A@@std@@@std@@QAE?AViterator@12@ABI@Z ENDP ; std::_Tree<std::_Tmap_traits<unsigned int,patch_scrap *,std::less<unsigned int>,std::allocator<std::pair<unsigned int const ,patch_scrap *> >,0> >::lower_bound
; Function compile flags: /Ogsy
_TEXT	ENDS
;	COMDAT ??0?$_Tree@V?$_Tmap_traits@IPAUpatch_scrap@@U?$less@I@std@@V?$allocator@U?$pair@$$CBIPAUpatch_scrap@@@std@@@3@$0A@@std@@@std@@QAE@ABU?$less@I@1@ABV?$allocator@U?$pair@$$CBIPAUpatch_scrap@@@std@@@1@@Z
_TEXT	SEGMENT
??0?$_Tree@V?$_Tmap_traits@IPAUpatch_scrap@@U?$less@I@std@@V?$allocator@U?$pair@$$CBIPAUpatch_scrap@@@std@@@3@$0A@@std@@@std@@QAE@ABU?$less@I@1@ABV?$allocator@U?$pair@$$CBIPAUpatch_scrap@@@std@@@1@@Z PROC NEAR ; std::_Tree<std::_Tmap_traits<unsigned int,patch_scrap *,std::less<unsigned int>,std::allocator<std::pair<unsigned int const ,patch_scrap *> >,0> >::_Tree<std::_Tmap_traits<unsigned int,patch_scrap *,std::less<unsigned int>,std::allocator<std::pair<unsigned int const ,patch_scrap *> >,0> >, COMDAT
; _this$ = eax

; 361  : 		{	// construct empty tree

  00000	56		 push	 esi
  00001	8b f0		 mov	 esi, eax

; 362  : 		_Init();

  00003	e8 00 00 00 00	 call	 ?_Init@?$_Tree@V?$_Tmap_traits@IPAUpatch_scrap@@U?$less@I@std@@V?$allocator@U?$pair@$$CBIPAUpatch_scrap@@@std@@@3@$0A@@std@@@std@@IAEXXZ ; std::_Tree<std::_Tmap_traits<unsigned int,patch_scrap *,std::less<unsigned int>,std::allocator<std::pair<unsigned int const ,patch_scrap *> >,0> >::_Init

; 363  : 		}

  00008	8b c6		 mov	 eax, esi
  0000a	5e		 pop	 esi
  0000b	c3		 ret	 0
??0?$_Tree@V?$_Tmap_traits@IPAUpatch_scrap@@U?$less@I@std@@V?$allocator@U?$pair@$$CBIPAUpatch_scrap@@@std@@@3@$0A@@std@@@std@@QAE@ABU?$less@I@1@ABV?$allocator@U?$pair@$$CBIPAUpatch_scrap@@@std@@@1@@Z ENDP ; std::_Tree<std::_Tmap_traits<unsigned int,patch_scrap *,std::less<unsigned int>,std::allocator<std::pair<unsigned int const ,patch_scrap *> >,0> >::_Tree<std::_Tmap_traits<unsigned int,patch_scrap *,std::less<unsigned int>,std::allocator<std::pair<unsigned int const ,patch_scrap *> >,0> >
; Function compile flags: /Ogsy
_TEXT	ENDS
;	COMDAT ??Eiterator@?$_Tree@V?$_Tmap_traits@IPAUpatch_scrap@@U?$less@I@std@@V?$allocator@U?$pair@$$CBIPAUpatch_scrap@@@std@@@3@$0A@@std@@@std@@QAE?AV012@H@Z
_TEXT	SEGMENT
??Eiterator@?$_Tree@V?$_Tmap_traits@IPAUpatch_scrap@@U?$less@I@std@@V?$allocator@U?$pair@$$CBIPAUpatch_scrap@@@std@@@3@$0A@@std@@@std@@QAE?AV012@H@Z PROC NEAR ; std::_Tree<std::_Tmap_traits<unsigned int,patch_scrap *,std::less<unsigned int>,std::allocator<std::pair<unsigned int const ,patch_scrap *> >,0> >::iterator::operator++, COMDAT
; _this$ = edx
; ___$ReturnUdt$ = edi

; 332  : 			{	// postincrement

  00000	56		 push	 esi

; 333  : 			iterator _Tmp = *this;

  00001	8b 32		 mov	 esi, DWORD PTR [edx]

; 334  : 			++*this;

  00003	e8 00 00 00 00	 call	 ?_Inc@const_iterator@?$_Tree@V?$_Tmap_traits@IPAUpatch_scrap@@U?$less@I@std@@V?$allocator@U?$pair@$$CBIPAUpatch_scrap@@@std@@@3@$0A@@std@@@std@@QAEXXZ ; std::_Tree<std::_Tmap_traits<unsigned int,patch_scrap *,std::less<unsigned int>,std::allocator<std::pair<unsigned int const ,patch_scrap *> >,0> >::const_iterator::_Inc

; 335  : 			return (_Tmp);

  00008	89 37		 mov	 DWORD PTR [edi], esi
  0000a	8b c7		 mov	 eax, edi
  0000c	5e		 pop	 esi

; 336  : 			}

  0000d	c3		 ret	 0
??Eiterator@?$_Tree@V?$_Tmap_traits@IPAUpatch_scrap@@U?$less@I@std@@V?$allocator@U?$pair@$$CBIPAUpatch_scrap@@@std@@@3@$0A@@std@@@std@@QAE?AV012@H@Z ENDP ; std::_Tree<std::_Tmap_traits<unsigned int,patch_scrap *,std::less<unsigned int>,std::allocator<std::pair<unsigned int const ,patch_scrap *> >,0> >::iterator::operator++
; Function compile flags: /Ogsy
_TEXT	ENDS
;	COMDAT ??Citerator@?$_Tree@V?$_Tmap_traits@IPAUpatch_scrap@@U?$less@I@std@@V?$allocator@U?$pair@$$CBIPAUpatch_scrap@@@std@@@3@$0A@@std@@@std@@QBEPAU?$pair@$$CBIPAUpatch_scrap@@@2@XZ
_TEXT	SEGMENT
??Citerator@?$_Tree@V?$_Tmap_traits@IPAUpatch_scrap@@U?$less@I@std@@V?$allocator@U?$pair@$$CBIPAUpatch_scrap@@@std@@@3@$0A@@std@@@std@@QBEPAU?$pair@$$CBIPAUpatch_scrap@@@2@XZ PROC NEAR ; std::_Tree<std::_Tmap_traits<unsigned int,patch_scrap *,std::less<unsigned int>,std::allocator<std::pair<unsigned int const ,patch_scrap *> >,0> >::iterator::operator->, COMDAT
; _this$ = eax

; 322  : 			return (&**this);

  00000	8b 00		 mov	 eax, DWORD PTR [eax]
  00002	83 c0 0c	 add	 eax, 12			; 0000000cH

; 323  : 			}

  00005	c3		 ret	 0
??Citerator@?$_Tree@V?$_Tmap_traits@IPAUpatch_scrap@@U?$less@I@std@@V?$allocator@U?$pair@$$CBIPAUpatch_scrap@@@std@@@3@$0A@@std@@@std@@QBEPAU?$pair@$$CBIPAUpatch_scrap@@@2@XZ ENDP ; std::_Tree<std::_Tmap_traits<unsigned int,patch_scrap *,std::less<unsigned int>,std::allocator<std::pair<unsigned int const ,patch_scrap *> >,0> >::iterator::operator->
; Function compile flags: /Ogsy
; File c:\program files (x86)\microsoft visual studio .net 2003\vc7\include\xutility
;	COMDAT ??$_Distance2@Vconst_iterator@?$_Tree@V?$_Tmap_traits@IPAUpatch_scrap@@U?$less@I@std@@V?$allocator@U?$pair@$$CBIPAUpatch_scrap@@@std@@@3@$0A@@std@@@std@@I@std@@YAXVconst_iterator@?$_Tree@V?$_Tmap_traits@IPAUpatch_scrap@@U?$less@I@std@@V?$allocator@U?$pair@$$CBIPAUpatch_scrap@@@std@@@3@$0A@@std@@@0@0AAIUbidirectional_iterator_tag@0@@Z
_TEXT	SEGMENT
__First$ = 8						; size = 4
__Last$ = 12						; size = 4
___formal$ = 16						; size = 1
??$_Distance2@Vconst_iterator@?$_Tree@V?$_Tmap_traits@IPAUpatch_scrap@@U?$less@I@std@@V?$allocator@U?$pair@$$CBIPAUpatch_scrap@@@std@@@3@$0A@@std@@@std@@I@std@@YAXVconst_iterator@?$_Tree@V?$_Tmap_traits@IPAUpatch_scrap@@U?$less@I@std@@V?$allocator@U?$pair@$$CBIPAUpatch_scrap@@@std@@@3@$0A@@std@@@0@0AAIUbidirectional_iterator_tag@0@@Z PROC NEAR ; std::_Distance2<std::_Tree<std::_Tmap_traits<unsigned int,patch_scrap *,std::less<unsigned int>,std::allocator<std::pair<unsigned int const ,patch_scrap *> >,0> >::const_iterator,unsigned int>, COMDAT
; __Off$ = esi

; 469  : 	{	// add to _Off distance between bidirectional iterators (redundant)

  00000	57		 push	 edi

; 470  : 	for (; _First != _Last; ++_First)

  00001	8b 7c 24 0c	 mov	 edi, DWORD PTR __Last$[esp]
  00005	eb 0b		 jmp	 SHORT $L55829
$L55818:

; 471  : 		++_Off;

  00007	ff 06		 inc	 DWORD PTR [esi]
  00009	8d 54 24 08	 lea	 edx, DWORD PTR __First$[esp]
  0000d	e8 00 00 00 00	 call	 ?_Inc@const_iterator@?$_Tree@V?$_Tmap_traits@IPAUpatch_scrap@@U?$less@I@std@@V?$allocator@U?$pair@$$CBIPAUpatch_scrap@@@std@@@3@$0A@@std@@@std@@QAEXXZ ; std::_Tree<std::_Tmap_traits<unsigned int,patch_scrap *,std::less<unsigned int>,std::allocator<std::pair<unsigned int const ,patch_scrap *> >,0> >::const_iterator::_Inc
$L55829:

; 470  : 	for (; _First != _Last; ++_First)

  00012	39 7c 24 08	 cmp	 DWORD PTR __First$[esp], edi
  00016	75 ef		 jne	 SHORT $L55818
  00018	5f		 pop	 edi

; 472  : 	}

  00019	c3		 ret	 0
??$_Distance2@Vconst_iterator@?$_Tree@V?$_Tmap_traits@IPAUpatch_scrap@@U?$less@I@std@@V?$allocator@U?$pair@$$CBIPAUpatch_scrap@@@std@@@3@$0A@@std@@@std@@I@std@@YAXVconst_iterator@?$_Tree@V?$_Tmap_traits@IPAUpatch_scrap@@U?$less@I@std@@V?$allocator@U?$pair@$$CBIPAUpatch_scrap@@@std@@@3@$0A@@std@@@0@0AAIUbidirectional_iterator_tag@0@@Z ENDP ; std::_Distance2<std::_Tree<std::_Tmap_traits<unsigned int,patch_scrap *,std::less<unsigned int>,std::allocator<std::pair<unsigned int const ,patch_scrap *> >,0> >::const_iterator,unsigned int>
; Function compile flags: /Ogsy
_TEXT	ENDS
;	COMDAT ??$_Distance@Vconst_iterator@?$_Tree@V?$_Tmap_traits@IPAUpatch_scrap@@U?$less@I@std@@V?$allocator@U?$pair@$$CBIPAUpatch_scrap@@@std@@@3@$0A@@std@@@std@@I@std@@YAXVconst_iterator@?$_Tree@V?$_Tmap_traits@IPAUpatch_scrap@@U?$less@I@std@@V?$allocator@U?$pair@$$CBIPAUpatch_scrap@@@std@@@3@$0A@@std@@@0@0AAI@Z
_TEXT	SEGMENT
$T55833 = -4						; size = 1
__First$ = 8						; size = 4
__Last$ = 12						; size = 4
??$_Distance@Vconst_iterator@?$_Tree@V?$_Tmap_traits@IPAUpatch_scrap@@U?$less@I@std@@V?$allocator@U?$pair@$$CBIPAUpatch_scrap@@@std@@@3@$0A@@std@@@std@@I@std@@YAXVconst_iterator@?$_Tree@V?$_Tmap_traits@IPAUpatch_scrap@@U?$less@I@std@@V?$allocator@U?$pair@$$CBIPAUpatch_scrap@@@std@@@3@$0A@@std@@@0@0AAI@Z PROC NEAR ; std::_Distance<std::_Tree<std::_Tmap_traits<unsigned int,patch_scrap *,std::less<unsigned int>,std::allocator<std::pair<unsigned int const ,patch_scrap *> >,0> >::const_iterator,unsigned int>, COMDAT
; __Off$ = esi

; 497  : 	{	// add to _Off distance between iterators

  00000	55		 push	 ebp
  00001	8b ec		 mov	 ebp, esp
  00003	51		 push	 ecx

; 498  : 	_Distance2(_First, _Last, _Off, _Iter_cat(_First));

  00004	ff 75 fc	 push	 DWORD PTR $T55833[ebp]
  00007	ff 75 0c	 push	 DWORD PTR __Last$[ebp]
  0000a	ff 75 08	 push	 DWORD PTR __First$[ebp]
  0000d	e8 00 00 00 00	 call	 ??$_Distance2@Vconst_iterator@?$_Tree@V?$_Tmap_traits@IPAUpatch_scrap@@U?$less@I@std@@V?$allocator@U?$pair@$$CBIPAUpatch_scrap@@@std@@@3@$0A@@std@@@std@@I@std@@YAXVconst_iterator@?$_Tree@V?$_Tmap_traits@IPAUpatch_scrap@@U?$less@I@std@@V?$allocator@U?$pair@$$CBIPAUpatch_scrap@@@std@@@3@$0A@@std@@@0@0AAIUbidirectional_iterator_tag@0@@Z ; std::_Distance2<std::_Tree<std::_Tmap_traits<unsigned int,patch_scrap *,std::less<unsigned int>,std::allocator<std::pair<unsigned int const ,patch_scrap *> >,0> >::const_iterator,unsigned int>
  00012	83 c4 0c	 add	 esp, 12			; 0000000cH

; 499  : 	}

  00015	c9		 leave
  00016	c3		 ret	 0
??$_Distance@Vconst_iterator@?$_Tree@V?$_Tmap_traits@IPAUpatch_scrap@@U?$less@I@std@@V?$allocator@U?$pair@$$CBIPAUpatch_scrap@@@std@@@3@$0A@@std@@@std@@I@std@@YAXVconst_iterator@?$_Tree@V?$_Tmap_traits@IPAUpatch_scrap@@U?$less@I@std@@V?$allocator@U?$pair@$$CBIPAUpatch_scrap@@@std@@@3@$0A@@std@@@0@0AAI@Z ENDP ; std::_Distance<std::_Tree<std::_Tmap_traits<unsigned int,patch_scrap *,std::less<unsigned int>,std::allocator<std::pair<unsigned int const ,patch_scrap *> >,0> >::const_iterator,unsigned int>
; Function compile flags: /Ogsy
; File c:\program files (x86)\microsoft visual studio .net 2003\vc7\include\xtree
_TEXT	ENDS
;	COMDAT ?_Dec@const_iterator@?$_Tree@V?$_Tmap_traits@IPAUpatch_scrap@@U?$less@I@std@@V?$allocator@U?$pair@$$CBIPAUpatch_scrap@@@std@@@3@$0A@@std@@@std@@QAEXXZ
_TEXT	SEGMENT
?_Dec@const_iterator@?$_Tree@V?$_Tmap_traits@IPAUpatch_scrap@@U?$less@I@std@@V?$allocator@U?$pair@$$CBIPAUpatch_scrap@@@std@@@3@$0A@@std@@@std@@QAEXXZ PROC NEAR ; std::_Tree<std::_Tmap_traits<unsigned int,patch_scrap *,std::less<unsigned int>,std::allocator<std::pair<unsigned int const ,patch_scrap *> >,0> >::const_iterator::_Dec, COMDAT
; _this$ = ecx

; 251  : 			if (_Isnil(_Ptr))

  00000	8b 01		 mov	 eax, DWORD PTR [ecx]
  00002	53		 push	 ebx
  00003	32 db		 xor	 bl, bl
  00005	38 58 15	 cmp	 BYTE PTR [eax+21], bl
  00008	74 05		 je	 SHORT $L25566

; 252  : 				_Ptr = _Right(_Ptr);	// end() ==> rightmost

  0000a	8b 40 08	 mov	 eax, DWORD PTR [eax+8]

; 253  : 			else if (!_Isnil(_Left(_Ptr)))

  0000d	eb 2c		 jmp	 SHORT $L55894
$L25566:
  0000f	8b 10		 mov	 edx, DWORD PTR [eax]
  00011	38 5a 15	 cmp	 BYTE PTR [edx+21], bl
  00014	75 18		 jne	 SHORT $L55891

; 254  : 				_Ptr = _Max(_Left(_Ptr));	// ==> largest of left subtree

  00016	eb 02		 jmp	 SHORT $L55896
$L55875:
  00018	8b d0		 mov	 edx, eax
$L55896:
  0001a	8b 42 08	 mov	 eax, DWORD PTR [edx+8]
  0001d	38 58 15	 cmp	 BYTE PTR [eax+21], bl
  00020	74 f6		 je	 SHORT $L55875
  00022	89 11		 mov	 DWORD PTR [ecx], edx
  00024	5b		 pop	 ebx

; 263  : 				}
; 264  : 			}

  00025	c3		 ret	 0
$L25572:

; 255  : 			else
; 256  : 				{	// climb looking for left subtree
; 257  : 				_Nodeptr _Pnode;
; 258  : 				while (!_Isnil(_Pnode = _Parent(_Ptr))
; 259  : 					&& _Ptr == _Left(_Pnode))

  00026	8b 11		 mov	 edx, DWORD PTR [ecx]
  00028	3b 10		 cmp	 edx, DWORD PTR [eax]
  0002a	75 0a		 jne	 SHORT $L25573

; 260  : 					_Ptr = _Pnode;	// ==> parent while left subtree

  0002c	89 01		 mov	 DWORD PTR [ecx], eax
$L55891:

; 255  : 			else
; 256  : 				{	// climb looking for left subtree
; 257  : 				_Nodeptr _Pnode;
; 258  : 				while (!_Isnil(_Pnode = _Parent(_Ptr))
; 259  : 					&& _Ptr == _Left(_Pnode))

  0002e	8b 40 04	 mov	 eax, DWORD PTR [eax+4]
  00031	38 58 15	 cmp	 BYTE PTR [eax+21], bl
  00034	74 f0		 je	 SHORT $L25572
$L25573:

; 261  : 				if (!_Isnil(_Pnode))

  00036	38 58 15	 cmp	 BYTE PTR [eax+21], bl
  00039	75 02		 jne	 SHORT $L25574
$L55894:

; 262  : 					_Ptr = _Pnode;	// ==> parent if not head

  0003b	89 01		 mov	 DWORD PTR [ecx], eax
$L25574:
  0003d	5b		 pop	 ebx

; 263  : 				}
; 264  : 			}

  0003e	c3		 ret	 0
?_Dec@const_iterator@?$_Tree@V?$_Tmap_traits@IPAUpatch_scrap@@U?$less@I@std@@V?$allocator@U?$pair@$$CBIPAUpatch_scrap@@@std@@@3@$0A@@std@@@std@@QAEXXZ ENDP ; std::_Tree<std::_Tmap_traits<unsigned int,patch_scrap *,std::less<unsigned int>,std::allocator<std::pair<unsigned int const ,patch_scrap *> >,0> >::const_iterator::_Dec
; Function compile flags: /Ogsy
_TEXT	ENDS
;	COMDAT ??Fconst_iterator@?$_Tree@V?$_Tmap_traits@IPAUpatch_scrap@@U?$less@I@std@@V?$allocator@U?$pair@$$CBIPAUpatch_scrap@@@std@@@3@$0A@@std@@@std@@QAEAAV012@XZ
_TEXT	SEGMENT
_this$ = 8						; size = 4
??Fconst_iterator@?$_Tree@V?$_Tmap_traits@IPAUpatch_scrap@@U?$less@I@std@@V?$allocator@U?$pair@$$CBIPAUpatch_scrap@@@std@@@3@$0A@@std@@@std@@QAEAAV012@XZ PROC NEAR ; std::_Tree<std::_Tmap_traits<unsigned int,patch_scrap *,std::less<unsigned int>,std::allocator<std::pair<unsigned int const ,patch_scrap *> >,0> >::const_iterator::operator--, COMDAT

; 228  : 			_Dec();

  00000	8b 4c 24 04	 mov	 ecx, DWORD PTR _this$[esp-4]
  00004	e8 00 00 00 00	 call	 ?_Dec@const_iterator@?$_Tree@V?$_Tmap_traits@IPAUpatch_scrap@@U?$less@I@std@@V?$allocator@U?$pair@$$CBIPAUpatch_scrap@@@std@@@3@$0A@@std@@@std@@QAEXXZ ; std::_Tree<std::_Tmap_traits<unsigned int,patch_scrap *,std::less<unsigned int>,std::allocator<std::pair<unsigned int const ,patch_scrap *> >,0> >::const_iterator::_Dec

; 229  : 			return (*this);

  00009	8b 44 24 04	 mov	 eax, DWORD PTR _this$[esp-4]

; 230  : 			}

  0000d	c2 04 00	 ret	 4
??Fconst_iterator@?$_Tree@V?$_Tmap_traits@IPAUpatch_scrap@@U?$less@I@std@@V?$allocator@U?$pair@$$CBIPAUpatch_scrap@@@std@@@3@$0A@@std@@@std@@QAEAAV012@XZ ENDP ; std::_Tree<std::_Tmap_traits<unsigned int,patch_scrap *,std::less<unsigned int>,std::allocator<std::pair<unsigned int const ,patch_scrap *> >,0> >::const_iterator::operator--
; Function compile flags: /Ogsy
_TEXT	ENDS
;	COMDAT ?_Ubound@?$_Tree@V?$_Tmap_traits@IPAUpatch_scrap@@U?$less@I@std@@V?$allocator@U?$pair@$$CBIPAUpatch_scrap@@@std@@@3@$0A@@std@@@std@@IBEPAU_Node@?$_Tree_nod@V?$_Tmap_traits@IPAUpatch_scrap@@U?$less@I@std@@V?$allocator@U?$pair@$$CBIPAUpatch_scrap@@@std@@@3@$0A@@std@@@2@ABI@Z
_TEXT	SEGMENT
?_Ubound@?$_Tree@V?$_Tmap_traits@IPAUpatch_scrap@@U?$less@I@std@@V?$allocator@U?$pair@$$CBIPAUpatch_scrap@@@std@@@3@$0A@@std@@@std@@IBEPAU_Node@?$_Tree_nod@V?$_Tmap_traits@IPAUpatch_scrap@@U?$less@I@std@@V?$allocator@U?$pair@$$CBIPAUpatch_scrap@@@std@@@3@$0A@@std@@@2@ABI@Z PROC NEAR ; std::_Tree<std::_Tmap_traits<unsigned int,patch_scrap *,std::less<unsigned int>,std::allocator<std::pair<unsigned int const ,patch_scrap *> >,0> >::_Ubound, COMDAT
; _this$ = eax
; __Keyval$ = edx

; 1089 : 		_Nodeptr _Pnode = _Root();

  00000	8b 40 04	 mov	 eax, DWORD PTR [eax+4]
  00003	8b 48 04	 mov	 ecx, DWORD PTR [eax+4]

; 1090 : 		_Nodeptr _Wherenode = _Myhead;	// end() if search fails
; 1091 : 
; 1092 : 		while (!_Isnil(_Pnode))

  00006	80 79 15 00	 cmp	 BYTE PTR [ecx+21], 0
  0000a	75 16		 jne	 SHORT $L25431
  0000c	8b 12		 mov	 edx, DWORD PTR [edx]
$L25430:

; 1093 : 			if (this->comp(_Keyval, _Key(_Pnode)))

  0000e	3b 51 0c	 cmp	 edx, DWORD PTR [ecx+12]
  00011	73 06		 jae	 SHORT $L25432

; 1094 : 				{	// _Pnode greater than _Keyval, remember it
; 1095 : 				_Wherenode = _Pnode;

  00013	8b c1		 mov	 eax, ecx

; 1096 : 				_Pnode = _Left(_Pnode);	// descend left subtree

  00015	8b 09		 mov	 ecx, DWORD PTR [ecx]

; 1097 : 				}
; 1098 : 			else

  00017	eb 03		 jmp	 SHORT $L25433
$L25432:

; 1099 : 				_Pnode = _Right(_Pnode);	// descend right subtree

  00019	8b 49 08	 mov	 ecx, DWORD PTR [ecx+8]
$L25433:

; 1090 : 		_Nodeptr _Wherenode = _Myhead;	// end() if search fails
; 1091 : 
; 1092 : 		while (!_Isnil(_Pnode))

  0001c	80 79 15 00	 cmp	 BYTE PTR [ecx+21], 0
  00020	74 ec		 je	 SHORT $L25430
$L25431:

; 1100 : 
; 1101 : 		return (_Wherenode);	// return best remembered candidate
; 1102 : 		}

  00022	c3		 ret	 0
?_Ubound@?$_Tree@V?$_Tmap_traits@IPAUpatch_scrap@@U?$less@I@std@@V?$allocator@U?$pair@$$CBIPAUpatch_scrap@@@std@@@3@$0A@@std@@@std@@IBEPAU_Node@?$_Tree_nod@V?$_Tmap_traits@IPAUpatch_scrap@@U?$less@I@std@@V?$allocator@U?$pair@$$CBIPAUpatch_scrap@@@std@@@3@$0A@@std@@@2@ABI@Z ENDP ; std::_Tree<std::_Tmap_traits<unsigned int,patch_scrap *,std::less<unsigned int>,std::allocator<std::pair<unsigned int const ,patch_scrap *> >,0> >::_Ubound
; Function compile flags: /Ogsy
_TEXT	ENDS
;	COMDAT ??Fiterator@?$_Tree@V?$_Tmap_traits@IPAUpatch_scrap@@U?$less@I@std@@V?$allocator@U?$pair@$$CBIPAUpatch_scrap@@@std@@@3@$0A@@std@@@std@@QAEAAV012@XZ
_TEXT	SEGMENT
_this$ = 8						; size = 4
??Fiterator@?$_Tree@V?$_Tmap_traits@IPAUpatch_scrap@@U?$less@I@std@@V?$allocator@U?$pair@$$CBIPAUpatch_scrap@@@std@@@3@$0A@@std@@@std@@QAEAAV012@XZ PROC NEAR ; std::_Tree<std::_Tmap_traits<unsigned int,patch_scrap *,std::less<unsigned int>,std::allocator<std::pair<unsigned int const ,patch_scrap *> >,0> >::iterator::operator--, COMDAT

; 340  : 			--(*(const_iterator *)this);

  00000	8b 4c 24 04	 mov	 ecx, DWORD PTR _this$[esp-4]
  00004	e8 00 00 00 00	 call	 ?_Dec@const_iterator@?$_Tree@V?$_Tmap_traits@IPAUpatch_scrap@@U?$less@I@std@@V?$allocator@U?$pair@$$CBIPAUpatch_scrap@@@std@@@3@$0A@@std@@@std@@QAEXXZ ; std::_Tree<std::_Tmap_traits<unsigned int,patch_scrap *,std::less<unsigned int>,std::allocator<std::pair<unsigned int const ,patch_scrap *> >,0> >::const_iterator::_Dec

; 341  : 			return (*this);

  00009	8b 44 24 04	 mov	 eax, DWORD PTR _this$[esp-4]

; 342  : 			}

  0000d	c2 04 00	 ret	 4
??Fiterator@?$_Tree@V?$_Tmap_traits@IPAUpatch_scrap@@U?$less@I@std@@V?$allocator@U?$pair@$$CBIPAUpatch_scrap@@@std@@@3@$0A@@std@@@std@@QAEAAV012@XZ ENDP ; std::_Tree<std::_Tmap_traits<unsigned int,patch_scrap *,std::less<unsigned int>,std::allocator<std::pair<unsigned int const ,patch_scrap *> >,0> >::iterator::operator--
; Function compile flags: /Ogsy
_TEXT	ENDS
;	COMDAT ?upper_bound@?$_Tree@V?$_Tmap_traits@IPAUpatch_scrap@@U?$less@I@std@@V?$allocator@U?$pair@$$CBIPAUpatch_scrap@@@std@@@3@$0A@@std@@@std@@QBE?AVconst_iterator@12@ABI@Z
_TEXT	SEGMENT
?upper_bound@?$_Tree@V?$_Tmap_traits@IPAUpatch_scrap@@U?$less@I@std@@V?$allocator@U?$pair@$$CBIPAUpatch_scrap@@@std@@@3@$0A@@std@@@std@@QBE?AVconst_iterator@12@ABI@Z PROC NEAR ; std::_Tree<std::_Tmap_traits<unsigned int,patch_scrap *,std::less<unsigned int>,std::allocator<std::pair<unsigned int const ,patch_scrap *> >,0> >::upper_bound, COMDAT
; _this$ = eax
; ___$ReturnUdt$ = esi
; __Keyval$ = edx

; 825  : 		return (_TREE_CONST_ITERATOR(_Ubound(_Keyval)));

  00000	e8 00 00 00 00	 call	 ?_Ubound@?$_Tree@V?$_Tmap_traits@IPAUpatch_scrap@@U?$less@I@std@@V?$allocator@U?$pair@$$CBIPAUpatch_scrap@@@std@@@3@$0A@@std@@@std@@IBEPAU_Node@?$_Tree_nod@V?$_Tmap_traits@IPAUpatch_scrap@@U?$less@I@std@@V?$allocator@U?$pair@$$CBIPAUpatch_scrap@@@std@@@3@$0A@@std@@@2@ABI@Z ; std::_Tree<std::_Tmap_traits<unsigned int,patch_scrap *,std::less<unsigned int>,std::allocator<std::pair<unsigned int const ,patch_scrap *> >,0> >::_Ubound
  00005	89 06		 mov	 DWORD PTR [esi], eax
  00007	8b c6		 mov	 eax, esi

; 826  : 		}

  00009	c3		 ret	 0
?upper_bound@?$_Tree@V?$_Tmap_traits@IPAUpatch_scrap@@U?$less@I@std@@V?$allocator@U?$pair@$$CBIPAUpatch_scrap@@@std@@@3@$0A@@std@@@std@@QBE?AVconst_iterator@12@ABI@Z ENDP ; std::_Tree<std::_Tmap_traits<unsigned int,patch_scrap *,std::less<unsigned int>,std::allocator<std::pair<unsigned int const ,patch_scrap *> >,0> >::upper_bound
; Function compile flags: /Ogsy
_TEXT	ENDS
;	COMDAT ?equal_range@?$_Tree@V?$_Tmap_traits@IPAUpatch_scrap@@U?$less@I@std@@V?$allocator@U?$pair@$$CBIPAUpatch_scrap@@@std@@@3@$0A@@std@@@std@@QBE?AU?$pair@Vconst_iterator@?$_Tree@V?$_Tmap_traits@IPAUpatch_scrap@@U?$less@I@std@@V?$allocator@U?$pair@$$CBIPAUpatch_scrap@@@std@@@3@$0A@@std@@@std@@V123@@2@ABI@Z
_TEXT	SEGMENT
_this$ = 8						; size = 4
__Keyval$ = 12						; size = 4
?equal_range@?$_Tree@V?$_Tmap_traits@IPAUpatch_scrap@@U?$less@I@std@@V?$allocator@U?$pair@$$CBIPAUpatch_scrap@@@std@@@3@$0A@@std@@@std@@QBE?AU?$pair@Vconst_iterator@?$_Tree@V?$_Tmap_traits@IPAUpatch_scrap@@U?$less@I@std@@V?$allocator@U?$pair@$$CBIPAUpatch_scrap@@@std@@@3@$0A@@std@@@std@@V123@@2@ABI@Z PROC NEAR ; std::_Tree<std::_Tmap_traits<unsigned int,patch_scrap *,std::less<unsigned int>,std::allocator<std::pair<unsigned int const ,patch_scrap *> >,0> >::equal_range, COMDAT
; ___$ReturnUdt$ = esi

; 835  : 		return (_Paircc(lower_bound(_Keyval), upper_bound(_Keyval)));

  00000	8b 54 24 08	 mov	 edx, DWORD PTR __Keyval$[esp-4]
  00004	8b 44 24 04	 mov	 eax, DWORD PTR _this$[esp-4]
  00008	57		 push	 edi
  00009	e8 00 00 00 00	 call	 ?_Ubound@?$_Tree@V?$_Tmap_traits@IPAUpatch_scrap@@U?$less@I@std@@V?$allocator@U?$pair@$$CBIPAUpatch_scrap@@@std@@@3@$0A@@std@@@std@@IBEPAU_Node@?$_Tree_nod@V?$_Tmap_traits@IPAUpatch_scrap@@U?$less@I@std@@V?$allocator@U?$pair@$$CBIPAUpatch_scrap@@@std@@@3@$0A@@std@@@2@ABI@Z ; std::_Tree<std::_Tmap_traits<unsigned int,patch_scrap *,std::less<unsigned int>,std::allocator<std::pair<unsigned int const ,patch_scrap *> >,0> >::_Ubound
  0000e	8b 54 24 0c	 mov	 edx, DWORD PTR __Keyval$[esp]
  00012	8b f8		 mov	 edi, eax
  00014	8b 44 24 08	 mov	 eax, DWORD PTR _this$[esp]
  00018	e8 00 00 00 00	 call	 ?_Lbound@?$_Tree@V?$_Tmap_traits@IPAUpatch_scrap@@U?$less@I@std@@V?$allocator@U?$pair@$$CBIPAUpatch_scrap@@@std@@@3@$0A@@std@@@std@@IBEPAU_Node@?$_Tree_nod@V?$_Tmap_traits@IPAUpatch_scrap@@U?$less@I@std@@V?$allocator@U?$pair@$$CBIPAUpatch_scrap@@@std@@@3@$0A@@std@@@2@ABI@Z ; std::_Tree<std::_Tmap_traits<unsigned int,patch_scrap *,std::less<unsigned int>,std::allocator<std::pair<unsigned int const ,patch_scrap *> >,0> >::_Lbound
  0001d	89 06		 mov	 DWORD PTR [esi], eax
  0001f	89 7e 04	 mov	 DWORD PTR [esi+4], edi
  00022	8b c6		 mov	 eax, esi
  00024	5f		 pop	 edi

; 836  : 		}

  00025	c2 08 00	 ret	 8
?equal_range@?$_Tree@V?$_Tmap_traits@IPAUpatch_scrap@@U?$less@I@std@@V?$allocator@U?$pair@$$CBIPAUpatch_scrap@@@std@@@3@$0A@@std@@@std@@QBE?AU?$pair@Vconst_iterator@?$_Tree@V?$_Tmap_traits@IPAUpatch_scrap@@U?$less@I@std@@V?$allocator@U?$pair@$$CBIPAUpatch_scrap@@@std@@@3@$0A@@std@@@std@@V123@@2@ABI@Z ENDP ; std::_Tree<std::_Tmap_traits<unsigned int,patch_scrap *,std::less<unsigned int>,std::allocator<std::pair<unsigned int const ,patch_scrap *> >,0> >::equal_range
; Function compile flags: /Ogsy
_TEXT	ENDS
;	COMDAT ?count@?$_Tree@V?$_Tmap_traits@IPAUpatch_scrap@@U?$less@I@std@@V?$allocator@U?$pair@$$CBIPAUpatch_scrap@@@std@@@3@$0A@@std@@@std@@QBEIABI@Z
_TEXT	SEGMENT
__Ans$ = -8						; size = 8
_this$ = 8						; size = 4
$T56011 = 12						; size = 4
__Keyval$ = 12						; size = 4
?count@?$_Tree@V?$_Tmap_traits@IPAUpatch_scrap@@U?$less@I@std@@V?$allocator@U?$pair@$$CBIPAUpatch_scrap@@@std@@@3@$0A@@std@@@std@@QBEIABI@Z PROC NEAR ; std::_Tree<std::_Tmap_traits<unsigned int,patch_scrap *,std::less<unsigned int>,std::allocator<std::pair<unsigned int const ,patch_scrap *> >,0> >::count, COMDAT

; 801  : 		{	// count all elements that match _Keyval

  00000	55		 push	 ebp
  00001	8b ec		 mov	 ebp, esp
  00003	51		 push	 ecx
  00004	51		 push	 ecx
  00005	56		 push	 esi
  00006	57		 push	 edi

; 802  : 		_Paircc _Ans = equal_range(_Keyval);

  00007	ff 75 0c	 push	 DWORD PTR __Keyval$[ebp]
  0000a	8d 75 f8	 lea	 esi, DWORD PTR __Ans$[ebp]
  0000d	ff 75 08	 push	 DWORD PTR _this$[ebp]
  00010	e8 00 00 00 00	 call	 ?equal_range@?$_Tree@V?$_Tmap_traits@IPAUpatch_scrap@@U?$less@I@std@@V?$allocator@U?$pair@$$CBIPAUpatch_scrap@@@std@@@3@$0A@@std@@@std@@QBE?AU?$pair@Vconst_iterator@?$_Tree@V?$_Tmap_traits@IPAUpatch_scrap@@U?$less@I@std@@V?$allocator@U?$pair@$$CBIPAUpatch_scrap@@@std@@@3@$0A@@std@@@std@@V123@@2@ABI@Z ; std::_Tree<std::_Tmap_traits<unsigned int,patch_scrap *,std::less<unsigned int>,std::allocator<std::pair<unsigned int const ,patch_scrap *> >,0> >::equal_range

; 803  : 		size_type _Num = 0;
; 804  : 		_Distance(_Ans.first, _Ans.second, _Num);

  00015	8b 45 f8	 mov	 eax, DWORD PTR __Ans$[ebp]
  00018	8b 75 fc	 mov	 esi, DWORD PTR __Ans$[ebp+4]
  0001b	33 ff		 xor	 edi, edi
  0001d	3b c6		 cmp	 eax, esi
  0001f	89 45 0c	 mov	 DWORD PTR $T56011[ebp], eax
  00022	74 0e		 je	 SHORT $L56021
$L56023:
  00024	8d 55 0c	 lea	 edx, DWORD PTR $T56011[ebp]
  00027	47		 inc	 edi
  00028	e8 00 00 00 00	 call	 ?_Inc@const_iterator@?$_Tree@V?$_Tmap_traits@IPAUpatch_scrap@@U?$less@I@std@@V?$allocator@U?$pair@$$CBIPAUpatch_scrap@@@std@@@3@$0A@@std@@@std@@QAEXXZ ; std::_Tree<std::_Tmap_traits<unsigned int,patch_scrap *,std::less<unsigned int>,std::allocator<std::pair<unsigned int const ,patch_scrap *> >,0> >::const_iterator::_Inc
  0002d	39 75 0c	 cmp	 DWORD PTR $T56011[ebp], esi
  00030	75 f2		 jne	 SHORT $L56023
$L56021:

; 805  : 		return (_Num);

  00032	8b c7		 mov	 eax, edi
  00034	5f		 pop	 edi
  00035	5e		 pop	 esi

; 806  : 		}

  00036	c9		 leave
  00037	c2 08 00	 ret	 8
?count@?$_Tree@V?$_Tmap_traits@IPAUpatch_scrap@@U?$less@I@std@@V?$allocator@U?$pair@$$CBIPAUpatch_scrap@@@std@@@3@$0A@@std@@@std@@QBEIABI@Z ENDP ; std::_Tree<std::_Tmap_traits<unsigned int,patch_scrap *,std::less<unsigned int>,std::allocator<std::pair<unsigned int const ,patch_scrap *> >,0> >::count
;	COMDAT xdata$x
; File c:\program files (x86)\microsoft visual studio .net 2003\vc7\include\xiosbase
xdata$x	SEGMENT
$T61976	DD	0ffffffffH
	DD	FLAT:$L61938
	DD	00H
	DD	FLAT:$L61939
	DD	00H
	DD	00H
	DD	00H
	DD	00H
$T61978	DD	00H
	DD	00H
	DD	00H
	DD	FLAT:$L61937
$T61977	DD	02H
	DD	02H
	DD	03H
	DD	01H
	DD	FLAT:$T61978
$T61972	DD	019930520H
	DD	04H
	DD	FLAT:$T61976
	DD	01H
	DD	FLAT:$T61977
	DD	2 DUP(00H)
; Function compile flags: /Ogsy
; File c:\program files (x86)\microsoft visual studio .net 2003\vc7\include\ostream
xdata$x	ENDS
;	COMDAT ??6?$basic_ostream@DU?$char_traits@D@std@@@std@@QAEAAV01@_N@Z
_TEXT	SEGMENT
$T61934 = -40						; size = 8
$T61933 = -40						; size = 8
__Ok$ = -32						; size = 8
$T61947 = -24						; size = 1
$T61930 = -24						; size = 4
__State$ = -20						; size = 4
__$EHRec$ = -16						; size = 16
_this$ = 8						; size = 4
__Val$ = 12						; size = 1
??6?$basic_ostream@DU?$char_traits@D@std@@@std@@QAEAAV01@_N@Z PROC NEAR ; std::basic_ostream<char,std::char_traits<char> >::operator<<, COMDAT

; 155  : 		{	// insert a boolean

  00000	b8 00 00 00 00	 mov	 eax, __ehhandler$??6?$basic_ostream@DU?$char_traits@D@std@@@std@@QAEAAV01@_N@Z
  00005	e8 00 00 00 00	 call	 __EH_prolog
  0000a	83 ec 1c	 sub	 esp, 28			; 0000001cH
  0000d	53		 push	 ebx
  0000e	56		 push	 esi
  0000f	57		 push	 edi
  00010	8b 7d 08	 mov	 edi, DWORD PTR _this$[ebp]

; 156  : 		ios_base::iostate _State = ios_base::goodbit;
; 157  : 		const sentry _Ok(*this);

  00013	8d 45 e0	 lea	 eax, DWORD PTR __Ok$[ebp]
  00016	89 65 f0	 mov	 DWORD PTR __$EHRec$[ebp], esp
  00019	33 db		 xor	 ebx, ebx
  0001b	50		 push	 eax
  0001c	89 5d ec	 mov	 DWORD PTR __State$[ebp], ebx
  0001f	e8 00 00 00 00	 call	 ??0sentry@?$basic_ostream@DU?$char_traits@D@std@@@std@@QAE@AAV12@@Z ; std::basic_ostream<char,std::char_traits<char> >::sentry::sentry
  00024	89 5d fc	 mov	 DWORD PTR __$EHRec$[ebp+12], ebx

; 158  : 
; 159  : 		if (_Ok)

  00027	38 5d e4	 cmp	 BYTE PTR __Ok$[ebp+4], bl
  0002a	0f 84 87 00 00
	00		 je	 $L24423

; 160  : 			{	// state okay, use facet to insert
; 161  : 			const _Nput& _Nput_fac = _USE(ios_base::getloc(), _Nput);

  00030	8d 45 e8	 lea	 eax, DWORD PTR $T61930[ebp]
  00033	50		 push	 eax
  00034	8b 07		 mov	 eax, DWORD PTR [edi]
  00036	8b 48 04	 mov	 ecx, DWORD PTR [eax+4]
  00039	03 cf		 add	 ecx, edi
  0003b	e8 00 00 00 00	 call	 ?getloc@ios_base@std@@QBE?AVlocale@2@XZ ; std::ios_base::getloc
  00040	50		 push	 eax
  00041	c6 45 fc 01	 mov	 BYTE PTR __$EHRec$[ebp+12], 1
  00045	e8 00 00 00 00	 call	 ??$use_facet@V?$num_put@DV?$ostreambuf_iterator@DU?$char_traits@D@std@@@std@@@std@@@std@@YAABV?$num_put@DV?$ostreambuf_iterator@DU?$char_traits@D@std@@@std@@@0@ABVlocale@0@@Z ; std::use_facet<std::num_put<char,std::ostreambuf_iterator<char,std::char_traits<char> > > >
  0004a	59		 pop	 ecx
  0004b	8d 4d e8	 lea	 ecx, DWORD PTR $T61930[ebp]
  0004e	8b f0		 mov	 esi, eax
  00050	e8 00 00 00 00	 call	 ??1locale@std@@QAE@XZ	; std::locale::~locale

; 162  : 
; 163  : 			_TRY_IO_BEGIN
; 164  : 			if (_Nput_fac.put(_Iter(_Myios::rdbuf()), *this,
; 165  : 				_Myios::fill(), _Val).failed())

  00055	ff 75 0c	 push	 DWORD PTR __Val$[ebp]
  00058	c6 45 fc 02	 mov	 BYTE PTR __$EHRec$[ebp+12], 2
  0005c	8b 0f		 mov	 ecx, DWORD PTR [edi]
  0005e	8b 41 04	 mov	 eax, DWORD PTR [ecx+4]
  00061	8b 49 04	 mov	 ecx, DWORD PTR [ecx+4]
  00064	03 cf		 add	 ecx, edi
  00066	8a 51 30	 mov	 dl, BYTE PTR [ecx+48]
  00069	8b 49 28	 mov	 ecx, DWORD PTR [ecx+40]
  0006c	88 55 e8	 mov	 BYTE PTR $T61947[ebp], dl
  0006f	ff 75 e8	 push	 DWORD PTR $T61947[ebp]
  00072	03 c7		 add	 eax, edi
  00074	50		 push	 eax
  00075	51		 push	 ecx
  00076	88 5d d8	 mov	 BYTE PTR $T61933[ebp], bl
  00079	ff 75 d8	 push	 DWORD PTR $T61933[ebp]
  0007c	8d 45 d8	 lea	 eax, DWORD PTR $T61934[ebp]
  0007f	50		 push	 eax
  00080	8b ce		 mov	 ecx, esi
  00082	e8 00 00 00 00	 call	 ?put@?$num_put@DV?$ostreambuf_iterator@DU?$char_traits@D@std@@@std@@@std@@QBE?AV?$ostreambuf_iterator@DU?$char_traits@D@std@@@2@V32@AAVios_base@2@D_N@Z ; std::num_put<char,std::ostreambuf_iterator<char,std::char_traits<char> > >::put
  00087	38 18		 cmp	 BYTE PTR [eax], bl
  00089	74 2c		 je	 SHORT $L24423

; 166  : 				_State |= ios_base::badbit;

  0008b	c7 45 ec 04 00
	00 00		 mov	 DWORD PTR __State$[ebp], 4
  00092	eb 23		 jmp	 SHORT $L24423
$L61937:

; 167  : 			_CATCH_IO_END

  00094	8b 45 08	 mov	 eax, DWORD PTR _this$[ebp]
  00097	8b 08		 mov	 ecx, DWORD PTR [eax]
  00099	8b 49 04	 mov	 ecx, DWORD PTR [ecx+4]
  0009c	03 c8		 add	 ecx, eax
  0009e	8b 41 08	 mov	 eax, DWORD PTR [ecx+8]
  000a1	6a 01		 push	 1
  000a3	83 c8 04	 or	 eax, 4
  000a6	50		 push	 eax
  000a7	e8 00 00 00 00	 call	 ?clear@?$basic_ios@DU?$char_traits@D@std@@@std@@QAEXH_N@Z ; std::basic_ios<char,std::char_traits<char> >::clear
  000ac	b8 00 00 00 00	 mov	 eax, $L61973
  000b1	c3		 ret	 0
$L61973:
  000b2	8b 7d 08	 mov	 edi, DWORD PTR _this$[ebp]
  000b5	33 db		 xor	 ebx, ebx
$L24423:
  000b7	89 5d fc	 mov	 DWORD PTR __$EHRec$[ebp+12], ebx

; 168  : 			}
; 169  : 
; 170  : 		_Myios::setstate(_State);

  000ba	8b 07		 mov	 eax, DWORD PTR [edi]
  000bc	8b 48 04	 mov	 ecx, DWORD PTR [eax+4]
  000bf	53		 push	 ebx
  000c0	ff 75 ec	 push	 DWORD PTR __State$[ebp]
  000c3	03 cf		 add	 ecx, edi
  000c5	e8 00 00 00 00	 call	 ?setstate@?$basic_ios@DU?$char_traits@D@std@@@std@@QAEXH_N@Z ; std::basic_ios<char,std::char_traits<char> >::setstate

; 171  : 		return (*this);

  000ca	83 4d fc ff	 or	 DWORD PTR __$EHRec$[ebp+12], -1
  000ce	8d 45 e0	 lea	 eax, DWORD PTR __Ok$[ebp]
  000d1	50		 push	 eax
  000d2	e8 00 00 00 00	 call	 ??1sentry@?$basic_ostream@DU?$char_traits@D@std@@@std@@QAE@XZ ; std::basic_ostream<char,std::char_traits<char> >::sentry::~sentry

; 172  : 		}

  000d7	8b 4d f4	 mov	 ecx, DWORD PTR __$EHRec$[ebp+4]
  000da	8b c7		 mov	 eax, edi
  000dc	5f		 pop	 edi
  000dd	5e		 pop	 esi
  000de	64 89 0d 00 00
	00 00		 mov	 DWORD PTR fs:__except_list, ecx
  000e5	5b		 pop	 ebx
  000e6	c9		 leave
  000e7	c2 08 00	 ret	 8
_TEXT	ENDS
;	COMDAT text$x
text$x	SEGMENT
$L61938:
  00000	8d 45 e0	 lea	 eax, DWORD PTR __Ok$[ebp]
  00003	50		 push	 eax
  00004	e8 00 00 00 00	 call	 ??1sentry@?$basic_ostream@DU?$char_traits@D@std@@@std@@QAE@XZ ; std::basic_ostream<char,std::char_traits<char> >::sentry::~sentry
  00009	c3		 ret	 0
$L61939:
  0000a	8d 4d e8	 lea	 ecx, DWORD PTR $T61930[ebp]
  0000d	e9 00 00 00 00	 jmp	 ??1locale@std@@QAE@XZ	; std::locale::~locale
__ehhandler$??6?$basic_ostream@DU?$char_traits@D@std@@@std@@QAEAAV01@_N@Z:
  00012	b8 00 00 00 00	 mov	 eax, OFFSET FLAT:$T61972
  00017	e9 00 00 00 00	 jmp	 ___CxxFrameHandler
text$x	ENDS
??6?$basic_ostream@DU?$char_traits@D@std@@@std@@QAEAAV01@_N@Z ENDP ; std::basic_ostream<char,std::char_traits<char> >::operator<<
PUBLIC	?DebugMsg@Patch@@QAEXXZ				; Patch::DebugMsg
; Function compile flags: /Ogsy
; File f:\nes\nsdl\src\nsc\patch.cpp
_TEXT	SEGMENT
$T64560 = -8						; size = 1
_itPatch$ = -4						; size = 4
?DebugMsg@Patch@@QAEXXZ PROC NEAR			; Patch::DebugMsg
; _this$ = edi

; 524  : {

  00000	55		 push	 ebp
  00001	8b ec		 mov	 ebp, esp
  00003	51		 push	 ecx
  00004	51		 push	 ecx
  00005	53		 push	 ebx
  00006	56		 push	 esi

; 525  : 	//----------------------
; 526  : 	//Local
; 527  : 	map<unsigned int, patch_scrap*>::iterator	itPatch;
; 528  : 	
; 529  : 	//----------------------
; 530  : 	//Delete Class
; 531  : 	cout	<< "==== [ Patch(" << m_id << ") ] ====" << endl;

  00007	68 00 00 00 00	 push	 OFFSET FLAT:??_C@_08JGNHFCII@?$CJ?5?$FN?5?$DN?$DN?$DN?$DN?$AA@
  0000c	ff 37		 push	 DWORD PTR [edi]
  0000e	be 00 00 00 00	 mov	 esi, OFFSET FLAT:?cout@std@@3V?$basic_ostream@DU?$char_traits@D@std@@@1@A ; std::cout
  00013	68 00 00 00 00	 push	 OFFSET FLAT:??_C@_0O@IDEMKPMC@?$DN?$DN?$DN?$DN?5?$FL?5Patch?$CI?$AA@
  00018	56		 push	 esi
  00019	e8 00 00 00 00	 call	 ??$?6U?$char_traits@D@std@@@std@@YAAAV?$basic_ostream@DU?$char_traits@D@std@@@0@AAV10@PBD@Z ; std::operator<<<std::char_traits<char> >
  0001e	59		 pop	 ecx
  0001f	59		 pop	 ecx
  00020	50		 push	 eax
  00021	e8 00 00 00 00	 call	 ??6?$basic_ostream@DU?$char_traits@D@std@@@std@@QAEAAV01@I@Z ; std::basic_ostream<char,std::char_traits<char> >::operator<<
  00026	50		 push	 eax
  00027	e8 00 00 00 00	 call	 ??$?6U?$char_traits@D@std@@@std@@YAAAV?$basic_ostream@DU?$char_traits@D@std@@@0@AAV10@PBD@Z ; std::operator<<<std::char_traits<char> >
  0002c	50		 push	 eax
  0002d	e8 00 00 00 00	 call	 ?endl@std@@YAAAV?$basic_ostream@DU?$char_traits@D@std@@@1@AAV21@@Z ; std::endl

; 532  : 
; 533  : 	if(!m_Patch.empty()){

  00032	33 db		 xor	 ebx, ebx
  00034	83 c4 0c	 add	 esp, 12			; 0000000cH
  00037	39 5f 0c	 cmp	 DWORD PTR [edi+12], ebx
  0003a	0f 84 d1 01 00
	00		 je	 $L24346

; 534  : 		itPatch = m_Patch.begin();

  00040	8b 4f 08	 mov	 ecx, DWORD PTR [edi+8]
  00043	8b 01		 mov	 eax, DWORD PTR [ecx]

; 535  : 		while(itPatch != m_Patch.end()){

  00045	3b c1		 cmp	 eax, ecx
  00047	89 45 fc	 mov	 DWORD PTR _itPatch$[ebp], eax
  0004a	0f 84 c1 01 00
	00		 je	 $L24346
$L24345:

; 536  : 			m_now_Patch = itPatch->second;

  00050	8b 48 10	 mov	 ecx, DWORD PTR [eax+16]
  00053	89 4f 14	 mov	 DWORD PTR [edi+20], ecx

; 537  : 
; 538  : 			cout	<<	"  n" << itPatch->first;

  00056	ff 70 0c	 push	 DWORD PTR [eax+12]
  00059	68 00 00 00 00	 push	 OFFSET FLAT:??_C@_03LNLKIPBE@?5?5n?$AA@
  0005e	56		 push	 esi
  0005f	e8 00 00 00 00	 call	 ??$?6U?$char_traits@D@std@@@std@@YAAAV?$basic_ostream@DU?$char_traits@D@std@@@0@AAV10@PBD@Z ; std::operator<<<std::char_traits<char> >
  00064	59		 pop	 ecx
  00065	59		 pop	 ecx
  00066	50		 push	 eax
  00067	e8 00 00 00 00	 call	 ??6?$basic_ostream@DU?$char_traits@D@std@@@std@@QAEAAV01@I@Z ; std::basic_ostream<char,std::char_traits<char> >::operator<<

; 539  : 			if(get_fGate_q()){ cout	<<	"  q"	<<	get_iGate_q();	};

  0006c	8b 47 14	 mov	 eax, DWORD PTR [edi+20]
  0006f	38 58 31	 cmp	 BYTE PTR [eax+49], bl
  00072	74 16		 je	 SHORT $L24349
  00074	ff 70 20	 push	 DWORD PTR [eax+32]
  00077	68 00 00 00 00	 push	 OFFSET FLAT:??_C@_03HAOAIBIK@?5?5q?$AA@
  0007c	56		 push	 esi
  0007d	e8 00 00 00 00	 call	 ??$?6U?$char_traits@D@std@@@std@@YAAAV?$basic_ostream@DU?$char_traits@D@std@@@0@AAV10@PBD@Z ; std::operator<<<std::char_traits<char> >
  00082	59		 pop	 ecx
  00083	59		 pop	 ecx
  00084	50		 push	 eax
  00085	e8 00 00 00 00	 call	 ??6?$basic_ostream@DU?$char_traits@D@std@@@std@@QAEAAV01@I@Z ; std::basic_ostream<char,std::char_traits<char> >::operator<<
$L24349:

; 540  : 			if(get_fGate_u()){ cout	<<	"  u"	<<	get_iGate_u();	};

  0008a	8b 47 14	 mov	 eax, DWORD PTR [edi+20]
  0008d	38 58 32	 cmp	 BYTE PTR [eax+50], bl
  00090	74 16		 je	 SHORT $L24351
  00092	ff 70 24	 push	 DWORD PTR [eax+36]
  00095	68 00 00 00 00	 push	 OFFSET FLAT:??_C@_03BEIMEEIO@?5?5u?$AA@
  0009a	56		 push	 esi
  0009b	e8 00 00 00 00	 call	 ??$?6U?$char_traits@D@std@@@std@@YAAAV?$basic_ostream@DU?$char_traits@D@std@@@0@AAV10@PBD@Z ; std::operator<<<std::char_traits<char> >
  000a0	59		 pop	 ecx
  000a1	59		 pop	 ecx
  000a2	50		 push	 eax
  000a3	e8 00 00 00 00	 call	 ??6?$basic_ostream@DU?$char_traits@D@std@@@std@@QAEAAV01@I@Z ; std::basic_ostream<char,std::char_traits<char> >::operator<<
$L24351:

; 541  : 			if(get_fSub()){	cout	<<	"  S"	<<	get_iSub()	<<	","	<<	get_fSub_opt();		};

  000a8	8b 47 14	 mov	 eax, DWORD PTR [edi+20]
  000ab	38 58 2f	 cmp	 BYTE PTR [eax+47], bl
  000ae	74 33		 je	 SHORT $L24353
  000b0	8a 48 30	 mov	 cl, BYTE PTR [eax+48]
  000b3	8b 40 1c	 mov	 eax, DWORD PTR [eax+28]
  000b6	88 4d f8	 mov	 BYTE PTR $T64560[ebp], cl
  000b9	ff 75 f8	 push	 DWORD PTR $T64560[ebp]
  000bc	68 00 00 00 00	 push	 OFFSET FLAT:??_C@_01IHBHIGKO@?0?$AA@
  000c1	50		 push	 eax
  000c2	68 00 00 00 00	 push	 OFFSET FLAT:??_C@_03NHFCMHKK@?5?5S?$AA@
  000c7	56		 push	 esi
  000c8	e8 00 00 00 00	 call	 ??$?6U?$char_traits@D@std@@@std@@YAAAV?$basic_ostream@DU?$char_traits@D@std@@@0@AAV10@PBD@Z ; std::operator<<<std::char_traits<char> >
  000cd	59		 pop	 ecx
  000ce	59		 pop	 ecx
  000cf	50		 push	 eax
  000d0	e8 00 00 00 00	 call	 ??6?$basic_ostream@DU?$char_traits@D@std@@@std@@QAEAAV01@I@Z ; std::basic_ostream<char,std::char_traits<char> >::operator<<
  000d5	50		 push	 eax
  000d6	e8 00 00 00 00	 call	 ??$?6U?$char_traits@D@std@@@std@@YAAAV?$basic_ostream@DU?$char_traits@D@std@@@0@AAV10@PBD@Z ; std::operator<<<std::char_traits<char> >
  000db	59		 pop	 ecx
  000dc	59		 pop	 ecx
  000dd	50		 push	 eax
  000de	e8 00 00 00 00	 call	 ??6?$basic_ostream@DU?$char_traits@D@std@@@std@@QAEAAV01@_N@Z ; std::basic_ostream<char,std::char_traits<char> >::operator<<
$L24353:

; 542  : 			if(get_fKey()){	cout	<<	"  _"	<<	get_iKey();		};

  000e3	8b 47 14	 mov	 eax, DWORD PTR [edi+20]
  000e6	38 58 2d	 cmp	 BYTE PTR [eax+45], bl
  000e9	74 16		 je	 SHORT $L24356
  000eb	ff 70 14	 push	 DWORD PTR [eax+20]
  000ee	68 00 00 00 00	 push	 OFFSET FLAT:??_C@_03HLOHIIKG@?5?5_?$AA@
  000f3	56		 push	 esi
  000f4	e8 00 00 00 00	 call	 ??$?6U?$char_traits@D@std@@@std@@YAAAV?$basic_ostream@DU?$char_traits@D@std@@@0@AAV10@PBD@Z ; std::operator<<<std::char_traits<char> >
  000f9	59		 pop	 ecx
  000fa	59		 pop	 ecx
  000fb	50		 push	 eax
  000fc	e8 00 00 00 00	 call	 ??6?$basic_ostream@DU?$char_traits@D@std@@@std@@QAEAAV01@I@Z ; std::basic_ostream<char,std::char_traits<char> >::operator<<
$L24356:

; 543  : 			if(get_fSweep()){cout	<<	"  s"	<<	(int)get_iSweep();	};

  00101	8b 47 14	 mov	 eax, DWORD PTR [edi+20]
  00104	38 58 2e	 cmp	 BYTE PTR [eax+46], bl
  00107	74 18		 je	 SHORT $L24358
  00109	0f b6 40 18	 movzx	 eax, BYTE PTR [eax+24]
  0010d	50		 push	 eax
  0010e	68 00 00 00 00	 push	 OFFSET FLAT:??_C@_03ECNGODAI@?5?5s?$AA@
  00113	56		 push	 esi
  00114	e8 00 00 00 00	 call	 ??$?6U?$char_traits@D@std@@@std@@YAAAV?$basic_ostream@DU?$char_traits@D@std@@@0@AAV10@PBD@Z ; std::operator<<<std::char_traits<char> >
  00119	59		 pop	 ecx
  0011a	59		 pop	 ecx
  0011b	50		 push	 eax
  0011c	e8 00 00 00 00	 call	 ??6?$basic_ostream@DU?$char_traits@D@std@@@std@@QAEAAV01@H@Z ; std::basic_ostream<char,std::char_traits<char> >::operator<<
$L24358:

; 544  : 			if(get_fVoi()){	cout	<<	"  @"	<<	get_iVoi();		};

  00121	8b 47 14	 mov	 eax, DWORD PTR [edi+20]
  00124	38 58 28	 cmp	 BYTE PTR [eax+40], bl
  00127	74 15		 je	 SHORT $L24361
  00129	ff 30		 push	 DWORD PTR [eax]
  0012b	68 00 00 00 00	 push	 OFFSET FLAT:??_C@_03LGLNIGDI@?5?5?$EA?$AA@
  00130	56		 push	 esi
  00131	e8 00 00 00 00	 call	 ??$?6U?$char_traits@D@std@@@std@@YAAAV?$basic_ostream@DU?$char_traits@D@std@@@0@AAV10@PBD@Z ; std::operator<<<std::char_traits<char> >
  00136	59		 pop	 ecx
  00137	59		 pop	 ecx
  00138	50		 push	 eax
  00139	e8 00 00 00 00	 call	 ??6?$basic_ostream@DU?$char_traits@D@std@@@std@@QAEAAV01@I@Z ; std::basic_ostream<char,std::char_traits<char> >::operator<<
$L24361:

; 545  : 			if(get_fEvoi()){cout	<<	" E@"	<<	get_iEvoi();	};

  0013e	8b 47 14	 mov	 eax, DWORD PTR [edi+20]
  00141	38 58 29	 cmp	 BYTE PTR [eax+41], bl
  00144	74 16		 je	 SHORT $L24363
  00146	ff 70 04	 push	 DWORD PTR [eax+4]
  00149	68 00 00 00 00	 push	 OFFSET FLAT:??_C@_03PIKBIPPD@?5E?$EA?$AA@
  0014e	56		 push	 esi
  0014f	e8 00 00 00 00	 call	 ??$?6U?$char_traits@D@std@@@std@@YAAAV?$basic_ostream@DU?$char_traits@D@std@@@0@AAV10@PBD@Z ; std::operator<<<std::char_traits<char> >
  00154	59		 pop	 ecx
  00155	59		 pop	 ecx
  00156	50		 push	 eax
  00157	e8 00 00 00 00	 call	 ??6?$basic_ostream@DU?$char_traits@D@std@@@std@@QAEAAV01@I@Z ; std::basic_ostream<char,std::char_traits<char> >::operator<<
$L24363:

; 546  : 
; 547  : 			if(get_fEvol()){

  0015c	8b 47 14	 mov	 eax, DWORD PTR [edi+20]
  0015f	38 58 2a	 cmp	 BYTE PTR [eax+42], bl
  00162	74 2a		 je	 SHORT $L24368

; 548  : 				if(get_sw_Evol()){

  00164	38 58 34	 cmp	 BYTE PTR [eax+52], bl
  00167	74 0f		 je	 SHORT $L24366

; 549  : 					cout	<<	" Ev*";

  00169	68 00 00 00 00	 push	 OFFSET FLAT:??_C@_04GLMBFHCD@?5Ev?$CK?$AA@
  0016e	56		 push	 esi
  0016f	e8 00 00 00 00	 call	 ??$?6U?$char_traits@D@std@@@std@@YAAAV?$basic_ostream@DU?$char_traits@D@std@@@0@AAV10@PBD@Z ; std::operator<<<std::char_traits<char> >
  00174	59		 pop	 ecx
  00175	59		 pop	 ecx

; 550  : 				} else {

  00176	eb 16		 jmp	 SHORT $L24368
$L24366:

; 551  : 					cout	<<	" Ev"	<<	get_iEvol();

  00178	ff 70 08	 push	 DWORD PTR [eax+8]
  0017b	68 00 00 00 00	 push	 OFFSET FLAT:??_C@_03HBLNBOIG@?5Ev?$AA@
  00180	56		 push	 esi
  00181	e8 00 00 00 00	 call	 ??$?6U?$char_traits@D@std@@@std@@YAAAV?$basic_ostream@DU?$char_traits@D@std@@@0@AAV10@PBD@Z ; std::operator<<<std::char_traits<char> >
  00186	59		 pop	 ecx
  00187	59		 pop	 ecx
  00188	50		 push	 eax
  00189	e8 00 00 00 00	 call	 ??6?$basic_ostream@DU?$char_traits@D@std@@@std@@QAEAAV01@I@Z ; std::basic_ostream<char,std::char_traits<char> >::operator<<
$L24368:

; 552  : 				}
; 553  : 			};
; 554  : 
; 555  : 			if(get_fEm()){

  0018e	8b 47 14	 mov	 eax, DWORD PTR [edi+20]
  00191	38 58 2b	 cmp	 BYTE PTR [eax+43], bl
  00194	74 2a		 je	 SHORT $L24373

; 556  : 				if(get_sw_Em()){

  00196	38 58 35	 cmp	 BYTE PTR [eax+53], bl
  00199	74 0f		 je	 SHORT $L24371

; 557  : 					cout	<<	" Em*";

  0019b	68 00 00 00 00	 push	 OFFSET FLAT:??_C@_04HLLCBLLC@?5Em?$CK?$AA@
  001a0	56		 push	 esi
  001a1	e8 00 00 00 00	 call	 ??$?6U?$char_traits@D@std@@@std@@YAAAV?$basic_ostream@DU?$char_traits@D@std@@@0@AAV10@PBD@Z ; std::operator<<<std::char_traits<char> >
  001a6	59		 pop	 ecx
  001a7	59		 pop	 ecx

; 558  : 				} else {

  001a8	eb 16		 jmp	 SHORT $L24373
$L24371:

; 559  : 					cout	<<	" Em"	<<	get_iEm();

  001aa	ff 70 0c	 push	 DWORD PTR [eax+12]
  001ad	68 00 00 00 00	 push	 OFFSET FLAT:??_C@_03NIILNFBM@?5Em?$AA@
  001b2	56		 push	 esi
  001b3	e8 00 00 00 00	 call	 ??$?6U?$char_traits@D@std@@@std@@YAAAV?$basic_ostream@DU?$char_traits@D@std@@@0@AAV10@PBD@Z ; std::operator<<<std::char_traits<char> >
  001b8	59		 pop	 ecx
  001b9	59		 pop	 ecx
  001ba	50		 push	 eax
  001bb	e8 00 00 00 00	 call	 ??6?$basic_ostream@DU?$char_traits@D@std@@@std@@QAEAAV01@I@Z ; std::basic_ostream<char,std::char_traits<char> >::operator<<
$L24373:

; 560  : 				}
; 561  : 			};
; 562  : 
; 563  : 			if(get_fEn()){

  001c0	8b 47 14	 mov	 eax, DWORD PTR [edi+20]
  001c3	38 58 2c	 cmp	 BYTE PTR [eax+44], bl
  001c6	74 2a		 je	 SHORT $L24378

; 564  : 				if(get_sw_En()){

  001c8	38 58 36	 cmp	 BYTE PTR [eax+54], bl
  001cb	74 0f		 je	 SHORT $L24376

; 565  : 					cout	<<	" En*";

  001cd	68 00 00 00 00	 push	 OFFSET FLAT:??_C@_04HJPEKFOL@?5En?$CK?$AA@
  001d2	56		 push	 esi
  001d3	e8 00 00 00 00	 call	 ??$?6U?$char_traits@D@std@@@std@@YAAAV?$basic_ostream@DU?$char_traits@D@std@@@0@AAV10@PBD@Z ; std::operator<<<std::char_traits<char> >
  001d8	59		 pop	 ecx
  001d9	59		 pop	 ecx

; 566  : 				} else {

  001da	eb 16		 jmp	 SHORT $L24378
$L24376:

; 567  : 					cout	<<	" En"	<<	get_iEn();

  001dc	ff 70 10	 push	 DWORD PTR [eax+16]
  001df	68 00 00 00 00	 push	 OFFSET FLAT:??_C@_03PDKGIGNP@?5En?$AA@
  001e4	56		 push	 esi
  001e5	e8 00 00 00 00	 call	 ??$?6U?$char_traits@D@std@@@std@@YAAAV?$basic_ostream@DU?$char_traits@D@std@@@0@AAV10@PBD@Z ; std::operator<<<std::char_traits<char> >
  001ea	59		 pop	 ecx
  001eb	59		 pop	 ecx
  001ec	50		 push	 eax
  001ed	e8 00 00 00 00	 call	 ??6?$basic_ostream@DU?$char_traits@D@std@@@std@@QAEAAV01@I@Z ; std::basic_ostream<char,std::char_traits<char> >::operator<<
$L24378:

; 568  : 				}
; 569  : 			};
; 570  : 
; 571  : 			cout	<<	endl;

  001f2	68 00 00 00 00	 push	 OFFSET FLAT:?cout@std@@3V?$basic_ostream@DU?$char_traits@D@std@@@1@A
  001f7	e8 00 00 00 00	 call	 ?endl@std@@YAAAV?$basic_ostream@DU?$char_traits@D@std@@@1@AAV21@@Z ; std::endl
  001fc	59		 pop	 ecx

; 572  : 			itPatch++;

  001fd	8d 55 fc	 lea	 edx, DWORD PTR _itPatch$[ebp]
  00200	e8 00 00 00 00	 call	 ?_Inc@const_iterator@?$_Tree@V?$_Tmap_traits@IPAUpatch_scrap@@U?$less@I@std@@V?$allocator@U?$pair@$$CBIPAUpatch_scrap@@@std@@@3@$0A@@std@@@std@@QAEXXZ ; std::_Tree<std::_Tmap_traits<unsigned int,patch_scrap *,std::less<unsigned int>,std::allocator<std::pair<unsigned int const ,patch_scrap *> >,0> >::const_iterator::_Inc
  00205	8b 45 fc	 mov	 eax, DWORD PTR _itPatch$[ebp]
  00208	3b 47 08	 cmp	 eax, DWORD PTR [edi+8]
  0020b	0f 85 3f fe ff
	ff		 jne	 $L24345
$L24346:
  00211	5e		 pop	 esi
  00212	5b		 pop	 ebx

; 573  : 		}
; 574  : 	}
; 575  : }

  00213	c9		 leave
  00214	c3		 ret	 0
?DebugMsg@Patch@@QAEXXZ ENDP				; Patch::DebugMsg
;	COMDAT xdata$x
; File c:\program files (x86)\microsoft visual studio .net 2003\vc7\include\xmemory
xdata$x	SEGMENT
$T69432	DD	0ffffffffH
	DD	FLAT:$L68991
$T69416	DD	019930520H
	DD	01H
	DD	FLAT:$T69432
	DD	2 DUP(00H)
	DD	2 DUP(00H)
; Function compile flags: /Ogsy
; File c:\program files (x86)\microsoft visual studio .net 2003\vc7\include\xtree
xdata$x	ENDS
;	COMDAT ?erase@?$_Tree@V?$_Tmap_traits@IPAUpatch_scrap@@U?$less@I@std@@V?$allocator@U?$pair@$$CBIPAUpatch_scrap@@@std@@@3@$0A@@std@@@std@@QAE?AViterator@12@V312@@Z
_TEXT	SEGMENT
$T68985 = -80						; size = 40
$T68986 = -40						; size = 28
__$EHRec$ = -12						; size = 12
_this$ = 8						; size = 4
___$ReturnUdt$ = 12					; size = 4
__Where$ = 16						; size = 4
?erase@?$_Tree@V?$_Tmap_traits@IPAUpatch_scrap@@U?$less@I@std@@V?$allocator@U?$pair@$$CBIPAUpatch_scrap@@@std@@@3@$0A@@std@@@std@@QAE?AViterator@12@V312@@Z PROC NEAR ; std::_Tree<std::_Tmap_traits<unsigned int,patch_scrap *,std::less<unsigned int>,std::allocator<std::pair<unsigned int const ,patch_scrap *> >,0> >::erase, COMDAT

; 590  : 		{	// erase element at _Where

  00000	b8 00 00 00 00	 mov	 eax, __ehhandler$?erase@?$_Tree@V?$_Tmap_traits@IPAUpatch_scrap@@U?$less@I@std@@V?$allocator@U?$pair@$$CBIPAUpatch_scrap@@@std@@@3@$0A@@std@@@std@@QAE?AViterator@12@V312@@Z
  00005	e8 00 00 00 00	 call	 __EH_prolog
  0000a	83 ec 44	 sub	 esp, 68			; 00000044H
  0000d	53		 push	 ebx

; 591  : 		if (_Isnil(_Where._Mynode()))

  0000e	8b 5d 10	 mov	 ebx, DWORD PTR __Where$[ebp]
  00011	80 7b 15 00	 cmp	 BYTE PTR [ebx+21], 0
  00015	56		 push	 esi
  00016	57		 push	 edi
  00017	74 32		 je	 SHORT $L69003

; 592  : 			_THROW(out_of_range, "invalid map/set<T> iterator");

  00019	68 00 00 00 00	 push	 OFFSET FLAT:??_C@_0BM@PAPJHAGI@invalid?5map?1set?$DMT?$DO?5iterator?$AA@
  0001e	8d 4d d8	 lea	 ecx, DWORD PTR $T68986[ebp]
  00021	e8 00 00 00 00	 call	 ??0?$basic_string@DU?$char_traits@D@std@@V?$allocator@D@2@@std@@QAE@PBD@Z ; std::basic_string<char,std::char_traits<char>,std::allocator<char> >::basic_string<char,std::char_traits<char>,std::allocator<char> >
  00026	83 65 fc 00	 and	 DWORD PTR __$EHRec$[ebp+8], 0
  0002a	8d 45 d8	 lea	 eax, DWORD PTR $T68986[ebp]
  0002d	50		 push	 eax
  0002e	8d 4d b0	 lea	 ecx, DWORD PTR $T68985[ebp]
  00031	e8 00 00 00 00	 call	 ??0logic_error@std@@QAE@ABV?$basic_string@DU?$char_traits@D@std@@V?$allocator@D@2@@1@@Z ; std::logic_error::logic_error
  00036	68 00 00 00 00	 push	 OFFSET FLAT:__TI3?AVout_of_range@std@@
  0003b	8d 45 b0	 lea	 eax, DWORD PTR $T68985[ebp]
  0003e	50		 push	 eax
  0003f	c7 45 b0 00 00
	00 00		 mov	 DWORD PTR $T68985[ebp], OFFSET FLAT:??_7out_of_range@std@@6B@
  00046	e8 00 00 00 00	 call	 __CxxThrowException@8
$L69433:
$L69003:

; 593  : 		_Nodeptr _Erasednode = _Where._Mynode();	// node to erase
; 594  : 		++_Where;	// save successor iterator for return

  0004b	8d 55 10	 lea	 edx, DWORD PTR __Where$[ebp]
  0004e	e8 00 00 00 00	 call	 ?_Inc@const_iterator@?$_Tree@V?$_Tmap_traits@IPAUpatch_scrap@@U?$less@I@std@@V?$allocator@U?$pair@$$CBIPAUpatch_scrap@@@std@@@3@$0A@@std@@@std@@QAEXXZ ; std::_Tree<std::_Tmap_traits<unsigned int,patch_scrap *,std::less<unsigned int>,std::allocator<std::pair<unsigned int const ,patch_scrap *> >,0> >::const_iterator::_Inc

; 595  : 
; 596  : 		_Nodeptr _Fixnode;	// the node to recolor as needed
; 597  : 		_Nodeptr _Fixnodeparent;	// parent of _Fixnode (which may be nil)
; 598  : 		_Nodeptr _Pnode = _Erasednode;
; 599  : 
; 600  : 		if (_Isnil(_Left(_Pnode)))

  00053	8b 0b		 mov	 ecx, DWORD PTR [ebx]
  00055	80 79 15 00	 cmp	 BYTE PTR [ecx+21], 0
  00059	74 05		 je	 SHORT $L25363

; 601  : 			_Fixnode = _Right(_Pnode);	// must stitch up right subtree

  0005b	8b 7b 08	 mov	 edi, DWORD PTR [ebx+8]

; 602  : 		else if (_Isnil(_Right(_Pnode)))

  0005e	eb 17		 jmp	 SHORT $L69423
$L25363:
  00060	8b 43 08	 mov	 eax, DWORD PTR [ebx+8]
  00063	80 78 15 00	 cmp	 BYTE PTR [eax+21], 0
  00067	74 04		 je	 SHORT $L25365

; 603  : 			_Fixnode = _Left(_Pnode);	// must stitch up left subtree

  00069	8b f9		 mov	 edi, ecx

; 604  : 		else

  0006b	eb 0a		 jmp	 SHORT $L69423
$L25365:

; 605  : 			{	// two subtrees, must lift successor node to replace erased
; 606  : 			_Pnode = _Where._Mynode();	// _Pnode is successor node
; 607  : 			_Fixnode = _Right(_Pnode);	// _Fixnode is its only subtree

  0006d	8b 45 10	 mov	 eax, DWORD PTR __Where$[ebp]

; 608  : 			}
; 609  : 
; 610  : 		if (_Pnode == _Erasednode)

  00070	3b c3		 cmp	 eax, ebx
  00072	8b 78 08	 mov	 edi, DWORD PTR [eax+8]
  00075	75 76		 jne	 SHORT $L25367
$L69423:

; 611  : 			{	// at most one subtree, relink it
; 612  : 			_Fixnodeparent = _Parent(_Erasednode);
; 613  : 			if (!_Isnil(_Fixnode))

  00077	80 7f 15 00	 cmp	 BYTE PTR [edi+21], 0
  0007b	8b 73 04	 mov	 esi, DWORD PTR [ebx+4]
  0007e	75 03		 jne	 SHORT $L25368

; 614  : 				_Parent(_Fixnode) = _Fixnodeparent;	// link up

  00080	89 77 04	 mov	 DWORD PTR [edi+4], esi
$L25368:

; 615  : 
; 616  : 			if (_Root() == _Erasednode)

  00083	8b 4d 08	 mov	 ecx, DWORD PTR _this$[ebp]
  00086	8b 41 04	 mov	 eax, DWORD PTR [ecx+4]
  00089	39 58 04	 cmp	 DWORD PTR [eax+4], ebx
  0008c	75 05		 jne	 SHORT $L25369

; 617  : 				_Root() = _Fixnode;	// link down from root

  0008e	89 78 04	 mov	 DWORD PTR [eax+4], edi

; 618  : 			else if (_Left(_Fixnodeparent) == _Erasednode)

  00091	eb 0b		 jmp	 SHORT $L25372
$L25369:
  00093	39 1e		 cmp	 DWORD PTR [esi], ebx
  00095	75 04		 jne	 SHORT $L25371

; 619  : 				_Left(_Fixnodeparent) = _Fixnode;	// link down to left

  00097	89 3e		 mov	 DWORD PTR [esi], edi

; 620  : 			else

  00099	eb 03		 jmp	 SHORT $L25372
$L25371:

; 621  : 				_Right(_Fixnodeparent) = _Fixnode;	// link down to right

  0009b	89 7e 08	 mov	 DWORD PTR [esi+8], edi
$L25372:

; 622  : 
; 623  : 			if (_Lmost() == _Erasednode)

  0009e	8b 51 04	 mov	 edx, DWORD PTR [ecx+4]
  000a1	39 1a		 cmp	 DWORD PTR [edx], ebx
  000a3	75 1c		 jne	 SHORT $L25373

; 624  : 				_Lmost() = _Isnil(_Fixnode)
; 625  : 					? _Fixnodeparent	// smallest is parent of erased node
; 626  : 					: _Min(_Fixnode);	// smallest in relinked subtree

  000a5	80 7f 15 00	 cmp	 BYTE PTR [edi+21], 0
  000a9	74 04		 je	 SHORT $L68987
  000ab	8b ce		 mov	 ecx, esi
  000ad	eb 10		 jmp	 SHORT $L68988
$L68987:
  000af	8b 07		 mov	 eax, DWORD PTR [edi]
  000b1	8b cf		 mov	 ecx, edi
  000b3	eb 04		 jmp	 SHORT $L69426
$L69104:
  000b5	8b c8		 mov	 ecx, eax
  000b7	8b 01		 mov	 eax, DWORD PTR [ecx]
$L69426:
  000b9	80 78 15 00	 cmp	 BYTE PTR [eax+21], 0
  000bd	74 f6		 je	 SHORT $L69104
$L68988:
  000bf	89 0a		 mov	 DWORD PTR [edx], ecx
$L25373:

; 627  : 
; 628  : 			if (_Rmost() == _Erasednode)

  000c1	8b 45 08	 mov	 eax, DWORD PTR _this$[ebp]
  000c4	8b 50 04	 mov	 edx, DWORD PTR [eax+4]
  000c7	39 5a 08	 cmp	 DWORD PTR [edx+8], ebx
  000ca	75 7b		 jne	 SHORT $L69244

; 629  : 				_Rmost() = _Isnil(_Fixnode)
; 630  : 					? _Fixnodeparent	// largest is parent of erased node
; 631  : 					: _Max(_Fixnode);	// largest in relinked subtree

  000cc	80 7f 15 00	 cmp	 BYTE PTR [edi+21], 0
  000d0	74 04		 je	 SHORT $L68989
  000d2	8b ce		 mov	 ecx, esi
  000d4	eb 12		 jmp	 SHORT $L68990
$L68989:
  000d6	8b 47 08	 mov	 eax, DWORD PTR [edi+8]
  000d9	8b cf		 mov	 ecx, edi
  000db	eb 05		 jmp	 SHORT $L69427
$L69145:
  000dd	8b c8		 mov	 ecx, eax
  000df	8b 41 08	 mov	 eax, DWORD PTR [ecx+8]
$L69427:
  000e2	80 78 15 00	 cmp	 BYTE PTR [eax+21], 0
  000e6	74 f5		 je	 SHORT $L69145
$L68990:
  000e8	89 4a 08	 mov	 DWORD PTR [edx+8], ecx

; 632  : 			}
; 633  : 		else

  000eb	eb 5a		 jmp	 SHORT $L69244
$L25367:

; 634  : 			{	// erased has two subtrees, _Pnode is successor to erased
; 635  : 			_Parent(_Left(_Erasednode)) = _Pnode;	// link left up

  000ed	89 41 04	 mov	 DWORD PTR [ecx+4], eax

; 636  : 			_Left(_Pnode) = _Left(_Erasednode);	// link successor down

  000f0	8b 0b		 mov	 ecx, DWORD PTR [ebx]
  000f2	89 08		 mov	 DWORD PTR [eax], ecx

; 637  : 
; 638  : 			if (_Pnode == _Right(_Erasednode))

  000f4	3b 43 08	 cmp	 eax, DWORD PTR [ebx+8]
  000f7	75 04		 jne	 SHORT $L25376

; 639  : 				_Fixnodeparent = _Pnode;	// successor is next to erased

  000f9	8b f0		 mov	 esi, eax

; 640  : 			else

  000fb	eb 1a		 jmp	 SHORT $L25377
$L25376:

; 641  : 				{	// successor further down, link in place of erased
; 642  : 				_Fixnodeparent = _Parent(_Pnode);	// parent is successor's
; 643  : 				if (!_Isnil(_Fixnode))

  000fd	80 7f 15 00	 cmp	 BYTE PTR [edi+21], 0
  00101	8b 70 04	 mov	 esi, DWORD PTR [eax+4]
  00104	75 03		 jne	 SHORT $L25378

; 644  : 					_Parent(_Fixnode) = _Fixnodeparent;	// link fix up

  00106	89 77 04	 mov	 DWORD PTR [edi+4], esi
$L25378:

; 645  : 				_Left(_Fixnodeparent) = _Fixnode;	// link fix down

  00109	89 3e		 mov	 DWORD PTR [esi], edi

; 646  : 				_Right(_Pnode) = _Right(_Erasednode);	// link successor down

  0010b	8b 4b 08	 mov	 ecx, DWORD PTR [ebx+8]
  0010e	89 48 08	 mov	 DWORD PTR [eax+8], ecx

; 647  : 				_Parent(_Right(_Erasednode)) = _Pnode;	// link right up

  00111	8b 4b 08	 mov	 ecx, DWORD PTR [ebx+8]
  00114	89 41 04	 mov	 DWORD PTR [ecx+4], eax
$L25377:

; 648  : 				}
; 649  : 
; 650  : 			if (_Root() == _Erasednode)

  00117	8b 4d 08	 mov	 ecx, DWORD PTR _this$[ebp]
  0011a	8b 49 04	 mov	 ecx, DWORD PTR [ecx+4]
  0011d	39 59 04	 cmp	 DWORD PTR [ecx+4], ebx
  00120	75 05		 jne	 SHORT $L25379

; 651  : 				_Root() = _Pnode;	// link down from root

  00122	89 41 04	 mov	 DWORD PTR [ecx+4], eax

; 652  : 			else if (_Left(_Parent(_Erasednode)) == _Erasednode)

  00125	eb 0e		 jmp	 SHORT $L25382
$L25379:
  00127	8b 4b 04	 mov	 ecx, DWORD PTR [ebx+4]
  0012a	39 19		 cmp	 DWORD PTR [ecx], ebx
  0012c	75 04		 jne	 SHORT $L25381

; 653  : 				_Left(_Parent(_Erasednode)) = _Pnode;	// link down to left

  0012e	89 01		 mov	 DWORD PTR [ecx], eax

; 654  : 			else

  00130	eb 03		 jmp	 SHORT $L25382
$L25381:

; 655  : 				_Right(_Parent(_Erasednode)) = _Pnode;	// link down to right

  00132	89 41 08	 mov	 DWORD PTR [ecx+8], eax
$L25382:

; 656  : 
; 657  : 			_Parent(_Pnode) = _Parent(_Erasednode);	// link successor up

  00135	8b 4b 04	 mov	 ecx, DWORD PTR [ebx+4]
  00138	89 48 04	 mov	 DWORD PTR [eax+4], ecx

; 658  : 			std::swap(_Color(_Pnode), _Color(_Erasednode));	// recolor it

  0013b	8a 53 14	 mov	 dl, BYTE PTR [ebx+20]
  0013e	8a 48 14	 mov	 cl, BYTE PTR [eax+20]
  00141	88 50 14	 mov	 BYTE PTR [eax+20], dl
  00144	88 4b 14	 mov	 BYTE PTR [ebx+20], cl
$L69244:

; 659  : 			}
; 660  : 
; 661  : 		if (_Color(_Erasednode) == _Black)

  00147	80 7b 14 01	 cmp	 BYTE PTR [ebx+20], 1
  0014b	0f 85 12 01 00
	00		 jne	 $L25388

; 662  : 			{	// erasing black link, must recolor/rebalance tree
; 663  : 			for (; _Fixnode != _Root() && _Color(_Fixnode) == _Black;
; 664  : 				_Fixnodeparent = _Parent(_Fixnode))

  00151	e9 c1 00 00 00	 jmp	 $L69429
$L25389:
  00156	80 7f 14 01	 cmp	 BYTE PTR [edi+20], 1
  0015a	0f 85 ff 00 00
	00		 jne	 $L25391

; 665  : 				if (_Fixnode == _Left(_Fixnodeparent))

  00160	8b 0e		 mov	 ecx, DWORD PTR [esi]
  00162	3b f9		 cmp	 edi, ecx
  00164	75 77		 jne	 SHORT $L25392

; 666  : 					{	// fixup left subtree
; 667  : 					_Pnode = _Right(_Fixnodeparent);

  00166	8b 4e 08	 mov	 ecx, DWORD PTR [esi+8]

; 668  : 					if (_Color(_Pnode) == _Red)

  00169	80 79 14 00	 cmp	 BYTE PTR [ecx+20], 0
  0016d	75 15		 jne	 SHORT $L25393

; 669  : 						{	// rotate red up from right subtree
; 670  : 						_Color(_Pnode) = _Black;
; 671  : 						_Color(_Fixnodeparent) = _Red;
; 672  : 						_Lrotate(_Fixnodeparent);

  0016f	ff 75 08	 push	 DWORD PTR _this$[ebp]
  00172	c6 41 14 01	 mov	 BYTE PTR [ecx+20], 1
  00176	8b ce		 mov	 ecx, esi
  00178	c6 46 14 00	 mov	 BYTE PTR [esi+20], 0
  0017c	e8 00 00 00 00	 call	 ?_Lrotate@?$_Tree@V?$_Tmap_traits@IPAUpatch_scrap@@U?$less@I@std@@V?$allocator@U?$pair@$$CBIPAUpatch_scrap@@@std@@@3@$0A@@std@@@std@@IAEXPAU_Node@?$_Tree_nod@V?$_Tmap_traits@IPAUpatch_scrap@@U?$less@I@std@@V?$allocator@U?$pair@$$CBIPAUpatch_scrap@@@std@@@3@$0A@@std@@@2@@Z ; std::_Tree<std::_Tmap_traits<unsigned int,patch_scrap *,std::less<unsigned int>,std::allocator<std::pair<unsigned int const ,patch_scrap *> >,0> >::_Lrotate

; 673  : 						_Pnode = _Right(_Fixnodeparent);

  00181	8b 4e 08	 mov	 ecx, DWORD PTR [esi+8]
$L25393:

; 674  : 						}
; 675  : 
; 676  : 					if (_Isnil(_Pnode))

  00184	80 79 15 00	 cmp	 BYTE PTR [ecx+21], 0

; 677  : 						_Fixnode = _Fixnodeparent;	// shouldn't happen
; 678  : 					else if (_Color(_Left(_Pnode)) == _Black

  00188	0f 85 84 00 00
	00		 jne	 $L69430

; 679  : 						&& _Color(_Right(_Pnode)) == _Black)

  0018e	8b 01		 mov	 eax, DWORD PTR [ecx]
  00190	80 78 14 01	 cmp	 BYTE PTR [eax+20], 1
  00194	75 09		 jne	 SHORT $L25396
  00196	8b 41 08	 mov	 eax, DWORD PTR [ecx+8]
  00199	80 78 14 01	 cmp	 BYTE PTR [eax+20], 1
  0019d	74 6f		 je	 SHORT $L69431
$L25396:

; 680  : 						{	// redden right subtree with black children
; 681  : 						_Color(_Pnode) = _Red;
; 682  : 						_Fixnode = _Fixnodeparent;
; 683  : 						}
; 684  : 					else
; 685  : 						{	// must rearrange right subtree
; 686  : 						if (_Color(_Right(_Pnode)) == _Black)

  0019f	8b 41 08	 mov	 eax, DWORD PTR [ecx+8]
  001a2	80 78 14 01	 cmp	 BYTE PTR [eax+20], 1
  001a6	75 15		 jne	 SHORT $L25398

; 687  : 							{	// rotate red up from left sub-subtree
; 688  : 							_Color(_Left(_Pnode)) = _Black;

  001a8	8b 01		 mov	 eax, DWORD PTR [ecx]

; 689  : 							_Color(_Pnode) = _Red;
; 690  : 							_Rrotate(_Pnode);

  001aa	ff 75 08	 push	 DWORD PTR _this$[ebp]
  001ad	c6 40 14 01	 mov	 BYTE PTR [eax+20], 1
  001b1	c6 41 14 00	 mov	 BYTE PTR [ecx+20], 0
  001b5	e8 00 00 00 00	 call	 ?_Rrotate@?$_Tree@V?$_Tmap_traits@IPAUpatch_scrap@@U?$less@I@std@@V?$allocator@U?$pair@$$CBIPAUpatch_scrap@@@std@@@3@$0A@@std@@@std@@IAEXPAU_Node@?$_Tree_nod@V?$_Tmap_traits@IPAUpatch_scrap@@U?$less@I@std@@V?$allocator@U?$pair@$$CBIPAUpatch_scrap@@@std@@@3@$0A@@std@@@2@@Z ; std::_Tree<std::_Tmap_traits<unsigned int,patch_scrap *,std::less<unsigned int>,std::allocator<std::pair<unsigned int const ,patch_scrap *> >,0> >::_Rrotate

; 691  : 							_Pnode = _Right(_Fixnodeparent);

  001ba	8b 4e 08	 mov	 ecx, DWORD PTR [esi+8]
$L25398:

; 692  : 							}
; 693  : 
; 694  : 						_Color(_Pnode) = _Color(_Fixnodeparent);

  001bd	8a 46 14	 mov	 al, BYTE PTR [esi+20]

; 695  : 						_Color(_Fixnodeparent) = _Black;
; 696  : 						_Color(_Right(_Pnode)) = _Black;
; 697  : 						_Lrotate(_Fixnodeparent);

  001c0	ff 75 08	 push	 DWORD PTR _this$[ebp]
  001c3	88 41 14	 mov	 BYTE PTR [ecx+20], al
  001c6	c6 46 14 01	 mov	 BYTE PTR [esi+20], 1
  001ca	8b 41 08	 mov	 eax, DWORD PTR [ecx+8]
  001cd	8b ce		 mov	 ecx, esi
  001cf	c6 40 14 01	 mov	 BYTE PTR [eax+20], 1
  001d3	e8 00 00 00 00	 call	 ?_Lrotate@?$_Tree@V?$_Tmap_traits@IPAUpatch_scrap@@U?$less@I@std@@V?$allocator@U?$pair@$$CBIPAUpatch_scrap@@@std@@@3@$0A@@std@@@std@@IAEXPAU_Node@?$_Tree_nod@V?$_Tmap_traits@IPAUpatch_scrap@@U?$less@I@std@@V?$allocator@U?$pair@$$CBIPAUpatch_scrap@@@std@@@3@$0A@@std@@@2@@Z ; std::_Tree<std::_Tmap_traits<unsigned int,patch_scrap *,std::less<unsigned int>,std::allocator<std::pair<unsigned int const ,patch_scrap *> >,0> >::_Lrotate

; 698  : 						break;	// tree now recolored/rebalanced

  001d8	e9 82 00 00 00	 jmp	 $L25391
$L25392:

; 699  : 						}
; 700  : 					}
; 701  : 				else
; 702  : 					{	// fixup right subtree
; 703  : 					_Pnode = _Left(_Fixnodeparent);
; 704  : 					if (_Color(_Pnode) == _Red)

  001dd	80 79 14 00	 cmp	 BYTE PTR [ecx+20], 0
  001e1	75 14		 jne	 SHORT $L25400

; 705  : 						{	// rotate red up from left subtree
; 706  : 						_Color(_Pnode) = _Black;
; 707  : 						_Color(_Fixnodeparent) = _Red;
; 708  : 						_Rrotate(_Fixnodeparent);

  001e3	ff 75 08	 push	 DWORD PTR _this$[ebp]
  001e6	c6 41 14 01	 mov	 BYTE PTR [ecx+20], 1
  001ea	8b ce		 mov	 ecx, esi
  001ec	c6 46 14 00	 mov	 BYTE PTR [esi+20], 0
  001f0	e8 00 00 00 00	 call	 ?_Rrotate@?$_Tree@V?$_Tmap_traits@IPAUpatch_scrap@@U?$less@I@std@@V?$allocator@U?$pair@$$CBIPAUpatch_scrap@@@std@@@3@$0A@@std@@@std@@IAEXPAU_Node@?$_Tree_nod@V?$_Tmap_traits@IPAUpatch_scrap@@U?$less@I@std@@V?$allocator@U?$pair@$$CBIPAUpatch_scrap@@@std@@@3@$0A@@std@@@2@@Z ; std::_Tree<std::_Tmap_traits<unsigned int,patch_scrap *,std::less<unsigned int>,std::allocator<std::pair<unsigned int const ,patch_scrap *> >,0> >::_Rrotate

; 709  : 						_Pnode = _Left(_Fixnodeparent);

  001f5	8b 0e		 mov	 ecx, DWORD PTR [esi]
$L25400:

; 710  : 						}
; 711  : 					if (_Isnil(_Pnode))

  001f7	80 79 15 00	 cmp	 BYTE PTR [ecx+21], 0

; 712  : 						_Fixnode = _Fixnodeparent;	// shouldn't happen
; 713  : 					else if (_Color(_Right(_Pnode)) == _Black

  001fb	75 15		 jne	 SHORT $L69430

; 714  : 						&& _Color(_Left(_Pnode)) == _Black)

  001fd	8b 41 08	 mov	 eax, DWORD PTR [ecx+8]
  00200	80 78 14 01	 cmp	 BYTE PTR [eax+20], 1
  00204	75 22		 jne	 SHORT $L25403
  00206	8b 01		 mov	 eax, DWORD PTR [ecx]
  00208	80 78 14 01	 cmp	 BYTE PTR [eax+20], 1
  0020c	75 1a		 jne	 SHORT $L25403
$L69431:

; 715  : 						{	// redden left subtree with black children
; 716  : 						_Color(_Pnode) = _Red;

  0020e	c6 41 14 00	 mov	 BYTE PTR [ecx+20], 0
$L69430:

; 717  : 						_Fixnode = _Fixnodeparent;

  00212	8b fe		 mov	 edi, esi
  00214	8b 76 04	 mov	 esi, DWORD PTR [esi+4]
$L69429:
  00217	8b 45 08	 mov	 eax, DWORD PTR _this$[ebp]
  0021a	8b 40 04	 mov	 eax, DWORD PTR [eax+4]
  0021d	3b 78 04	 cmp	 edi, DWORD PTR [eax+4]
  00220	0f 85 30 ff ff
	ff		 jne	 $L25389

; 662  : 			{	// erasing black link, must recolor/rebalance tree
; 663  : 			for (; _Fixnode != _Root() && _Color(_Fixnode) == _Black;
; 664  : 				_Fixnodeparent = _Parent(_Fixnode))

  00226	eb 37		 jmp	 SHORT $L25391
$L25403:

; 718  : 						}
; 719  : 					else
; 720  : 						{	// must rearrange left subtree
; 721  : 						if (_Color(_Left(_Pnode)) == _Black)

  00228	8b 01		 mov	 eax, DWORD PTR [ecx]
  0022a	80 78 14 01	 cmp	 BYTE PTR [eax+20], 1
  0022e	75 15		 jne	 SHORT $L25405

; 722  : 							{	// rotate red up from right sub-subtree
; 723  : 							_Color(_Right(_Pnode)) = _Black;

  00230	8b 41 08	 mov	 eax, DWORD PTR [ecx+8]

; 724  : 							_Color(_Pnode) = _Red;
; 725  : 							_Lrotate(_Pnode);

  00233	ff 75 08	 push	 DWORD PTR _this$[ebp]
  00236	c6 40 14 01	 mov	 BYTE PTR [eax+20], 1
  0023a	c6 41 14 00	 mov	 BYTE PTR [ecx+20], 0
  0023e	e8 00 00 00 00	 call	 ?_Lrotate@?$_Tree@V?$_Tmap_traits@IPAUpatch_scrap@@U?$less@I@std@@V?$allocator@U?$pair@$$CBIPAUpatch_scrap@@@std@@@3@$0A@@std@@@std@@IAEXPAU_Node@?$_Tree_nod@V?$_Tmap_traits@IPAUpatch_scrap@@U?$less@I@std@@V?$allocator@U?$pair@$$CBIPAUpatch_scrap@@@std@@@3@$0A@@std@@@2@@Z ; std::_Tree<std::_Tmap_traits<unsigned int,patch_scrap *,std::less<unsigned int>,std::allocator<std::pair<unsigned int const ,patch_scrap *> >,0> >::_Lrotate

; 726  : 							_Pnode = _Left(_Fixnodeparent);

  00243	8b 0e		 mov	 ecx, DWORD PTR [esi]
$L25405:

; 727  : 							}
; 728  : 
; 729  : 						_Color(_Pnode) = _Color(_Fixnodeparent);

  00245	8a 46 14	 mov	 al, BYTE PTR [esi+20]

; 730  : 						_Color(_Fixnodeparent) = _Black;
; 731  : 						_Color(_Left(_Pnode)) = _Black;
; 732  : 						_Rrotate(_Fixnodeparent);

  00248	ff 75 08	 push	 DWORD PTR _this$[ebp]
  0024b	88 41 14	 mov	 BYTE PTR [ecx+20], al
  0024e	c6 46 14 01	 mov	 BYTE PTR [esi+20], 1
  00252	8b 01		 mov	 eax, DWORD PTR [ecx]
  00254	8b ce		 mov	 ecx, esi
  00256	c6 40 14 01	 mov	 BYTE PTR [eax+20], 1
  0025a	e8 00 00 00 00	 call	 ?_Rrotate@?$_Tree@V?$_Tmap_traits@IPAUpatch_scrap@@U?$less@I@std@@V?$allocator@U?$pair@$$CBIPAUpatch_scrap@@@std@@@3@$0A@@std@@@std@@IAEXPAU_Node@?$_Tree_nod@V?$_Tmap_traits@IPAUpatch_scrap@@U?$less@I@std@@V?$allocator@U?$pair@$$CBIPAUpatch_scrap@@@std@@@3@$0A@@std@@@2@@Z ; std::_Tree<std::_Tmap_traits<unsigned int,patch_scrap *,std::less<unsigned int>,std::allocator<std::pair<unsigned int const ,patch_scrap *> >,0> >::_Rrotate
$L25391:

; 733  : 						break;	// tree now recolored/rebalanced
; 734  : 						}
; 735  : 					}
; 736  : 
; 737  : 			_Color(_Fixnode) = _Black;	// ensure stopping node is black

  0025f	c6 47 14 01	 mov	 BYTE PTR [edi+20], 1
$L25388:

; 738  : 			}
; 739  : 
; 740  : 		this->_Alnod.destroy(_Erasednode);	// destroy, free erased node
; 741  : 		this->_Alnod.deallocate(_Erasednode, 1);

  00263	53		 push	 ebx
  00264	e8 00 00 00 00	 call	 ??3@YAXPAX@Z		; operator delete
  00269	59		 pop	 ecx

; 742  : 
; 743  : 		if (0 < _Mysize)

  0026a	8b 4d 08	 mov	 ecx, DWORD PTR _this$[ebp]
  0026d	8b 41 08	 mov	 eax, DWORD PTR [ecx+8]
  00270	85 c0		 test	 eax, eax
  00272	5f		 pop	 edi
  00273	5e		 pop	 esi
  00274	5b		 pop	 ebx
  00275	76 04		 jbe	 SHORT $L25406

; 744  : 			--_Mysize;

  00277	48		 dec	 eax
  00278	89 41 08	 mov	 DWORD PTR [ecx+8], eax
$L25406:

; 745  : 
; 746  : 		return (_Where);	// return successor iterator

  0027b	8b 4d 10	 mov	 ecx, DWORD PTR __Where$[ebp]
  0027e	8b 45 0c	 mov	 eax, DWORD PTR ___$ReturnUdt$[ebp]
  00281	89 08		 mov	 DWORD PTR [eax], ecx

; 747  : 		}

  00283	8b 4d f4	 mov	 ecx, DWORD PTR __$EHRec$[ebp]
  00286	64 89 0d 00 00
	00 00		 mov	 DWORD PTR fs:__except_list, ecx
  0028d	c9		 leave
  0028e	c2 0c 00	 ret	 12			; 0000000cH
$L69425:
_TEXT	ENDS
;	COMDAT text$x
text$x	SEGMENT
$L68991:
  00000	8d 4d d8	 lea	 ecx, DWORD PTR $T68986[ebp]
  00003	e9 00 00 00 00	 jmp	 ??1?$basic_string@DU?$char_traits@D@std@@V?$allocator@D@2@@std@@QAE@XZ ; std::basic_string<char,std::char_traits<char>,std::allocator<char> >::~basic_string<char,std::char_traits<char>,std::allocator<char> >
__ehhandler$?erase@?$_Tree@V?$_Tmap_traits@IPAUpatch_scrap@@U?$less@I@std@@V?$allocator@U?$pair@$$CBIPAUpatch_scrap@@@std@@@3@$0A@@std@@@std@@QAE?AViterator@12@V312@@Z:
  00008	b8 00 00 00 00	 mov	 eax, OFFSET FLAT:$T69416
  0000d	e9 00 00 00 00	 jmp	 ___CxxFrameHandler
text$x	ENDS
?erase@?$_Tree@V?$_Tmap_traits@IPAUpatch_scrap@@U?$less@I@std@@V?$allocator@U?$pair@$$CBIPAUpatch_scrap@@@std@@@3@$0A@@std@@@std@@QAE?AViterator@12@V312@@Z ENDP ; std::_Tree<std::_Tmap_traits<unsigned int,patch_scrap *,std::less<unsigned int>,std::allocator<std::pair<unsigned int const ,patch_scrap *> >,0> >::erase
; Function compile flags: /Ogsy
;	COMDAT ?erase@?$_Tree@V?$_Tmap_traits@IPAUpatch_scrap@@U?$less@I@std@@V?$allocator@U?$pair@$$CBIPAUpatch_scrap@@@std@@@3@$0A@@std@@@std@@QAE?AViterator@12@V312@0@Z
_TEXT	SEGMENT
$T69441 = -4						; size = 4
__First$ = 8						; size = 4
__Last$ = 12						; size = 4
?erase@?$_Tree@V?$_Tmap_traits@IPAUpatch_scrap@@U?$less@I@std@@V?$allocator@U?$pair@$$CBIPAUpatch_scrap@@@std@@@3@$0A@@std@@@std@@QAE?AViterator@12@V312@0@Z PROC NEAR ; std::_Tree<std::_Tmap_traits<unsigned int,patch_scrap *,std::less<unsigned int>,std::allocator<std::pair<unsigned int const ,patch_scrap *> >,0> >::erase, COMDAT
; _this$ = eax
; ___$ReturnUdt$ = ebx

; 750  : 		{	// erase [_First, _Last)

  00000	55		 push	 ebp
  00001	8b ec		 mov	 ebp, esp
  00003	51		 push	 ecx

; 751  : 		if (_First == begin() && _Last == end())

  00004	8b 4d 08	 mov	 ecx, DWORD PTR __First$[ebp]
  00007	57		 push	 edi
  00008	8b f8		 mov	 edi, eax
  0000a	8b 47 04	 mov	 eax, DWORD PTR [edi+4]
  0000d	3b 08		 cmp	 ecx, DWORD PTR [eax]
  0000f	75 13		 jne	 SHORT $L69548
  00011	39 45 0c	 cmp	 DWORD PTR __Last$[ebp], eax
  00014	75 0e		 jne	 SHORT $L69548

; 752  : 			{	// erase all
; 753  : 			clear();

  00016	e8 00 00 00 00	 call	 ?clear@?$_Tree@V?$_Tmap_traits@IPAUpatch_scrap@@U?$less@I@std@@V?$allocator@U?$pair@$$CBIPAUpatch_scrap@@@std@@@3@$0A@@std@@@std@@QAEXXZ ; std::_Tree<std::_Tmap_traits<unsigned int,patch_scrap *,std::less<unsigned int>,std::allocator<std::pair<unsigned int const ,patch_scrap *> >,0> >::clear

; 754  : 			return (begin());

  0001b	8b 47 04	 mov	 eax, DWORD PTR [edi+4]
  0001e	8b 00		 mov	 eax, DWORD PTR [eax]
  00020	89 03		 mov	 DWORD PTR [ebx], eax
  00022	eb 26		 jmp	 SHORT $L69549
$L69548:

; 755  : 			}
; 756  : 		else
; 757  : 			{	// partial erase, one at a time
; 758  : 			while (_First != _Last)

  00024	3b 4d 0c	 cmp	 ecx, DWORD PTR __Last$[ebp]
  00027	74 1f		 je	 SHORT $L25084
  00029	56		 push	 esi
$L25083:

; 759  : 				erase(_First++);

  0002a	8d 55 08	 lea	 edx, DWORD PTR __First$[ebp]
  0002d	8b f1		 mov	 esi, ecx
  0002f	e8 00 00 00 00	 call	 ?_Inc@const_iterator@?$_Tree@V?$_Tmap_traits@IPAUpatch_scrap@@U?$less@I@std@@V?$allocator@U?$pair@$$CBIPAUpatch_scrap@@@std@@@3@$0A@@std@@@std@@QAEXXZ ; std::_Tree<std::_Tmap_traits<unsigned int,patch_scrap *,std::less<unsigned int>,std::allocator<std::pair<unsigned int const ,patch_scrap *> >,0> >::const_iterator::_Inc
  00034	56		 push	 esi
  00035	8d 45 fc	 lea	 eax, DWORD PTR $T69441[ebp]
  00038	50		 push	 eax
  00039	57		 push	 edi
  0003a	e8 00 00 00 00	 call	 ?erase@?$_Tree@V?$_Tmap_traits@IPAUpatch_scrap@@U?$less@I@std@@V?$allocator@U?$pair@$$CBIPAUpatch_scrap@@@std@@@3@$0A@@std@@@std@@QAE?AViterator@12@V312@@Z ; std::_Tree<std::_Tmap_traits<unsigned int,patch_scrap *,std::less<unsigned int>,std::allocator<std::pair<unsigned int const ,patch_scrap *> >,0> >::erase
  0003f	8b 4d 08	 mov	 ecx, DWORD PTR __First$[ebp]
  00042	3b 4d 0c	 cmp	 ecx, DWORD PTR __Last$[ebp]
  00045	75 e3		 jne	 SHORT $L25083
  00047	5e		 pop	 esi
$L25084:

; 760  : 			return (_First);

  00048	89 0b		 mov	 DWORD PTR [ebx], ecx
$L69549:
  0004a	8b c3		 mov	 eax, ebx
  0004c	5f		 pop	 edi

; 761  : 			}
; 762  : 		}

  0004d	c9		 leave
  0004e	c2 08 00	 ret	 8
?erase@?$_Tree@V?$_Tmap_traits@IPAUpatch_scrap@@U?$less@I@std@@V?$allocator@U?$pair@$$CBIPAUpatch_scrap@@@std@@@3@$0A@@std@@@std@@QAE?AViterator@12@V312@0@Z ENDP ; std::_Tree<std::_Tmap_traits<unsigned int,patch_scrap *,std::less<unsigned int>,std::allocator<std::pair<unsigned int const ,patch_scrap *> >,0> >::erase
; Function compile flags: /Ogsy
_TEXT	ENDS
;	COMDAT ?_Tidy@?$_Tree@V?$_Tmap_traits@IPAUpatch_scrap@@U?$less@I@std@@V?$allocator@U?$pair@$$CBIPAUpatch_scrap@@@std@@@3@$0A@@std@@@std@@IAEXXZ
_TEXT	SEGMENT
$T69554 = -4						; size = 4
?_Tidy@?$_Tree@V?$_Tmap_traits@IPAUpatch_scrap@@U?$less@I@std@@V?$allocator@U?$pair@$$CBIPAUpatch_scrap@@@std@@@3@$0A@@std@@@std@@IAEXXZ PROC NEAR ; std::_Tree<std::_Tmap_traits<unsigned int,patch_scrap *,std::less<unsigned int>,std::allocator<std::pair<unsigned int const ,patch_scrap *> >,0> >::_Tidy, COMDAT
; _this$ = esi

; 1142 : 		{	// free all storage

  00000	51		 push	 ecx

; 1143 : 		erase(begin(), end());

  00001	8b 46 04	 mov	 eax, DWORD PTR [esi+4]
  00004	8b 08		 mov	 ecx, DWORD PTR [eax]
  00006	53		 push	 ebx
  00007	50		 push	 eax
  00008	51		 push	 ecx
  00009	8d 5c 24 0c	 lea	 ebx, DWORD PTR $T69554[esp+16]
  0000d	8b c6		 mov	 eax, esi
  0000f	e8 00 00 00 00	 call	 ?erase@?$_Tree@V?$_Tmap_traits@IPAUpatch_scrap@@U?$less@I@std@@V?$allocator@U?$pair@$$CBIPAUpatch_scrap@@@std@@@3@$0A@@std@@@std@@QAE?AViterator@12@V312@0@Z ; std::_Tree<std::_Tmap_traits<unsigned int,patch_scrap *,std::less<unsigned int>,std::allocator<std::pair<unsigned int const ,patch_scrap *> >,0> >::erase

; 1144 : 		this->_Alptr.destroy(&_Left(_Myhead));
; 1145 : 		this->_Alptr.destroy(&_Parent(_Myhead));
; 1146 : 		this->_Alptr.destroy(&_Right(_Myhead));
; 1147 : 		this->_Alnod.deallocate(_Myhead, 1);

  00014	ff 76 04	 push	 DWORD PTR [esi+4]
  00017	e8 00 00 00 00	 call	 ??3@YAXPAX@Z		; operator delete

; 1148 : 		_Myhead = 0, _Mysize = 0;

  0001c	83 66 04 00	 and	 DWORD PTR [esi+4], 0
  00020	83 66 08 00	 and	 DWORD PTR [esi+8], 0
  00024	59		 pop	 ecx
  00025	5b		 pop	 ebx

; 1149 : 		}

  00026	59		 pop	 ecx
  00027	c3		 ret	 0
?_Tidy@?$_Tree@V?$_Tmap_traits@IPAUpatch_scrap@@U?$less@I@std@@V?$allocator@U?$pair@$$CBIPAUpatch_scrap@@@std@@@3@$0A@@std@@@std@@IAEXXZ ENDP ; std::_Tree<std::_Tmap_traits<unsigned int,patch_scrap *,std::less<unsigned int>,std::allocator<std::pair<unsigned int const ,patch_scrap *> >,0> >::_Tidy
; Function compile flags: /Ogsy
_TEXT	ENDS
;	COMDAT ??1?$_Tree@V?$_Tmap_traits@IPAUpatch_scrap@@U?$less@I@std@@V?$allocator@U?$pair@$$CBIPAUpatch_scrap@@@std@@@3@$0A@@std@@@std@@QAE@XZ
_TEXT	SEGMENT
??1?$_Tree@V?$_Tmap_traits@IPAUpatch_scrap@@U?$less@I@std@@V?$allocator@U?$pair@$$CBIPAUpatch_scrap@@@std@@@3@$0A@@std@@@std@@QAE@XZ PROC NEAR ; std::_Tree<std::_Tmap_traits<unsigned int,patch_scrap *,std::less<unsigned int>,std::allocator<std::pair<unsigned int const ,patch_scrap *> >,0> >::~_Tree<std::_Tmap_traits<unsigned int,patch_scrap *,std::less<unsigned int>,std::allocator<std::pair<unsigned int const ,patch_scrap *> >,0> >, COMDAT
; _this$ = esi

; 392  : 		_Tidy();

  00000	e9 00 00 00 00	 jmp	 ?_Tidy@?$_Tree@V?$_Tmap_traits@IPAUpatch_scrap@@U?$less@I@std@@V?$allocator@U?$pair@$$CBIPAUpatch_scrap@@@std@@@3@$0A@@std@@@std@@IAEXXZ ; std::_Tree<std::_Tmap_traits<unsigned int,patch_scrap *,std::less<unsigned int>,std::allocator<std::pair<unsigned int const ,patch_scrap *> >,0> >::_Tidy
??1?$_Tree@V?$_Tmap_traits@IPAUpatch_scrap@@U?$less@I@std@@V?$allocator@U?$pair@$$CBIPAUpatch_scrap@@@std@@@3@$0A@@std@@@std@@QAE@XZ ENDP ; std::_Tree<std::_Tmap_traits<unsigned int,patch_scrap *,std::less<unsigned int>,std::allocator<std::pair<unsigned int const ,patch_scrap *> >,0> >::~_Tree<std::_Tmap_traits<unsigned int,patch_scrap *,std::less<unsigned int>,std::allocator<std::pair<unsigned int const ,patch_scrap *> >,0> >
; Function compile flags: /Ogsy
; File c:\program files (x86)\microsoft visual studio .net 2003\vc7\include\map
_TEXT	ENDS
;	COMDAT ??0?$map@IPAUpatch_scrap@@U?$less@I@std@@V?$allocator@U?$pair@$$CBIPAUpatch_scrap@@@std@@@3@@std@@QAE@XZ
_TEXT	SEGMENT
??0?$map@IPAUpatch_scrap@@U?$less@I@std@@V?$allocator@U?$pair@$$CBIPAUpatch_scrap@@@std@@@3@@std@@QAE@XZ PROC NEAR ; std::map<unsigned int,patch_scrap *,std::less<unsigned int>,std::allocator<std::pair<unsigned int const ,patch_scrap *> > >::map<unsigned int,patch_scrap *,std::less<unsigned int>,std::allocator<std::pair<unsigned int const ,patch_scrap *> > >, COMDAT
; _this$ = eax

; 102  : 		{	// construct empty map from defaults

  00000	56		 push	 esi
  00001	8b f0		 mov	 esi, eax
  00003	e8 00 00 00 00	 call	 ?_Init@?$_Tree@V?$_Tmap_traits@IPAUpatch_scrap@@U?$less@I@std@@V?$allocator@U?$pair@$$CBIPAUpatch_scrap@@@std@@@3@$0A@@std@@@std@@IAEXXZ ; std::_Tree<std::_Tmap_traits<unsigned int,patch_scrap *,std::less<unsigned int>,std::allocator<std::pair<unsigned int const ,patch_scrap *> >,0> >::_Init

; 103  : 		}

  00008	8b c6		 mov	 eax, esi
  0000a	5e		 pop	 esi
  0000b	c3		 ret	 0
??0?$map@IPAUpatch_scrap@@U?$less@I@std@@V?$allocator@U?$pair@$$CBIPAUpatch_scrap@@@std@@@3@@std@@QAE@XZ ENDP ; std::map<unsigned int,patch_scrap *,std::less<unsigned int>,std::allocator<std::pair<unsigned int const ,patch_scrap *> > >::map<unsigned int,patch_scrap *,std::less<unsigned int>,std::allocator<std::pair<unsigned int const ,patch_scrap *> > >
; Function compile flags: /Ogsy
_TEXT	ENDS
;	COMDAT ??1?$map@IPAUpatch_scrap@@U?$less@I@std@@V?$allocator@U?$pair@$$CBIPAUpatch_scrap@@@std@@@3@@std@@QAE@XZ
_TEXT	SEGMENT
??1?$map@IPAUpatch_scrap@@U?$less@I@std@@V?$allocator@U?$pair@$$CBIPAUpatch_scrap@@@std@@@3@@std@@QAE@XZ PROC NEAR ; std::map<unsigned int,patch_scrap *,std::less<unsigned int>,std::allocator<std::pair<unsigned int const ,patch_scrap *> > >::~map<unsigned int,patch_scrap *,std::less<unsigned int>,std::allocator<std::pair<unsigned int const ,patch_scrap *> > >, COMDAT
; _this$ = esi
  00000	e9 00 00 00 00	 jmp	 ?_Tidy@?$_Tree@V?$_Tmap_traits@IPAUpatch_scrap@@U?$less@I@std@@V?$allocator@U?$pair@$$CBIPAUpatch_scrap@@@std@@@3@$0A@@std@@@std@@IAEXXZ ; std::_Tree<std::_Tmap_traits<unsigned int,patch_scrap *,std::less<unsigned int>,std::allocator<std::pair<unsigned int const ,patch_scrap *> >,0> >::_Tidy
??1?$map@IPAUpatch_scrap@@U?$less@I@std@@V?$allocator@U?$pair@$$CBIPAUpatch_scrap@@@std@@@3@@std@@QAE@XZ ENDP ; std::map<unsigned int,patch_scrap *,std::less<unsigned int>,std::allocator<std::pair<unsigned int const ,patch_scrap *> > >::~map<unsigned int,patch_scrap *,std::less<unsigned int>,std::allocator<std::pair<unsigned int const ,patch_scrap *> > >
;	COMDAT xdata$x
; File c:\program files (x86)\microsoft visual studio .net 2003\vc7\include\xtree
xdata$x	SEGMENT
$T88434	DD	0ffffffffH
	DD	FLAT:$L88164
$T88426	DD	019930520H
	DD	01H
	DD	FLAT:$T88434
	DD	2 DUP(00H)
	DD	2 DUP(00H)
; Function compile flags: /Ogsy
xdata$x	ENDS
;	COMDAT ?_Insert@?$_Tree@V?$_Tmap_traits@IPAUpatch_scrap@@U?$less@I@std@@V?$allocator@U?$pair@$$CBIPAUpatch_scrap@@@std@@@3@$0A@@std@@@std@@IAE?AViterator@12@_NPAU_Node@?$_Tree_nod@V?$_Tmap_traits@IPAUpatch_scrap@@U?$less@I@std@@V?$allocator@U?$pair@$$CBIPAUpatch_scrap@@@std@@@3@$0A@@std@@@2@ABU?$pair@$$CBIPAUpatch_scrap@@@2@@Z
_TEXT	SEGMENT
$T88162 = -80						; size = 40
$T88163 = -40						; size = 28
__$EHRec$ = -12						; size = 12
___$ReturnUdt$ = 8					; size = 4
__Addleft$ = 12						; size = 1
__Val$ = 16						; size = 4
?_Insert@?$_Tree@V?$_Tmap_traits@IPAUpatch_scrap@@U?$less@I@std@@V?$allocator@U?$pair@$$CBIPAUpatch_scrap@@@std@@@3@$0A@@std@@@std@@IAE?AViterator@12@_NPAU_Node@?$_Tree_nod@V?$_Tmap_traits@IPAUpatch_scrap@@U?$less@I@std@@V?$allocator@U?$pair@$$CBIPAUpatch_scrap@@@std@@@3@$0A@@std@@@2@ABU?$pair@$$CBIPAUpatch_scrap@@@2@@Z PROC NEAR ; std::_Tree<std::_Tmap_traits<unsigned int,patch_scrap *,std::less<unsigned int>,std::allocator<std::pair<unsigned int const ,patch_scrap *> >,0> >::_Insert, COMDAT
; _this$ = edi
; __Wherenode$ = ecx

; 911  : 		{	// add node with value next to _Wherenode, to left if _Addnode

  00000	b8 00 00 00 00	 mov	 eax, __ehhandler$?_Insert@?$_Tree@V?$_Tmap_traits@IPAUpatch_scrap@@U?$less@I@std@@V?$allocator@U?$pair@$$CBIPAUpatch_scrap@@@std@@@3@$0A@@std@@@std@@IAE?AViterator@12@_NPAU_Node@?$_Tree_nod@V?$_Tmap_traits@IPAUpatch_scrap@@U?$less@I@std@@V?$allocator@U?$pair@$$CBIPAUpatch_scrap@@@std@@@3@$0A@@std@@@2@ABU?$pair@$$CBIPAUpatch_scrap@@@2@@Z
  00005	e8 00 00 00 00	 call	 __EH_prolog
  0000a	83 ec 44	 sub	 esp, 68			; 00000044H

; 912  : 		if (max_size() - 1 <= _Mysize)

  0000d	81 7f 08 fe ff
	ff 1f		 cmp	 DWORD PTR [edi+8], 536870910 ; 1ffffffeH
  00014	53		 push	 ebx
  00015	56		 push	 esi
  00016	8b f1		 mov	 esi, ecx
  00018	72 32		 jb	 SHORT $L88187

; 913  : 			_THROW(length_error, "map/set<T> too long");

  0001a	68 00 00 00 00	 push	 OFFSET FLAT:??_C@_0BE@JONHPENG@map?1set?$DMT?$DO?5too?5long?$AA@
  0001f	8d 4d d8	 lea	 ecx, DWORD PTR $T88163[ebp]
  00022	e8 00 00 00 00	 call	 ??0?$basic_string@DU?$char_traits@D@std@@V?$allocator@D@2@@std@@QAE@PBD@Z ; std::basic_string<char,std::char_traits<char>,std::allocator<char> >::basic_string<char,std::char_traits<char>,std::allocator<char> >
  00027	83 65 fc 00	 and	 DWORD PTR __$EHRec$[ebp+8], 0
  0002b	8d 45 d8	 lea	 eax, DWORD PTR $T88163[ebp]
  0002e	50		 push	 eax
  0002f	8d 4d b0	 lea	 ecx, DWORD PTR $T88162[ebp]
  00032	e8 00 00 00 00	 call	 ??0logic_error@std@@QAE@ABV?$basic_string@DU?$char_traits@D@std@@V?$allocator@D@2@@1@@Z ; std::logic_error::logic_error
  00037	68 00 00 00 00	 push	 OFFSET FLAT:__TI3?AVlength_error@std@@
  0003c	8d 45 b0	 lea	 eax, DWORD PTR $T88162[ebp]
  0003f	50		 push	 eax
  00040	c7 45 b0 00 00
	00 00		 mov	 DWORD PTR $T88162[ebp], OFFSET FLAT:??_7length_error@std@@6B@
  00047	e8 00 00 00 00	 call	 __CxxThrowException@8
$L88435:
$L88187:

; 914  : 		_Nodeptr _Newnode = _Buynode(_Myhead, _Wherenode, _Myhead,
; 915  : 			_Val, _Red);

  0004c	8b 47 04	 mov	 eax, DWORD PTR [edi+4]
  0004f	6a 00		 push	 0
  00051	ff 75 10	 push	 DWORD PTR __Val$[ebp]
  00054	50		 push	 eax
  00055	56		 push	 esi
  00056	50		 push	 eax
  00057	e8 00 00 00 00	 call	 ?_Buynode@?$_Tree@V?$_Tmap_traits@IPAUpatch_scrap@@U?$less@I@std@@V?$allocator@U?$pair@$$CBIPAUpatch_scrap@@@std@@@3@$0A@@std@@@std@@IAEPAU_Node@?$_Tree_nod@V?$_Tmap_traits@IPAUpatch_scrap@@U?$less@I@std@@V?$allocator@U?$pair@$$CBIPAUpatch_scrap@@@std@@@3@$0A@@std@@@2@PAU342@00ABU?$pair@$$CBIPAUpatch_scrap@@@2@D@Z ; std::_Tree<std::_Tmap_traits<unsigned int,patch_scrap *,std::less<unsigned int>,std::allocator<std::pair<unsigned int const ,patch_scrap *> >,0> >::_Buynode

; 916  : 
; 917  : 		++_Mysize;

  0005c	ff 47 08	 inc	 DWORD PTR [edi+8]
  0005f	8b d8		 mov	 ebx, eax

; 918  : 		if (_Wherenode == _Myhead)

  00061	8b 47 04	 mov	 eax, DWORD PTR [edi+4]
  00064	3b f0		 cmp	 esi, eax
  00066	75 0d		 jne	 SHORT $L25112

; 919  : 			{	// first node in tree, just set head values
; 920  : 			_Root() = _Newnode;

  00068	89 58 04	 mov	 DWORD PTR [eax+4], ebx

; 921  : 			_Lmost() = _Newnode, _Rmost() = _Newnode;

  0006b	8b 47 04	 mov	 eax, DWORD PTR [edi+4]
  0006e	89 18		 mov	 DWORD PTR [eax], ebx
  00070	8b 47 04	 mov	 eax, DWORD PTR [edi+4]

; 922  : 			}
; 923  : 		else if (_Addleft)

  00073	eb 1e		 jmp	 SHORT $L88430
$L25112:
  00075	80 7d 0c 00	 cmp	 BYTE PTR __Addleft$[ebp], 0
  00079	74 0d		 je	 SHORT $L25114

; 924  : 			{	// add to left of _Wherenode
; 925  : 			_Left(_Wherenode) = _Newnode;

  0007b	89 1e		 mov	 DWORD PTR [esi], ebx

; 926  : 			if (_Wherenode == _Lmost())

  0007d	8b 47 04	 mov	 eax, DWORD PTR [edi+4]
  00080	3b 30		 cmp	 esi, DWORD PTR [eax]
  00082	75 12		 jne	 SHORT $L25117

; 927  : 				_Lmost() = _Newnode;

  00084	89 18		 mov	 DWORD PTR [eax], ebx

; 928  : 			}
; 929  : 		else

  00086	eb 0e		 jmp	 SHORT $L25117
$L25114:

; 930  : 			{	// add to right of _Wherenode
; 931  : 			_Right(_Wherenode) = _Newnode;

  00088	89 5e 08	 mov	 DWORD PTR [esi+8], ebx

; 932  : 			if (_Wherenode == _Rmost())

  0008b	8b 47 04	 mov	 eax, DWORD PTR [edi+4]
  0008e	3b 70 08	 cmp	 esi, DWORD PTR [eax+8]
  00091	75 03		 jne	 SHORT $L25117
$L88430:

; 933  : 				_Rmost() = _Newnode;

  00093	89 58 08	 mov	 DWORD PTR [eax+8], ebx
$L25117:

; 934  : 			}
; 935  : 
; 936  : 		for (_Nodeptr _Pnode = _Newnode; _Color(_Parent(_Pnode)) == _Red; )

  00096	8b f3		 mov	 esi, ebx
  00098	8d 43 04	 lea	 eax, DWORD PTR [ebx+4]
  0009b	e9 8f 00 00 00	 jmp	 $L88432
$L25120:

; 937  : 			if (_Parent(_Pnode) == _Left(_Parent(_Parent(_Pnode))))

  000a0	8b 08		 mov	 ecx, DWORD PTR [eax]
  000a2	8b 51 04	 mov	 edx, DWORD PTR [ecx+4]
  000a5	8b 12		 mov	 edx, DWORD PTR [edx]
  000a7	3b ca		 cmp	 ecx, edx
  000a9	75 52		 jne	 SHORT $L25122

; 938  : 				{	// fixup red-red in left subtree
; 939  : 				_Wherenode = _Right(_Parent(_Parent(_Pnode)));

  000ab	8b 51 04	 mov	 edx, DWORD PTR [ecx+4]
  000ae	8b 52 08	 mov	 edx, DWORD PTR [edx+8]

; 940  : 				if (_Color(_Wherenode) == _Red)

  000b1	80 7a 14 00	 cmp	 BYTE PTR [edx+20], 0
  000b5	75 1a		 jne	 SHORT $L25123
$L88433:

; 941  : 					{	// parent has two red children, blacken both
; 942  : 					_Color(_Parent(_Pnode)) = _Black;

  000b7	8b 08		 mov	 ecx, DWORD PTR [eax]
  000b9	c6 41 14 01	 mov	 BYTE PTR [ecx+20], 1

; 943  : 					_Color(_Wherenode) = _Black;

  000bd	c6 42 14 01	 mov	 BYTE PTR [edx+20], 1

; 944  : 					_Color(_Parent(_Parent(_Pnode))) = _Red;

  000c1	8b 08		 mov	 ecx, DWORD PTR [eax]
  000c3	8b 49 04	 mov	 ecx, DWORD PTR [ecx+4]
  000c6	c6 41 14 00	 mov	 BYTE PTR [ecx+20], 0

; 945  : 					_Pnode = _Parent(_Parent(_Pnode));

  000ca	8b 00		 mov	 eax, DWORD PTR [eax]
  000cc	8b 70 04	 mov	 esi, DWORD PTR [eax+4]

; 946  : 					}
; 947  : 				else

  000cf	eb 5b		 jmp	 SHORT $L25128
$L25123:

; 948  : 					{	// parent has red and black children
; 949  : 					if (_Pnode == _Right(_Parent(_Pnode)))

  000d1	3b 71 08	 cmp	 esi, DWORD PTR [ecx+8]
  000d4	75 08		 jne	 SHORT $L25125

; 950  : 						{	// rotate right child to left
; 951  : 						_Pnode = _Parent(_Pnode);
; 952  : 						_Lrotate(_Pnode);

  000d6	57		 push	 edi
  000d7	8b f1		 mov	 esi, ecx
  000d9	e8 00 00 00 00	 call	 ?_Lrotate@?$_Tree@V?$_Tmap_traits@IPAUpatch_scrap@@U?$less@I@std@@V?$allocator@U?$pair@$$CBIPAUpatch_scrap@@@std@@@3@$0A@@std@@@std@@IAEXPAU_Node@?$_Tree_nod@V?$_Tmap_traits@IPAUpatch_scrap@@U?$less@I@std@@V?$allocator@U?$pair@$$CBIPAUpatch_scrap@@@std@@@3@$0A@@std@@@2@@Z ; std::_Tree<std::_Tmap_traits<unsigned int,patch_scrap *,std::less<unsigned int>,std::allocator<std::pair<unsigned int const ,patch_scrap *> >,0> >::_Lrotate
$L25125:

; 953  : 						}
; 954  : 					_Color(_Parent(_Pnode)) = _Black;	// propagate red up

  000de	8b 46 04	 mov	 eax, DWORD PTR [esi+4]
  000e1	c6 40 14 01	 mov	 BYTE PTR [eax+20], 1

; 955  : 					_Color(_Parent(_Parent(_Pnode))) = _Red;

  000e5	8b 46 04	 mov	 eax, DWORD PTR [esi+4]
  000e8	8b 40 04	 mov	 eax, DWORD PTR [eax+4]
  000eb	c6 40 14 00	 mov	 BYTE PTR [eax+20], 0

; 956  : 					_Rrotate(_Parent(_Parent(_Pnode)));

  000ef	8b 46 04	 mov	 eax, DWORD PTR [esi+4]
  000f2	8b 48 04	 mov	 ecx, DWORD PTR [eax+4]
  000f5	57		 push	 edi
  000f6	e8 00 00 00 00	 call	 ?_Rrotate@?$_Tree@V?$_Tmap_traits@IPAUpatch_scrap@@U?$less@I@std@@V?$allocator@U?$pair@$$CBIPAUpatch_scrap@@@std@@@3@$0A@@std@@@std@@IAEXPAU_Node@?$_Tree_nod@V?$_Tmap_traits@IPAUpatch_scrap@@U?$less@I@std@@V?$allocator@U?$pair@$$CBIPAUpatch_scrap@@@std@@@3@$0A@@std@@@2@@Z ; std::_Tree<std::_Tmap_traits<unsigned int,patch_scrap *,std::less<unsigned int>,std::allocator<std::pair<unsigned int const ,patch_scrap *> >,0> >::_Rrotate

; 957  : 					}
; 958  : 				}
; 959  : 			else

  000fb	eb 2f		 jmp	 SHORT $L25128
$L25122:

; 960  : 				{	// fixup red-red in right subtree
; 961  : 				_Wherenode = _Left(_Parent(_Parent(_Pnode)));
; 962  : 				if (_Color(_Wherenode) == _Red)

  000fd	80 7a 14 00	 cmp	 BYTE PTR [edx+20], 0

; 963  : 					{	// parent has two red children, blacken both
; 964  : 					_Color(_Parent(_Pnode)) = _Black;
; 965  : 					_Color(_Wherenode) = _Black;
; 966  : 					_Color(_Parent(_Parent(_Pnode))) = _Red;
; 967  : 					_Pnode = _Parent(_Parent(_Pnode));
; 968  : 					}
; 969  : 				else

  00101	74 b4		 je	 SHORT $L88433

; 970  : 					{	// parent has red and black children
; 971  : 					if (_Pnode == _Left(_Parent(_Pnode)))

  00103	3b 31		 cmp	 esi, DWORD PTR [ecx]
  00105	75 08		 jne	 SHORT $L25129

; 972  : 						{	// rotate left child to right
; 973  : 						_Pnode = _Parent(_Pnode);
; 974  : 						_Rrotate(_Pnode);

  00107	57		 push	 edi
  00108	8b f1		 mov	 esi, ecx
  0010a	e8 00 00 00 00	 call	 ?_Rrotate@?$_Tree@V?$_Tmap_traits@IPAUpatch_scrap@@U?$less@I@std@@V?$allocator@U?$pair@$$CBIPAUpatch_scrap@@@std@@@3@$0A@@std@@@std@@IAEXPAU_Node@?$_Tree_nod@V?$_Tmap_traits@IPAUpatch_scrap@@U?$less@I@std@@V?$allocator@U?$pair@$$CBIPAUpatch_scrap@@@std@@@3@$0A@@std@@@2@@Z ; std::_Tree<std::_Tmap_traits<unsigned int,patch_scrap *,std::less<unsigned int>,std::allocator<std::pair<unsigned int const ,patch_scrap *> >,0> >::_Rrotate
$L25129:

; 975  : 						}
; 976  : 					_Color(_Parent(_Pnode)) = _Black;	// propagate red up

  0010f	8b 46 04	 mov	 eax, DWORD PTR [esi+4]
  00112	c6 40 14 01	 mov	 BYTE PTR [eax+20], 1

; 977  : 					_Color(_Parent(_Parent(_Pnode))) = _Red;

  00116	8b 46 04	 mov	 eax, DWORD PTR [esi+4]
  00119	8b 40 04	 mov	 eax, DWORD PTR [eax+4]
  0011c	c6 40 14 00	 mov	 BYTE PTR [eax+20], 0

; 978  : 					_Lrotate(_Parent(_Parent(_Pnode)));

  00120	8b 46 04	 mov	 eax, DWORD PTR [esi+4]
  00123	8b 48 04	 mov	 ecx, DWORD PTR [eax+4]
  00126	57		 push	 edi
  00127	e8 00 00 00 00	 call	 ?_Lrotate@?$_Tree@V?$_Tmap_traits@IPAUpatch_scrap@@U?$less@I@std@@V?$allocator@U?$pair@$$CBIPAUpatch_scrap@@@std@@@3@$0A@@std@@@std@@IAEXPAU_Node@?$_Tree_nod@V?$_Tmap_traits@IPAUpatch_scrap@@U?$less@I@std@@V?$allocator@U?$pair@$$CBIPAUpatch_scrap@@@std@@@3@$0A@@std@@@2@@Z ; std::_Tree<std::_Tmap_traits<unsigned int,patch_scrap *,std::less<unsigned int>,std::allocator<std::pair<unsigned int const ,patch_scrap *> >,0> >::_Lrotate
$L25128:

; 934  : 			}
; 935  : 
; 936  : 		for (_Nodeptr _Pnode = _Newnode; _Color(_Parent(_Pnode)) == _Red; )

  0012c	8d 46 04	 lea	 eax, DWORD PTR [esi+4]
$L88432:
  0012f	8b 08		 mov	 ecx, DWORD PTR [eax]
  00131	80 79 14 00	 cmp	 BYTE PTR [ecx+20], 0
  00135	0f 84 65 ff ff
	ff		 je	 $L25120

; 979  : 					}
; 980  : 				}
; 981  : 
; 982  : 		_Color(_Root()) = _Black;	// root is always black

  0013b	8b 47 04	 mov	 eax, DWORD PTR [edi+4]
  0013e	8b 40 04	 mov	 eax, DWORD PTR [eax+4]

; 983  : 		return (_TREE_ITERATOR(_Newnode));
; 984  : 		}

  00141	8b 4d f4	 mov	 ecx, DWORD PTR __$EHRec$[ebp]
  00144	c6 40 14 01	 mov	 BYTE PTR [eax+20], 1
  00148	8b 45 08	 mov	 eax, DWORD PTR ___$ReturnUdt$[ebp]
  0014b	89 18		 mov	 DWORD PTR [eax], ebx
  0014d	5e		 pop	 esi
  0014e	5b		 pop	 ebx
  0014f	64 89 0d 00 00
	00 00		 mov	 DWORD PTR fs:__except_list, ecx
  00156	c9		 leave
  00157	c2 0c 00	 ret	 12			; 0000000cH
$L88429:
_TEXT	ENDS
;	COMDAT text$x
text$x	SEGMENT
$L88164:
  00000	8d 4d d8	 lea	 ecx, DWORD PTR $T88163[ebp]
  00003	e9 00 00 00 00	 jmp	 ??1?$basic_string@DU?$char_traits@D@std@@V?$allocator@D@2@@std@@QAE@XZ ; std::basic_string<char,std::char_traits<char>,std::allocator<char> >::~basic_string<char,std::char_traits<char>,std::allocator<char> >
__ehhandler$?_Insert@?$_Tree@V?$_Tmap_traits@IPAUpatch_scrap@@U?$less@I@std@@V?$allocator@U?$pair@$$CBIPAUpatch_scrap@@@std@@@3@$0A@@std@@@std@@IAE?AViterator@12@_NPAU_Node@?$_Tree_nod@V?$_Tmap_traits@IPAUpatch_scrap@@U?$less@I@std@@V?$allocator@U?$pair@$$CBIPAUpatch_scrap@@@std@@@3@$0A@@std@@@2@ABU?$pair@$$CBIPAUpatch_scrap@@@2@@Z:
  00008	b8 00 00 00 00	 mov	 eax, OFFSET FLAT:$T88426
  0000d	e9 00 00 00 00	 jmp	 ___CxxFrameHandler
text$x	ENDS
?_Insert@?$_Tree@V?$_Tmap_traits@IPAUpatch_scrap@@U?$less@I@std@@V?$allocator@U?$pair@$$CBIPAUpatch_scrap@@@std@@@3@$0A@@std@@@std@@IAE?AViterator@12@_NPAU_Node@?$_Tree_nod@V?$_Tmap_traits@IPAUpatch_scrap@@U?$less@I@std@@V?$allocator@U?$pair@$$CBIPAUpatch_scrap@@@std@@@3@$0A@@std@@@2@ABU?$pair@$$CBIPAUpatch_scrap@@@2@@Z ENDP ; std::_Tree<std::_Tmap_traits<unsigned int,patch_scrap *,std::less<unsigned int>,std::allocator<std::pair<unsigned int const ,patch_scrap *> >,0> >::_Insert
; Function compile flags: /Ogsy
;	COMDAT ?insert@?$_Tree@V?$_Tmap_traits@IPAUpatch_scrap@@U?$less@I@std@@V?$allocator@U?$pair@$$CBIPAUpatch_scrap@@@std@@@3@$0A@@std@@@std@@QAE?AU?$pair@Viterator@?$_Tree@V?$_Tmap_traits@IPAUpatch_scrap@@U?$less@I@std@@V?$allocator@U?$pair@$$CBIPAUpatch_scrap@@@std@@@3@$0A@@std@@@std@@_N@2@ABU?$pair@$$CBIPAUpatch_scrap@@@2@@Z
_TEXT	SEGMENT
__Where$25057 = -8					; size = 4
__Addleft$ = -4						; size = 1
$T88448 = 8						; size = 4
__Val$ = 8						; size = 4
?insert@?$_Tree@V?$_Tmap_traits@IPAUpatch_scrap@@U?$less@I@std@@V?$allocator@U?$pair@$$CBIPAUpatch_scrap@@@std@@@3@$0A@@std@@@std@@QAE?AU?$pair@Viterator@?$_Tree@V?$_Tmap_traits@IPAUpatch_scrap@@U?$less@I@std@@V?$allocator@U?$pair@$$CBIPAUpatch_scrap@@@std@@@3@$0A@@std@@@std@@_N@2@ABU?$pair@$$CBIPAUpatch_scrap@@@2@@Z PROC NEAR ; std::_Tree<std::_Tmap_traits<unsigned int,patch_scrap *,std::less<unsigned int>,std::allocator<std::pair<unsigned int const ,patch_scrap *> >,0> >::insert, COMDAT
; _this$ = ebx
; ___$ReturnUdt$ = esi

; 477  : 		{	// try to insert node with value _Val

  00000	55		 push	 ebp
  00001	8b ec		 mov	 ebp, esp
  00003	51		 push	 ecx
  00004	51		 push	 ecx

; 478  : 		_Nodeptr _Trynode = _Root();

  00005	8b 4b 04	 mov	 ecx, DWORD PTR [ebx+4]
  00008	8b 41 04	 mov	 eax, DWORD PTR [ecx+4]

; 479  : 		_Nodeptr _Wherenode = _Myhead;
; 480  : 		bool _Addleft = true;	// add to left of head if tree empty
; 481  : 		while (!_Isnil(_Trynode))

  0000b	80 78 15 00	 cmp	 BYTE PTR [eax+21], 0
  0000f	57		 push	 edi
  00010	8b f9		 mov	 edi, ecx
  00012	c6 45 fc 01	 mov	 BYTE PTR __Addleft$[ebp], 1
  00016	75 21		 jne	 SHORT $L88573

; 501  : 				return (_Pairib(_Insert(_Addleft, _Wherenode, _Val), true));

  00018	8b 4d 08	 mov	 ecx, DWORD PTR __Val$[ebp]
  0001b	8b 09		 mov	 ecx, DWORD PTR [ecx]
$L25046:
  0001d	3b 48 0c	 cmp	 ecx, DWORD PTR [eax+12]
  00020	8b f8		 mov	 edi, eax
  00022	0f 92 45 fc	 setb	 BYTE PTR __Addleft$[ebp]
  00026	80 7d fc 00	 cmp	 BYTE PTR __Addleft$[ebp], 0
  0002a	74 04		 je	 SHORT $L88440

; 482  : 			{	// look for leaf to insert before (_Addleft) or after
; 483  : 			_Wherenode = _Trynode;
; 484  : 			_Addleft = this->comp(this->_Kfn(_Val), _Key(_Trynode));
; 485  : 			_Trynode = _Addleft ? _Left(_Trynode) : _Right(_Trynode);

  0002c	8b 00		 mov	 eax, DWORD PTR [eax]
  0002e	eb 03		 jmp	 SHORT $L88441
$L88440:
  00030	8b 40 08	 mov	 eax, DWORD PTR [eax+8]
$L88441:

; 479  : 		_Nodeptr _Wherenode = _Myhead;
; 480  : 		bool _Addleft = true;	// add to left of head if tree empty
; 481  : 		while (!_Isnil(_Trynode))

  00033	80 78 15 00	 cmp	 BYTE PTR [eax+21], 0
  00037	74 e4		 je	 SHORT $L25046
$L88573:

; 486  : 			}
; 487  : 
; 488  : 		if (this->_Multi)
; 489  : 			return (_Pairib(_Insert(_Addleft, _Wherenode, _Val), true));
; 490  : 		else
; 491  : 			{	// insert only if unique
; 492  : 			iterator _Where = _TREE_ITERATOR(_Wherenode);
; 493  : 			if (!_Addleft)

  00039	80 7d fc 00	 cmp	 BYTE PTR __Addleft$[ebp], 0
  0003d	8b c7		 mov	 eax, edi
  0003f	89 45 f8	 mov	 DWORD PTR __Where$25057[ebp], eax
  00042	74 19		 je	 SHORT $L88540

; 494  : 				;	// need to test if insert after is okay
; 495  : 			else if (_Where == begin())

  00044	8b 43 04	 mov	 eax, DWORD PTR [ebx+4]
  00047	3b 38		 cmp	 edi, DWORD PTR [eax]
  00049	75 07		 jne	 SHORT $L25062

; 496  : 				return (_Pairib(_Insert(true, _Wherenode, _Val), true));

  0004b	ff 75 08	 push	 DWORD PTR __Val$[ebp]
  0004e	6a 01		 push	 1
  00050	eb 19		 jmp	 SHORT $L88575
$L25062:

; 497  : 			else
; 498  : 				--_Where;	// need to test if insert before is okay

  00052	8d 4d f8	 lea	 ecx, DWORD PTR __Where$25057[ebp]
  00055	e8 00 00 00 00	 call	 ?_Dec@const_iterator@?$_Tree@V?$_Tmap_traits@IPAUpatch_scrap@@U?$less@I@std@@V?$allocator@U?$pair@$$CBIPAUpatch_scrap@@@std@@@3@$0A@@std@@@std@@QAEXXZ ; std::_Tree<std::_Tmap_traits<unsigned int,patch_scrap *,std::less<unsigned int>,std::allocator<std::pair<unsigned int const ,patch_scrap *> >,0> >::const_iterator::_Dec
  0005a	8b 45 f8	 mov	 eax, DWORD PTR __Where$25057[ebp]
$L88540:

; 499  : 
; 500  : 			if (this->comp(_Key(_Where._Mynode()), this->_Kfn(_Val)))

  0005d	8b 50 0c	 mov	 edx, DWORD PTR [eax+12]
  00060	8b 4d 08	 mov	 ecx, DWORD PTR __Val$[ebp]
  00063	3b 11		 cmp	 edx, DWORD PTR [ecx]
  00065	73 19		 jae	 SHORT $L25067

; 501  : 				return (_Pairib(_Insert(_Addleft, _Wherenode, _Val), true));

  00067	51		 push	 ecx
  00068	ff 75 fc	 push	 DWORD PTR __Addleft$[ebp]
$L88575:
  0006b	8d 45 08	 lea	 eax, DWORD PTR $T88448[ebp]
  0006e	8b cf		 mov	 ecx, edi
  00070	50		 push	 eax
  00071	8b fb		 mov	 edi, ebx
  00073	e8 00 00 00 00	 call	 ?_Insert@?$_Tree@V?$_Tmap_traits@IPAUpatch_scrap@@U?$less@I@std@@V?$allocator@U?$pair@$$CBIPAUpatch_scrap@@@std@@@3@$0A@@std@@@std@@IAE?AViterator@12@_NPAU_Node@?$_Tree_nod@V?$_Tmap_traits@IPAUpatch_scrap@@U?$less@I@std@@V?$allocator@U?$pair@$$CBIPAUpatch_scrap@@@std@@@3@$0A@@std@@@2@ABU?$pair@$$CBIPAUpatch_scrap@@@2@@Z ; std::_Tree<std::_Tmap_traits<unsigned int,patch_scrap *,std::less<unsigned int>,std::allocator<std::pair<unsigned int const ,patch_scrap *> >,0> >::_Insert
  00078	8b 00		 mov	 eax, DWORD PTR [eax]
  0007a	c6 46 04 01	 mov	 BYTE PTR [esi+4], 1
  0007e	eb 04		 jmp	 SHORT $L88574
$L25067:

; 502  : 			else
; 503  : 				return (_Pairib(_Where, false));

  00080	c6 46 04 00	 mov	 BYTE PTR [esi+4], 0
$L88574:
  00084	89 06		 mov	 DWORD PTR [esi], eax
  00086	8b c6		 mov	 eax, esi
  00088	5f		 pop	 edi

; 504  : 			}
; 505  : 		}

  00089	c9		 leave
  0008a	c2 04 00	 ret	 4
?insert@?$_Tree@V?$_Tmap_traits@IPAUpatch_scrap@@U?$less@I@std@@V?$allocator@U?$pair@$$CBIPAUpatch_scrap@@@std@@@3@$0A@@std@@@std@@QAE?AU?$pair@Viterator@?$_Tree@V?$_Tmap_traits@IPAUpatch_scrap@@U?$less@I@std@@V?$allocator@U?$pair@$$CBIPAUpatch_scrap@@@std@@@3@$0A@@std@@@std@@_N@2@ABU?$pair@$$CBIPAUpatch_scrap@@@2@@Z ENDP ; std::_Tree<std::_Tmap_traits<unsigned int,patch_scrap *,std::less<unsigned int>,std::allocator<std::pair<unsigned int const ,patch_scrap *> >,0> >::insert
; Function compile flags: /Ogsy
_TEXT	ENDS
;	COMDAT ?insert@?$_Tree@V?$_Tmap_traits@IPAUpatch_scrap@@U?$less@I@std@@V?$allocator@U?$pair@$$CBIPAUpatch_scrap@@@std@@@3@$0A@@std@@@std@@QAE?AViterator@12@V312@ABU?$pair@$$CBIPAUpatch_scrap@@@2@@Z
_TEXT	SEGMENT
$T88584 = -8						; size = 8
___$ReturnUdt$ = 8					; size = 4
__Next$ = 12						; size = 4
__Where$ = 12						; size = 4
?insert@?$_Tree@V?$_Tmap_traits@IPAUpatch_scrap@@U?$less@I@std@@V?$allocator@U?$pair@$$CBIPAUpatch_scrap@@@std@@@3@$0A@@std@@@std@@QAE?AViterator@12@V312@ABU?$pair@$$CBIPAUpatch_scrap@@@2@@Z PROC NEAR ; std::_Tree<std::_Tmap_traits<unsigned int,patch_scrap *,std::less<unsigned int>,std::allocator<std::pair<unsigned int const ,patch_scrap *> >,0> >::insert, COMDAT
; _this$ = ecx
; __Val$ = eax

; 509  : 		{	// try to insert node with value _Val using _Where as a hint

  00000	55		 push	 ebp
  00001	8b ec		 mov	 ebp, esp
  00003	51		 push	 ecx
  00004	51		 push	 ecx
  00005	53		 push	 ebx
  00006	8b d9		 mov	 ebx, ecx

; 510  : 		iterator _Next;
; 511  : 
; 512  : 		if (size() == 0)

  00008	83 7b 08 00	 cmp	 DWORD PTR [ebx+8], 0
  0000c	57		 push	 edi
  0000d	8b f8		 mov	 edi, eax
  0000f	75 18		 jne	 SHORT $L24725

; 513  : 			return (_Insert(true, _Myhead, _Val));	// insert into empty tree

  00011	8b 4b 04	 mov	 ecx, DWORD PTR [ebx+4]
  00014	57		 push	 edi
  00015	6a 01		 push	 1
  00017	ff 75 08	 push	 DWORD PTR ___$ReturnUdt$[ebp]
  0001a	8b fb		 mov	 edi, ebx
  0001c	e8 00 00 00 00	 call	 ?_Insert@?$_Tree@V?$_Tmap_traits@IPAUpatch_scrap@@U?$less@I@std@@V?$allocator@U?$pair@$$CBIPAUpatch_scrap@@@std@@@3@$0A@@std@@@std@@IAE?AViterator@12@_NPAU_Node@?$_Tree_nod@V?$_Tmap_traits@IPAUpatch_scrap@@U?$less@I@std@@V?$allocator@U?$pair@$$CBIPAUpatch_scrap@@@std@@@3@$0A@@std@@@2@ABU?$pair@$$CBIPAUpatch_scrap@@@2@@Z ; std::_Tree<std::_Tmap_traits<unsigned int,patch_scrap *,std::less<unsigned int>,std::allocator<std::pair<unsigned int const ,patch_scrap *> >,0> >::_Insert
  00021	8b 45 08	 mov	 eax, DWORD PTR ___$ReturnUdt$[ebp]
  00024	e9 c0 00 00 00	 jmp	 $L24723
$L24725:

; 514  : 		else if (this->_Multi)
; 515  : 			{	// insert even if duplicate
; 516  : 			if (_Where == begin())
; 517  : 				{	// insert at beginning if before first element
; 518  : 				if (!this->comp(_Key(_Where._Mynode()), this->_Kfn(_Val)))
; 519  : 					return (_Insert(true, _Where._Mynode(), _Val));
; 520  : 				}
; 521  : 			else if (_Where == end())
; 522  : 				{	// insert at end if after last element
; 523  : 				if (!this->comp(this->_Kfn(_Val), _Key(_Rmost())))
; 524  : 					return (_Insert(false, _Rmost(), _Val));
; 525  : 				}
; 526  : 			else if (!this->comp(_Key(_Where._Mynode()), this->_Kfn(_Val))
; 527  : 				&& !this->comp(this->_Kfn(_Val),
; 528  : 					_Key((--(_Next = _Where))._Mynode())))
; 529  : 				{	// insert before _Where
; 530  : 				if (_Isnil(_Right(_Next._Mynode())))
; 531  : 					return (_Insert(false, _Next._Mynode(), _Val));
; 532  : 				else
; 533  : 					return (_Insert(true, _Where._Mynode(), _Val));
; 534  : 				}
; 535  : 			else if (!this->comp(this->_Kfn(_Val), _Key(_Where._Mynode()))
; 536  : 				&& (++(_Next = _Where) == end()
; 537  : 					|| !this->comp(_Key(_Next._Mynode()),
; 538  : 						this->_Kfn(_Val))))
; 539  : 				{	// insert after _Where
; 540  : 				if (_Isnil(_Right(_Where._Mynode())))
; 541  : 					return (_Insert(false, _Where._Mynode(), _Val));
; 542  : 				else
; 543  : 					return (_Insert(true, _Next._Mynode(), _Val));
; 544  : 				}
; 545  : 			}
; 546  : 		else
; 547  : 			{	// insert only if unique
; 548  : 			if (_Where == begin())

  00029	8b 43 04	 mov	 eax, DWORD PTR [ebx+4]
  0002c	56		 push	 esi
  0002d	8b 75 0c	 mov	 esi, DWORD PTR __Where$[ebp]
  00030	3b 30		 cmp	 esi, DWORD PTR [eax]
  00032	75 22		 jne	 SHORT $L24754

; 549  : 				{	// insert at beginning if before first element
; 550  : 				if (this->comp(this->_Kfn(_Val), _Key(_Where._Mynode())))

  00034	8b 07		 mov	 eax, DWORD PTR [edi]
  00036	3b 46 0c	 cmp	 eax, DWORD PTR [esi+12]
  00039	0f 83 99 00 00
	00		 jae	 $L24774

; 551  : 					return (_Insert(true, _Where._Mynode(), _Val));

  0003f	57		 push	 edi
  00040	6a 01		 push	 1
  00042	8b ce		 mov	 ecx, esi
$L89130:
  00044	8b fb		 mov	 edi, ebx
$L89131:
  00046	ff 75 08	 push	 DWORD PTR ___$ReturnUdt$[ebp]
  00049	e8 00 00 00 00	 call	 ?_Insert@?$_Tree@V?$_Tmap_traits@IPAUpatch_scrap@@U?$less@I@std@@V?$allocator@U?$pair@$$CBIPAUpatch_scrap@@@std@@@3@$0A@@std@@@std@@IAE?AViterator@12@_NPAU_Node@?$_Tree_nod@V?$_Tmap_traits@IPAUpatch_scrap@@U?$less@I@std@@V?$allocator@U?$pair@$$CBIPAUpatch_scrap@@@std@@@3@$0A@@std@@@2@ABU?$pair@$$CBIPAUpatch_scrap@@@2@@Z ; std::_Tree<std::_Tmap_traits<unsigned int,patch_scrap *,std::less<unsigned int>,std::allocator<std::pair<unsigned int const ,patch_scrap *> >,0> >::_Insert
  0004e	8b 45 08	 mov	 eax, DWORD PTR ___$ReturnUdt$[ebp]
  00051	e9 92 00 00 00	 jmp	 $L89125
$L24754:

; 552  : 				}
; 553  : 			else if (_Where == end())

  00056	3b f0		 cmp	 esi, eax
  00058	75 11		 jne	 SHORT $L24759

; 554  : 				{	// insert at end if after last element
; 555  : 				if (this->comp(_Key(_Rmost()), this->_Kfn(_Val)))

  0005a	8b 40 08	 mov	 eax, DWORD PTR [eax+8]
  0005d	8b 48 0c	 mov	 ecx, DWORD PTR [eax+12]
  00060	3b 0f		 cmp	 ecx, DWORD PTR [edi]
  00062	73 74		 jae	 SHORT $L24774

; 556  : 					return (_Insert(false, _Rmost(), _Val));

  00064	57		 push	 edi
  00065	6a 00		 push	 0
  00067	8b c8		 mov	 ecx, eax
  00069	eb d9		 jmp	 SHORT $L89130
$L24759:

; 557  : 				}
; 558  : 			else if (this->comp(this->_Kfn(_Val), _Key(_Where._Mynode()))
; 559  : 				&& this->comp(_Key((--(_Next = _Where))._Mynode()),
; 560  : 					this->_Kfn(_Val)))

  0006b	8b 07		 mov	 eax, DWORD PTR [edi]
  0006d	3b 46 0c	 cmp	 eax, DWORD PTR [esi+12]
  00070	73 29		 jae	 SHORT $L24763
  00072	8d 4d 0c	 lea	 ecx, DWORD PTR __Next$[ebp]
  00075	89 75 0c	 mov	 DWORD PTR __Next$[ebp], esi
  00078	e8 00 00 00 00	 call	 ?_Dec@const_iterator@?$_Tree@V?$_Tmap_traits@IPAUpatch_scrap@@U?$less@I@std@@V?$allocator@U?$pair@$$CBIPAUpatch_scrap@@@std@@@3@$0A@@std@@@std@@QAEXXZ ; std::_Tree<std::_Tmap_traits<unsigned int,patch_scrap *,std::less<unsigned int>,std::allocator<std::pair<unsigned int const ,patch_scrap *> >,0> >::const_iterator::_Dec
  0007d	8b 4d 0c	 mov	 ecx, DWORD PTR __Next$[ebp]
  00080	8b 07		 mov	 eax, DWORD PTR [edi]
  00082	39 41 0c	 cmp	 DWORD PTR [ecx+12], eax
  00085	73 14		 jae	 SHORT $L24763

; 561  : 				{	// insert before _Where
; 562  : 				if (_Isnil(_Right(_Next._Mynode())))

  00087	8b 41 08	 mov	 eax, DWORD PTR [ecx+8]
  0008a	80 78 15 00	 cmp	 BYTE PTR [eax+21], 0

; 563  : 					return (_Insert(false, _Next._Mynode(), _Val));

  0008e	57		 push	 edi
  0008f	8b fb		 mov	 edi, ebx
  00091	74 04		 je	 SHORT $L24764
  00093	6a 00		 push	 0
  00095	eb af		 jmp	 SHORT $L89131
$L24764:

; 564  : 				else
; 565  : 					return (_Insert(true, _Where._Mynode(), _Val));

  00097	6a 01		 push	 1
  00099	eb 2f		 jmp	 SHORT $L89128
$L24763:

; 566  : 				}
; 567  : 			else if (this->comp(_Key(_Where._Mynode()), this->_Kfn(_Val))
; 568  : 				&& (++(_Next = _Where) == end()
; 569  : 					|| this->comp(this->_Kfn(_Val),
; 570  : 						_Key(_Next._Mynode()))))

  0009b	8b 07		 mov	 eax, DWORD PTR [edi]
  0009d	39 46 0c	 cmp	 DWORD PTR [esi+12], eax
  000a0	73 36		 jae	 SHORT $L24774
  000a2	8d 55 0c	 lea	 edx, DWORD PTR __Next$[ebp]
  000a5	89 75 0c	 mov	 DWORD PTR __Next$[ebp], esi
  000a8	e8 00 00 00 00	 call	 ?_Inc@const_iterator@?$_Tree@V?$_Tmap_traits@IPAUpatch_scrap@@U?$less@I@std@@V?$allocator@U?$pair@$$CBIPAUpatch_scrap@@@std@@@3@$0A@@std@@@std@@QAEXXZ ; std::_Tree<std::_Tmap_traits<unsigned int,patch_scrap *,std::less<unsigned int>,std::allocator<std::pair<unsigned int const ,patch_scrap *> >,0> >::const_iterator::_Inc
  000ad	8b 4d 0c	 mov	 ecx, DWORD PTR __Next$[ebp]
  000b0	3b 4b 04	 cmp	 ecx, DWORD PTR [ebx+4]
  000b3	74 07		 je	 SHORT $L24771
  000b5	8b 07		 mov	 eax, DWORD PTR [edi]
  000b7	3b 41 0c	 cmp	 eax, DWORD PTR [ecx+12]
  000ba	73 1c		 jae	 SHORT $L24774
$L24771:

; 571  : 				{	// insert after _Where
; 572  : 				if (_Isnil(_Right(_Where._Mynode())))

  000bc	8b 46 08	 mov	 eax, DWORD PTR [esi+8]
  000bf	80 78 15 00	 cmp	 BYTE PTR [eax+21], 0

; 573  : 					return (_Insert(false, _Where._Mynode(), _Val));

  000c3	57		 push	 edi
  000c4	8b fb		 mov	 edi, ebx
  000c6	74 09		 je	 SHORT $L24772
  000c8	6a 00		 push	 0
$L89128:
  000ca	8b ce		 mov	 ecx, esi
  000cc	e9 75 ff ff ff	 jmp	 $L89131
$L24772:

; 574  : 				else
; 575  : 					return (_Insert(true, _Next._Mynode(), _Val));

  000d1	6a 01		 push	 1
  000d3	e9 6e ff ff ff	 jmp	 $L89131
$L24774:

; 576  : 				}
; 577  : 			}
; 578  : 
; 579  : 		return (insert(_Val).first);	// try usual insert if all else fails

  000d8	57		 push	 edi
  000d9	8d 75 f8	 lea	 esi, DWORD PTR $T88584[ebp]
  000dc	e8 00 00 00 00	 call	 ?insert@?$_Tree@V?$_Tmap_traits@IPAUpatch_scrap@@U?$less@I@std@@V?$allocator@U?$pair@$$CBIPAUpatch_scrap@@@std@@@3@$0A@@std@@@std@@QAE?AU?$pair@Viterator@?$_Tree@V?$_Tmap_traits@IPAUpatch_scrap@@U?$less@I@std@@V?$allocator@U?$pair@$$CBIPAUpatch_scrap@@@std@@@3@$0A@@std@@@std@@_N@2@ABU?$pair@$$CBIPAUpatch_scrap@@@2@@Z ; std::_Tree<std::_Tmap_traits<unsigned int,patch_scrap *,std::less<unsigned int>,std::allocator<std::pair<unsigned int const ,patch_scrap *> >,0> >::insert
  000e1	8b 08		 mov	 ecx, DWORD PTR [eax]
  000e3	8b 45 08	 mov	 eax, DWORD PTR ___$ReturnUdt$[ebp]
  000e6	89 08		 mov	 DWORD PTR [eax], ecx
$L89125:
  000e8	5e		 pop	 esi
$L24723:
  000e9	5f		 pop	 edi
  000ea	5b		 pop	 ebx

; 580  : 		}

  000eb	c9		 leave
  000ec	c2 08 00	 ret	 8
?insert@?$_Tree@V?$_Tmap_traits@IPAUpatch_scrap@@U?$less@I@std@@V?$allocator@U?$pair@$$CBIPAUpatch_scrap@@@std@@@3@$0A@@std@@@std@@QAE?AViterator@12@V312@ABU?$pair@$$CBIPAUpatch_scrap@@@2@@Z ENDP ; std::_Tree<std::_Tmap_traits<unsigned int,patch_scrap *,std::less<unsigned int>,std::allocator<std::pair<unsigned int const ,patch_scrap *> >,0> >::insert
; Function compile flags: /Ogsy
; File c:\program files (x86)\microsoft visual studio .net 2003\vc7\include\map
_TEXT	ENDS
;	COMDAT ??A?$map@IPAUpatch_scrap@@U?$less@I@std@@V?$allocator@U?$pair@$$CBIPAUpatch_scrap@@@std@@@3@@std@@QAEAAPAUpatch_scrap@@ABI@Z
_TEXT	SEGMENT
$T89135 = -12						; size = 8
$T89137 = -4						; size = 4
??A?$map@IPAUpatch_scrap@@U?$less@I@std@@V?$allocator@U?$pair@$$CBIPAUpatch_scrap@@@std@@@3@@std@@QAEAAPAUpatch_scrap@@ABI@Z PROC NEAR ; std::map<unsigned int,patch_scrap *,std::less<unsigned int>,std::allocator<std::pair<unsigned int const ,patch_scrap *> > >::operator[], COMDAT
; _this$ = edi
; __Keyval$ = esi

; 142  : 		{	// find element matching _Keyval or insert with default mapped

  00000	55		 push	 ebp
  00001	8b ec		 mov	 ebp, esp
  00003	83 ec 0c	 sub	 esp, 12			; 0000000cH

; 143  : 		iterator _Where = this->lower_bound(_Keyval);

  00006	8b d6		 mov	 edx, esi
  00008	8b c7		 mov	 eax, edi
  0000a	e8 00 00 00 00	 call	 ?_Lbound@?$_Tree@V?$_Tmap_traits@IPAUpatch_scrap@@U?$less@I@std@@V?$allocator@U?$pair@$$CBIPAUpatch_scrap@@@std@@@3@$0A@@std@@@std@@IBEPAU_Node@?$_Tree_nod@V?$_Tmap_traits@IPAUpatch_scrap@@U?$less@I@std@@V?$allocator@U?$pair@$$CBIPAUpatch_scrap@@@std@@@3@$0A@@std@@@2@ABI@Z ; std::_Tree<std::_Tmap_traits<unsigned int,patch_scrap *,std::less<unsigned int>,std::allocator<std::pair<unsigned int const ,patch_scrap *> >,0> >::_Lbound

; 144  : 		if (_Where == this->end() || this->comp(_Keyval, this->_Key(_Where._Mynode())))

  0000f	3b 47 04	 cmp	 eax, DWORD PTR [edi+4]
  00012	74 07		 je	 SHORT $L24640
  00014	8b 0e		 mov	 ecx, DWORD PTR [esi]
  00016	3b 48 0c	 cmp	 ecx, DWORD PTR [eax+12]
  00019	73 1a		 jae	 SHORT $L24639
$L24640:

; 145  : 			_Where = this->insert(_Where,
; 146  : 				value_type(_Keyval, mapped_type()));

  0001b	8b 0e		 mov	 ecx, DWORD PTR [esi]
  0001d	83 65 f8 00	 and	 DWORD PTR $T89135[ebp+4], 0
  00021	50		 push	 eax
  00022	8d 45 fc	 lea	 eax, DWORD PTR $T89137[ebp]
  00025	89 4d f4	 mov	 DWORD PTR $T89135[ebp], ecx
  00028	50		 push	 eax
  00029	8d 45 f4	 lea	 eax, DWORD PTR $T89135[ebp]
  0002c	8b cf		 mov	 ecx, edi
  0002e	e8 00 00 00 00	 call	 ?insert@?$_Tree@V?$_Tmap_traits@IPAUpatch_scrap@@U?$less@I@std@@V?$allocator@U?$pair@$$CBIPAUpatch_scrap@@@std@@@3@$0A@@std@@@std@@QAE?AViterator@12@V312@ABU?$pair@$$CBIPAUpatch_scrap@@@2@@Z ; std::_Tree<std::_Tmap_traits<unsigned int,patch_scrap *,std::less<unsigned int>,std::allocator<std::pair<unsigned int const ,patch_scrap *> >,0> >::insert
  00033	8b 00		 mov	 eax, DWORD PTR [eax]
$L24639:

; 147  : 		return ((*_Where).second);

  00035	83 c0 10	 add	 eax, 16			; 00000010H

; 148  : 		}

  00038	c9		 leave
  00039	c3		 ret	 0
??A?$map@IPAUpatch_scrap@@U?$less@I@std@@V?$allocator@U?$pair@$$CBIPAUpatch_scrap@@@std@@@3@@std@@QAEAAPAUpatch_scrap@@ABI@Z ENDP ; std::map<unsigned int,patch_scrap *,std::less<unsigned int>,std::allocator<std::pair<unsigned int const ,patch_scrap *> > >::operator[]
_TEXT	ENDS
PUBLIC	?setNote@Patch@@QAEXH@Z				; Patch::setNote
; Function compile flags: /Ogsy
; File f:\nes\nsdl\src\nsc\patch.cpp
_TEXT	SEGMENT
?setNote@Patch@@QAEXH@Z PROC NEAR			; Patch::setNote
; _this$ = ebx
; _i$ = eax

; 648  : 	bool	f_set = false;
; 649  : 
; 650  : 	m_kn = i;
; 651  : 
; 652  : 	while(m_kn > 0){

  00215	85 c0		 test	 eax, eax
  00217	56		 push	 esi
  00218	8d 73 10	 lea	 esi, DWORD PTR [ebx+16]
  0021b	57		 push	 edi
  0021c	89 06		 mov	 DWORD PTR [esi], eax
  0021e	76 14		 jbe	 SHORT $L89213
  00220	8d 7b 04	 lea	 edi, DWORD PTR [ebx+4]
$L24406:

; 653  : 		if(m_Patch.count(m_kn) != 0){

  00223	56		 push	 esi
  00224	57		 push	 edi
  00225	e8 00 00 00 00	 call	 ?count@?$_Tree@V?$_Tmap_traits@IPAUpatch_scrap@@U?$less@I@std@@V?$allocator@U?$pair@$$CBIPAUpatch_scrap@@@std@@@3@$0A@@std@@@std@@QBEIABI@Z ; std::_Tree<std::_Tmap_traits<unsigned int,patch_scrap *,std::less<unsigned int>,std::allocator<std::pair<unsigned int const ,patch_scrap *> >,0> >::count
  0022a	85 c0		 test	 eax, eax
  0022c	75 06		 jne	 SHORT $L89213

; 654  : 			f_set = true;
; 655  : 			break;
; 656  : 		} else {
; 657  : 			m_kn--;

  0022e	ff 0e		 dec	 DWORD PTR [esi]
  00230	39 06		 cmp	 DWORD PTR [esi], eax
  00232	77 ef		 ja	 SHORT $L24406
$L89213:

; 658  : 		}
; 659  : 	}
; 660  : 
; 661  : 	m_now_Patch = m_Patch[m_kn];

  00234	8d 7b 04	 lea	 edi, DWORD PTR [ebx+4]
  00237	e8 00 00 00 00	 call	 ??A?$map@IPAUpatch_scrap@@U?$less@I@std@@V?$allocator@U?$pair@$$CBIPAUpatch_scrap@@@std@@@3@@std@@QAEAAPAUpatch_scrap@@ABI@Z ; std::map<unsigned int,patch_scrap *,std::less<unsigned int>,std::allocator<std::pair<unsigned int const ,patch_scrap *> > >::operator[]
  0023c	8b 00		 mov	 eax, DWORD PTR [eax]
  0023e	5f		 pop	 edi
  0023f	89 43 14	 mov	 DWORD PTR [ebx+20], eax
  00242	5e		 pop	 esi

; 662  : 
; 663  : }

  00243	c3		 ret	 0
?setNote@Patch@@QAEXH@Z ENDP				; Patch::setNote
_TEXT	ENDS
PUBLIC	?setN@Patch@@QAEXPAVMMLfile@@H@Z		; Patch::setN
; Function compile flags: /Ogsy
_TEXT	SEGMENT
_MML$ = 8						; size = 4
?setN@Patch@@QAEXPAVMMLfile@@H@Z PROC NEAR		; Patch::setN
; _this$ = ebx
; _note$ = eax

; 602  : 
; 603  : 	if((note<0) || (note>255)){

  00244	85 c0		 test	 eax, eax
  00246	0f 8c b2 00 00
	00		 jl	 $L24394
  0024c	3d ff 00 00 00	 cmp	 eax, 255		; 000000ffH
  00251	0f 8f a7 00 00
	00		 jg	 $L24394
  00257	56		 push	 esi
  00258	57		 push	 edi

; 605  : 	}
; 606  : 
; 607  : 	//pb`
; 608  : 	m_kn = note;

  00259	8d 73 10	 lea	 esi, DWORD PTR [ebx+16]

; 609  : 
; 610  : 	if(m_Patch.count(m_kn) != 0){

  0025c	56		 push	 esi
  0025d	8d 7b 04	 lea	 edi, DWORD PTR [ebx+4]
  00260	57		 push	 edi
  00261	89 06		 mov	 DWORD PTR [esi], eax
  00263	e8 00 00 00 00	 call	 ?count@?$_Tree@V?$_Tmap_traits@IPAUpatch_scrap@@U?$less@I@std@@V?$allocator@U?$pair@$$CBIPAUpatch_scrap@@@std@@@3@$0A@@std@@@std@@QBEIABI@Z ; std::_Tree<std::_Tmap_traits<unsigned int,patch_scrap *,std::less<unsigned int>,std::allocator<std::pair<unsigned int const ,patch_scrap *> >,0> >::count
  00268	85 c0		 test	 eax, eax
  0026a	74 0f		 je	 SHORT $L24396

; 611  : 		//pb`[h
; 612  : 		m_now_Patch =	m_Patch[m_kn];

  0026c	e8 00 00 00 00	 call	 ??A?$map@IPAUpatch_scrap@@U?$less@I@std@@V?$allocator@U?$pair@$$CBIPAUpatch_scrap@@@std@@@3@@std@@QAEAAPAUpatch_scrap@@ABI@Z ; std::map<unsigned int,patch_scrap *,std::less<unsigned int>,std::allocator<std::pair<unsigned int const ,patch_scrap *> > >::operator[]
  00271	8b 00		 mov	 eax, DWORD PTR [eax]
  00273	89 43 14	 mov	 DWORD PTR [ebx+20], eax
$L89216:
  00276	5f		 pop	 edi
  00277	5e		 pop	 esi

; 634  : 	}
; 635  : 
; 636  : }

  00278	c2 04 00	 ret	 4
$L24396:

; 613  : 	} else {
; 614  : 		//pb`VK
; 615  : 		m_now_Patch			= new	patch_scrap;

  0027b	6a 38		 push	 56			; 00000038H
  0027d	e8 00 00 00 00	 call	 ??2@YAPAXI@Z		; operator new
  00282	59		 pop	 ecx
  00283	89 43 14	 mov	 DWORD PTR [ebx+20], eax

; 616  : 		m_Patch[m_kn]		= m_now_Patch;

  00286	e8 00 00 00 00	 call	 ??A?$map@IPAUpatch_scrap@@U?$less@I@std@@V?$allocator@U?$pair@$$CBIPAUpatch_scrap@@@std@@@3@@std@@QAEAAPAUpatch_scrap@@ABI@Z ; std::map<unsigned int,patch_scrap *,std::less<unsigned int>,std::allocator<std::pair<unsigned int const ,patch_scrap *> > >::operator[]
  0028b	8b 4b 14	 mov	 ecx, DWORD PTR [ebx+20]
  0028e	89 08		 mov	 DWORD PTR [eax], ecx

; 617  : 
; 618  : 		m_now_Patch->fVoi	= false;

  00290	8b 43 14	 mov	 eax, DWORD PTR [ebx+20]
  00293	c6 40 28 00	 mov	 BYTE PTR [eax+40], 0

; 619  : 		m_now_Patch->fEvoi	= false;

  00297	8b 43 14	 mov	 eax, DWORD PTR [ebx+20]
  0029a	c6 40 29 00	 mov	 BYTE PTR [eax+41], 0

; 620  : 		m_now_Patch->fEvol	= false;

  0029e	8b 43 14	 mov	 eax, DWORD PTR [ebx+20]
  002a1	c6 40 2a 00	 mov	 BYTE PTR [eax+42], 0

; 621  : 		m_now_Patch->fEm	= false;

  002a5	8b 43 14	 mov	 eax, DWORD PTR [ebx+20]
  002a8	c6 40 2b 00	 mov	 BYTE PTR [eax+43], 0

; 622  : 		m_now_Patch->fEn	= false;

  002ac	8b 43 14	 mov	 eax, DWORD PTR [ebx+20]
  002af	c6 40 2c 00	 mov	 BYTE PTR [eax+44], 0

; 623  : 		m_now_Patch->fKey	= false;

  002b3	8b 43 14	 mov	 eax, DWORD PTR [ebx+20]
  002b6	c6 40 2d 00	 mov	 BYTE PTR [eax+45], 0

; 624  : 		m_now_Patch->fSweep	= false;

  002ba	8b 43 14	 mov	 eax, DWORD PTR [ebx+20]
  002bd	c6 40 2e 00	 mov	 BYTE PTR [eax+46], 0

; 625  : 		m_now_Patch->fSub	= false;

  002c1	8b 43 14	 mov	 eax, DWORD PTR [ebx+20]
  002c4	c6 40 2f 00	 mov	 BYTE PTR [eax+47], 0

; 626  : 		m_now_Patch->fSub_opt= false;

  002c8	8b 43 14	 mov	 eax, DWORD PTR [ebx+20]
  002cb	c6 40 30 00	 mov	 BYTE PTR [eax+48], 0

; 627  : 		m_now_Patch->fGate_q = false;

  002cf	8b 43 14	 mov	 eax, DWORD PTR [ebx+20]
  002d2	c6 40 31 00	 mov	 BYTE PTR [eax+49], 0

; 628  : 		m_now_Patch->fGate_u = false;

  002d6	8b 43 14	 mov	 eax, DWORD PTR [ebx+20]
  002d9	c6 40 32 00	 mov	 BYTE PTR [eax+50], 0

; 629  : 
; 630  : 		m_now_Patch->sw_Evoi= false;

  002dd	8b 43 14	 mov	 eax, DWORD PTR [ebx+20]
  002e0	c6 40 33 00	 mov	 BYTE PTR [eax+51], 0

; 631  : 		m_now_Patch->sw_Evol= false;

  002e4	8b 43 14	 mov	 eax, DWORD PTR [ebx+20]
  002e7	c6 40 34 00	 mov	 BYTE PTR [eax+52], 0

; 632  : 		m_now_Patch->sw_Em	= false;

  002eb	8b 43 14	 mov	 eax, DWORD PTR [ebx+20]
  002ee	c6 40 35 00	 mov	 BYTE PTR [eax+53], 0

; 633  : 		m_now_Patch->sw_En	= false;

  002f2	8b 43 14	 mov	 eax, DWORD PTR [ebx+20]
  002f5	c6 40 36 00	 mov	 BYTE PTR [eax+54], 0

; 634  : 	}
; 635  : 
; 636  : }

  002f9	e9 78 ff ff ff	 jmp	 $L89216
$L24394:

; 604  : 		MML->Err(_T("KB"));

  002fe	8b 44 24 04	 mov	 eax, DWORD PTR _MML$[esp-4]
  00302	68 00 00 00 00	 push	 OFFSET FLAT:??_C@_1BM@PGNCFJMC@?$JH?s?$JG?$IO0n?$HL?DV?r0?$JC?$IN?$IF0H0f0D0?$HO0Y0?$AC?$AA?$AA@
  00307	e8 00 00 00 00	 call	 ?Err@MMLfile@@QAEXQBG@Z	; MMLfile::Err
$L89219:
$L89218:
  0030c	cc		 int	 3
?setN@Patch@@QAEXPAVMMLfile@@H@Z ENDP			; Patch::setN
_TEXT	ENDS
PUBLIC	??1Patch@@QAE@XZ				; Patch::~Patch
$T89350	DD	0ffffffffH
	DD	FLAT:$L89225
$T89347	DD	019930520H
	DD	01H
	DD	FLAT:$T89350
	DD	2 DUP(00H)
	DD	2 DUP(00H)
; Function compile flags: /Ogsy
_TEXT	SEGMENT
_itPatch$ = -16						; size = 4
__$EHRec$ = -12						; size = 12
_this$ = 8						; size = 4
??1Patch@@QAE@XZ PROC NEAR				; Patch::~Patch

; 498  : {

  0030d	b8 00 00 00 00	 mov	 eax, __ehhandler$??1Patch@@QAE@XZ
  00312	e8 00 00 00 00	 call	 __EH_prolog
  00317	51		 push	 ecx
  00318	56		 push	 esi
  00319	8b 75 08	 mov	 esi, DWORD PTR _this$[ebp]
  0031c	83 65 fc 00	 and	 DWORD PTR __$EHRec$[ebp+8], 0

; 499  : 	//----------------------
; 500  : 	//Local
; 501  : 	map<unsigned int, patch_scrap*>::iterator	itPatch;
; 502  : 	
; 503  : 	//----------------------
; 504  : 	//Delete Class
; 505  : 	if(!m_Patch.empty()){

  00320	83 7e 0c 00	 cmp	 DWORD PTR [esi+12], 0
  00324	74 32		 je	 SHORT $L24251

; 506  : 		itPatch = m_Patch.begin();

  00326	8b 46 08	 mov	 eax, DWORD PTR [esi+8]
  00329	8b 08		 mov	 ecx, DWORD PTR [eax]

; 507  : 		while(itPatch != m_Patch.end()){

  0032b	3b c8		 cmp	 ecx, eax
  0032d	89 4d f0	 mov	 DWORD PTR _itPatch$[ebp], ecx
  00330	74 1c		 je	 SHORT $L24255
$L24254:

; 508  : 			delete itPatch->second;

  00332	8b 45 f0	 mov	 eax, DWORD PTR _itPatch$[ebp]
  00335	ff 70 10	 push	 DWORD PTR [eax+16]
  00338	e8 00 00 00 00	 call	 ??3@YAXPAX@Z		; operator delete
  0033d	59		 pop	 ecx

; 509  : 			itPatch++;

  0033e	8d 55 f0	 lea	 edx, DWORD PTR _itPatch$[ebp]
  00341	e8 00 00 00 00	 call	 ?_Inc@const_iterator@?$_Tree@V?$_Tmap_traits@IPAUpatch_scrap@@U?$less@I@std@@V?$allocator@U?$pair@$$CBIPAUpatch_scrap@@@std@@@3@$0A@@std@@@std@@QAEXXZ ; std::_Tree<std::_Tmap_traits<unsigned int,patch_scrap *,std::less<unsigned int>,std::allocator<std::pair<unsigned int const ,patch_scrap *> >,0> >::const_iterator::_Inc
  00346	8b 46 08	 mov	 eax, DWORD PTR [esi+8]
  00349	39 45 f0	 cmp	 DWORD PTR _itPatch$[ebp], eax
  0034c	75 e4		 jne	 SHORT $L24254
$L24255:
  0034e	57		 push	 edi

; 510  : 		}
; 511  : 		m_Patch.clear();

  0034f	8d 7e 04	 lea	 edi, DWORD PTR [esi+4]
  00352	e8 00 00 00 00	 call	 ?clear@?$_Tree@V?$_Tmap_traits@IPAUpatch_scrap@@U?$less@I@std@@V?$allocator@U?$pair@$$CBIPAUpatch_scrap@@@std@@@3@$0A@@std@@@std@@QAEXXZ ; std::_Tree<std::_Tmap_traits<unsigned int,patch_scrap *,std::less<unsigned int>,std::allocator<std::pair<unsigned int const ,patch_scrap *> >,0> >::clear
  00357	5f		 pop	 edi
$L24251:

; 512  : 	}
; 513  : }

  00358	83 4d fc ff	 or	 DWORD PTR __$EHRec$[ebp+8], -1
  0035c	83 c6 04	 add	 esi, 4
  0035f	e8 00 00 00 00	 call	 ?_Tidy@?$_Tree@V?$_Tmap_traits@IPAUpatch_scrap@@U?$less@I@std@@V?$allocator@U?$pair@$$CBIPAUpatch_scrap@@@std@@@3@$0A@@std@@@std@@IAEXXZ ; std::_Tree<std::_Tmap_traits<unsigned int,patch_scrap *,std::less<unsigned int>,std::allocator<std::pair<unsigned int const ,patch_scrap *> >,0> >::_Tidy
  00364	8b 4d f4	 mov	 ecx, DWORD PTR __$EHRec$[ebp]
  00367	5e		 pop	 esi
  00368	64 89 0d 00 00
	00 00		 mov	 DWORD PTR fs:__except_list, ecx
  0036f	c9		 leave
  00370	c2 04 00	 ret	 4
$L89225:
  00279	8b 75 08	 mov	 esi, DWORD PTR _this$[ebp]
  0027c	83 c6 04	 add	 esi, 4
  0027f	e9 00 00 00 00	 jmp	 ??1?$map@IPAUpatch_scrap@@U?$less@I@std@@V?$allocator@U?$pair@$$CBIPAUpatch_scrap@@@std@@@3@@std@@QAE@XZ
__ehhandler$??1Patch@@QAE@XZ:
  00284	b8 00 00 00 00	 mov	 eax, OFFSET FLAT:$T89347
  00289	e9 00 00 00 00	 jmp	 ___CxxFrameHandler
??1Patch@@QAE@XZ ENDP					; Patch::~Patch
PUBLIC	?setKey@Patch@@QAEXPAVMMLfile@@H@Z		; Patch::setKey
; Function compile flags: /Ogsy
_TEXT	SEGMENT
_MML$ = 8						; size = 4
_key$ = 12						; size = 4
?setKey@Patch@@QAEXPAVMMLfile@@H@Z PROC NEAR		; Patch::setKey
; _this$ = ebx

; 588  : 	setN(MML, ((MML->GetInt()-1) * 12) + key);

  00373	8b 44 24 04	 mov	 eax, DWORD PTR _MML$[esp-4]
  00377	e8 00 00 00 00	 call	 ?GetInt@MMLfile@@QAEHXZ	; MMLfile::GetInt
  0037c	8b 4c 24 08	 mov	 ecx, DWORD PTR _key$[esp-4]
  00380	ff 74 24 04	 push	 DWORD PTR _MML$[esp-4]
  00384	8d 04 40	 lea	 eax, DWORD PTR [eax+eax*2]
  00387	8d 44 81 f4	 lea	 eax, DWORD PTR [ecx+eax*4-12]
  0038b	e8 00 00 00 00	 call	 ?setN@Patch@@QAEXPAVMMLfile@@H@Z ; Patch::setN

; 589  : }

  00390	c2 08 00	 ret	 8
?setKey@Patch@@QAEXPAVMMLfile@@H@Z ENDP			; Patch::setKey
PUBLIC	??0Patch@@QAE@PAVMMLfile@@H@Z			; Patch::Patch
$T109886 DD	0ffffffffH
	DD	FLAT:$L109674
$T109842 DD	019930520H
	DD	01H
	DD	FLAT:$T109886
	DD	2 DUP(00H)
	DD	2 DUP(00H)
; Function compile flags: /Ogsy
_TEXT	SEGMENT
__$EHRec$ = -12						; size = 12
_this$ = 8						; size = 4
__id$ = 12						; size = 4
??0Patch@@QAE@PAVMMLfile@@H@Z PROC NEAR			; Patch::Patch
; _MML$ = ecx

; 29   : {

  00393	b8 00 00 00 00	 mov	 eax, __ehhandler$??0Patch@@QAE@PAVMMLfile@@H@Z
  00398	e8 00 00 00 00	 call	 __EH_prolog
  0039d	8b 44 24 18	 mov	 eax, DWORD PTR __id$[esp+12]
  003a1	53		 push	 ebx
  003a2	55		 push	 ebp
  003a3	8b 6c 24 1c	 mov	 ebp, DWORD PTR _this$[esp+20]
  003a7	56		 push	 esi
  003a8	57		 push	 edi
  003a9	8d 75 04	 lea	 esi, DWORD PTR [ebp+4]
  003ac	8b f9		 mov	 edi, ecx
  003ae	89 45 00	 mov	 DWORD PTR [ebp], eax
  003b1	e8 00 00 00 00	 call	 ?_Init@?$_Tree@V?$_Tmap_traits@IPAUpatch_scrap@@U?$less@I@std@@V?$allocator@U?$pair@$$CBIPAUpatch_scrap@@@std@@@3@$0A@@std@@@std@@IAEXXZ ; std::_Tree<std::_Tmap_traits<unsigned int,patch_scrap *,std::less<unsigned int>,std::allocator<std::pair<unsigned int const ,patch_scrap *> >,0> >::_Init
  003b6	83 64 24 18 00	 and	 DWORD PTR __$EHRec$[esp+36], 0

; 30   : 	//----------------------
; 31   : 	//Local
; 32   : 
; 33   : 
; 34   : //	`
; 35   : enum	Command_ID_mml {
; 36   : 	Patch_MacroSet,
; 37   : 	Patch_Macro,
; 38   : 
; 39   : 	Patch_C,
; 40   : 	Patch_Cis,
; 41   : 	Patch_D,
; 42   : 	Patch_Dis,
; 43   : 	Patch_E,
; 44   : 	Patch_F,
; 45   : 	Patch_Fis,
; 46   : 	Patch_G,
; 47   : 	Patch_Gis,
; 48   : 	Patch_A,
; 49   : 	Patch_Ais,
; 50   : 	Patch_B,
; 51   : 	Patch_Note,
; 52   : 
; 53   : 	Patch_Off_Evoi,
; 54   : 	Patch_Off_Evol,
; 55   : 	Patch_Off_Em,
; 56   : 	Patch_Off_En,
; 57   : 
; 58   : 	Patch_Evoi,
; 59   : 	Patch_Evol,
; 60   : 	Patch_Em,
; 61   : 	Patch_En,
; 62   : 
; 63   : 	Patch_Gate_q,
; 64   : 	Patch_Gate_u,
; 65   : 
; 66   : 	Patch_Voice,
; 67   : 	Patch_KeyShift,
; 68   : 	Patch_n163set,
; 69   : 	Patch_Sweep,
; 70   : 	Patch_Sub
; 71   : 
; 72   : };
; 73   : 
; 74   : //	AMML\gR}hB
; 75   : const	static	Command_Info	Command[] = {
; 76   : 		{	"$$",	Patch_MacroSet	},
; 77   : 		{	"$",	Patch_Macro		},
; 78   : 
; 79   : 		{	"c#",	Patch_Cis	},
; 80   : 		{	"d#",	Patch_Dis	},
; 81   : 		{	"f#",	Patch_Fis	},
; 82   : 		{	"g#",	Patch_Gis	},
; 83   : 		{	"a#",	Patch_Ais	},
; 84   : 
; 85   : 		{	"c+",	Patch_Cis	},
; 86   : 		{	"d+",	Patch_Dis	},
; 87   : 		{	"f+",	Patch_Fis	},
; 88   : 		{	"g+",	Patch_Gis	},
; 89   : 		{	"a+",	Patch_Ais	},
; 90   : 
; 91   : 		{	"d-",	Patch_Cis	},
; 92   : 		{	"e-",	Patch_Dis	},
; 93   : 		{	"g-",	Patch_Fis	},
; 94   : 		{	"a-",	Patch_Gis	},
; 95   : 		{	"b-",	Patch_Ais	},
; 96   : 
; 97   : 		{	"c",	Patch_C		},
; 98   : 		{	"d",	Patch_D		},
; 99   : 		{	"e",	Patch_E		},
; 100  : 		{	"f",	Patch_F		},
; 101  : 		{	"g",	Patch_G		},
; 102  : 		{	"a",	Patch_A		},
; 103  : 		{	"b",	Patch_B		},
; 104  : 
; 105  : 		{	"#",		Patch_Cis	},
; 106  : 		{	"#",		Patch_Dis	},
; 107  : 		{	"#",	Patch_Fis	},
; 108  : 		{	"#",		Patch_Fis	},
; 109  : 		{	"#",		Patch_Gis	},
; 110  : 		{	"#",		Patch_Ais	},
; 111  : 
; 112  : 		{	"-",	Patch_Cis	},
; 113  : 		{	"-",	Patch_Dis	},
; 114  : 		{	"-",	Patch_Fis	},
; 115  : 		{	"-",	Patch_Gis	},
; 116  : 		{	"-",	Patch_Ais	},
; 117  : 
; 118  : 		{	"",	Patch_C		},
; 119  : 		{	"",	Patch_D		},
; 120  : 		{	"",	Patch_E		},
; 121  : 		{	"",	Patch_F		},
; 122  : 		{	"",	Patch_F		},
; 123  : 		{	"",	Patch_G		},
; 124  : 		{	"",	Patch_A		},
; 125  : 		{	"",	Patch_B		},
; 126  : 
; 127  : 		{	"h#",		Patch_Cis	},
; 128  : 		{	"#",		Patch_Dis	},
; 129  : 		{	"t@#",	Patch_Fis	},
; 130  : 		{	"t#",		Patch_Fis	},
; 131  : 		{	"\#",		Patch_Gis	},
; 132  : 		{	"#",		Patch_Ais	},
; 133  : 
; 134  : 		{	"-",	Patch_Cis	},
; 135  : 		{	"~-",	Patch_Dis	},
; 136  : 		{	"\-",	Patch_Fis	},
; 137  : 		{	"-",	Patch_Gis	},
; 138  : 		{	"V-",	Patch_Ais	},
; 139  : 
; 140  : 		{	"h",	Patch_C		},
; 141  : 		{	"",	Patch_D		},
; 142  : 		{	"~",	Patch_E		},
; 143  : 		{	"t@",	Patch_F		},
; 144  : 		{	"t",	Patch_F		},
; 145  : 		{	"\",	Patch_G		},
; 146  : 		{	"",	Patch_A		},
; 147  : 		{	"V",	Patch_B		},
; 148  : 
; 149  : 		{	"n",	Patch_Note	},
; 150  : 
; 151  : 
; 152  : 		{	"E@*",	Patch_Off_Evoi	},
; 153  : 		{	"Ev*",	Patch_Off_Evol	},
; 154  : 		{	"Em*",	Patch_Off_Em	},
; 155  : 		{	"En*",	Patch_Off_En	},
; 156  : 
; 157  : 		{	"E@",	Patch_Evoi		},
; 158  : 		{	"Ev",	Patch_Evol		},
; 159  : 		{	"Em",	Patch_Em		},
; 160  : 		{	"En",	Patch_En		},
; 161  : 
; 162  : 		{	"q",	Patch_Gate_q	},
; 163  : 		{	"u",	Patch_Gate_u	},
; 164  : 
; 165  : 		{	"s",	Patch_Sweep		},
; 166  : 		{	"@NS",	Patch_n163set	},
; 167  : 		{	"@",	Patch_Voice		},
; 168  : 		{	"_",	Patch_KeyShift	},
; 169  : 		{	"S",	Patch_Sub		}
; 170  : 
; 171  : };
; 172  : 
; 173  : 				int		i;
; 174  : 	unsigned	char	cData;
; 175  : 
; 176  : 	//------------------------------
; 177  : 	//NX
; 178  : 	setN(MML, 0);	//m[g 0 KB

  003bb	57		 push	 edi
  003bc	33 c0		 xor	 eax, eax
  003be	8b dd		 mov	 ebx, ebp
  003c0	e8 00 00 00 00	 call	 ?setN@Patch@@QAEXPAVMMLfile@@H@Z ; Patch::setN

; 179  : 
; 180  : 
; 181  : 	//------------------------------
; 182  : 	//RpC
; 183  : 
; 184  : 	// { 
; 185  : 	while(MML->cRead() != '{'){

  003c5	eb 0f		 jmp	 SHORT $L109879
$L24036:

; 186  : 		if(MML->eof()){

  003c7	8b 47 10	 mov	 eax, DWORD PTR [edi+16]
  003ca	8b 08		 mov	 ecx, DWORD PTR [eax]
  003cc	8b 49 04	 mov	 ecx, DWORD PTR [ecx+4]
  003cf	f6 44 01 08 01	 test	 BYTE PTR [ecx+eax+8], 1
  003d4	75 53		 jne	 SHORT $L109845
$L109879:

; 179  : 
; 180  : 
; 181  : 	//------------------------------
; 182  : 	//RpC
; 183  : 
; 184  : 	// { 
; 185  : 	while(MML->cRead() != '{'){

  003d6	8b f7		 mov	 esi, edi
  003d8	e8 00 00 00 00	 call	 ?cRead@MMLfile@@QAEDXZ	; MMLfile::cRead
  003dd	3c 7b		 cmp	 al, 123			; 0000007bH
  003df	75 e6		 jne	 SHORT $L24036

; 188  : 		}
; 189  : 	}
; 190  : 
; 191  : 	// } ALqubNRpCB
; 192  : 	while((cData = MML->GetChar()) != '}'){

  003e1	e8 00 00 00 00	 call	 ?GetChar@MMLfile@@QAEDXZ ; MMLfile::GetChar
  003e6	3c 7d		 cmp	 al, 125			; 0000007dH
  003e8	0f 84 10 04 00
	00		 je	 $L24042
  003ee	6a 04		 push	 4
  003f0	5e		 pop	 esi
$L24041:

; 193  : 		
; 194  : 		// } OA[EOF]G[
; 195  : 		if( MML->eof() ){

  003f1	8b 47 10	 mov	 eax, DWORD PTR [edi+16]
  003f4	8b 08		 mov	 ecx, DWORD PTR [eax]
  003f6	8b 49 04	 mov	 ecx, DWORD PTR [ecx+4]
  003f9	f6 44 01 08 01	 test	 BYTE PTR [ecx+eax+8], 1

; 197  : 		}
; 198  : 
; 199  : 		//P
; 200  : 		MML->Back();

  003fe	8b c7		 mov	 eax, edi
  00400	0f 85 27 04 00
	00		 jne	 $L109846
  00406	e8 00 00 00 00	 call	 ?Back@MMLfile@@QAEXXZ	; MMLfile::Back

; 201  : 
; 202  : 
; 203  : 		//eR}h
; 204  : 		switch(MML->GetCommandID(Command, sizeof(Command)/sizeof(Command_Info))){

  0040b	6a 4e		 push	 78			; 0000004eH
  0040d	68 00 00 00 00	 push	 OFFSET FLAT:?Command@?1???0Patch@@QAE@PAVMMLfile@@H@Z@4QBUCommand_Info@@B
  00412	8b c7		 mov	 eax, edi
  00414	e8 00 00 00 00	 call	 ?GetCommandID@MMLfile@@QAEHQBUCommand_Info@@I@Z ; MMLfile::GetCommandID
  00419	83 f8 1d	 cmp	 eax, 29			; 0000001dH
  0041c	0f 87 f7 04 00
	00		 ja	 $L24159
  00422	ff 24 85 00 00
	00 00		 jmp	 DWORD PTR $L109885[eax*4]
$L109845:

; 187  : 			MML->Err(_T("ubNJn{B"));

  00429	68 00 00 00 00	 push	 OFFSET FLAT:??_C@_1CK@CKPPJBGB@0?V0?m0?C0?$KP0n?$JF?$ILY?K0?$JCy?30Y?$AA?$HL0L?$IJ?$IL0d0K0?$IK0?$HO0?$FL0?$JD0?$AC@
  0042e	e9 eb 04 00 00	 jmp	 $L109883
$L24050:

; 205  : 
; 206  : 			case(Patch_Macro):
; 207  : 				MML->CallMacro();

  00433	8b cf		 mov	 ecx, edi
  00435	e8 00 00 00 00	 call	 ?CallMacro@MMLfile@@QAEXXZ ; MMLfile::CallMacro

; 208  : 				break;

  0043a	e9 b2 03 00 00	 jmp	 $L24158
$L24051:

; 209  : 
; 210  : 			case(Patch_MacroSet):
; 211  : 				MML->SetMacro(1);

  0043f	6a 01		 push	 1
  00441	8b cf		 mov	 ecx, edi
  00443	e8 00 00 00 00	 call	 ?SetMacro@MMLfile@@QAEXH@Z ; MMLfile::SetMacro

; 212  : 				break;

  00448	e9 a4 03 00 00	 jmp	 $L24158
$L24052:

; 213  : 
; 214  : 			case(Patch_C):
; 215  : 				setKey(MML, 0);

  0044d	6a 00		 push	 0

; 216  : 				break;

  0044f	eb 29		 jmp	 SHORT $L109882
$L24053:

; 217  : 
; 218  : 			case(Patch_Cis):
; 219  : 				setKey(MML, 1);

  00451	6a 01		 push	 1

; 220  : 				break;

  00453	eb 25		 jmp	 SHORT $L109882
$L24054:

; 221  : 
; 222  : 			case(Patch_D):
; 223  : 				setKey(MML, 2);

  00455	6a 02		 push	 2

; 224  : 				break;

  00457	eb 21		 jmp	 SHORT $L109882
$L24055:

; 225  : 
; 226  : 			case(Patch_Dis):
; 227  : 				setKey(MML, 3);

  00459	6a 03		 push	 3

; 228  : 				break;

  0045b	eb 1d		 jmp	 SHORT $L109882
$L24056:

; 229  : 
; 230  : 			case(Patch_E):
; 231  : 				setKey(MML, 4);

  0045d	56		 push	 esi

; 232  : 				break;

  0045e	eb 1a		 jmp	 SHORT $L109882
$L24057:

; 233  : 
; 234  : 			case(Patch_F):
; 235  : 				setKey(MML, 5);

  00460	6a 05		 push	 5

; 236  : 				break;

  00462	eb 16		 jmp	 SHORT $L109882
$L24058:

; 237  : 
; 238  : 			case(Patch_Fis):
; 239  : 				setKey(MML, 6);

  00464	6a 06		 push	 6

; 240  : 				break;

  00466	eb 12		 jmp	 SHORT $L109882
$L24059:

; 241  : 
; 242  : 			case(Patch_G):
; 243  : 				setKey(MML, 7);

  00468	6a 07		 push	 7

; 244  : 				break;

  0046a	eb 0e		 jmp	 SHORT $L109882
$L24060:

; 245  : 
; 246  : 			case(Patch_Gis):
; 247  : 				setKey(MML, 8);

  0046c	6a 08		 push	 8

; 248  : 				break;

  0046e	eb 0a		 jmp	 SHORT $L109882
$L24061:

; 249  : 
; 250  : 			case(Patch_A):
; 251  : 				setKey(MML, 9);

  00470	6a 09		 push	 9

; 252  : 				break;

  00472	eb 06		 jmp	 SHORT $L109882
$L24062:

; 253  : 
; 254  : 			case(Patch_Ais):
; 255  : 				setKey(MML, 10);

  00474	6a 0a		 push	 10			; 0000000aH

; 256  : 				break;

  00476	eb 02		 jmp	 SHORT $L109882
$L24063:

; 257  : 
; 258  : 			case(Patch_B):
; 259  : 				setKey(MML, 11);

  00478	6a 0b		 push	 11			; 0000000bH
$L109882:
  0047a	57		 push	 edi
  0047b	8b dd		 mov	 ebx, ebp
  0047d	e8 00 00 00 00	 call	 ?setKey@Patch@@QAEXPAVMMLfile@@H@Z ; Patch::setKey

; 260  : 				break;

  00482	e9 6a 03 00 00	 jmp	 $L24158
$L24064:

; 261  : 
; 262  : 			case(Patch_Note):
; 263  : 				setN(MML, MML->GetInt());

  00487	8b c7		 mov	 eax, edi
  00489	e8 00 00 00 00	 call	 ?GetInt@MMLfile@@QAEHXZ	; MMLfile::GetInt
  0048e	57		 push	 edi
  0048f	8b dd		 mov	 ebx, ebp
  00491	e8 00 00 00 00	 call	 ?setN@Patch@@QAEXPAVMMLfile@@H@Z ; Patch::setN

; 264  : 				break;

  00496	e9 56 03 00 00	 jmp	 $L24158
$L24065:

; 265  : 
; 266  : 			case(Patch_Voice):
; 267  : 				if(m_now_Patch->fEvoi == true){

  0049b	8b 45 14	 mov	 eax, DWORD PTR [ebp+20]
  0049e	80 78 29 01	 cmp	 BYTE PTR [eax+41], 1
  004a2	0f 84 8f 03 00
	00		 je	 $L109847

; 269  : 				}
; 270  : 				if(m_now_Patch->fVoi == true){

  004a8	80 78 28 01	 cmp	 BYTE PTR [eax+40], 1

; 272  : 				}
; 273  : 				i = MML->GetInt();

  004ac	8b c7		 mov	 eax, edi
  004ae	0f 84 8d 03 00
	00		 je	 $L109848
  004b4	e8 00 00 00 00	 call	 ?GetInt@MMLfile@@QAEHXZ	; MMLfile::GetInt

; 274  : 				if( (i<0) || (i>255) ){

  004b9	85 c0		 test	 eax, eax
  004bb	0f 8c 8a 03 00
	00		 jl	 $L109849
  004c1	3d ff 00 00 00	 cmp	 eax, 255		; 000000ffH
  004c6	0f 8f 7f 03 00
	00		 jg	 $L109849

; 276  : 				}
; 277  : 				m_now_Patch->iVoi		= i;

  004cc	8b 4d 14	 mov	 ecx, DWORD PTR [ebp+20]
  004cf	89 01		 mov	 DWORD PTR [ecx], eax

; 278  : 				m_now_Patch->fVoi		= true;

  004d1	8b 45 14	 mov	 eax, DWORD PTR [ebp+20]
  004d4	c6 40 28 01	 mov	 BYTE PTR [eax+40], 1

; 279  : 				m_now_Patch->sw_Evoi	= false;

  004d8	8b 45 14	 mov	 eax, DWORD PTR [ebp+20]
  004db	c6 40 33 00	 mov	 BYTE PTR [eax+51], 0

; 280  : 				break;

  004df	e9 0d 03 00 00	 jmp	 $L24158
$L24075:

; 284  : 				break;
; 285  : 
; 286  : 			case(Patch_Off_Evol):
; 287  : 				if(m_now_Patch->fEvol == true){

  004e4	8b 45 14	 mov	 eax, DWORD PTR [ebp+20]
  004e7	80 78 2a 01	 cmp	 BYTE PTR [eax+42], 1
  004eb	0f 84 6e 03 00
	00		 je	 $L109850

; 289  : 				}
; 290  : 				m_now_Patch->fEvol		= true;

  004f1	c6 40 2a 01	 mov	 BYTE PTR [eax+42], 1

; 291  : 				m_now_Patch->sw_Evol	= false;

  004f5	8b 45 14	 mov	 eax, DWORD PTR [ebp+20]
  004f8	c6 40 34 00	 mov	 BYTE PTR [eax+52], 0

; 292  : 				break;

  004fc	e9 f0 02 00 00	 jmp	 $L24158
$L24078:

; 293  : 
; 294  : 			case(Patch_Off_Em):
; 295  : 				if(m_now_Patch->fEm == true){

  00501	8b 45 14	 mov	 eax, DWORD PTR [ebp+20]
  00504	80 78 2b 01	 cmp	 BYTE PTR [eax+43], 1
  00508	0f 84 5b 03 00
	00		 je	 $L109851

; 297  : 				}
; 298  : 				m_now_Patch->fEm		= true;

  0050e	c6 40 2b 01	 mov	 BYTE PTR [eax+43], 1

; 299  : 				m_now_Patch->sw_Em		= false;

  00512	8b 45 14	 mov	 eax, DWORD PTR [ebp+20]
  00515	c6 40 35 00	 mov	 BYTE PTR [eax+53], 0

; 300  : 				break;

  00519	e9 d3 02 00 00	 jmp	 $L24158
$L24081:

; 301  : 
; 302  : 			case(Patch_Off_En):
; 303  : 				if(m_now_Patch->fEn == true){

  0051e	8b 45 14	 mov	 eax, DWORD PTR [ebp+20]
  00521	80 78 2c 01	 cmp	 BYTE PTR [eax+44], 1
  00525	0f 84 48 03 00
	00		 je	 $L109852

; 305  : 				}
; 306  : 				m_now_Patch->fEn		= true;

  0052b	c6 40 2c 01	 mov	 BYTE PTR [eax+44], 1

; 307  : 				m_now_Patch->sw_En		= false;

  0052f	8b 45 14	 mov	 eax, DWORD PTR [ebp+20]
  00532	c6 40 36 00	 mov	 BYTE PTR [eax+54], 0

; 308  : 				break;

  00536	e9 b6 02 00 00	 jmp	 $L24158
$L24084:

; 309  : 
; 310  : 			case(Patch_Evoi):
; 311  : 				if(m_now_Patch->fEvoi == true){

  0053b	8b 45 14	 mov	 eax, DWORD PTR [ebp+20]
  0053e	80 78 29 01	 cmp	 BYTE PTR [eax+41], 1
  00542	0f 84 35 03 00
	00		 je	 $L109853

; 313  : 				}
; 314  : 				if(m_now_Patch->fVoi == true){

  00548	80 78 28 01	 cmp	 BYTE PTR [eax+40], 1

; 316  : 				}
; 317  : 				m_now_Patch->iEvoi		= MML->GetInt();

  0054c	8b c7		 mov	 eax, edi
  0054e	0f 84 33 03 00
	00		 je	 $L109854
  00554	e8 00 00 00 00	 call	 ?GetInt@MMLfile@@QAEHXZ	; MMLfile::GetInt
  00559	8b 4d 14	 mov	 ecx, DWORD PTR [ebp+20]
  0055c	89 41 04	 mov	 DWORD PTR [ecx+4], eax

; 318  : 				m_now_Patch->fEvoi		= true;

  0055f	8b 45 14	 mov	 eax, DWORD PTR [ebp+20]
  00562	c6 40 29 01	 mov	 BYTE PTR [eax+41], 1

; 319  : 				m_now_Patch->sw_Evoi	= true;

  00566	8b 45 14	 mov	 eax, DWORD PTR [ebp+20]
  00569	c6 40 33 01	 mov	 BYTE PTR [eax+51], 1

; 320  : 				break;

  0056d	e9 7f 02 00 00	 jmp	 $L24158
$L24089:

; 321  : 
; 322  : 			case(Patch_Evol):
; 323  : 				if(m_now_Patch->fEvol == true){

  00572	8d 5d 14	 lea	 ebx, DWORD PTR [ebp+20]
  00575	8b 03		 mov	 eax, DWORD PTR [ebx]
  00577	80 78 2a 01	 cmp	 BYTE PTR [eax+42], 1

; 325  : 				}
; 326  : 				m_now_Patch->iEvol		= MML->GetInt();

  0057b	8b c7		 mov	 eax, edi
  0057d	0f 84 0e 03 00
	00		 je	 $L109855
  00583	e8 00 00 00 00	 call	 ?GetInt@MMLfile@@QAEHXZ	; MMLfile::GetInt
  00588	8b 0b		 mov	 ecx, DWORD PTR [ebx]
  0058a	89 41 08	 mov	 DWORD PTR [ecx+8], eax

; 327  : 				m_now_Patch->fEvol		= true;

  0058d	8b 03		 mov	 eax, DWORD PTR [ebx]
  0058f	c6 40 2a 01	 mov	 BYTE PTR [eax+42], 1

; 328  : 				m_now_Patch->sw_Evol	= true;

  00593	8b 03		 mov	 eax, DWORD PTR [ebx]
  00595	c6 40 34 01	 mov	 BYTE PTR [eax+52], 1

; 329  : 				break;

  00599	e9 53 02 00 00	 jmp	 $L24158
$L24091:

; 330  : 
; 331  : 			case(Patch_Em):
; 332  : 				if(m_now_Patch->fEm == true){

  0059e	8d 5d 14	 lea	 ebx, DWORD PTR [ebp+20]
  005a1	8b 03		 mov	 eax, DWORD PTR [ebx]
  005a3	80 78 2b 01	 cmp	 BYTE PTR [eax+43], 1

; 334  : 				}
; 335  : 				m_now_Patch->iEm		= MML->GetInt();

  005a7	8b c7		 mov	 eax, edi
  005a9	0f 84 ec 02 00
	00		 je	 $L109856
  005af	e8 00 00 00 00	 call	 ?GetInt@MMLfile@@QAEHXZ	; MMLfile::GetInt
  005b4	8b 0b		 mov	 ecx, DWORD PTR [ebx]
  005b6	89 41 0c	 mov	 DWORD PTR [ecx+12], eax

; 336  : 				m_now_Patch->fEm		= true;

  005b9	8b 03		 mov	 eax, DWORD PTR [ebx]
  005bb	c6 40 2b 01	 mov	 BYTE PTR [eax+43], 1

; 337  : 				m_now_Patch->sw_Em		= true;

  005bf	8b 03		 mov	 eax, DWORD PTR [ebx]
  005c1	c6 40 35 01	 mov	 BYTE PTR [eax+53], 1

; 338  : 				break;

  005c5	e9 27 02 00 00	 jmp	 $L24158
$L24093:

; 339  : 
; 340  : 			case(Patch_En):
; 341  : 				if(m_now_Patch->fEn == true){

  005ca	8d 5d 14	 lea	 ebx, DWORD PTR [ebp+20]
  005cd	8b 03		 mov	 eax, DWORD PTR [ebx]
  005cf	80 78 2c 01	 cmp	 BYTE PTR [eax+44], 1

; 343  : 				}
; 344  : 				m_now_Patch->iEn		= MML->GetInt();

  005d3	8b c7		 mov	 eax, edi
  005d5	0f 84 c7 02 00
	00		 je	 $L109857
  005db	e8 00 00 00 00	 call	 ?GetInt@MMLfile@@QAEHXZ	; MMLfile::GetInt
  005e0	8b 0b		 mov	 ecx, DWORD PTR [ebx]
  005e2	89 41 10	 mov	 DWORD PTR [ecx+16], eax

; 345  : 				m_now_Patch->fEn		= true;

  005e5	8b 03		 mov	 eax, DWORD PTR [ebx]
  005e7	c6 40 2c 01	 mov	 BYTE PTR [eax+44], 1

; 346  : 				m_now_Patch->sw_En		= true;

  005eb	8b 03		 mov	 eax, DWORD PTR [ebx]
  005ed	c6 40 36 01	 mov	 BYTE PTR [eax+54], 1

; 347  : 				break;

  005f1	e9 fb 01 00 00	 jmp	 $L24158
$L24095:

; 348  : 
; 349  : 			case(Patch_Gate_q):
; 350  : 				if(m_now_Patch->fGate_q == true){

  005f6	8b 45 14	 mov	 eax, DWORD PTR [ebp+20]
  005f9	80 78 31 01	 cmp	 BYTE PTR [eax+49], 1

; 352  : 				}
; 353  : 				m_now_Patch->iGate_q	= MML->GetInt();

  005fd	8b c7		 mov	 eax, edi
  005ff	0f 84 a4 02 00
	00		 je	 $L109858
  00605	e8 00 00 00 00	 call	 ?GetInt@MMLfile@@QAEHXZ	; MMLfile::GetInt
  0060a	8b 4d 14	 mov	 ecx, DWORD PTR [ebp+20]
  0060d	89 41 20	 mov	 DWORD PTR [ecx+32], eax

; 354  : 				m_now_Patch->fGate_q	= true;

  00610	8b 45 14	 mov	 eax, DWORD PTR [ebp+20]
  00613	c6 40 31 01	 mov	 BYTE PTR [eax+49], 1

; 355  : 				break;

  00617	e9 d5 01 00 00	 jmp	 $L24158
$L24098:

; 356  : 
; 357  : 			case(Patch_Gate_u):
; 358  : 				if(m_now_Patch->fGate_u == true){

  0061c	8b 45 14	 mov	 eax, DWORD PTR [ebp+20]
  0061f	80 78 32 01	 cmp	 BYTE PTR [eax+50], 1
  00623	0f 84 87 02 00
	00		 je	 $L109859

; 360  : 				}
; 361  : 				cData = MML->GetChar();

  00629	e8 00 00 00 00	 call	 ?GetChar@MMLfile@@QAEDXZ ; MMLfile::GetChar

; 362  : 				if(cData == '0'){

  0062e	3c 30		 cmp	 al, 48			; 00000030H
  00630	75 04		 jne	 SHORT $L24101

; 363  : 					i = 0;

  00632	33 c0		 xor	 eax, eax

; 364  : 				} else {

  00634	eb 10		 jmp	 SHORT $L24102
$L24101:

; 365  : 					MML->Back();

  00636	8b c7		 mov	 eax, edi
  00638	e8 00 00 00 00	 call	 ?Back@MMLfile@@QAEXXZ	; MMLfile::Back

; 366  : 					i = MML->GetLength(-1);

  0063d	6a ff		 push	 -1
  0063f	8b c7		 mov	 eax, edi
  00641	e8 00 00 00 00	 call	 ?GetLength@MMLfile@@QAEHH@Z ; MMLfile::GetLength
$L24102:

; 367  : 				}
; 368  : 				m_now_Patch->iGate_u	= i;

  00646	8b 4d 14	 mov	 ecx, DWORD PTR [ebp+20]
  00649	89 41 24	 mov	 DWORD PTR [ecx+36], eax

; 369  : 				m_now_Patch->fGate_u	= true;

  0064c	8b 45 14	 mov	 eax, DWORD PTR [ebp+20]
  0064f	c6 40 32 01	 mov	 BYTE PTR [eax+50], 1

; 370  : 				break;

  00653	e9 99 01 00 00	 jmp	 $L24158
$L24103:

; 371  : 
; 372  : 			case(Patch_KeyShift):
; 373  : 				if(m_now_Patch->fKey == true){

  00658	8b 45 14	 mov	 eax, DWORD PTR [ebp+20]
  0065b	80 78 2d 01	 cmp	 BYTE PTR [eax+45], 1

; 375  : 				}
; 376  : 				m_now_Patch->iKey		= MML->GetInt();

  0065f	8b c7		 mov	 eax, edi
  00661	0f 84 50 02 00
	00		 je	 $L109860
  00667	e8 00 00 00 00	 call	 ?GetInt@MMLfile@@QAEHXZ	; MMLfile::GetInt
  0066c	8b 4d 14	 mov	 ecx, DWORD PTR [ebp+20]
  0066f	89 41 14	 mov	 DWORD PTR [ecx+20], eax

; 377  : 				m_now_Patch->fKey		= true;

  00672	8b 45 14	 mov	 eax, DWORD PTR [ebp+20]
  00675	c6 40 2d 01	 mov	 BYTE PTR [eax+45], 1

; 378  : 				break;

  00679	e9 73 01 00 00	 jmp	 $L24158
$L24106:

; 379  : 
; 380  : 			case(Patch_Sweep):
; 381  : 				if(m_now_Patch->fSweep == true){

  0067e	8b 45 14	 mov	 eax, DWORD PTR [ebp+20]
  00681	80 78 2e 01	 cmp	 BYTE PTR [eax+46], 1

; 383  : 				} else {
; 384  : 					int		iSpeed;
; 385  : 					int		iDepth;
; 386  : 					char	c;
; 387  : 
; 388  : 					iSpeed	= MML->GetInt();

  00685	8b c7		 mov	 eax, edi
  00687	0f 84 31 02 00
	00		 je	 $L109861
  0068d	e8 00 00 00 00	 call	 ?GetInt@MMLfile@@QAEHXZ	; MMLfile::GetInt
  00692	8b d8		 mov	 ebx, eax

; 389  : 					cData	= MML->GetChar();

  00694	e8 00 00 00 00	 call	 ?GetChar@MMLfile@@QAEDXZ ; MMLfile::GetChar

; 390  : 					if(cData != ','){

  00699	3c 2c		 cmp	 al, 44			; 0000002cH
  0069b	74 1f		 je	 SHORT $L24113

; 391  : 						if( (iSpeed < 0) || (iSpeed > 255) ){

  0069d	85 db		 test	 ebx, ebx
  0069f	0f 8c 20 02 00
	00		 jl	 $L109862
  006a5	81 fb ff 00 00
	00		 cmp	 ebx, 255		; 000000ffH
  006ab	0f 8f 14 02 00
	00		 jg	 $L109862

; 393  : 						}
; 394  : 						MML->Back();

  006b1	8b c7		 mov	 eax, edi
  006b3	e8 00 00 00 00	 call	 ?Back@MMLfile@@QAEXXZ	; MMLfile::Back

; 395  : 						c = (unsigned char)iSpeed;

  006b8	8a c3		 mov	 al, bl

; 396  : 					} else {

  006ba	eb 30		 jmp	 SHORT $L24118
$L24113:

; 397  : 						if( (iSpeed < 0) || (iSpeed > 15) ){

  006bc	85 db		 test	 ebx, ebx
  006be	0f 8c 0f 02 00
	00		 jl	 $L24120
  006c4	83 fb 0f	 cmp	 ebx, 15			; 0000000fH
  006c7	0f 8f 06 02 00
	00		 jg	 $L24120

; 399  : 						}
; 400  : 						iDepth = MML->GetInt();

  006cd	8b c7		 mov	 eax, edi
  006cf	e8 00 00 00 00	 call	 ?GetInt@MMLfile@@QAEHXZ	; MMLfile::GetInt

; 401  : 						if( (iDepth < 0) || (iDepth > 15) ){

  006d4	85 c0		 test	 eax, eax
  006d6	0f 8c f0 01 00
	00		 jl	 $L109864
  006dc	83 f8 0f	 cmp	 eax, 15			; 0000000fH
  006df	0f 8f e7 01 00
	00		 jg	 $L109864

; 403  : 						}
; 404  : 						c = (unsigned char)(((iSpeed & 0x0F) << 4) | (iDepth & 0x0F));

  006e5	24 0f		 and	 al, 15			; 0000000fH
  006e7	c0 e3 04	 shl	 bl, 4
  006ea	0a c3		 or	 al, bl
$L24118:

; 405  : 					}
; 406  : 					m_now_Patch->iSweep		= c;

  006ec	8b 4d 14	 mov	 ecx, DWORD PTR [ebp+20]
  006ef	88 41 18	 mov	 BYTE PTR [ecx+24], al

; 407  : 					m_now_Patch->fSweep		= true;
; 408  : 				}
; 409  : 				break;

  006f2	e9 9b 00 00 00	 jmp	 $L109881
$L24126:

; 410  : 
; 411  : 			case(Patch_n163set):
; 412  : 				if(m_now_Patch->fVoi == true){

  006f7	8b 45 14	 mov	 eax, DWORD PTR [ebp+20]
  006fa	80 78 28 01	 cmp	 BYTE PTR [eax+40], 1
  006fe	0f 84 d6 01 00
	00		 je	 $L109865

; 414  : 				}
; 415  : 				if(m_now_Patch->fEvoi == true){

  00704	80 78 29 01	 cmp	 BYTE PTR [eax+41], 1

; 417  : 				}
; 418  : 				i = MML->GetInt();

  00708	8b c7		 mov	 eax, edi
  0070a	0f 84 d1 01 00
	00		 je	 $L109866
  00710	e8 00 00 00 00	 call	 ?GetInt@MMLfile@@QAEHXZ	; MMLfile::GetInt

; 419  : 				if((i<0) || (i>252)){

  00715	85 c0		 test	 eax, eax
  00717	0f 8c e7 01 00
	00		 jl	 $L24132
  0071d	3d fc 00 00 00	 cmp	 eax, 252		; 000000fcH
  00722	0f 8f dc 01 00
	00		 jg	 $L24132

; 421  : 				}
; 422  : 				if((i % 4) != 0){

  00728	99		 cdq
  00729	8b ce		 mov	 ecx, esi
  0072b	f7 f9		 idiv	 ecx
  0072d	85 d2		 test	 edx, edx
  0072f	0f 85 b3 01 00
	00		 jne	 $L109868

; 424  : 				}
; 425  : 				m_now_Patch->iVoi		= i/4;

  00735	8b 4d 14	 mov	 ecx, DWORD PTR [ebp+20]
  00738	89 01		 mov	 DWORD PTR [ecx], eax

; 426  : 				m_now_Patch->fVoi		= true;

  0073a	8b 45 14	 mov	 eax, DWORD PTR [ebp+20]
  0073d	c6 40 28 01	 mov	 BYTE PTR [eax+40], 1

; 427  : 				m_now_Patch->sw_Evoi	= false;

  00741	8b 45 14	 mov	 eax, DWORD PTR [ebp+20]
  00744	88 50 33	 mov	 BYTE PTR [eax+51], dl

; 428  : 				cData = MML->GetChar();

  00747	e8 00 00 00 00	 call	 ?GetChar@MMLfile@@QAEDXZ ; MMLfile::GetChar

; 429  : 				if(cData == ','){

  0074c	3c 2c		 cmp	 al, 44			; 0000002cH
  0074e	0f 85 96 00 00
	00		 jne	 $L24149

; 430  : 					if(m_now_Patch->fSweep == true){

  00754	8b 45 14	 mov	 eax, DWORD PTR [ebp+20]
  00757	80 78 2e 01	 cmp	 BYTE PTR [eax+46], 1

; 432  : 					}
; 433  : 					i = MML->GetInt();

  0075b	8b c7		 mov	 eax, edi
  0075d	0f 84 8c 01 00
	00		 je	 $L109869
  00763	e8 00 00 00 00	 call	 ?GetInt@MMLfile@@QAEHXZ	; MMLfile::GetInt

; 434  : 					if((i<4) || (i>256)){

  00768	3b c6		 cmp	 eax, esi
  0076a	0f 8c 8d 01 00
	00		 jl	 $L24140
  00770	3d 00 01 00 00	 cmp	 eax, 256		; 00000100H
  00775	0f 8f 82 01 00
	00		 jg	 $L24140

; 436  : 					}
; 437  : 					if((i % 4) != 0){

  0077b	99		 cdq
  0077c	8b ce		 mov	 ecx, esi
  0077e	f7 f9		 idiv	 ecx
  00780	85 d2		 test	 edx, edx
  00782	0f 85 6e 01 00
	00		 jne	 $L109871

; 439  : 					}
; 440  : 					m_now_Patch->iSweep		= (unsigned char)(64 - (i/4));

  00788	b1 40		 mov	 cl, 64			; 00000040H
  0078a	2a c8		 sub	 cl, al
  0078c	8b 45 14	 mov	 eax, DWORD PTR [ebp+20]
  0078f	88 48 18	 mov	 BYTE PTR [eax+24], cl
$L109881:

; 441  : 					m_now_Patch->fSweep		= true;

  00792	8b 45 14	 mov	 eax, DWORD PTR [ebp+20]
  00795	c6 40 2e 01	 mov	 BYTE PTR [eax+46], 1

; 442  : 				} else {
; 443  : 					MML->Back();
; 444  : 				}
; 445  : 				break;

  00799	eb 56		 jmp	 SHORT $L24158
$L24146:

; 446  : 
; 447  : 			case(Patch_Sub):
; 448  : 				if(m_now_Patch->fSub == true){

  0079b	8b 45 14	 mov	 eax, DWORD PTR [ebp+20]
  0079e	80 78 2f 01	 cmp	 BYTE PTR [eax+47], 1

; 450  : 				}
; 451  : 				m_now_Patch->iSub		= MML->GetInt();

  007a2	8b c7		 mov	 eax, edi
  007a4	0f 84 61 01 00
	00		 je	 $L109872
  007aa	e8 00 00 00 00	 call	 ?GetInt@MMLfile@@QAEHXZ	; MMLfile::GetInt
  007af	8b 4d 14	 mov	 ecx, DWORD PTR [ebp+20]
  007b2	89 41 1c	 mov	 DWORD PTR [ecx+28], eax

; 452  : 				m_now_Patch->fSub		= true;

  007b5	8b 45 14	 mov	 eax, DWORD PTR [ebp+20]
  007b8	c6 40 2f 01	 mov	 BYTE PTR [eax+47], 1

; 453  : 
; 454  : 				cData = MML->GetChar();

  007bc	e8 00 00 00 00	 call	 ?GetChar@MMLfile@@QAEDXZ ; MMLfile::GetChar

; 455  : 				if(cData == ','){	//KtO

  007c1	3c 2c		 cmp	 al, 44			; 0000002cH
  007c3	75 25		 jne	 SHORT $L24149

; 456  : 					i = MML->GetInt();

  007c5	8b c7		 mov	 eax, edi
  007c7	e8 00 00 00 00	 call	 ?GetInt@MMLfile@@QAEHXZ	; MMLfile::GetInt

; 457  : 					switch(i){

  007cc	83 e8 00	 sub	 eax, 0
  007cf	74 10		 je	 SHORT $L24154
  007d1	48		 dec	 eax
  007d2	0f 85 3a 01 00
	00		 jne	 $L24156

; 460  : 							break;
; 461  : 						case(1):
; 462  : 							m_now_Patch->fSub_opt=true;

  007d8	8b 45 14	 mov	 eax, DWORD PTR [ebp+20]
  007db	c6 40 30 01	 mov	 BYTE PTR [eax+48], 1

; 463  : 							break;

  007df	eb 10		 jmp	 SHORT $L24158
$L24154:

; 458  : 						case(0):
; 459  : 							m_now_Patch->fSub_opt=false;

  007e1	8b 45 14	 mov	 eax, DWORD PTR [ebp+20]
  007e4	c6 40 30 00	 mov	 BYTE PTR [eax+48], 0

; 466  : 							break;
; 467  : 					}
; 468  : 				} else {

  007e8	eb 07		 jmp	 SHORT $L24158
$L24149:

; 469  : 					MML->Back();

  007ea	8b c7		 mov	 eax, edi
  007ec	e8 00 00 00 00	 call	 ?Back@MMLfile@@QAEXXZ	; MMLfile::Back
$L24158:
  007f1	e8 00 00 00 00	 call	 ?GetChar@MMLfile@@QAEDXZ ; MMLfile::GetChar
  007f6	3c 7d		 cmp	 al, 125			; 0000007dH
  007f8	0f 85 f3 fb ff
	ff		 jne	 $L24041
$L24042:

; 476  : 				break;
; 477  : 		}
; 478  : 	}
; 479  : 
; 480  : 	//Local Macro
; 481  : 	MML->DeleteMacro(1);

  007fe	6a 01		 push	 1
  00800	8b f7		 mov	 esi, edi
  00802	e8 00 00 00 00	 call	 ?DeleteMacro@MMLfile@@QAEXH@Z ; MMLfile::DeleteMacro

; 482  : 
; 483  : 	//Debug message@ioBj
; 484  : 	if(cOptionSW->cDebug & 0x01){

  00807	a1 00 00 00 00	 mov	 eax, DWORD PTR ?cOptionSW@@3PAVOPSW@@A ; cOptionSW
  0080c	f6 00 01	 test	 BYTE PTR [eax], 1
  0080f	74 07		 je	 SHORT $L24161

; 485  : 		DebugMsg();

  00811	8b fd		 mov	 edi, ebp
  00813	e8 00 00 00 00	 call	 ?DebugMsg@Patch@@QAEXXZ	; Patch::DebugMsg
$L24161:

; 486  : 	}
; 487  : }

  00818	8b 4c 24 10	 mov	 ecx, DWORD PTR __$EHRec$[esp+28]
  0081c	5f		 pop	 edi
  0081d	5e		 pop	 esi
  0081e	8b c5		 mov	 eax, ebp
  00820	5d		 pop	 ebp
  00821	5b		 pop	 ebx
  00822	64 89 0d 00 00
	00 00		 mov	 DWORD PTR fs:__except_list, ecx
  00829	c9		 leave
  0082a	c2 08 00	 ret	 8
$L109846:

; 196  : 			MML->Err(_T("ubNI[`}'B"));

  0082d	68 00 00 00 00	 push	 OFFSET FLAT:??_C@_1CK@NIHEMDFE@0?V0?m0?C0?$KP0n?$HNBz?o0?$JCy?30Y?$AA?$GA?$AA?$HN?$AA?80L0B0?$IK0?$HO0?$FL0?$JD0?$AC@
  00832	e9 e9 00 00 00	 jmp	 $L109884
$L109847:

; 268  : 					MML->Err(_T("FGx[v`B"));

  00837	68 00 00 00 00	 push	 OFFSET FLAT:??_C@_1DE@KNJKOFFK@?$JH?s?$ICr0?$KI0?s0?Y0?m0?$PM0?W0hT?$AMfB0k?$FL?$JK?$HP?$KJ0Y0?$IL0S0h0o0g@
  0083c	e9 dd 00 00 00	 jmp	 $L109883
$L109848:

; 271  : 					MML->Err(_T("FQd`B"));

  00841	68 00 00 00 00	 push	 OFFSET FLAT:??_C@_1BG@OGNIMPKO@?$JH?s?$ICr0n?$PP?$BC?$JB?M?$FL?$JK?$HP?$KJ0g0Y0?$AC?$AA?$AA@
  00846	e9 d5 00 00 00	 jmp	 $L109884
$L109849:

; 275  : 					MML->Err(_T("F0`255wB"));

  0084b	68 00 00 00 00	 push	 OFFSET FLAT:??_C@_1CM@IEKMDFIE@?$JH?s?$ICr0o?$AA0?$PP?$FO?$AA2?$AA5?$AA50n?$HL?DV?r0gc?$AH?$FL?$JK0W0f0O0?$GA0U0D@
  00850	e9 c9 00 00 00	 jmp	 $L109883
$L24073:

; 281  : 
; 282  : 			case(Patch_Off_Evoi):
; 283  : 				MML->Err(_T("FGx[vA@R}hB"));

  00855	68 00 00 00 00	 push	 OFFSET FLAT:??_C@_1DC@GHMDBEFP@?$JH?s?$ICr0?$KI0?s0?Y0?m0?$PM0?W0o0?$AB?$AA?$EA0?$LD0?$NO0?s0?I0gq?$CBR?$LJ0k0g@
  0085a	e9 bf 00 00 00	 jmp	 $L109883
$L109850:

; 288  : 					MML->Err(_T("Gx[vQd`B"));

  0085f	68 00 00 00 00	 push	 OFFSET FLAT:??_C@_1CC@OODHOOPP@?$JH?s?$JB?O0?$KI0?s0?Y0?m0?$PM0?W0n?$PP?$BC?$JB?M?$FL?$JK?$HP?$KJ0g0Y0?$AC?$AA?$AA@
  00864	e9 b5 00 00 00	 jmp	 $L109883
$L109851:

; 296  : 					MML->Err(_T("Gx[vQd`B"));

  00869	68 00 00 00 00	 push	 OFFSET FLAT:??_C@_1CC@HCKABCOF@?$JH?sz?$AL0?$KI0?s0?Y0?m0?$PM0?W0n?$PP?$BC?$JB?M?$FL?$JK?$HP?$KJ0g0Y0?$AC?$AA?$AA@
  0086e	e9 ab 00 00 00	 jmp	 $L109883
$L109852:

; 304  : 					MML->Err(_T("m[gGx[vQd`B"));

  00873	68 00 00 00 00	 push	 OFFSET FLAT:??_C@_1CE@MHEDGKOC@0?N0?$PM0?H0?$KI0?s0?Y0?m0?$PM0?W0n?$PP?$BC?$JB?M?$FL?$JK?$HP?$KJ0g0Y0?$AC?$AA?$AA@
  00878	e9 a1 00 00 00	 jmp	 $L109883
$L109853:

; 312  : 					MML->Err(_T("FGx[vQd`B"));

  0087d	68 00 00 00 00	 push	 OFFSET FLAT:??_C@_1CC@LNAFLFDL@?$JH?s?$ICr0?$KI0?s0?Y0?m0?$PM0?W0n?$PP?$BC?$JB?M?$FL?$JK?$HP?$KJ0g0Y0?$AC?$AA?$AA@
  00882	e9 97 00 00 00	 jmp	 $L109883
$L109854:

; 315  : 					MML->Err(_T("F`B"));

  00887	68 00 00 00 00	 push	 OFFSET FLAT:??_C@_1CI@FCLDAKAL@?$JH?s?$ICr0hT?$AMfB0k?$FL?$JK?$HP?$KJ0Y0?$IL0S0h0o0g0M0?$HO0?$FL0?$JD0?$AC?$AA?$AA@
  0088c	e9 8f 00 00 00	 jmp	 $L109884
$L109855:

; 324  : 					MML->Err(_T("Gx[vQd`B"));

  00891	68 00 00 00 00	 push	 OFFSET FLAT:??_C@_1CC@OODHOOPP@?$JH?s?$JB?O0?$KI0?s0?Y0?m0?$PM0?W0n?$PP?$BC?$JB?M?$FL?$JK?$HP?$KJ0g0Y0?$AC?$AA?$AA@
  00896	e9 85 00 00 00	 jmp	 $L109884
$L109856:

; 333  : 					MML->Err(_T("Gx[vQd`B"));

  0089b	68 00 00 00 00	 push	 OFFSET FLAT:??_C@_1CC@HCKABCOF@?$JH?sz?$AL0?$KI0?s0?Y0?m0?$PM0?W0n?$PP?$BC?$JB?M?$FL?$JK?$HP?$KJ0g0Y0?$AC?$AA?$AA@
  008a0	eb 7e		 jmp	 SHORT $L109884
$L109857:

; 342  : 					MML->Err(_T("m[gGx[vQd`B"));

  008a2	68 00 00 00 00	 push	 OFFSET FLAT:??_C@_1CE@MHEDGKOC@0?N0?$PM0?H0?$KI0?s0?Y0?m0?$PM0?W0n?$PP?$BC?$JB?M?$FL?$JK?$HP?$KJ0g0Y0?$AC?$AA?$AA@
  008a7	eb 77		 jmp	 SHORT $L109884
$L109858:

; 351  : 					MML->Err(_T("qR}hQd`B"));

  008a9	68 00 00 00 00	 push	 OFFSET FLAT:??_C@_1BM@CDGIHPDA@?$AAq0?$LD0?$NO0?s0?I0n?$PP?$BC?$JB?M?$FL?$JK?$HP?$KJ0g0Y0?$AC?$AA?$AA@
  008ae	eb 70		 jmp	 SHORT $L109884
$L109859:

; 359  : 					MML->Err(_T("uR}hQd`B"));

  008b0	68 00 00 00 00	 push	 OFFSET FLAT:??_C@_1BM@CFLPILEE@?$AAu0?$LD0?$NO0?s0?I0n?$PP?$BC?$JB?M?$FL?$JK?$HP?$KJ0g0Y0?$AC?$AA?$AA@
  008b5	eb 67		 jmp	 SHORT $L109883
$L109860:

; 374  : 					MML->Err(_T("Qd`B"));

  008b7	68 00 00 00 00	 push	 OFFSET FLAT:??_C@_1BG@DMDHOLIG@y?$PL?$IK?$LP0n?$PP?$BC?$JB?M?$FL?$JK?$HP?$KJ0g0Y0?$AC?$AA?$AA@
  008bc	eb 62		 jmp	 SHORT $L109884
$L109861:

; 382  : 					MML->Err(_T("sR}hQd`B"));

  008be	68 00 00 00 00	 push	 OFFSET FLAT:??_C@_1BM@CAADIFAK@?$AAs0?$LD0?$NO0?s0?I0n?$PP?$BC?$JB?M?$FL?$JK?$HP?$KJ0g0Y0?$AC?$AA?$AA@
  008c3	eb 5b		 jmp	 SHORT $L109884
$L109862:

; 392  : 							MML->Err(_T("sR}h0`255wB"));

  008c5	68 00 00 00 00	 push	 OFFSET FLAT:??_C@_1DC@OMNANPHO@?$AAs0?$LD0?$NO0?s0?I0o?$AA0?$PP?$FO?$AA2?$AA5?$AA50n?$HL?DV?r0gc?$AH?$FL?$JK0W0f0O@
  008ca	eb 52		 jmp	 SHORT $L109883
$L109864:

; 402  : 							MML->Err(_T("sR}h2p[^0`15wB"));

  008cc	68 00 00 00 00	 push	 OFFSET FLAT:??_C@_1EA@BHDCEFM@?$AAs0?$LD0?$NO0?s0?I0n?$HL?0?$AA20?Q0?i0?a0?$PM0?$LP0o?$AA0?$PP?$FO?$AA1?$AA50n?$HL?D@
  008d1	eb 4b		 jmp	 SHORT $L109883
$L24120:

; 398  : 							MML->Err(_T("sR}h1p[^0`15wB"));

  008d3	68 00 00 00 00	 push	 OFFSET FLAT:??_C@_1EA@FGFBAIAO@?$AAs0?$LD0?$NO0?s0?I0n?$HL?0?$AA10?Q0?i0?a0?$PM0?$LP0o?$AA0?$PP?$FO?$AA1?$AA50n?$HL?D@
  008d8	eb 44		 jmp	 SHORT $L109883
$L109865:

; 413  : 					MML->Err(_T("@R}hwB"));

  008da	68 00 00 00 00	 push	 OFFSET FLAT:??_C@_1CE@JMKANNFP@?$AA?$EA0?$LD0?$NO0?s0?I0Le?b0kc?$AH?$FL?$JK0U0?$IM0f0D0?$HO0Y0?$AC?$AA?$AA@
  008df	eb 3d		 jmp	 SHORT $L109883
$L109866:

; 416  : 					MML->Err(_T("E@R}hwB"));

  008e1	68 00 00 00 00	 push	 OFFSET FLAT:??_C@_1CG@DIPDDOH@?$AAE?$AA?$EA0?$LD0?$NO0?s0?I0Le?b0kc?$AH?$FL?$JK0U0?$IM0f0D0?$HO0Y0?$AC?$AA?$AA@
  008e6	eb 38		 jmp	 SHORT $L109884
$L109868:

; 423  : 					MML->Err(_T("n16xg`Jn_4{wB"));

  008e8	68 00 00 00 00	 push	 OFFSET FLAT:??_C@_1DE@ODMGCHFJ@?$AAn?$AA1?$AA6?$AAx0nl?b_b?$JF?$ILY?Kp?$LJ0o?$AA40nP?$ANep0gc?$AH?$FL?$JK0W0f@
  008ed	eb 2f		 jmp	 SHORT $L109883
$L109869:

; 431  : 						MML->Err(_T("sR}hwB"));

  008ef	68 00 00 00 00	 push	 OFFSET FLAT:??_C@_1CE@PCAGAE@?$AAs0?$LD0?$NO0?s0?I0Le?b0kc?$AH?$FL?$JK0U0?$IM0f0D0?$HO0Y0?$AC?$AA?$AA@
  008f4	eb 2a		 jmp	 SHORT $L109884
$L109871:

; 438  : 						MML->Err(_T("n16xTv4{wB"));

  008f6	68 00 00 00 00	 push	 OFFSET FLAT:??_C@_1DE@MPDFLMLF@?$AAn?$AA1?$AA6?$AAx0n0?$LF0?s0?W0?k?$JFw0o?$AA40nP?$ANep0gc?$AH?$FL?$JK0W0f@
  008fb	eb 21		 jmp	 SHORT $L109883
$L24140:

; 435  : 						MML->Err(_T("n16xTv4`256wB"));

  008fd	68 00 00 00 00	 push	 OFFSET FLAT:??_C@_1DM@DDNJDHDJ@?$AAn?$AA1?$AA6?$AAx0n0?$LF0?s0?W0?k?$JFw0o?$AA4?$PP?$FO?$AA2?$AA5?$AA60n?$HL?DV?r0g@
  00902	eb 1a		 jmp	 SHORT $L109883
$L24132:

; 420  : 					MML->Err(_T("n16xg`Jn_0`252wB"));

  00904	68 00 00 00 00	 push	 OFFSET FLAT:??_C@_1DM@DHGNPNAI@?$AAn?$AA1?$AA6?$AAx0nl?b_b?$JF?$ILY?Kp?$LJ0o?$AA0?$PP?$FO?$AA2?$AA5?$AA20n?$HL?DV?r0g@
  00909	eb 13		 jmp	 SHORT $L109883
$L109872:

; 449  : 					MML->Err(_T("Tu[`Qd`B"));

  0090b	68 00 00 00 00	 push	 OFFSET FLAT:??_C@_1BO@CKOOCKJC@0?$LF0?V0?k0?$PM0?A0?s0n?$PP?$BC?$JB?M?$FL?$JK?$HP?$KJ0g0Y0?$AC?$AA?$AA@
  00910	eb 0e		 jmp	 SHORT $L109884
$L24156:

; 464  : 						default:
; 465  : 							MML->Err(_T("Tu[`KtO0`1wB"));

  00912	68 00 00 00 00	 push	 OFFSET FLAT:??_C@_1DO@BDHNDBK@0?$LF0?V0?k0?$PM0?A0?s0ng?$AA?$JAiS?$BG0?U0?i0?$LA0o?$AA0?$PP?$FO?$AA10n?$HL?DV?r@
  00917	eb 05		 jmp	 SHORT $L109883
$L24159:

; 470  : 				}
; 471  : 				break;
; 472  : 		
; 473  : 		//unknown command
; 474  : 			default:
; 475  : 				MML->Err(_T("unknown command"));

  00919	68 00 00 00 00	 push	 OFFSET FLAT:??_C@_1CA@BFMKMMBP@?$AAu?$AAn?$AAk?$AAn?$AAo?$AAw?$AAn?$AA?5?$AAc?$AAo?$AAm?$AAm?$AAa?$AAn?$AAd?$AA?$AA@
$L109883:
  0091e	8b c7		 mov	 eax, edi
$L109884:
  00920	e8 00 00 00 00	 call	 ?Err@MMLfile@@QAEXQBG@Z	; MMLfile::Err
$L109887:
$L109877:
$L109885:

; 486  : 	}
; 487  : }

  00925	00 00 00 00	 DD	 $L24051
  00929	00 00 00 00	 DD	 $L24050
  0092d	00 00 00 00	 DD	 $L24052
  00931	00 00 00 00	 DD	 $L24053
  00935	00 00 00 00	 DD	 $L24054
  00939	00 00 00 00	 DD	 $L24055
  0093d	00 00 00 00	 DD	 $L24056
  00941	00 00 00 00	 DD	 $L24057
  00945	00 00 00 00	 DD	 $L24058
  00949	00 00 00 00	 DD	 $L24059
  0094d	00 00 00 00	 DD	 $L24060
  00951	00 00 00 00	 DD	 $L24061
  00955	00 00 00 00	 DD	 $L24062
  00959	00 00 00 00	 DD	 $L24063
  0095d	00 00 00 00	 DD	 $L24064
  00961	00 00 00 00	 DD	 $L24073
  00965	00 00 00 00	 DD	 $L24075
  00969	00 00 00 00	 DD	 $L24078
  0096d	00 00 00 00	 DD	 $L24081
  00971	00 00 00 00	 DD	 $L24084
  00975	00 00 00 00	 DD	 $L24089
  00979	00 00 00 00	 DD	 $L24091
  0097d	00 00 00 00	 DD	 $L24093
  00981	00 00 00 00	 DD	 $L24095
  00985	00 00 00 00	 DD	 $L24098
  00989	00 00 00 00	 DD	 $L24065
  0098d	00 00 00 00	 DD	 $L24103
  00991	00 00 00 00	 DD	 $L24126
  00995	00 00 00 00	 DD	 $L24106
  00999	00 00 00 00	 DD	 $L24146
$L109674:
  00d54	8b 75 08	 mov	 esi, DWORD PTR _this$[ebp]
  00d57	83 c6 04	 add	 esi, 4
  00d5a	e9 00 00 00 00	 jmp	 ??1?$map@IPAUpatch_scrap@@U?$less@I@std@@V?$allocator@U?$pair@$$CBIPAUpatch_scrap@@@std@@@3@@std@@QAE@XZ
__ehhandler$??0Patch@@QAE@PAVMMLfile@@H@Z:
  00d5f	b8 00 00 00 00	 mov	 eax, OFFSET FLAT:$T109842
  00d64	e9 00 00 00 00	 jmp	 ___CxxFrameHandler
??0Patch@@QAE@PAVMMLfile@@H@Z ENDP			; Patch::Patch
; Function compile flags: /Ogsy
; File c:\program files (x86)\microsoft visual studio .net 2003\vc7\include\xlocnum
;	COMDAT _$E3
text$yc	SEGMENT
_$E3	PROC NEAR					; COMDAT

; 806  : 		{	// initialize from _Locinfo object

  00000	83 25 00 00 00
	00 00		 and	 DWORD PTR ?id@?$num_put@DV?$ostreambuf_iterator@DU?$char_traits@D@std@@@std@@@std@@2V0locale@2@A, 0 ; std::num_put<char,std::ostreambuf_iterator<char,std::char_traits<char> > >::id
  00007	c3		 ret	 0
_$E3	ENDP
END
