PUBLIC	??A?$map@HPAVMusicTrack@@U?$less@H@std@@V?$allocator@U?$pair@$$CBHPAVMusicTrack@@@std@@@3@@std@@QAEAAPAVMusicTrack@@ABH@Z ; std::map<int,MusicTrack *,std::less<int>,std::allocator<std::pair<int const ,MusicTrack *> > >::operator[]
PUBLIC	?_Key@?$_Tree@V?$_Tmap_traits@HPAVMusicTrack@@U?$less@H@std@@V?$allocator@U?$pair@$$CBHPAVMusicTrack@@@std@@@3@$0A@@std@@@std@@KAABHPAU_Node@?$_Tree_nod@V?$_Tmap_traits@HPAVMusicTrack@@U?$less@H@std@@V?$allocator@U?$pair@$$CBHPAVMusicTrack@@@std@@@3@$0A@@std@@@2@@Z ; std::_Tree<std::_Tmap_traits<int,MusicTrack *,std::less<int>,std::allocator<std::pair<int const ,MusicTrack *> >,0> >::_Key
PUBLIC	?end@?$_Tree@V?$_Tmap_traits@HPAVMusicTrack@@U?$less@H@std@@V?$allocator@U?$pair@$$CBHPAVMusicTrack@@@std@@@3@$0A@@std@@@std@@QAE?AViterator@12@XZ ; std::_Tree<std::_Tmap_traits<int,MusicTrack *,std::less<int>,std::allocator<std::pair<int const ,MusicTrack *> >,0> >::end
PUBLIC	?insert@?$_Tree@V?$_Tmap_traits@HPAVMusicTrack@@U?$less@H@std@@V?$allocator@U?$pair@$$CBHPAVMusicTrack@@@std@@@3@$0A@@std@@@std@@QAE?AViterator@12@V312@ABU?$pair@$$CBHPAVMusicTrack@@@2@@Z ; std::_Tree<std::_Tmap_traits<int,MusicTrack *,std::less<int>,std::allocator<std::pair<int const ,MusicTrack *> >,0> >::insert
PUBLIC	?lower_bound@?$_Tree@V?$_Tmap_traits@HPAVMusicTrack@@U?$less@H@std@@V?$allocator@U?$pair@$$CBHPAVMusicTrack@@@std@@@3@$0A@@std@@@std@@QAE?AViterator@12@ABH@Z ; std::_Tree<std::_Tmap_traits<int,MusicTrack *,std::less<int>,std::allocator<std::pair<int const ,MusicTrack *> >,0> >::lower_bound
PUBLIC	??Diterator@?$_Tree@V?$_Tmap_traits@HPAVMusicTrack@@U?$less@H@std@@V?$allocator@U?$pair@$$CBHPAVMusicTrack@@@std@@@3@$0A@@std@@@std@@QBEAAU?$pair@$$CBHPAVMusicTrack@@@2@XZ ; std::_Tree<std::_Tmap_traits<int,MusicTrack *,std::less<int>,std::allocator<std::pair<int const ,MusicTrack *> >,0> >::iterator::operator*
PUBLIC	??8const_iterator@?$_Tree@V?$_Tmap_traits@HPAVMusicTrack@@U?$less@H@std@@V?$allocator@U?$pair@$$CBHPAVMusicTrack@@@std@@@3@$0A@@std@@@std@@QBE_NABV012@@Z ; std::_Tree<std::_Tmap_traits<int,MusicTrack *,std::less<int>,std::allocator<std::pair<int const ,MusicTrack *> >,0> >::const_iterator::operator==
PUBLIC	?_Mynode@const_iterator@?$_Tree@V?$_Tmap_traits@HPAVMusicTrack@@U?$less@H@std@@V?$allocator@U?$pair@$$CBHPAVMusicTrack@@@std@@@3@$0A@@std@@@std@@QBEPAU_Node@?$_Tree_nod@V?$_Tmap_traits@HPAVMusicTrack@@U?$less@H@std@@V?$allocator@U?$pair@$$CBHPAVMusicTrack@@@std@@@3@$0A@@std@@@3@XZ ; std::_Tree<std::_Tmap_traits<int,MusicTrack *,std::less<int>,std::allocator<std::pair<int const ,MusicTrack *> >,0> >::const_iterator::_Mynode
PUBLIC	??0?$pair@$$CBHPAVMusicTrack@@@std@@QAE@ABHABQAVMusicTrack@@@Z ; std::pair<int const ,MusicTrack *>::pair<int const ,MusicTrack *>
PUBLIC	?_Isnil@?$_Tree@V?$_Tmap_traits@HPAVMusicTrack@@U?$less@H@std@@V?$allocator@U?$pair@$$CBHPAVMusicTrack@@@std@@@3@$0A@@std@@@std@@KAAADPAU_Node@?$_Tree_nod@V?$_Tmap_traits@HPAVMusicTrack@@U?$less@H@std@@V?$allocator@U?$pair@$$CBHPAVMusicTrack@@@std@@@3@$0A@@std@@@2@@Z ; std::_Tree<std::_Tmap_traits<int,MusicTrack *,std::less<int>,std::allocator<std::pair<int const ,MusicTrack *> >,0> >::_Isnil
PUBLIC	?_Right@?$_Tree@V?$_Tmap_traits@HPAVMusicTrack@@U?$less@H@std@@V?$allocator@U?$pair@$$CBHPAVMusicTrack@@@std@@@3@$0A@@std@@@std@@KAAAPAU_Node@?$_Tree_nod@V?$_Tmap_traits@HPAVMusicTrack@@U?$less@H@std@@V?$allocator@U?$pair@$$CBHPAVMusicTrack@@@std@@@3@$0A@@std@@@2@PAU342@@Z ; std::_Tree<std::_Tmap_traits<int,MusicTrack *,std::less<int>,std::allocator<std::pair<int const ,MusicTrack *> >,0> >::_Right
PUBLIC	?_Myval@?$_Tree@V?$_Tmap_traits@HPAVMusicTrack@@U?$less@H@std@@V?$allocator@U?$pair@$$CBHPAVMusicTrack@@@std@@@3@$0A@@std@@@std@@KAAAU?$pair@$$CBHPAVMusicTrack@@@2@PAU_Node@?$_Tree_nod@V?$_Tmap_traits@HPAVMusicTrack@@U?$less@H@std@@V?$allocator@U?$pair@$$CBHPAVMusicTrack@@@std@@@3@$0A@@std@@@2@@Z ; std::_Tree<std::_Tmap_traits<int,MusicTrack *,std::less<int>,std::allocator<std::pair<int const ,MusicTrack *> >,0> >::_Myval
PUBLIC	?begin@?$_Tree@V?$_Tmap_traits@HPAVMusicTrack@@U?$less@H@std@@V?$allocator@U?$pair@$$CBHPAVMusicTrack@@@std@@@3@$0A@@std@@@std@@QAE?AViterator@12@XZ ; std::_Tree<std::_Tmap_traits<int,MusicTrack *,std::less<int>,std::allocator<std::pair<int const ,MusicTrack *> >,0> >::begin
PUBLIC	?size@?$_Tree@V?$_Tmap_traits@HPAVMusicTrack@@U?$less@H@std@@V?$allocator@U?$pair@$$CBHPAVMusicTrack@@@std@@@3@$0A@@std@@@std@@QBEIXZ ; std::_Tree<std::_Tmap_traits<int,MusicTrack *,std::less<int>,std::allocator<std::pair<int const ,MusicTrack *> >,0> >::size
PUBLIC	?insert@?$_Tree@V?$_Tmap_traits@HPAVMusicTrack@@U?$less@H@std@@V?$allocator@U?$pair@$$CBHPAVMusicTrack@@@std@@@3@$0A@@std@@@std@@QAE?AU?$pair@Viterator@?$_Tree@V?$_Tmap_traits@HPAVMusicTrack@@U?$less@H@std@@V?$allocator@U?$pair@$$CBHPAVMusicTrack@@@std@@@3@$0A@@std@@@std@@_N@2@ABU?$pair@$$CBHPAVMusicTrack@@@2@@Z ; std::_Tree<std::_Tmap_traits<int,MusicTrack *,std::less<int>,std::allocator<std::pair<int const ,MusicTrack *> >,0> >::insert
PUBLIC	?_Insert@?$_Tree@V?$_Tmap_traits@HPAVMusicTrack@@U?$less@H@std@@V?$allocator@U?$pair@$$CBHPAVMusicTrack@@@std@@@3@$0A@@std@@@std@@IAE?AViterator@12@_NPAU_Node@?$_Tree_nod@V?$_Tmap_traits@HPAVMusicTrack@@U?$less@H@std@@V?$allocator@U?$pair@$$CBHPAVMusicTrack@@@std@@@3@$0A@@std@@@2@ABU?$pair@$$CBHPAVMusicTrack@@@2@@Z ; std::_Tree<std::_Tmap_traits<int,MusicTrack *,std::less<int>,std::allocator<std::pair<int const ,MusicTrack *> >,0> >::_Insert
PUBLIC	?_Lbound@?$_Tree@V?$_Tmap_traits@HPAVMusicTrack@@U?$less@H@std@@V?$allocator@U?$pair@$$CBHPAVMusicTrack@@@std@@@3@$0A@@std@@@std@@IBEPAU_Node@?$_Tree_nod@V?$_Tmap_traits@HPAVMusicTrack@@U?$less@H@std@@V?$allocator@U?$pair@$$CBHPAVMusicTrack@@@std@@@3@$0A@@std@@@2@ABH@Z ; std::_Tree<std::_Tmap_traits<int,MusicTrack *,std::less<int>,std::allocator<std::pair<int const ,MusicTrack *> >,0> >::_Lbound
PUBLIC	?_Rmost@?$_Tree@V?$_Tmap_traits@HPAVMusicTrack@@U?$less@H@std@@V?$allocator@U?$pair@$$CBHPAVMusicTrack@@@std@@@3@$0A@@std@@@std@@IAEAAPAU_Node@?$_Tree_nod@V?$_Tmap_traits@HPAVMusicTrack@@U?$less@H@std@@V?$allocator@U?$pair@$$CBHPAVMusicTrack@@@std@@@3@$0A@@std@@@2@XZ ; std::_Tree<std::_Tmap_traits<int,MusicTrack *,std::less<int>,std::allocator<std::pair<int const ,MusicTrack *> >,0> >::_Rmost
PUBLIC	?_Kfn@?$_Tmap_traits@HPAVMusicTrack@@U?$less@H@std@@V?$allocator@U?$pair@$$CBHPAVMusicTrack@@@std@@@3@$0A@@std@@SAABHABU?$pair@$$CBHPAVMusicTrack@@@2@@Z ; std::_Tmap_traits<int,MusicTrack *,std::less<int>,std::allocator<std::pair<int const ,MusicTrack *> >,0>::_Kfn
PUBLIC	??0iterator@?$_Tree@V?$_Tmap_traits@HPAVMusicTrack@@U?$less@H@std@@V?$allocator@U?$pair@$$CBHPAVMusicTrack@@@std@@@3@$0A@@std@@@std@@QAE@XZ ; std::_Tree<std::_Tmap_traits<int,MusicTrack *,std::less<int>,std::allocator<std::pair<int const ,MusicTrack *> >,0> >::iterator::iterator
PUBLIC	??0iterator@?$_Tree@V?$_Tmap_traits@HPAVMusicTrack@@U?$less@H@std@@V?$allocator@U?$pair@$$CBHPAVMusicTrack@@@std@@@3@$0A@@std@@@std@@QAE@PAU_Node@?$_Tree_nod@V?$_Tmap_traits@HPAVMusicTrack@@U?$less@H@std@@V?$allocator@U?$pair@$$CBHPAVMusicTrack@@@std@@@3@$0A@@std@@@2@@Z ; std::_Tree<std::_Tmap_traits<int,MusicTrack *,std::less<int>,std::allocator<std::pair<int const ,MusicTrack *> >,0> >::iterator::iterator
PUBLIC	??Eiterator@?$_Tree@V?$_Tmap_traits@HPAVMusicTrack@@U?$less@H@std@@V?$allocator@U?$pair@$$CBHPAVMusicTrack@@@std@@@3@$0A@@std@@@std@@QAEAAV012@XZ ; std::_Tree<std::_Tmap_traits<int,MusicTrack *,std::less<int>,std::allocator<std::pair<int const ,MusicTrack *> >,0> >::iterator::operator++
PUBLIC	??Fiterator@?$_Tree@V?$_Tmap_traits@HPAVMusicTrack@@U?$less@H@std@@V?$allocator@U?$pair@$$CBHPAVMusicTrack@@@std@@@3@$0A@@std@@@std@@QAEAAV012@XZ ; std::_Tree<std::_Tmap_traits<int,MusicTrack *,std::less<int>,std::allocator<std::pair<int const ,MusicTrack *> >,0> >::iterator::operator--
PUBLIC	??Dconst_iterator@?$_Tree@V?$_Tmap_traits@HPAVMusicTrack@@U?$less@H@std@@V?$allocator@U?$pair@$$CBHPAVMusicTrack@@@std@@@3@$0A@@std@@@std@@QBEABU?$pair@$$CBHPAVMusicTrack@@@2@XZ ; std::_Tree<std::_Tmap_traits<int,MusicTrack *,std::less<int>,std::allocator<std::pair<int const ,MusicTrack *> >,0> >::const_iterator::operator*
PUBLIC	?_Color@?$_Tree@V?$_Tmap_traits@HPAVMusicTrack@@U?$less@H@std@@V?$allocator@U?$pair@$$CBHPAVMusicTrack@@@std@@@3@$0A@@std@@@std@@KAAADPAU_Node@?$_Tree_nod@V?$_Tmap_traits@HPAVMusicTrack@@U?$less@H@std@@V?$allocator@U?$pair@$$CBHPAVMusicTrack@@@std@@@3@$0A@@std@@@2@@Z ; std::_Tree<std::_Tmap_traits<int,MusicTrack *,std::less<int>,std::allocator<std::pair<int const ,MusicTrack *> >,0> >::_Color
PUBLIC	?_Left@?$_Tree@V?$_Tmap_traits@HPAVMusicTrack@@U?$less@H@std@@V?$allocator@U?$pair@$$CBHPAVMusicTrack@@@std@@@3@$0A@@std@@@std@@KAAAPAU_Node@?$_Tree_nod@V?$_Tmap_traits@HPAVMusicTrack@@U?$less@H@std@@V?$allocator@U?$pair@$$CBHPAVMusicTrack@@@std@@@3@$0A@@std@@@2@PAU342@@Z ; std::_Tree<std::_Tmap_traits<int,MusicTrack *,std::less<int>,std::allocator<std::pair<int const ,MusicTrack *> >,0> >::_Left
PUBLIC	?_Parent@?$_Tree@V?$_Tmap_traits@HPAVMusicTrack@@U?$less@H@std@@V?$allocator@U?$pair@$$CBHPAVMusicTrack@@@std@@@3@$0A@@std@@@std@@KAAAPAU_Node@?$_Tree_nod@V?$_Tmap_traits@HPAVMusicTrack@@U?$less@H@std@@V?$allocator@U?$pair@$$CBHPAVMusicTrack@@@std@@@3@$0A@@std@@@2@PAU342@@Z ; std::_Tree<std::_Tmap_traits<int,MusicTrack *,std::less<int>,std::allocator<std::pair<int const ,MusicTrack *> >,0> >::_Parent
PUBLIC	?max_size@?$_Tree@V?$_Tmap_traits@HPAVMusicTrack@@U?$less@H@std@@V?$allocator@U?$pair@$$CBHPAVMusicTrack@@@std@@@3@$0A@@std@@@std@@QBEIXZ ; std::_Tree<std::_Tmap_traits<int,MusicTrack *,std::less<int>,std::allocator<std::pair<int const ,MusicTrack *> >,0> >::max_size
PUBLIC	?_Lmost@?$_Tree@V?$_Tmap_traits@HPAVMusicTrack@@U?$less@H@std@@V?$allocator@U?$pair@$$CBHPAVMusicTrack@@@std@@@3@$0A@@std@@@std@@IAEAAPAU_Node@?$_Tree_nod@V?$_Tmap_traits@HPAVMusicTrack@@U?$less@H@std@@V?$allocator@U?$pair@$$CBHPAVMusicTrack@@@std@@@3@$0A@@std@@@2@XZ ; std::_Tree<std::_Tmap_traits<int,MusicTrack *,std::less<int>,std::allocator<std::pair<int const ,MusicTrack *> >,0> >::_Lmost
PUBLIC	?_Lrotate@?$_Tree@V?$_Tmap_traits@HPAVMusicTrack@@U?$less@H@std@@V?$allocator@U?$pair@$$CBHPAVMusicTrack@@@std@@@3@$0A@@std@@@std@@IAEXPAU_Node@?$_Tree_nod@V?$_Tmap_traits@HPAVMusicTrack@@U?$less@H@std@@V?$allocator@U?$pair@$$CBHPAVMusicTrack@@@std@@@3@$0A@@std@@@2@@Z ; std::_Tree<std::_Tmap_traits<int,MusicTrack *,std::less<int>,std::allocator<std::pair<int const ,MusicTrack *> >,0> >::_Lrotate
PUBLIC	?_Root@?$_Tree@V?$_Tmap_traits@HPAVMusicTrack@@U?$less@H@std@@V?$allocator@U?$pair@$$CBHPAVMusicTrack@@@std@@@3@$0A@@std@@@std@@IAEAAPAU_Node@?$_Tree_nod@V?$_Tmap_traits@HPAVMusicTrack@@U?$less@H@std@@V?$allocator@U?$pair@$$CBHPAVMusicTrack@@@std@@@3@$0A@@std@@@2@XZ ; std::_Tree<std::_Tmap_traits<int,MusicTrack *,std::less<int>,std::allocator<std::pair<int const ,MusicTrack *> >,0> >::_Root
PUBLIC	?_Root@?$_Tree@V?$_Tmap_traits@HPAVMusicTrack@@U?$less@H@std@@V?$allocator@U?$pair@$$CBHPAVMusicTrack@@@std@@@3@$0A@@std@@@std@@IBEAAPAU_Node@?$_Tree_nod@V?$_Tmap_traits@HPAVMusicTrack@@U?$less@H@std@@V?$allocator@U?$pair@$$CBHPAVMusicTrack@@@std@@@3@$0A@@std@@@2@XZ ; std::_Tree<std::_Tmap_traits<int,MusicTrack *,std::less<int>,std::allocator<std::pair<int const ,MusicTrack *> >,0> >::_Root
PUBLIC	?_Rrotate@?$_Tree@V?$_Tmap_traits@HPAVMusicTrack@@U?$less@H@std@@V?$allocator@U?$pair@$$CBHPAVMusicTrack@@@std@@@3@$0A@@std@@@std@@IAEXPAU_Node@?$_Tree_nod@V?$_Tmap_traits@HPAVMusicTrack@@U?$less@H@std@@V?$allocator@U?$pair@$$CBHPAVMusicTrack@@@std@@@3@$0A@@std@@@2@@Z ; std::_Tree<std::_Tmap_traits<int,MusicTrack *,std::less<int>,std::allocator<std::pair<int const ,MusicTrack *> >,0> >::_Rrotate
PUBLIC	?_Buynode@?$_Tree@V?$_Tmap_traits@HPAVMusicTrack@@U?$less@H@std@@V?$allocator@U?$pair@$$CBHPAVMusicTrack@@@std@@@3@$0A@@std@@@std@@IAEPAU_Node@?$_Tree_nod@V?$_Tmap_traits@HPAVMusicTrack@@U?$less@H@std@@V?$allocator@U?$pair@$$CBHPAVMusicTrack@@@std@@@3@$0A@@std@@@2@PAU342@00ABU?$pair@$$CBHPAVMusicTrack@@@2@D@Z ; std::_Tree<std::_Tmap_traits<int,MusicTrack *,std::less<int>,std::allocator<std::pair<int const ,MusicTrack *> >,0> >::_Buynode
PUBLIC	??0const_iterator@?$_Tree@V?$_Tmap_traits@HPAVMusicTrack@@U?$less@H@std@@V?$allocator@U?$pair@$$CBHPAVMusicTrack@@@std@@@3@$0A@@std@@@std@@QAE@XZ ; std::_Tree<std::_Tmap_traits<int,MusicTrack *,std::less<int>,std::allocator<std::pair<int const ,MusicTrack *> >,0> >::const_iterator::const_iterator
PUBLIC	??0const_iterator@?$_Tree@V?$_Tmap_traits@HPAVMusicTrack@@U?$less@H@std@@V?$allocator@U?$pair@$$CBHPAVMusicTrack@@@std@@@3@$0A@@std@@@std@@QAE@PAU_Node@?$_Tree_nod@V?$_Tmap_traits@HPAVMusicTrack@@U?$less@H@std@@V?$allocator@U?$pair@$$CBHPAVMusicTrack@@@std@@@3@$0A@@std@@@2@@Z ; std::_Tree<std::_Tmap_traits<int,MusicTrack *,std::less<int>,std::allocator<std::pair<int const ,MusicTrack *> >,0> >::const_iterator::const_iterator
PUBLIC	??Econst_iterator@?$_Tree@V?$_Tmap_traits@HPAVMusicTrack@@U?$less@H@std@@V?$allocator@U?$pair@$$CBHPAVMusicTrack@@@std@@@3@$0A@@std@@@std@@QAEAAV012@XZ ; std::_Tree<std::_Tmap_traits<int,MusicTrack *,std::less<int>,std::allocator<std::pair<int const ,MusicTrack *> >,0> >::const_iterator::operator++
PUBLIC	??Fconst_iterator@?$_Tree@V?$_Tmap_traits@HPAVMusicTrack@@U?$less@H@std@@V?$allocator@U?$pair@$$CBHPAVMusicTrack@@@std@@@3@$0A@@std@@@std@@QAEAAV012@XZ ; std::_Tree<std::_Tmap_traits<int,MusicTrack *,std::less<int>,std::allocator<std::pair<int const ,MusicTrack *> >,0> >::const_iterator::operator--
PUBLIC	??0?$pair@Viterator@?$_Tree@V?$_Tmap_traits@HPAVMusicTrack@@U?$less@H@std@@V?$allocator@U?$pair@$$CBHPAVMusicTrack@@@std@@@3@$0A@@std@@@std@@_N@std@@QAE@ABViterator@?$_Tree@V?$_Tmap_traits@HPAVMusicTrack@@U?$less@H@std@@V?$allocator@U?$pair@$$CBHPAVMusicTrack@@@std@@@3@$0A@@std@@@1@AB_N@Z ; std::pair<std::_Tree<std::_Tmap_traits<int,MusicTrack *,std::less<int>,std::allocator<std::pair<int const ,MusicTrack *> >,0> >::iterator,bool>::pair<std::_Tree<std::_Tmap_traits<int,MusicTrack *,std::less<int>,std::allocator<std::pair<int const ,MusicTrack *> >,0> >::iterator,bool>
PUBLIC	?max_size@?$allocator@U?$pair@$$CBHPAVMusicTrack@@@std@@@std@@QBEIXZ ; std::allocator<std::pair<int const ,MusicTrack *> >::max_size
PUBLIC	?deallocate@?$allocator@U_Node@?$_Tree_nod@V?$_Tmap_traits@HPAVMusicTrack@@U?$less@H@std@@V?$allocator@U?$pair@$$CBHPAVMusicTrack@@@std@@@3@$0A@@std@@@std@@@std@@QAEXPAU_Node@?$_Tree_nod@V?$_Tmap_traits@HPAVMusicTrack@@U?$less@H@std@@V?$allocator@U?$pair@$$CBHPAVMusicTrack@@@std@@@3@$0A@@std@@@2@I@Z ; std::allocator<std::_Tree_nod<std::_Tmap_traits<int,MusicTrack *,std::less<int>,std::allocator<std::pair<int const ,MusicTrack *> >,0> >::_Node>::deallocate
PUBLIC	?allocate@?$allocator@U_Node@?$_Tree_nod@V?$_Tmap_traits@HPAVMusicTrack@@U?$less@H@std@@V?$allocator@U?$pair@$$CBHPAVMusicTrack@@@std@@@3@$0A@@std@@@std@@@std@@QAEPAU_Node@?$_Tree_nod@V?$_Tmap_traits@HPAVMusicTrack@@U?$less@H@std@@V?$allocator@U?$pair@$$CBHPAVMusicTrack@@@std@@@3@$0A@@std@@@2@I@Z ; std::allocator<std::_Tree_nod<std::_Tmap_traits<int,MusicTrack *,std::less<int>,std::allocator<std::pair<int const ,MusicTrack *> >,0> >::_Node>::allocate
PUBLIC	?_Dec@const_iterator@?$_Tree@V?$_Tmap_traits@HPAVMusicTrack@@U?$less@H@std@@V?$allocator@U?$pair@$$CBHPAVMusicTrack@@@std@@@3@$0A@@std@@@std@@QAEXXZ ; std::_Tree<std::_Tmap_traits<int,MusicTrack *,std::less<int>,std::allocator<std::pair<int const ,MusicTrack *> >,0> >::const_iterator::_Dec
PUBLIC	?_Inc@const_iterator@?$_Tree@V?$_Tmap_traits@HPAVMusicTrack@@U?$less@H@std@@V?$allocator@U?$pair@$$CBHPAVMusicTrack@@@std@@@3@$0A@@std@@@std@@QAEXXZ ; std::_Tree<std::_Tmap_traits<int,MusicTrack *,std::less<int>,std::allocator<std::pair<int const ,MusicTrack *> >,0> >::const_iterator::_Inc
PUBLIC	??0_Node@?$_Tree_nod@V?$_Tmap_traits@HPAVMusicTrack@@U?$less@H@std@@V?$allocator@U?$pair@$$CBHPAVMusicTrack@@@std@@@3@$0A@@std@@@std@@QAE@PAU012@00ABU?$pair@$$CBHPAVMusicTrack@@@2@D@Z ; std::_Tree_nod<std::_Tmap_traits<int,MusicTrack *,std::less<int>,std::allocator<std::pair<int const ,MusicTrack *> >,0> >::_Node::_Node
PUBLIC	?_Max@?$_Tree@V?$_Tmap_traits@HPAVMusicTrack@@U?$less@H@std@@V?$allocator@U?$pair@$$CBHPAVMusicTrack@@@std@@@3@$0A@@std@@@std@@KAPAU_Node@?$_Tree_nod@V?$_Tmap_traits@HPAVMusicTrack@@U?$less@H@std@@V?$allocator@U?$pair@$$CBHPAVMusicTrack@@@std@@@3@$0A@@std@@@2@PAU342@@Z ; std::_Tree<std::_Tmap_traits<int,MusicTrack *,std::less<int>,std::allocator<std::pair<int const ,MusicTrack *> >,0> >::_Max
PUBLIC	?_Min@?$_Tree@V?$_Tmap_traits@HPAVMusicTrack@@U?$less@H@std@@V?$allocator@U?$pair@$$CBHPAVMusicTrack@@@std@@@3@$0A@@std@@@std@@KAPAU_Node@?$_Tree_nod@V?$_Tmap_traits@HPAVMusicTrack@@U?$less@H@std@@V?$allocator@U?$pair@$$CBHPAVMusicTrack@@@std@@@3@$0A@@std@@@2@PAU342@@Z ; std::_Tree<std::_Tmap_traits<int,MusicTrack *,std::less<int>,std::allocator<std::pair<int const ,MusicTrack *> >,0> >::_Min
PUBLIC	??$_Allocate@U_Node@?$_Tree_nod@V?$_Tmap_traits@HPAVMusicTrack@@U?$less@H@std@@V?$allocator@U?$pair@$$CBHPAVMusicTrack@@@std@@@3@$0A@@std@@@std@@@std@@YAPAU_Node@?$_Tree_nod@V?$_Tmap_traits@HPAVMusicTrack@@U?$less@H@std@@V?$allocator@U?$pair@$$CBHPAVMusicTrack@@@std@@@3@$0A@@std@@@0@IPAU120@@Z ; std::_Allocate<std::_Tree_nod<std::_Tmap_traits<int,MusicTrack *,std::less<int>,std::allocator<std::pair<int const ,MusicTrack *> >,0> >::_Node>
; Listing generated by Microsoft (R) Optimizing Compiler Version 13.10.3077 

	TITLE	.\Sub.cpp
	.386P
include listing.inc
if @Version gt 510
.model FLAT
else
;	COMDAT ??_C@_03KPDLEBHD@SUB?$AA@
CONST	SEGMENT DWORD USE32 PUBLIC 'CONST'
CONST	ENDS
text$yc	SEGMENT PARA USE32 PUBLIC 'CODE'
text$yc	ENDS
;	COMDAT ??A?$map@HPAVMusicTrack@@U?$less@H@std@@V?$allocator@U?$pair@$$CBHPAVMusicTrack@@@std@@@3@@std@@QAEAAPAVMusicTrack@@ABH@Z
_TEXT	SEGMENT PARA USE32 PUBLIC 'CODE'
_TEXT	ENDS
;	COMDAT ?_Key@?$_Tree@V?$_Tmap_traits@HPAVMusicTrack@@U?$less@H@std@@V?$allocator@U?$pair@$$CBHPAVMusicTrack@@@std@@@3@$0A@@std@@@std@@KAABHPAU_Node@?$_Tree_nod@V?$_Tmap_traits@HPAVMusicTrack@@U?$less@H@std@@V?$allocator@U?$pair@$$CBHPAVMusicTrack@@@std@@@3@$0A@@std@@@2@@Z
_TEXT	SEGMENT PARA USE32 PUBLIC 'CODE'
_TEXT	ENDS
;	COMDAT ?end@?$_Tree@V?$_Tmap_traits@HPAVMusicTrack@@U?$less@H@std@@V?$allocator@U?$pair@$$CBHPAVMusicTrack@@@std@@@3@$0A@@std@@@std@@QAE?AViterator@12@XZ
_TEXT	SEGMENT PARA USE32 PUBLIC 'CODE'
_TEXT	ENDS
;	COMDAT ?insert@?$_Tree@V?$_Tmap_traits@HPAVMusicTrack@@U?$less@H@std@@V?$allocator@U?$pair@$$CBHPAVMusicTrack@@@std@@@3@$0A@@std@@@std@@QAE?AViterator@12@V312@ABU?$pair@$$CBHPAVMusicTrack@@@2@@Z
_TEXT	SEGMENT PARA USE32 PUBLIC 'CODE'
_TEXT	ENDS
;	COMDAT ?lower_bound@?$_Tree@V?$_Tmap_traits@HPAVMusicTrack@@U?$less@H@std@@V?$allocator@U?$pair@$$CBHPAVMusicTrack@@@std@@@3@$0A@@std@@@std@@QAE?AViterator@12@ABH@Z
_TEXT	SEGMENT PARA USE32 PUBLIC 'CODE'
_TEXT	ENDS
;	COMDAT ??Diterator@?$_Tree@V?$_Tmap_traits@HPAVMusicTrack@@U?$less@H@std@@V?$allocator@U?$pair@$$CBHPAVMusicTrack@@@std@@@3@$0A@@std@@@std@@QBEAAU?$pair@$$CBHPAVMusicTrack@@@2@XZ
_TEXT	SEGMENT PARA USE32 PUBLIC 'CODE'
_TEXT	ENDS
;	COMDAT ??8const_iterator@?$_Tree@V?$_Tmap_traits@HPAVMusicTrack@@U?$less@H@std@@V?$allocator@U?$pair@$$CBHPAVMusicTrack@@@std@@@3@$0A@@std@@@std@@QBE_NABV012@@Z
_TEXT	SEGMENT PARA USE32 PUBLIC 'CODE'
_TEXT	ENDS
;	COMDAT ?_Mynode@const_iterator@?$_Tree@V?$_Tmap_traits@HPAVMusicTrack@@U?$less@H@std@@V?$allocator@U?$pair@$$CBHPAVMusicTrack@@@std@@@3@$0A@@std@@@std@@QBEPAU_Node@?$_Tree_nod@V?$_Tmap_traits@HPAVMusicTrack@@U?$less@H@std@@V?$allocator@U?$pair@$$CBHPAVMusicTrack@@@std@@@3@$0A@@std@@@3@XZ
_TEXT	SEGMENT PARA USE32 PUBLIC 'CODE'
_TEXT	ENDS
;	COMDAT ??0?$pair@$$CBHPAVMusicTrack@@@std@@QAE@ABHABQAVMusicTrack@@@Z
_TEXT	SEGMENT PARA USE32 PUBLIC 'CODE'
_TEXT	ENDS
;	COMDAT ?_Isnil@?$_Tree@V?$_Tmap_traits@HPAVMusicTrack@@U?$less@H@std@@V?$allocator@U?$pair@$$CBHPAVMusicTrack@@@std@@@3@$0A@@std@@@std@@KAAADPAU_Node@?$_Tree_nod@V?$_Tmap_traits@HPAVMusicTrack@@U?$less@H@std@@V?$allocator@U?$pair@$$CBHPAVMusicTrack@@@std@@@3@$0A@@std@@@2@@Z
_TEXT	SEGMENT PARA USE32 PUBLIC 'CODE'
_TEXT	ENDS
;	COMDAT ?_Right@?$_Tree@V?$_Tmap_traits@HPAVMusicTrack@@U?$less@H@std@@V?$allocator@U?$pair@$$CBHPAVMusicTrack@@@std@@@3@$0A@@std@@@std@@KAAAPAU_Node@?$_Tree_nod@V?$_Tmap_traits@HPAVMusicTrack@@U?$less@H@std@@V?$allocator@U?$pair@$$CBHPAVMusicTrack@@@std@@@3@$0A@@std@@@2@PAU342@@Z
_TEXT	SEGMENT PARA USE32 PUBLIC 'CODE'
_TEXT	ENDS
;	COMDAT ?_Myval@?$_Tree@V?$_Tmap_traits@HPAVMusicTrack@@U?$less@H@std@@V?$allocator@U?$pair@$$CBHPAVMusicTrack@@@std@@@3@$0A@@std@@@std@@KAAAU?$pair@$$CBHPAVMusicTrack@@@2@PAU_Node@?$_Tree_nod@V?$_Tmap_traits@HPAVMusicTrack@@U?$less@H@std@@V?$allocator@U?$pair@$$CBHPAVMusicTrack@@@std@@@3@$0A@@std@@@2@@Z
_TEXT	SEGMENT PARA USE32 PUBLIC 'CODE'
_TEXT	ENDS
;	COMDAT ?begin@?$_Tree@V?$_Tmap_traits@HPAVMusicTrack@@U?$less@H@std@@V?$allocator@U?$pair@$$CBHPAVMusicTrack@@@std@@@3@$0A@@std@@@std@@QAE?AViterator@12@XZ
_TEXT	SEGMENT PARA USE32 PUBLIC 'CODE'
_TEXT	ENDS
;	COMDAT ?size@?$_Tree@V?$_Tmap_traits@HPAVMusicTrack@@U?$less@H@std@@V?$allocator@U?$pair@$$CBHPAVMusicTrack@@@std@@@3@$0A@@std@@@std@@QBEIXZ
_TEXT	SEGMENT PARA USE32 PUBLIC 'CODE'
_TEXT	ENDS
;	COMDAT ?insert@?$_Tree@V?$_Tmap_traits@HPAVMusicTrack@@U?$less@H@std@@V?$allocator@U?$pair@$$CBHPAVMusicTrack@@@std@@@3@$0A@@std@@@std@@QAE?AU?$pair@Viterator@?$_Tree@V?$_Tmap_traits@HPAVMusicTrack@@U?$less@H@std@@V?$allocator@U?$pair@$$CBHPAVMusicTrack@@@std@@@3@$0A@@std@@@std@@_N@2@ABU?$pair@$$CBHPAVMusicTrack@@@2@@Z
_TEXT	SEGMENT PARA USE32 PUBLIC 'CODE'
_TEXT	ENDS
;	COMDAT ?_Insert@?$_Tree@V?$_Tmap_traits@HPAVMusicTrack@@U?$less@H@std@@V?$allocator@U?$pair@$$CBHPAVMusicTrack@@@std@@@3@$0A@@std@@@std@@IAE?AViterator@12@_NPAU_Node@?$_Tree_nod@V?$_Tmap_traits@HPAVMusicTrack@@U?$less@H@std@@V?$allocator@U?$pair@$$CBHPAVMusicTrack@@@std@@@3@$0A@@std@@@2@ABU?$pair@$$CBHPAVMusicTrack@@@2@@Z
_TEXT	SEGMENT PARA USE32 PUBLIC 'CODE'
_TEXT	ENDS
;	COMDAT ?_Lbound@?$_Tree@V?$_Tmap_traits@HPAVMusicTrack@@U?$less@H@std@@V?$allocator@U?$pair@$$CBHPAVMusicTrack@@@std@@@3@$0A@@std@@@std@@IBEPAU_Node@?$_Tree_nod@V?$_Tmap_traits@HPAVMusicTrack@@U?$less@H@std@@V?$allocator@U?$pair@$$CBHPAVMusicTrack@@@std@@@3@$0A@@std@@@2@ABH@Z
_TEXT	SEGMENT PARA USE32 PUBLIC 'CODE'
_TEXT	ENDS
;	COMDAT ?_Rmost@?$_Tree@V?$_Tmap_traits@HPAVMusicTrack@@U?$less@H@std@@V?$allocator@U?$pair@$$CBHPAVMusicTrack@@@std@@@3@$0A@@std@@@std@@IAEAAPAU_Node@?$_Tree_nod@V?$_Tmap_traits@HPAVMusicTrack@@U?$less@H@std@@V?$allocator@U?$pair@$$CBHPAVMusicTrack@@@std@@@3@$0A@@std@@@2@XZ
_TEXT	SEGMENT PARA USE32 PUBLIC 'CODE'
_TEXT	ENDS
;	COMDAT ?_Kfn@?$_Tmap_traits@HPAVMusicTrack@@U?$less@H@std@@V?$allocator@U?$pair@$$CBHPAVMusicTrack@@@std@@@3@$0A@@std@@SAABHABU?$pair@$$CBHPAVMusicTrack@@@2@@Z
_TEXT	SEGMENT PARA USE32 PUBLIC 'CODE'
_TEXT	ENDS
;	COMDAT ??0iterator@?$_Tree@V?$_Tmap_traits@HPAVMusicTrack@@U?$less@H@std@@V?$allocator@U?$pair@$$CBHPAVMusicTrack@@@std@@@3@$0A@@std@@@std@@QAE@XZ
_TEXT	SEGMENT PARA USE32 PUBLIC 'CODE'
_TEXT	ENDS
;	COMDAT ??0iterator@?$_Tree@V?$_Tmap_traits@HPAVMusicTrack@@U?$less@H@std@@V?$allocator@U?$pair@$$CBHPAVMusicTrack@@@std@@@3@$0A@@std@@@std@@QAE@PAU_Node@?$_Tree_nod@V?$_Tmap_traits@HPAVMusicTrack@@U?$less@H@std@@V?$allocator@U?$pair@$$CBHPAVMusicTrack@@@std@@@3@$0A@@std@@@2@@Z
_TEXT	SEGMENT PARA USE32 PUBLIC 'CODE'
_TEXT	ENDS
;	COMDAT ??Eiterator@?$_Tree@V?$_Tmap_traits@HPAVMusicTrack@@U?$less@H@std@@V?$allocator@U?$pair@$$CBHPAVMusicTrack@@@std@@@3@$0A@@std@@@std@@QAEAAV012@XZ
_TEXT	SEGMENT PARA USE32 PUBLIC 'CODE'
_TEXT	ENDS
;	COMDAT ??Fiterator@?$_Tree@V?$_Tmap_traits@HPAVMusicTrack@@U?$less@H@std@@V?$allocator@U?$pair@$$CBHPAVMusicTrack@@@std@@@3@$0A@@std@@@std@@QAEAAV012@XZ
_TEXT	SEGMENT PARA USE32 PUBLIC 'CODE'
_TEXT	ENDS
;	COMDAT ??Dconst_iterator@?$_Tree@V?$_Tmap_traits@HPAVMusicTrack@@U?$less@H@std@@V?$allocator@U?$pair@$$CBHPAVMusicTrack@@@std@@@3@$0A@@std@@@std@@QBEABU?$pair@$$CBHPAVMusicTrack@@@2@XZ
_TEXT	SEGMENT PARA USE32 PUBLIC 'CODE'
_TEXT	ENDS
;	COMDAT ?_Color@?$_Tree@V?$_Tmap_traits@HPAVMusicTrack@@U?$less@H@std@@V?$allocator@U?$pair@$$CBHPAVMusicTrack@@@std@@@3@$0A@@std@@@std@@KAAADPAU_Node@?$_Tree_nod@V?$_Tmap_traits@HPAVMusicTrack@@U?$less@H@std@@V?$allocator@U?$pair@$$CBHPAVMusicTrack@@@std@@@3@$0A@@std@@@2@@Z
_TEXT	SEGMENT PARA USE32 PUBLIC 'CODE'
_TEXT	ENDS
;	COMDAT ?_Left@?$_Tree@V?$_Tmap_traits@HPAVMusicTrack@@U?$less@H@std@@V?$allocator@U?$pair@$$CBHPAVMusicTrack@@@std@@@3@$0A@@std@@@std@@KAAAPAU_Node@?$_Tree_nod@V?$_Tmap_traits@HPAVMusicTrack@@U?$less@H@std@@V?$allocator@U?$pair@$$CBHPAVMusicTrack@@@std@@@3@$0A@@std@@@2@PAU342@@Z
_TEXT	SEGMENT PARA USE32 PUBLIC 'CODE'
_TEXT	ENDS
;	COMDAT ?_Parent@?$_Tree@V?$_Tmap_traits@HPAVMusicTrack@@U?$less@H@std@@V?$allocator@U?$pair@$$CBHPAVMusicTrack@@@std@@@3@$0A@@std@@@std@@KAAAPAU_Node@?$_Tree_nod@V?$_Tmap_traits@HPAVMusicTrack@@U?$less@H@std@@V?$allocator@U?$pair@$$CBHPAVMusicTrack@@@std@@@3@$0A@@std@@@2@PAU342@@Z
_TEXT	SEGMENT PARA USE32 PUBLIC 'CODE'
_TEXT	ENDS
;	COMDAT ?max_size@?$_Tree@V?$_Tmap_traits@HPAVMusicTrack@@U?$less@H@std@@V?$allocator@U?$pair@$$CBHPAVMusicTrack@@@std@@@3@$0A@@std@@@std@@QBEIXZ
_TEXT	SEGMENT PARA USE32 PUBLIC 'CODE'
_TEXT	ENDS
;	COMDAT ?_Lmost@?$_Tree@V?$_Tmap_traits@HPAVMusicTrack@@U?$less@H@std@@V?$allocator@U?$pair@$$CBHPAVMusicTrack@@@std@@@3@$0A@@std@@@std@@IAEAAPAU_Node@?$_Tree_nod@V?$_Tmap_traits@HPAVMusicTrack@@U?$less@H@std@@V?$allocator@U?$pair@$$CBHPAVMusicTrack@@@std@@@3@$0A@@std@@@2@XZ
_TEXT	SEGMENT PARA USE32 PUBLIC 'CODE'
_TEXT	ENDS
;	COMDAT ?_Lrotate@?$_Tree@V?$_Tmap_traits@HPAVMusicTrack@@U?$less@H@std@@V?$allocator@U?$pair@$$CBHPAVMusicTrack@@@std@@@3@$0A@@std@@@std@@IAEXPAU_Node@?$_Tree_nod@V?$_Tmap_traits@HPAVMusicTrack@@U?$less@H@std@@V?$allocator@U?$pair@$$CBHPAVMusicTrack@@@std@@@3@$0A@@std@@@2@@Z
_TEXT	SEGMENT PARA USE32 PUBLIC 'CODE'
_TEXT	ENDS
;	COMDAT ?_Root@?$_Tree@V?$_Tmap_traits@HPAVMusicTrack@@U?$less@H@std@@V?$allocator@U?$pair@$$CBHPAVMusicTrack@@@std@@@3@$0A@@std@@@std@@IAEAAPAU_Node@?$_Tree_nod@V?$_Tmap_traits@HPAVMusicTrack@@U?$less@H@std@@V?$allocator@U?$pair@$$CBHPAVMusicTrack@@@std@@@3@$0A@@std@@@2@XZ
_TEXT	SEGMENT PARA USE32 PUBLIC 'CODE'
_TEXT	ENDS
;	COMDAT ?_Root@?$_Tree@V?$_Tmap_traits@HPAVMusicTrack@@U?$less@H@std@@V?$allocator@U?$pair@$$CBHPAVMusicTrack@@@std@@@3@$0A@@std@@@std@@IBEAAPAU_Node@?$_Tree_nod@V?$_Tmap_traits@HPAVMusicTrack@@U?$less@H@std@@V?$allocator@U?$pair@$$CBHPAVMusicTrack@@@std@@@3@$0A@@std@@@2@XZ
_TEXT	SEGMENT PARA USE32 PUBLIC 'CODE'
_TEXT	ENDS
;	COMDAT ?_Rrotate@?$_Tree@V?$_Tmap_traits@HPAVMusicTrack@@U?$less@H@std@@V?$allocator@U?$pair@$$CBHPAVMusicTrack@@@std@@@3@$0A@@std@@@std@@IAEXPAU_Node@?$_Tree_nod@V?$_Tmap_traits@HPAVMusicTrack@@U?$less@H@std@@V?$allocator@U?$pair@$$CBHPAVMusicTrack@@@std@@@3@$0A@@std@@@2@@Z
_TEXT	SEGMENT PARA USE32 PUBLIC 'CODE'
_TEXT	ENDS
;	COMDAT ?_Buynode@?$_Tree@V?$_Tmap_traits@HPAVMusicTrack@@U?$less@H@std@@V?$allocator@U?$pair@$$CBHPAVMusicTrack@@@std@@@3@$0A@@std@@@std@@IAEPAU_Node@?$_Tree_nod@V?$_Tmap_traits@HPAVMusicTrack@@U?$less@H@std@@V?$allocator@U?$pair@$$CBHPAVMusicTrack@@@std@@@3@$0A@@std@@@2@PAU342@00ABU?$pair@$$CBHPAVMusicTrack@@@2@D@Z
_TEXT	SEGMENT PARA USE32 PUBLIC 'CODE'
_TEXT	ENDS
;	COMDAT ??0const_iterator@?$_Tree@V?$_Tmap_traits@HPAVMusicTrack@@U?$less@H@std@@V?$allocator@U?$pair@$$CBHPAVMusicTrack@@@std@@@3@$0A@@std@@@std@@QAE@XZ
_TEXT	SEGMENT PARA USE32 PUBLIC 'CODE'
_TEXT	ENDS
;	COMDAT ??0const_iterator@?$_Tree@V?$_Tmap_traits@HPAVMusicTrack@@U?$less@H@std@@V?$allocator@U?$pair@$$CBHPAVMusicTrack@@@std@@@3@$0A@@std@@@std@@QAE@PAU_Node@?$_Tree_nod@V?$_Tmap_traits@HPAVMusicTrack@@U?$less@H@std@@V?$allocator@U?$pair@$$CBHPAVMusicTrack@@@std@@@3@$0A@@std@@@2@@Z
_TEXT	SEGMENT PARA USE32 PUBLIC 'CODE'
_TEXT	ENDS
;	COMDAT ??Econst_iterator@?$_Tree@V?$_Tmap_traits@HPAVMusicTrack@@U?$less@H@std@@V?$allocator@U?$pair@$$CBHPAVMusicTrack@@@std@@@3@$0A@@std@@@std@@QAEAAV012@XZ
_TEXT	SEGMENT PARA USE32 PUBLIC 'CODE'
_TEXT	ENDS
;	COMDAT ??Fconst_iterator@?$_Tree@V?$_Tmap_traits@HPAVMusicTrack@@U?$less@H@std@@V?$allocator@U?$pair@$$CBHPAVMusicTrack@@@std@@@3@$0A@@std@@@std@@QAEAAV012@XZ
_TEXT	SEGMENT PARA USE32 PUBLIC 'CODE'
_TEXT	ENDS
;	COMDAT ??0?$pair@Viterator@?$_Tree@V?$_Tmap_traits@HPAVMusicTrack@@U?$less@H@std@@V?$allocator@U?$pair@$$CBHPAVMusicTrack@@@std@@@3@$0A@@std@@@std@@_N@std@@QAE@ABViterator@?$_Tree@V?$_Tmap_traits@HPAVMusicTrack@@U?$less@H@std@@V?$allocator@U?$pair@$$CBHPAVMusicTrack@@@std@@@3@$0A@@std@@@1@AB_N@Z
_TEXT	SEGMENT PARA USE32 PUBLIC 'CODE'
_TEXT	ENDS
;	COMDAT ?max_size@?$allocator@U?$pair@$$CBHPAVMusicTrack@@@std@@@std@@QBEIXZ
_TEXT	SEGMENT PARA USE32 PUBLIC 'CODE'
_TEXT	ENDS
;	COMDAT ?deallocate@?$allocator@U_Node@?$_Tree_nod@V?$_Tmap_traits@HPAVMusicTrack@@U?$less@H@std@@V?$allocator@U?$pair@$$CBHPAVMusicTrack@@@std@@@3@$0A@@std@@@std@@@std@@QAEXPAU_Node@?$_Tree_nod@V?$_Tmap_traits@HPAVMusicTrack@@U?$less@H@std@@V?$allocator@U?$pair@$$CBHPAVMusicTrack@@@std@@@3@$0A@@std@@@2@I@Z
_TEXT	SEGMENT PARA USE32 PUBLIC 'CODE'
_TEXT	ENDS
;	COMDAT ?allocate@?$allocator@U_Node@?$_Tree_nod@V?$_Tmap_traits@HPAVMusicTrack@@U?$less@H@std@@V?$allocator@U?$pair@$$CBHPAVMusicTrack@@@std@@@3@$0A@@std@@@std@@@std@@QAEPAU_Node@?$_Tree_nod@V?$_Tmap_traits@HPAVMusicTrack@@U?$less@H@std@@V?$allocator@U?$pair@$$CBHPAVMusicTrack@@@std@@@3@$0A@@std@@@2@I@Z
_TEXT	SEGMENT PARA USE32 PUBLIC 'CODE'
_TEXT	ENDS
;	COMDAT ?_Dec@const_iterator@?$_Tree@V?$_Tmap_traits@HPAVMusicTrack@@U?$less@H@std@@V?$allocator@U?$pair@$$CBHPAVMusicTrack@@@std@@@3@$0A@@std@@@std@@QAEXXZ
_TEXT	SEGMENT PARA USE32 PUBLIC 'CODE'
_TEXT	ENDS
;	COMDAT ?_Inc@const_iterator@?$_Tree@V?$_Tmap_traits@HPAVMusicTrack@@U?$less@H@std@@V?$allocator@U?$pair@$$CBHPAVMusicTrack@@@std@@@3@$0A@@std@@@std@@QAEXXZ
_TEXT	SEGMENT PARA USE32 PUBLIC 'CODE'
_TEXT	ENDS
;	COMDAT ??0_Node@?$_Tree_nod@V?$_Tmap_traits@HPAVMusicTrack@@U?$less@H@std@@V?$allocator@U?$pair@$$CBHPAVMusicTrack@@@std@@@3@$0A@@std@@@std@@QAE@PAU012@00ABU?$pair@$$CBHPAVMusicTrack@@@2@D@Z
_TEXT	SEGMENT PARA USE32 PUBLIC 'CODE'
_TEXT	ENDS
;	COMDAT ?_Max@?$_Tree@V?$_Tmap_traits@HPAVMusicTrack@@U?$less@H@std@@V?$allocator@U?$pair@$$CBHPAVMusicTrack@@@std@@@3@$0A@@std@@@std@@KAPAU_Node@?$_Tree_nod@V?$_Tmap_traits@HPAVMusicTrack@@U?$less@H@std@@V?$allocator@U?$pair@$$CBHPAVMusicTrack@@@std@@@3@$0A@@std@@@2@PAU342@@Z
_TEXT	SEGMENT PARA USE32 PUBLIC 'CODE'
_TEXT	ENDS
;	COMDAT ?_Min@?$_Tree@V?$_Tmap_traits@HPAVMusicTrack@@U?$less@H@std@@V?$allocator@U?$pair@$$CBHPAVMusicTrack@@@std@@@3@$0A@@std@@@std@@KAPAU_Node@?$_Tree_nod@V?$_Tmap_traits@HPAVMusicTrack@@U?$less@H@std@@V?$allocator@U?$pair@$$CBHPAVMusicTrack@@@std@@@3@$0A@@std@@@2@PAU342@@Z
_TEXT	SEGMENT PARA USE32 PUBLIC 'CODE'
_TEXT	ENDS
;	COMDAT _$E1
text$yc	SEGMENT PARA USE32 PUBLIC 'CODE'
text$yc	ENDS
;	COMDAT ??$_Allocate@U_Node@?$_Tree_nod@V?$_Tmap_traits@HPAVMusicTrack@@U?$less@H@std@@V?$allocator@U?$pair@$$CBHPAVMusicTrack@@@std@@@3@$0A@@std@@@std@@@std@@YAPAU_Node@?$_Tree_nod@V?$_Tmap_traits@HPAVMusicTrack@@U?$less@H@std@@V?$allocator@U?$pair@$$CBHPAVMusicTrack@@@std@@@3@$0A@@std@@@0@IPAU120@@Z
_TEXT	SEGMENT PARA USE32 PUBLIC 'CODE'
_TEXT	ENDS
;	COMDAT _$E3
text$yc	SEGMENT PARA USE32 PUBLIC 'CODE'
text$yc	ENDS
;	COMDAT _$E5
text$yc	SEGMENT PARA USE32 PUBLIC 'CODE'
text$yc	ENDS
;	COMDAT ??_7Sub@@6B@
CONST	SEGMENT DWORD USE32 PUBLIC 'CONST'
CONST	ENDS
FLAT	GROUP _DATA, CONST, _BSS
	ASSUME	CS: FLAT, DS: FLAT, SS: FLAT
endif

INCLUDELIB LIBCMT
INCLUDELIB OLDNAMES

PUBLIC	??_C@_03KPDLEBHD@SUB?$AA@			; `string'
PUBLIC	?getAsm@Sub@@UAEXPAVMusicFile@@@Z		; Sub::getAsm
PUBLIC	??_7Sub@@6B@					; Sub::`vftable'
;	COMDAT ??_C@_03KPDLEBHD@SUB?$AA@
CONST	SEGMENT
??_C@_03KPDLEBHD@SUB?$AA@ DB 'SUB', 00H			; `string'
CONST	ENDS
;	COMDAT ??_7Sub@@6B@
CONST	SEGMENT
??_7Sub@@6B@ DD	FLAT:?getCode@MusicItem@@UAEXPAV?$basic_string@DU?$char_traits@D@std@@V?$allocator@D@2@@std@@@Z ; Sub::`vftable'
	DD	FLAT:?setCode@MusicItem@@UAEXPAV?$basic_string@DU?$char_traits@D@std@@V?$allocator@D@2@@std@@@Z
	DD	FLAT:?getAsm@Sub@@UAEXPAVMusicFile@@@Z
; Function compile flags: /Ogsy
; File c:\program files (x86)\microsoft visual studio .net 2003\vc7\include\xmemory
;	COMDAT ??$_Allocate@U_Node@?$_Tree_nod@V?$_Tmap_traits@HPAVMusicTrack@@U?$less@H@std@@V?$allocator@U?$pair@$$CBHPAVMusicTrack@@@std@@@3@$0A@@std@@@std@@@std@@YAPAU_Node@?$_Tree_nod@V?$_Tmap_traits@HPAVMusicTrack@@U?$less@H@std@@V?$allocator@U?$pair@$$CBHPAVMusicTrack@@@std@@@3@$0A@@std@@@0@IPAU120@@Z
_TEXT	SEGMENT
??$_Allocate@U_Node@?$_Tree_nod@V?$_Tmap_traits@HPAVMusicTrack@@U?$less@H@std@@V?$allocator@U?$pair@$$CBHPAVMusicTrack@@@std@@@3@$0A@@std@@@std@@@std@@YAPAU_Node@?$_Tree_nod@V?$_Tmap_traits@HPAVMusicTrack@@U?$less@H@std@@V?$allocator@U?$pair@$$CBHPAVMusicTrack@@@std@@@3@$0A@@std@@@0@IPAU120@@Z PROC NEAR ; std::_Allocate<std::_Tree_nod<std::_Tmap_traits<int,MusicTrack *,std::less<int>,std::allocator<std::pair<int const ,MusicTrack *> >,0> >::_Node>, COMDAT
; __Count$ = eax

; 34   : 	return ((_Ty _FARQ *)operator new(_Count * sizeof (_Ty)));

  00000	8d 04 40	 lea	 eax, DWORD PTR [eax+eax*2]
  00003	c1 e0 03	 shl	 eax, 3
  00006	50		 push	 eax
  00007	e8 00 00 00 00	 call	 ??2@YAPAXI@Z		; operator new
  0000c	59		 pop	 ecx

; 35   : 	}

  0000d	c3		 ret	 0
??$_Allocate@U_Node@?$_Tree_nod@V?$_Tmap_traits@HPAVMusicTrack@@U?$less@H@std@@V?$allocator@U?$pair@$$CBHPAVMusicTrack@@@std@@@3@$0A@@std@@@std@@@std@@YAPAU_Node@?$_Tree_nod@V?$_Tmap_traits@HPAVMusicTrack@@U?$less@H@std@@V?$allocator@U?$pair@$$CBHPAVMusicTrack@@@std@@@3@$0A@@std@@@0@IPAU120@@Z ENDP ; std::_Allocate<std::_Tree_nod<std::_Tmap_traits<int,MusicTrack *,std::less<int>,std::allocator<std::pair<int const ,MusicTrack *> >,0> >::_Node>
; Function compile flags: /Ogsy
; File c:\program files (x86)\microsoft visual studio .net 2003\vc7\include\xtree
_TEXT	ENDS
;	COMDAT ??0_Node@?$_Tree_nod@V?$_Tmap_traits@HPAVMusicTrack@@U?$less@H@std@@V?$allocator@U?$pair@$$CBHPAVMusicTrack@@@std@@@3@$0A@@std@@@std@@QAE@PAU012@00ABU?$pair@$$CBHPAVMusicTrack@@@2@D@Z
_TEXT	SEGMENT
__Parg$ = 8						; size = 4
__Rarg$ = 12						; size = 4
__Carg$ = 16						; size = 1
??0_Node@?$_Tree_nod@V?$_Tmap_traits@HPAVMusicTrack@@U?$less@H@std@@V?$allocator@U?$pair@$$CBHPAVMusicTrack@@@std@@@3@$0A@@std@@@std@@QAE@PAU012@00ABU?$pair@$$CBHPAVMusicTrack@@@2@D@Z PROC NEAR ; std::_Tree_nod<std::_Tmap_traits<int,MusicTrack *,std::less<int>,std::allocator<std::pair<int const ,MusicTrack *> >,0> >::_Node::_Node, COMDAT
; _this$ = eax
; __Larg$ = edx
; __Val$ = ecx

; 40   : 			{	// construct a node with value

  00000	89 10		 mov	 DWORD PTR [eax], edx
  00002	8b 54 24 04	 mov	 edx, DWORD PTR __Parg$[esp-4]
  00006	89 50 04	 mov	 DWORD PTR [eax+4], edx
  00009	8b 54 24 08	 mov	 edx, DWORD PTR __Rarg$[esp-4]
  0000d	89 50 08	 mov	 DWORD PTR [eax+8], edx
  00010	8b 11		 mov	 edx, DWORD PTR [ecx]
  00012	89 50 0c	 mov	 DWORD PTR [eax+12], edx
  00015	8b 49 04	 mov	 ecx, DWORD PTR [ecx+4]
  00018	89 48 10	 mov	 DWORD PTR [eax+16], ecx
  0001b	8a 4c 24 0c	 mov	 cl, BYTE PTR __Carg$[esp-4]
  0001f	88 48 14	 mov	 BYTE PTR [eax+20], cl
  00022	c6 40 15 00	 mov	 BYTE PTR [eax+21], 0

; 41   : 			}

  00026	c2 0c 00	 ret	 12			; 0000000cH
??0_Node@?$_Tree_nod@V?$_Tmap_traits@HPAVMusicTrack@@U?$less@H@std@@V?$allocator@U?$pair@$$CBHPAVMusicTrack@@@std@@@3@$0A@@std@@@std@@QAE@PAU012@00ABU?$pair@$$CBHPAVMusicTrack@@@2@D@Z ENDP ; std::_Tree_nod<std::_Tmap_traits<int,MusicTrack *,std::less<int>,std::allocator<std::pair<int const ,MusicTrack *> >,0> >::_Node::_Node
; Function compile flags: /Ogsy
; File c:\program files (x86)\microsoft visual studio .net 2003\vc7\include\xmemory
_TEXT	ENDS
;	COMDAT ?allocate@?$allocator@U_Node@?$_Tree_nod@V?$_Tmap_traits@HPAVMusicTrack@@U?$less@H@std@@V?$allocator@U?$pair@$$CBHPAVMusicTrack@@@std@@@3@$0A@@std@@@std@@@std@@QAEPAU_Node@?$_Tree_nod@V?$_Tmap_traits@HPAVMusicTrack@@U?$less@H@std@@V?$allocator@U?$pair@$$CBHPAVMusicTrack@@@std@@@3@$0A@@std@@@2@I@Z
_TEXT	SEGMENT
?allocate@?$allocator@U_Node@?$_Tree_nod@V?$_Tmap_traits@HPAVMusicTrack@@U?$less@H@std@@V?$allocator@U?$pair@$$CBHPAVMusicTrack@@@std@@@3@$0A@@std@@@std@@@std@@QAEPAU_Node@?$_Tree_nod@V?$_Tmap_traits@HPAVMusicTrack@@U?$less@H@std@@V?$allocator@U?$pair@$$CBHPAVMusicTrack@@@std@@@3@$0A@@std@@@2@I@Z PROC NEAR ; std::allocator<std::_Tree_nod<std::_Tmap_traits<int,MusicTrack *,std::less<int>,std::allocator<std::pair<int const ,MusicTrack *> >,0> >::_Node>::allocate, COMDAT
; __Count$ = eax

; 137  : 		return (_Allocate(_Count, (pointer)0));

  00000	8d 04 40	 lea	 eax, DWORD PTR [eax+eax*2]
  00003	c1 e0 03	 shl	 eax, 3
  00006	50		 push	 eax
  00007	e8 00 00 00 00	 call	 ??2@YAPAXI@Z		; operator new
  0000c	59		 pop	 ecx

; 138  : 		}

  0000d	c3		 ret	 0
?allocate@?$allocator@U_Node@?$_Tree_nod@V?$_Tmap_traits@HPAVMusicTrack@@U?$less@H@std@@V?$allocator@U?$pair@$$CBHPAVMusicTrack@@@std@@@3@$0A@@std@@@std@@@std@@QAEPAU_Node@?$_Tree_nod@V?$_Tmap_traits@HPAVMusicTrack@@U?$less@H@std@@V?$allocator@U?$pair@$$CBHPAVMusicTrack@@@std@@@3@$0A@@std@@@2@I@Z ENDP ; std::allocator<std::_Tree_nod<std::_Tmap_traits<int,MusicTrack *,std::less<int>,std::allocator<std::pair<int const ,MusicTrack *> >,0> >::_Node>::allocate
; Function compile flags: /Ogsy
_TEXT	ENDS
;	COMDAT ?deallocate@?$allocator@U_Node@?$_Tree_nod@V?$_Tmap_traits@HPAVMusicTrack@@U?$less@H@std@@V?$allocator@U?$pair@$$CBHPAVMusicTrack@@@std@@@3@$0A@@std@@@std@@@std@@QAEXPAU_Node@?$_Tree_nod@V?$_Tmap_traits@HPAVMusicTrack@@U?$less@H@std@@V?$allocator@U?$pair@$$CBHPAVMusicTrack@@@std@@@3@$0A@@std@@@2@I@Z
_TEXT	SEGMENT
__Ptr$ = 8						; size = 4
?deallocate@?$allocator@U_Node@?$_Tree_nod@V?$_Tmap_traits@HPAVMusicTrack@@U?$less@H@std@@V?$allocator@U?$pair@$$CBHPAVMusicTrack@@@std@@@3@$0A@@std@@@std@@@std@@QAEXPAU_Node@?$_Tree_nod@V?$_Tmap_traits@HPAVMusicTrack@@U?$less@H@std@@V?$allocator@U?$pair@$$CBHPAVMusicTrack@@@std@@@3@$0A@@std@@@2@I@Z PROC NEAR ; std::allocator<std::_Tree_nod<std::_Tmap_traits<int,MusicTrack *,std::less<int>,std::allocator<std::pair<int const ,MusicTrack *> >,0> >::_Node>::deallocate, COMDAT

; 132  : 		operator delete(_Ptr);

  00000	ff 74 24 04	 push	 DWORD PTR __Ptr$[esp-4]
  00004	e8 00 00 00 00	 call	 ??3@YAXPAX@Z		; operator delete
  00009	59		 pop	 ecx

; 133  : 		}

  0000a	c2 04 00	 ret	 4
?deallocate@?$allocator@U_Node@?$_Tree_nod@V?$_Tmap_traits@HPAVMusicTrack@@U?$less@H@std@@V?$allocator@U?$pair@$$CBHPAVMusicTrack@@@std@@@3@$0A@@std@@@std@@@std@@QAEXPAU_Node@?$_Tree_nod@V?$_Tmap_traits@HPAVMusicTrack@@U?$less@H@std@@V?$allocator@U?$pair@$$CBHPAVMusicTrack@@@std@@@3@$0A@@std@@@2@I@Z ENDP ; std::allocator<std::_Tree_nod<std::_Tmap_traits<int,MusicTrack *,std::less<int>,std::allocator<std::pair<int const ,MusicTrack *> >,0> >::_Node>::deallocate
; Function compile flags: /Ogsy
_TEXT	ENDS
;	COMDAT ?max_size@?$allocator@U?$pair@$$CBHPAVMusicTrack@@@std@@@std@@QBEIXZ
_TEXT	SEGMENT
?max_size@?$allocator@U?$pair@$$CBHPAVMusicTrack@@@std@@@std@@QBEIXZ PROC NEAR ; std::allocator<std::pair<int const ,MusicTrack *> >::max_size, COMDAT

; 157  : 		_SIZT _Count = (_SIZT)(-1) / sizeof (_Ty);
; 158  : 		return (0 < _Count ? _Count : 1);

  00000	b8 ff ff ff 1f	 mov	 eax, 536870911		; 1fffffffH

; 159  : 		}

  00005	c3		 ret	 0
?max_size@?$allocator@U?$pair@$$CBHPAVMusicTrack@@@std@@@std@@QBEIXZ ENDP ; std::allocator<std::pair<int const ,MusicTrack *> >::max_size
; Function compile flags: /Ogsy
; File c:\program files (x86)\microsoft visual studio .net 2003\vc7\include\utility
_TEXT	ENDS
;	COMDAT ??0?$pair@Viterator@?$_Tree@V?$_Tmap_traits@HPAVMusicTrack@@U?$less@H@std@@V?$allocator@U?$pair@$$CBHPAVMusicTrack@@@std@@@3@$0A@@std@@@std@@_N@std@@QAE@ABViterator@?$_Tree@V?$_Tmap_traits@HPAVMusicTrack@@U?$less@H@std@@V?$allocator@U?$pair@$$CBHPAVMusicTrack@@@std@@@3@$0A@@std@@@1@AB_N@Z
_TEXT	SEGMENT
__Val2$ = 8						; size = 4
??0?$pair@Viterator@?$_Tree@V?$_Tmap_traits@HPAVMusicTrack@@U?$less@H@std@@V?$allocator@U?$pair@$$CBHPAVMusicTrack@@@std@@@3@$0A@@std@@@std@@_N@std@@QAE@ABViterator@?$_Tree@V?$_Tmap_traits@HPAVMusicTrack@@U?$less@H@std@@V?$allocator@U?$pair@$$CBHPAVMusicTrack@@@std@@@3@$0A@@std@@@1@AB_N@Z PROC NEAR ; std::pair<std::_Tree<std::_Tmap_traits<int,MusicTrack *,std::less<int>,std::allocator<std::pair<int const ,MusicTrack *> >,0> >::iterator,bool>::pair<std::_Tree<std::_Tmap_traits<int,MusicTrack *,std::less<int>,std::allocator<std::pair<int const ,MusicTrack *> >,0> >::iterator,bool>, COMDAT
; _this$ = eax
; __Val1$ = ecx

; 34   : 		{	// construct from specified values

  00000	8b 09		 mov	 ecx, DWORD PTR [ecx]
  00002	89 08		 mov	 DWORD PTR [eax], ecx
  00004	8b 4c 24 04	 mov	 ecx, DWORD PTR __Val2$[esp-4]
  00008	8a 09		 mov	 cl, BYTE PTR [ecx]
  0000a	88 48 04	 mov	 BYTE PTR [eax+4], cl

; 35   : 		}

  0000d	c2 04 00	 ret	 4
??0?$pair@Viterator@?$_Tree@V?$_Tmap_traits@HPAVMusicTrack@@U?$less@H@std@@V?$allocator@U?$pair@$$CBHPAVMusicTrack@@@std@@@3@$0A@@std@@@std@@_N@std@@QAE@ABViterator@?$_Tree@V?$_Tmap_traits@HPAVMusicTrack@@U?$less@H@std@@V?$allocator@U?$pair@$$CBHPAVMusicTrack@@@std@@@3@$0A@@std@@@1@AB_N@Z ENDP ; std::pair<std::_Tree<std::_Tmap_traits<int,MusicTrack *,std::less<int>,std::allocator<std::pair<int const ,MusicTrack *> >,0> >::iterator,bool>::pair<std::_Tree<std::_Tmap_traits<int,MusicTrack *,std::less<int>,std::allocator<std::pair<int const ,MusicTrack *> >,0> >::iterator,bool>
; Function compile flags: /Ogsy
; File c:\program files (x86)\microsoft visual studio .net 2003\vc7\include\xtree
_TEXT	ENDS
;	COMDAT ??0const_iterator@?$_Tree@V?$_Tmap_traits@HPAVMusicTrack@@U?$less@H@std@@V?$allocator@U?$pair@$$CBHPAVMusicTrack@@@std@@@3@$0A@@std@@@std@@QAE@PAU_Node@?$_Tree_nod@V?$_Tmap_traits@HPAVMusicTrack@@U?$less@H@std@@V?$allocator@U?$pair@$$CBHPAVMusicTrack@@@std@@@3@$0A@@std@@@2@@Z
_TEXT	SEGMENT
??0const_iterator@?$_Tree@V?$_Tmap_traits@HPAVMusicTrack@@U?$less@H@std@@V?$allocator@U?$pair@$$CBHPAVMusicTrack@@@std@@@3@$0A@@std@@@std@@QAE@PAU_Node@?$_Tree_nod@V?$_Tmap_traits@HPAVMusicTrack@@U?$less@H@std@@V?$allocator@U?$pair@$$CBHPAVMusicTrack@@@std@@@3@$0A@@std@@@2@@Z PROC NEAR ; std::_Tree<std::_Tmap_traits<int,MusicTrack *,std::less<int>,std::allocator<std::pair<int const ,MusicTrack *> >,0> >::const_iterator::const_iterator, COMDAT
; _this$ = eax
; __Pnode$ = ecx

; 200  : 			{	// construct with node pointer _Pnode

  00000	89 08		 mov	 DWORD PTR [eax], ecx

; 201  : 			}

  00002	c3		 ret	 0
??0const_iterator@?$_Tree@V?$_Tmap_traits@HPAVMusicTrack@@U?$less@H@std@@V?$allocator@U?$pair@$$CBHPAVMusicTrack@@@std@@@3@$0A@@std@@@std@@QAE@PAU_Node@?$_Tree_nod@V?$_Tmap_traits@HPAVMusicTrack@@U?$less@H@std@@V?$allocator@U?$pair@$$CBHPAVMusicTrack@@@std@@@3@$0A@@std@@@2@@Z ENDP ; std::_Tree<std::_Tmap_traits<int,MusicTrack *,std::less<int>,std::allocator<std::pair<int const ,MusicTrack *> >,0> >::const_iterator::const_iterator
; Function compile flags: /Ogsy
_TEXT	ENDS
;	COMDAT ??0const_iterator@?$_Tree@V?$_Tmap_traits@HPAVMusicTrack@@U?$less@H@std@@V?$allocator@U?$pair@$$CBHPAVMusicTrack@@@std@@@3@$0A@@std@@@std@@QAE@XZ
_TEXT	SEGMENT
??0const_iterator@?$_Tree@V?$_Tmap_traits@HPAVMusicTrack@@U?$less@H@std@@V?$allocator@U?$pair@$$CBHPAVMusicTrack@@@std@@@3@$0A@@std@@@std@@QAE@XZ PROC NEAR ; std::_Tree<std::_Tmap_traits<int,MusicTrack *,std::less<int>,std::allocator<std::pair<int const ,MusicTrack *> >,0> >::const_iterator::const_iterator, COMDAT
; _this$ = eax

; 193  : 			{	// construct with null node pointer

  00000	83 20 00	 and	 DWORD PTR [eax], 0

; 194  : 			}

  00003	c3		 ret	 0
??0const_iterator@?$_Tree@V?$_Tmap_traits@HPAVMusicTrack@@U?$less@H@std@@V?$allocator@U?$pair@$$CBHPAVMusicTrack@@@std@@@3@$0A@@std@@@std@@QAE@XZ ENDP ; std::_Tree<std::_Tmap_traits<int,MusicTrack *,std::less<int>,std::allocator<std::pair<int const ,MusicTrack *> >,0> >::const_iterator::const_iterator
; Function compile flags: /Ogsy
_TEXT	ENDS
;	COMDAT ?max_size@?$_Tree@V?$_Tmap_traits@HPAVMusicTrack@@U?$less@H@std@@V?$allocator@U?$pair@$$CBHPAVMusicTrack@@@std@@@3@$0A@@std@@@std@@QBEIXZ
_TEXT	SEGMENT
?max_size@?$_Tree@V?$_Tmap_traits@HPAVMusicTrack@@U?$less@H@std@@V?$allocator@U?$pair@$$CBHPAVMusicTrack@@@std@@@3@$0A@@std@@@std@@QBEIXZ PROC NEAR ; std::_Tree<std::_Tmap_traits<int,MusicTrack *,std::less<int>,std::allocator<std::pair<int const ,MusicTrack *> >,0> >::max_size, COMDAT

; 453  : 		return (this->_Alval.max_size());

  00000	b8 ff ff ff 1f	 mov	 eax, 536870911		; 1fffffffH

; 454  : 		}

  00005	c3		 ret	 0
?max_size@?$_Tree@V?$_Tmap_traits@HPAVMusicTrack@@U?$less@H@std@@V?$allocator@U?$pair@$$CBHPAVMusicTrack@@@std@@@3@$0A@@std@@@std@@QBEIXZ ENDP ; std::_Tree<std::_Tmap_traits<int,MusicTrack *,std::less<int>,std::allocator<std::pair<int const ,MusicTrack *> >,0> >::max_size
; Function compile flags: /Ogsy
_TEXT	ENDS
;	COMDAT ?_Parent@?$_Tree@V?$_Tmap_traits@HPAVMusicTrack@@U?$less@H@std@@V?$allocator@U?$pair@$$CBHPAVMusicTrack@@@std@@@3@$0A@@std@@@std@@KAAAPAU_Node@?$_Tree_nod@V?$_Tmap_traits@HPAVMusicTrack@@U?$less@H@std@@V?$allocator@U?$pair@$$CBHPAVMusicTrack@@@std@@@3@$0A@@std@@@2@PAU342@@Z
_TEXT	SEGMENT
?_Parent@?$_Tree@V?$_Tmap_traits@HPAVMusicTrack@@U?$less@H@std@@V?$allocator@U?$pair@$$CBHPAVMusicTrack@@@std@@@3@$0A@@std@@@std@@KAAAPAU_Node@?$_Tree_nod@V?$_Tmap_traits@HPAVMusicTrack@@U?$less@H@std@@V?$allocator@U?$pair@$$CBHPAVMusicTrack@@@std@@@3@$0A@@std@@@2@PAU342@@Z PROC NEAR ; std::_Tree<std::_Tmap_traits<int,MusicTrack *,std::less<int>,std::allocator<std::pair<int const ,MusicTrack *> >,0> >::_Parent, COMDAT
; __Pnode$ = eax

; 152  : 		return ((_Nodepref)(*_Pnode)._Parent);

  00000	83 c0 04	 add	 eax, 4

; 153  : 		}

  00003	c3		 ret	 0
?_Parent@?$_Tree@V?$_Tmap_traits@HPAVMusicTrack@@U?$less@H@std@@V?$allocator@U?$pair@$$CBHPAVMusicTrack@@@std@@@3@$0A@@std@@@std@@KAAAPAU_Node@?$_Tree_nod@V?$_Tmap_traits@HPAVMusicTrack@@U?$less@H@std@@V?$allocator@U?$pair@$$CBHPAVMusicTrack@@@std@@@3@$0A@@std@@@2@PAU342@@Z ENDP ; std::_Tree<std::_Tmap_traits<int,MusicTrack *,std::less<int>,std::allocator<std::pair<int const ,MusicTrack *> >,0> >::_Parent
; Function compile flags: /Ogsy
_TEXT	ENDS
;	COMDAT ?_Left@?$_Tree@V?$_Tmap_traits@HPAVMusicTrack@@U?$less@H@std@@V?$allocator@U?$pair@$$CBHPAVMusicTrack@@@std@@@3@$0A@@std@@@std@@KAAAPAU_Node@?$_Tree_nod@V?$_Tmap_traits@HPAVMusicTrack@@U?$less@H@std@@V?$allocator@U?$pair@$$CBHPAVMusicTrack@@@std@@@3@$0A@@std@@@2@PAU342@@Z
_TEXT	SEGMENT
?_Left@?$_Tree@V?$_Tmap_traits@HPAVMusicTrack@@U?$less@H@std@@V?$allocator@U?$pair@$$CBHPAVMusicTrack@@@std@@@3@$0A@@std@@@std@@KAAAPAU_Node@?$_Tree_nod@V?$_Tmap_traits@HPAVMusicTrack@@U?$less@H@std@@V?$allocator@U?$pair@$$CBHPAVMusicTrack@@@std@@@3@$0A@@std@@@2@PAU342@@Z PROC NEAR ; std::_Tree<std::_Tmap_traits<int,MusicTrack *,std::less<int>,std::allocator<std::pair<int const ,MusicTrack *> >,0> >::_Left, COMDAT
; __Pnode$ = eax

; 147  : 		return ((_Nodepref)(*_Pnode)._Left);
; 148  : 		}

  00000	c3		 ret	 0
?_Left@?$_Tree@V?$_Tmap_traits@HPAVMusicTrack@@U?$less@H@std@@V?$allocator@U?$pair@$$CBHPAVMusicTrack@@@std@@@3@$0A@@std@@@std@@KAAAPAU_Node@?$_Tree_nod@V?$_Tmap_traits@HPAVMusicTrack@@U?$less@H@std@@V?$allocator@U?$pair@$$CBHPAVMusicTrack@@@std@@@3@$0A@@std@@@2@PAU342@@Z ENDP ; std::_Tree<std::_Tmap_traits<int,MusicTrack *,std::less<int>,std::allocator<std::pair<int const ,MusicTrack *> >,0> >::_Left
; Function compile flags: /Ogsy
_TEXT	ENDS
;	COMDAT ?_Color@?$_Tree@V?$_Tmap_traits@HPAVMusicTrack@@U?$less@H@std@@V?$allocator@U?$pair@$$CBHPAVMusicTrack@@@std@@@3@$0A@@std@@@std@@KAAADPAU_Node@?$_Tree_nod@V?$_Tmap_traits@HPAVMusicTrack@@U?$less@H@std@@V?$allocator@U?$pair@$$CBHPAVMusicTrack@@@std@@@3@$0A@@std@@@2@@Z
_TEXT	SEGMENT
?_Color@?$_Tree@V?$_Tmap_traits@HPAVMusicTrack@@U?$less@H@std@@V?$allocator@U?$pair@$$CBHPAVMusicTrack@@@std@@@3@$0A@@std@@@std@@KAAADPAU_Node@?$_Tree_nod@V?$_Tmap_traits@HPAVMusicTrack@@U?$less@H@std@@V?$allocator@U?$pair@$$CBHPAVMusicTrack@@@std@@@3@$0A@@std@@@2@@Z PROC NEAR ; std::_Tree<std::_Tmap_traits<int,MusicTrack *,std::less<int>,std::allocator<std::pair<int const ,MusicTrack *> >,0> >::_Color, COMDAT
; __Pnode$ = eax

; 132  : 		return ((_Charref)(*_Pnode)._Color);

  00000	83 c0 14	 add	 eax, 20			; 00000014H

; 133  : 		}

  00003	c3		 ret	 0
?_Color@?$_Tree@V?$_Tmap_traits@HPAVMusicTrack@@U?$less@H@std@@V?$allocator@U?$pair@$$CBHPAVMusicTrack@@@std@@@3@$0A@@std@@@std@@KAAADPAU_Node@?$_Tree_nod@V?$_Tmap_traits@HPAVMusicTrack@@U?$less@H@std@@V?$allocator@U?$pair@$$CBHPAVMusicTrack@@@std@@@3@$0A@@std@@@2@@Z ENDP ; std::_Tree<std::_Tmap_traits<int,MusicTrack *,std::less<int>,std::allocator<std::pair<int const ,MusicTrack *> >,0> >::_Color
; Function compile flags: /Ogsy
_TEXT	ENDS
;	COMDAT ??0iterator@?$_Tree@V?$_Tmap_traits@HPAVMusicTrack@@U?$less@H@std@@V?$allocator@U?$pair@$$CBHPAVMusicTrack@@@std@@@3@$0A@@std@@@std@@QAE@PAU_Node@?$_Tree_nod@V?$_Tmap_traits@HPAVMusicTrack@@U?$less@H@std@@V?$allocator@U?$pair@$$CBHPAVMusicTrack@@@std@@@3@$0A@@std@@@2@@Z
_TEXT	SEGMENT
??0iterator@?$_Tree@V?$_Tmap_traits@HPAVMusicTrack@@U?$less@H@std@@V?$allocator@U?$pair@$$CBHPAVMusicTrack@@@std@@@3@$0A@@std@@@std@@QAE@PAU_Node@?$_Tree_nod@V?$_Tmap_traits@HPAVMusicTrack@@U?$less@H@std@@V?$allocator@U?$pair@$$CBHPAVMusicTrack@@@std@@@3@$0A@@std@@@2@@Z PROC NEAR ; std::_Tree<std::_Tmap_traits<int,MusicTrack *,std::less<int>,std::allocator<std::pair<int const ,MusicTrack *> >,0> >::iterator::iterator, COMDAT
; _this$ = eax
; __Pnode$ = ecx

; 312  : 			{	// construct with node pointer _Pnode

  00000	89 08		 mov	 DWORD PTR [eax], ecx

; 313  : 			}

  00002	c3		 ret	 0
??0iterator@?$_Tree@V?$_Tmap_traits@HPAVMusicTrack@@U?$less@H@std@@V?$allocator@U?$pair@$$CBHPAVMusicTrack@@@std@@@3@$0A@@std@@@std@@QAE@PAU_Node@?$_Tree_nod@V?$_Tmap_traits@HPAVMusicTrack@@U?$less@H@std@@V?$allocator@U?$pair@$$CBHPAVMusicTrack@@@std@@@3@$0A@@std@@@2@@Z ENDP ; std::_Tree<std::_Tmap_traits<int,MusicTrack *,std::less<int>,std::allocator<std::pair<int const ,MusicTrack *> >,0> >::iterator::iterator
; Function compile flags: /Ogsy
_TEXT	ENDS
;	COMDAT ??0iterator@?$_Tree@V?$_Tmap_traits@HPAVMusicTrack@@U?$less@H@std@@V?$allocator@U?$pair@$$CBHPAVMusicTrack@@@std@@@3@$0A@@std@@@std@@QAE@XZ
_TEXT	SEGMENT
??0iterator@?$_Tree@V?$_Tmap_traits@HPAVMusicTrack@@U?$less@H@std@@V?$allocator@U?$pair@$$CBHPAVMusicTrack@@@std@@@3@$0A@@std@@@std@@QAE@XZ PROC NEAR ; std::_Tree<std::_Tmap_traits<int,MusicTrack *,std::less<int>,std::allocator<std::pair<int const ,MusicTrack *> >,0> >::iterator::iterator, COMDAT
; _this$ = eax

; 304  : 		iterator()

  00000	83 20 00	 and	 DWORD PTR [eax], 0

; 305  : 			{	// construct with null node pointer
; 306  : 			}

  00003	c3		 ret	 0
??0iterator@?$_Tree@V?$_Tmap_traits@HPAVMusicTrack@@U?$less@H@std@@V?$allocator@U?$pair@$$CBHPAVMusicTrack@@@std@@@3@$0A@@std@@@std@@QAE@XZ ENDP ; std::_Tree<std::_Tmap_traits<int,MusicTrack *,std::less<int>,std::allocator<std::pair<int const ,MusicTrack *> >,0> >::iterator::iterator
; Function compile flags: /Ogsy
; File c:\program files (x86)\microsoft visual studio .net 2003\vc7\include\map
_TEXT	ENDS
;	COMDAT ?_Kfn@?$_Tmap_traits@HPAVMusicTrack@@U?$less@H@std@@V?$allocator@U?$pair@$$CBHPAVMusicTrack@@@std@@@3@$0A@@std@@SAABHABU?$pair@$$CBHPAVMusicTrack@@@2@@Z
_TEXT	SEGMENT
?_Kfn@?$_Tmap_traits@HPAVMusicTrack@@U?$less@H@std@@V?$allocator@U?$pair@$$CBHPAVMusicTrack@@@std@@@3@$0A@@std@@SAABHABU?$pair@$$CBHPAVMusicTrack@@@2@@Z PROC NEAR ; std::_Tmap_traits<int,MusicTrack *,std::less<int>,std::allocator<std::pair<int const ,MusicTrack *> >,0>::_Kfn, COMDAT
; __Val$ = eax

; 64   : 		return (_Val.first);
; 65   : 		}

  00000	c3		 ret	 0
?_Kfn@?$_Tmap_traits@HPAVMusicTrack@@U?$less@H@std@@V?$allocator@U?$pair@$$CBHPAVMusicTrack@@@std@@@3@$0A@@std@@SAABHABU?$pair@$$CBHPAVMusicTrack@@@2@@Z ENDP ; std::_Tmap_traits<int,MusicTrack *,std::less<int>,std::allocator<std::pair<int const ,MusicTrack *> >,0>::_Kfn
; Function compile flags: /Ogsy
; File c:\program files (x86)\microsoft visual studio .net 2003\vc7\include\xtree
_TEXT	ENDS
;	COMDAT ?size@?$_Tree@V?$_Tmap_traits@HPAVMusicTrack@@U?$less@H@std@@V?$allocator@U?$pair@$$CBHPAVMusicTrack@@@std@@@3@$0A@@std@@@std@@QBEIXZ
_TEXT	SEGMENT
?size@?$_Tree@V?$_Tmap_traits@HPAVMusicTrack@@U?$less@H@std@@V?$allocator@U?$pair@$$CBHPAVMusicTrack@@@std@@@3@$0A@@std@@@std@@QBEIXZ PROC NEAR ; std::_Tree<std::_Tmap_traits<int,MusicTrack *,std::less<int>,std::allocator<std::pair<int const ,MusicTrack *> >,0> >::size, COMDAT
; _this$ = eax

; 448  : 		return (_Mysize);

  00000	8b 40 08	 mov	 eax, DWORD PTR [eax+8]

; 449  : 		}

  00003	c3		 ret	 0
?size@?$_Tree@V?$_Tmap_traits@HPAVMusicTrack@@U?$less@H@std@@V?$allocator@U?$pair@$$CBHPAVMusicTrack@@@std@@@3@$0A@@std@@@std@@QBEIXZ ENDP ; std::_Tree<std::_Tmap_traits<int,MusicTrack *,std::less<int>,std::allocator<std::pair<int const ,MusicTrack *> >,0> >::size
; Function compile flags: /Ogsy
_TEXT	ENDS
;	COMDAT ?_Myval@?$_Tree@V?$_Tmap_traits@HPAVMusicTrack@@U?$less@H@std@@V?$allocator@U?$pair@$$CBHPAVMusicTrack@@@std@@@3@$0A@@std@@@std@@KAAAU?$pair@$$CBHPAVMusicTrack@@@2@PAU_Node@?$_Tree_nod@V?$_Tmap_traits@HPAVMusicTrack@@U?$less@H@std@@V?$allocator@U?$pair@$$CBHPAVMusicTrack@@@std@@@3@$0A@@std@@@2@@Z
_TEXT	SEGMENT
?_Myval@?$_Tree@V?$_Tmap_traits@HPAVMusicTrack@@U?$less@H@std@@V?$allocator@U?$pair@$$CBHPAVMusicTrack@@@std@@@3@$0A@@std@@@std@@KAAAU?$pair@$$CBHPAVMusicTrack@@@2@PAU_Node@?$_Tree_nod@V?$_Tmap_traits@HPAVMusicTrack@@U?$less@H@std@@V?$allocator@U?$pair@$$CBHPAVMusicTrack@@@std@@@3@$0A@@std@@@2@@Z PROC NEAR ; std::_Tree<std::_Tmap_traits<int,MusicTrack *,std::less<int>,std::allocator<std::pair<int const ,MusicTrack *> >,0> >::_Myval, COMDAT
; __Pnode$ = eax

; 162  : 		return ((_Vref)(*_Pnode)._Myval);

  00000	83 c0 0c	 add	 eax, 12			; 0000000cH

; 163  : 		}

  00003	c3		 ret	 0
?_Myval@?$_Tree@V?$_Tmap_traits@HPAVMusicTrack@@U?$less@H@std@@V?$allocator@U?$pair@$$CBHPAVMusicTrack@@@std@@@3@$0A@@std@@@std@@KAAAU?$pair@$$CBHPAVMusicTrack@@@2@PAU_Node@?$_Tree_nod@V?$_Tmap_traits@HPAVMusicTrack@@U?$less@H@std@@V?$allocator@U?$pair@$$CBHPAVMusicTrack@@@std@@@3@$0A@@std@@@2@@Z ENDP ; std::_Tree<std::_Tmap_traits<int,MusicTrack *,std::less<int>,std::allocator<std::pair<int const ,MusicTrack *> >,0> >::_Myval
; Function compile flags: /Ogsy
_TEXT	ENDS
;	COMDAT ?_Right@?$_Tree@V?$_Tmap_traits@HPAVMusicTrack@@U?$less@H@std@@V?$allocator@U?$pair@$$CBHPAVMusicTrack@@@std@@@3@$0A@@std@@@std@@KAAAPAU_Node@?$_Tree_nod@V?$_Tmap_traits@HPAVMusicTrack@@U?$less@H@std@@V?$allocator@U?$pair@$$CBHPAVMusicTrack@@@std@@@3@$0A@@std@@@2@PAU342@@Z
_TEXT	SEGMENT
?_Right@?$_Tree@V?$_Tmap_traits@HPAVMusicTrack@@U?$less@H@std@@V?$allocator@U?$pair@$$CBHPAVMusicTrack@@@std@@@3@$0A@@std@@@std@@KAAAPAU_Node@?$_Tree_nod@V?$_Tmap_traits@HPAVMusicTrack@@U?$less@H@std@@V?$allocator@U?$pair@$$CBHPAVMusicTrack@@@std@@@3@$0A@@std@@@2@PAU342@@Z PROC NEAR ; std::_Tree<std::_Tmap_traits<int,MusicTrack *,std::less<int>,std::allocator<std::pair<int const ,MusicTrack *> >,0> >::_Right, COMDAT
; __Pnode$ = eax

; 157  : 		return ((_Nodepref)(*_Pnode)._Right);

  00000	83 c0 08	 add	 eax, 8

; 158  : 		}

  00003	c3		 ret	 0
?_Right@?$_Tree@V?$_Tmap_traits@HPAVMusicTrack@@U?$less@H@std@@V?$allocator@U?$pair@$$CBHPAVMusicTrack@@@std@@@3@$0A@@std@@@std@@KAAAPAU_Node@?$_Tree_nod@V?$_Tmap_traits@HPAVMusicTrack@@U?$less@H@std@@V?$allocator@U?$pair@$$CBHPAVMusicTrack@@@std@@@3@$0A@@std@@@2@PAU342@@Z ENDP ; std::_Tree<std::_Tmap_traits<int,MusicTrack *,std::less<int>,std::allocator<std::pair<int const ,MusicTrack *> >,0> >::_Right
; Function compile flags: /Ogsy
_TEXT	ENDS
;	COMDAT ?_Isnil@?$_Tree@V?$_Tmap_traits@HPAVMusicTrack@@U?$less@H@std@@V?$allocator@U?$pair@$$CBHPAVMusicTrack@@@std@@@3@$0A@@std@@@std@@KAAADPAU_Node@?$_Tree_nod@V?$_Tmap_traits@HPAVMusicTrack@@U?$less@H@std@@V?$allocator@U?$pair@$$CBHPAVMusicTrack@@@std@@@3@$0A@@std@@@2@@Z
_TEXT	SEGMENT
?_Isnil@?$_Tree@V?$_Tmap_traits@HPAVMusicTrack@@U?$less@H@std@@V?$allocator@U?$pair@$$CBHPAVMusicTrack@@@std@@@3@$0A@@std@@@std@@KAAADPAU_Node@?$_Tree_nod@V?$_Tmap_traits@HPAVMusicTrack@@U?$less@H@std@@V?$allocator@U?$pair@$$CBHPAVMusicTrack@@@std@@@3@$0A@@std@@@2@@Z PROC NEAR ; std::_Tree<std::_Tmap_traits<int,MusicTrack *,std::less<int>,std::allocator<std::pair<int const ,MusicTrack *> >,0> >::_Isnil, COMDAT
; __Pnode$ = eax

; 137  : 		return ((_Charref)(*_Pnode)._Isnil);

  00000	83 c0 15	 add	 eax, 21			; 00000015H

; 138  : 		}

  00003	c3		 ret	 0
?_Isnil@?$_Tree@V?$_Tmap_traits@HPAVMusicTrack@@U?$less@H@std@@V?$allocator@U?$pair@$$CBHPAVMusicTrack@@@std@@@3@$0A@@std@@@std@@KAAADPAU_Node@?$_Tree_nod@V?$_Tmap_traits@HPAVMusicTrack@@U?$less@H@std@@V?$allocator@U?$pair@$$CBHPAVMusicTrack@@@std@@@3@$0A@@std@@@2@@Z ENDP ; std::_Tree<std::_Tmap_traits<int,MusicTrack *,std::less<int>,std::allocator<std::pair<int const ,MusicTrack *> >,0> >::_Isnil
; Function compile flags: /Ogsy
; File c:\program files (x86)\microsoft visual studio .net 2003\vc7\include\utility
_TEXT	ENDS
;	COMDAT ??0?$pair@$$CBHPAVMusicTrack@@@std@@QAE@ABHABQAVMusicTrack@@@Z
_TEXT	SEGMENT
__Val2$ = 8						; size = 4
??0?$pair@$$CBHPAVMusicTrack@@@std@@QAE@ABHABQAVMusicTrack@@@Z PROC NEAR ; std::pair<int const ,MusicTrack *>::pair<int const ,MusicTrack *>, COMDAT
; _this$ = eax
; __Val1$ = ecx

; 34   : 		{	// construct from specified values

  00000	8b 09		 mov	 ecx, DWORD PTR [ecx]
  00002	89 08		 mov	 DWORD PTR [eax], ecx
  00004	8b 4c 24 04	 mov	 ecx, DWORD PTR __Val2$[esp-4]
  00008	8b 09		 mov	 ecx, DWORD PTR [ecx]
  0000a	89 48 04	 mov	 DWORD PTR [eax+4], ecx

; 35   : 		}

  0000d	c2 04 00	 ret	 4
??0?$pair@$$CBHPAVMusicTrack@@@std@@QAE@ABHABQAVMusicTrack@@@Z ENDP ; std::pair<int const ,MusicTrack *>::pair<int const ,MusicTrack *>
; Function compile flags: /Ogsy
; File c:\program files (x86)\microsoft visual studio .net 2003\vc7\include\xtree
_TEXT	ENDS
;	COMDAT ?_Mynode@const_iterator@?$_Tree@V?$_Tmap_traits@HPAVMusicTrack@@U?$less@H@std@@V?$allocator@U?$pair@$$CBHPAVMusicTrack@@@std@@@3@$0A@@std@@@std@@QBEPAU_Node@?$_Tree_nod@V?$_Tmap_traits@HPAVMusicTrack@@U?$less@H@std@@V?$allocator@U?$pair@$$CBHPAVMusicTrack@@@std@@@3@$0A@@std@@@3@XZ
_TEXT	SEGMENT
?_Mynode@const_iterator@?$_Tree@V?$_Tmap_traits@HPAVMusicTrack@@U?$less@H@std@@V?$allocator@U?$pair@$$CBHPAVMusicTrack@@@std@@@3@$0A@@std@@@std@@QBEPAU_Node@?$_Tree_nod@V?$_Tmap_traits@HPAVMusicTrack@@U?$less@H@std@@V?$allocator@U?$pair@$$CBHPAVMusicTrack@@@std@@@3@$0A@@std@@@3@XZ PROC NEAR ; std::_Tree<std::_Tmap_traits<int,MusicTrack *,std::less<int>,std::allocator<std::pair<int const ,MusicTrack *> >,0> >::const_iterator::_Mynode, COMDAT
; _this$ = eax

; 284  : 			return (_Ptr);

  00000	8b 00		 mov	 eax, DWORD PTR [eax]

; 285  : 			}

  00002	c3		 ret	 0
?_Mynode@const_iterator@?$_Tree@V?$_Tmap_traits@HPAVMusicTrack@@U?$less@H@std@@V?$allocator@U?$pair@$$CBHPAVMusicTrack@@@std@@@3@$0A@@std@@@std@@QBEPAU_Node@?$_Tree_nod@V?$_Tmap_traits@HPAVMusicTrack@@U?$less@H@std@@V?$allocator@U?$pair@$$CBHPAVMusicTrack@@@std@@@3@$0A@@std@@@3@XZ ENDP ; std::_Tree<std::_Tmap_traits<int,MusicTrack *,std::less<int>,std::allocator<std::pair<int const ,MusicTrack *> >,0> >::const_iterator::_Mynode
; Function compile flags: /Ogsy
_TEXT	ENDS
;	COMDAT ??8const_iterator@?$_Tree@V?$_Tmap_traits@HPAVMusicTrack@@U?$less@H@std@@V?$allocator@U?$pair@$$CBHPAVMusicTrack@@@std@@@3@$0A@@std@@@std@@QBE_NABV012@@Z
_TEXT	SEGMENT
??8const_iterator@?$_Tree@V?$_Tmap_traits@HPAVMusicTrack@@U?$less@H@std@@V?$allocator@U?$pair@$$CBHPAVMusicTrack@@@std@@@3@$0A@@std@@@std@@QBE_NABV012@@Z PROC NEAR ; std::_Tree<std::_Tmap_traits<int,MusicTrack *,std::less<int>,std::allocator<std::pair<int const ,MusicTrack *> >,0> >::const_iterator::operator==, COMDAT
; _this$ = eax
; __Right$ = ecx

; 241  : 			return (_Ptr == _Right._Ptr);

  00000	8b 00		 mov	 eax, DWORD PTR [eax]
  00002	2b 01		 sub	 eax, DWORD PTR [ecx]
  00004	f7 d8		 neg	 eax
  00006	1b c0		 sbb	 eax, eax
  00008	40		 inc	 eax

; 242  : 			}

  00009	c3		 ret	 0
??8const_iterator@?$_Tree@V?$_Tmap_traits@HPAVMusicTrack@@U?$less@H@std@@V?$allocator@U?$pair@$$CBHPAVMusicTrack@@@std@@@3@$0A@@std@@@std@@QBE_NABV012@@Z ENDP ; std::_Tree<std::_Tmap_traits<int,MusicTrack *,std::less<int>,std::allocator<std::pair<int const ,MusicTrack *> >,0> >::const_iterator::operator==
; Function compile flags: /Ogsy
_TEXT	ENDS
;	COMDAT ?end@?$_Tree@V?$_Tmap_traits@HPAVMusicTrack@@U?$less@H@std@@V?$allocator@U?$pair@$$CBHPAVMusicTrack@@@std@@@3@$0A@@std@@@std@@QAE?AViterator@12@XZ
_TEXT	SEGMENT
?end@?$_Tree@V?$_Tmap_traits@HPAVMusicTrack@@U?$less@H@std@@V?$allocator@U?$pair@$$CBHPAVMusicTrack@@@std@@@3@$0A@@std@@@std@@QAE?AViterator@12@XZ PROC NEAR ; std::_Tree<std::_Tmap_traits<int,MusicTrack *,std::less<int>,std::allocator<std::pair<int const ,MusicTrack *> >,0> >::end, COMDAT
; _this$ = ecx
; ___$ReturnUdt$ = eax

; 418  : 		return (_TREE_ITERATOR(_Myhead));

  00000	8b 49 04	 mov	 ecx, DWORD PTR [ecx+4]
  00003	89 08		 mov	 DWORD PTR [eax], ecx

; 419  : 		}

  00005	c3		 ret	 0
?end@?$_Tree@V?$_Tmap_traits@HPAVMusicTrack@@U?$less@H@std@@V?$allocator@U?$pair@$$CBHPAVMusicTrack@@@std@@@3@$0A@@std@@@std@@QAE?AViterator@12@XZ ENDP ; std::_Tree<std::_Tmap_traits<int,MusicTrack *,std::less<int>,std::allocator<std::pair<int const ,MusicTrack *> >,0> >::end
; Function compile flags: /Ogsy
_TEXT	ENDS
;	COMDAT ?_Key@?$_Tree@V?$_Tmap_traits@HPAVMusicTrack@@U?$less@H@std@@V?$allocator@U?$pair@$$CBHPAVMusicTrack@@@std@@@3@$0A@@std@@@std@@KAABHPAU_Node@?$_Tree_nod@V?$_Tmap_traits@HPAVMusicTrack@@U?$less@H@std@@V?$allocator@U?$pair@$$CBHPAVMusicTrack@@@std@@@3@$0A@@std@@@2@@Z
_TEXT	SEGMENT
?_Key@?$_Tree@V?$_Tmap_traits@HPAVMusicTrack@@U?$less@H@std@@V?$allocator@U?$pair@$$CBHPAVMusicTrack@@@std@@@3@$0A@@std@@@std@@KAABHPAU_Node@?$_Tree_nod@V?$_Tmap_traits@HPAVMusicTrack@@U?$less@H@std@@V?$allocator@U?$pair@$$CBHPAVMusicTrack@@@std@@@3@$0A@@std@@@2@@Z PROC NEAR ; std::_Tree<std::_Tmap_traits<int,MusicTrack *,std::less<int>,std::allocator<std::pair<int const ,MusicTrack *> >,0> >::_Key, COMDAT
; __Pnode$ = eax

; 142  : 		return (_Mybase::_Kfn(_Myval(_Pnode)));

  00000	83 c0 0c	 add	 eax, 12			; 0000000cH

; 143  : 		}

  00003	c3		 ret	 0
?_Key@?$_Tree@V?$_Tmap_traits@HPAVMusicTrack@@U?$less@H@std@@V?$allocator@U?$pair@$$CBHPAVMusicTrack@@@std@@@3@$0A@@std@@@std@@KAABHPAU_Node@?$_Tree_nod@V?$_Tmap_traits@HPAVMusicTrack@@U?$less@H@std@@V?$allocator@U?$pair@$$CBHPAVMusicTrack@@@std@@@3@$0A@@std@@@2@@Z ENDP ; std::_Tree<std::_Tmap_traits<int,MusicTrack *,std::less<int>,std::allocator<std::pair<int const ,MusicTrack *> >,0> >::_Key
; Function compile flags: /Ogsy
;	COMDAT ?_Min@?$_Tree@V?$_Tmap_traits@HPAVMusicTrack@@U?$less@H@std@@V?$allocator@U?$pair@$$CBHPAVMusicTrack@@@std@@@3@$0A@@std@@@std@@KAPAU_Node@?$_Tree_nod@V?$_Tmap_traits@HPAVMusicTrack@@U?$less@H@std@@V?$allocator@U?$pair@$$CBHPAVMusicTrack@@@std@@@3@$0A@@std@@@2@PAU342@@Z
_TEXT	SEGMENT
?_Min@?$_Tree@V?$_Tmap_traits@HPAVMusicTrack@@U?$less@H@std@@V?$allocator@U?$pair@$$CBHPAVMusicTrack@@@std@@@3@$0A@@std@@@std@@KAPAU_Node@?$_Tree_nod@V?$_Tmap_traits@HPAVMusicTrack@@U?$less@H@std@@V?$allocator@U?$pair@$$CBHPAVMusicTrack@@@std@@@3@$0A@@std@@@2@PAU342@@Z PROC NEAR ; std::_Tree<std::_Tmap_traits<int,MusicTrack *,std::less<int>,std::allocator<std::pair<int const ,MusicTrack *> >,0> >::_Min, COMDAT
; __Pnode$ = eax

; 1042 : 		while (!_Isnil(_Left(_Pnode)))

  00000	eb 02		 jmp	 SHORT $L43741
$L24996:

; 1043 : 			_Pnode = _Left(_Pnode);

  00002	8b c1		 mov	 eax, ecx
$L43741:

; 1042 : 		while (!_Isnil(_Left(_Pnode)))

  00004	8b 08		 mov	 ecx, DWORD PTR [eax]
  00006	80 79 15 00	 cmp	 BYTE PTR [ecx+21], 0
  0000a	74 f6		 je	 SHORT $L24996

; 1044 : 		return (_Pnode);
; 1045 : 		}

  0000c	c3		 ret	 0
?_Min@?$_Tree@V?$_Tmap_traits@HPAVMusicTrack@@U?$less@H@std@@V?$allocator@U?$pair@$$CBHPAVMusicTrack@@@std@@@3@$0A@@std@@@std@@KAPAU_Node@?$_Tree_nod@V?$_Tmap_traits@HPAVMusicTrack@@U?$less@H@std@@V?$allocator@U?$pair@$$CBHPAVMusicTrack@@@std@@@3@$0A@@std@@@2@PAU342@@Z ENDP ; std::_Tree<std::_Tmap_traits<int,MusicTrack *,std::less<int>,std::allocator<std::pair<int const ,MusicTrack *> >,0> >::_Min
; Function compile flags: /Ogsy
_TEXT	ENDS
;	COMDAT ?_Max@?$_Tree@V?$_Tmap_traits@HPAVMusicTrack@@U?$less@H@std@@V?$allocator@U?$pair@$$CBHPAVMusicTrack@@@std@@@3@$0A@@std@@@std@@KAPAU_Node@?$_Tree_nod@V?$_Tmap_traits@HPAVMusicTrack@@U?$less@H@std@@V?$allocator@U?$pair@$$CBHPAVMusicTrack@@@std@@@3@$0A@@std@@@2@PAU342@@Z
_TEXT	SEGMENT
?_Max@?$_Tree@V?$_Tmap_traits@HPAVMusicTrack@@U?$less@H@std@@V?$allocator@U?$pair@$$CBHPAVMusicTrack@@@std@@@3@$0A@@std@@@std@@KAPAU_Node@?$_Tree_nod@V?$_Tmap_traits@HPAVMusicTrack@@U?$less@H@std@@V?$allocator@U?$pair@$$CBHPAVMusicTrack@@@std@@@3@$0A@@std@@@2@PAU342@@Z PROC NEAR ; std::_Tree<std::_Tmap_traits<int,MusicTrack *,std::less<int>,std::allocator<std::pair<int const ,MusicTrack *> >,0> >::_Max, COMDAT
; __Pnode$ = eax

; 1035 : 		while (!_Isnil(_Right(_Pnode)))

  00000	eb 02		 jmp	 SHORT $L43757
$L24992:

; 1036 : 			_Pnode = _Right(_Pnode);

  00002	8b c1		 mov	 eax, ecx
$L43757:

; 1035 : 		while (!_Isnil(_Right(_Pnode)))

  00004	8b 48 08	 mov	 ecx, DWORD PTR [eax+8]
  00007	80 79 15 00	 cmp	 BYTE PTR [ecx+21], 0
  0000b	74 f5		 je	 SHORT $L24992

; 1037 : 		return (_Pnode);
; 1038 : 		}

  0000d	c3		 ret	 0
?_Max@?$_Tree@V?$_Tmap_traits@HPAVMusicTrack@@U?$less@H@std@@V?$allocator@U?$pair@$$CBHPAVMusicTrack@@@std@@@3@$0A@@std@@@std@@KAPAU_Node@?$_Tree_nod@V?$_Tmap_traits@HPAVMusicTrack@@U?$less@H@std@@V?$allocator@U?$pair@$$CBHPAVMusicTrack@@@std@@@3@$0A@@std@@@2@PAU342@@Z ENDP ; std::_Tree<std::_Tmap_traits<int,MusicTrack *,std::less<int>,std::allocator<std::pair<int const ,MusicTrack *> >,0> >::_Max
; Function compile flags: /Ogsy
_TEXT	ENDS
;	COMDAT ?_Inc@const_iterator@?$_Tree@V?$_Tmap_traits@HPAVMusicTrack@@U?$less@H@std@@V?$allocator@U?$pair@$$CBHPAVMusicTrack@@@std@@@3@$0A@@std@@@std@@QAEXXZ
_TEXT	SEGMENT
?_Inc@const_iterator@?$_Tree@V?$_Tmap_traits@HPAVMusicTrack@@U?$less@H@std@@V?$allocator@U?$pair@$$CBHPAVMusicTrack@@@std@@@3@$0A@@std@@@std@@QAEXXZ PROC NEAR ; std::_Tree<std::_Tmap_traits<int,MusicTrack *,std::less<int>,std::allocator<std::pair<int const ,MusicTrack *> >,0> >::const_iterator::_Inc, COMDAT
; _this$ = edx

; 268  : 			if (_Isnil(_Ptr))

  00000	8b 02		 mov	 eax, DWORD PTR [edx]
  00002	53		 push	 ebx
  00003	32 db		 xor	 bl, bl
  00005	38 58 15	 cmp	 BYTE PTR [eax+21], bl
  00008	75 2a		 jne	 SHORT $L24979

; 269  : 				;	// end() shouldn't be incremented, don't move
; 270  : 			else if (!_Isnil(_Right(_Ptr)))

  0000a	8b 48 08	 mov	 ecx, DWORD PTR [eax+8]
  0000d	38 59 15	 cmp	 BYTE PTR [ecx+21], bl
  00010	75 18		 jne	 SHORT $L43804

; 271  : 				_Ptr = _Min(_Right(_Ptr));	// ==> smallest of right subtree

  00012	eb 02		 jmp	 SHORT $L43808
$L43784:
  00014	8b c8		 mov	 ecx, eax
$L43808:
  00016	8b 01		 mov	 eax, DWORD PTR [ecx]
  00018	38 58 15	 cmp	 BYTE PTR [eax+21], bl
  0001b	74 f7		 je	 SHORT $L43784
  0001d	89 0a		 mov	 DWORD PTR [edx], ecx
  0001f	5b		 pop	 ebx

; 279  : 				}
; 280  : 			}

  00020	c3		 ret	 0
$L24982:

; 272  : 			else
; 273  : 				{	// climb looking for right subtree
; 274  : 				_Nodeptr _Pnode;
; 275  : 				while (!_Isnil(_Pnode = _Parent(_Ptr))
; 276  : 					&& _Ptr == _Right(_Pnode))

  00021	8b 0a		 mov	 ecx, DWORD PTR [edx]
  00023	3b 48 08	 cmp	 ecx, DWORD PTR [eax+8]
  00026	75 0a		 jne	 SHORT $L24983

; 277  : 					_Ptr = _Pnode;	// ==> parent while right subtree

  00028	89 02		 mov	 DWORD PTR [edx], eax
$L43804:

; 272  : 			else
; 273  : 				{	// climb looking for right subtree
; 274  : 				_Nodeptr _Pnode;
; 275  : 				while (!_Isnil(_Pnode = _Parent(_Ptr))
; 276  : 					&& _Ptr == _Right(_Pnode))

  0002a	8b 40 04	 mov	 eax, DWORD PTR [eax+4]
  0002d	38 58 15	 cmp	 BYTE PTR [eax+21], bl
  00030	74 ef		 je	 SHORT $L24982
$L24983:

; 278  : 				_Ptr = _Pnode;	// ==> parent (head if end())

  00032	89 02		 mov	 DWORD PTR [edx], eax
$L24979:
  00034	5b		 pop	 ebx

; 279  : 				}
; 280  : 			}

  00035	c3		 ret	 0
?_Inc@const_iterator@?$_Tree@V?$_Tmap_traits@HPAVMusicTrack@@U?$less@H@std@@V?$allocator@U?$pair@$$CBHPAVMusicTrack@@@std@@@3@$0A@@std@@@std@@QAEXXZ ENDP ; std::_Tree<std::_Tmap_traits<int,MusicTrack *,std::less<int>,std::allocator<std::pair<int const ,MusicTrack *> >,0> >::const_iterator::_Inc
; Function compile flags: /Ogsy
_TEXT	ENDS
;	COMDAT ?_Dec@const_iterator@?$_Tree@V?$_Tmap_traits@HPAVMusicTrack@@U?$less@H@std@@V?$allocator@U?$pair@$$CBHPAVMusicTrack@@@std@@@3@$0A@@std@@@std@@QAEXXZ
_TEXT	SEGMENT
?_Dec@const_iterator@?$_Tree@V?$_Tmap_traits@HPAVMusicTrack@@U?$less@H@std@@V?$allocator@U?$pair@$$CBHPAVMusicTrack@@@std@@@3@$0A@@std@@@std@@QAEXXZ PROC NEAR ; std::_Tree<std::_Tmap_traits<int,MusicTrack *,std::less<int>,std::allocator<std::pair<int const ,MusicTrack *> >,0> >::const_iterator::_Dec, COMDAT
; _this$ = ecx

; 251  : 			if (_Isnil(_Ptr))

  00000	8b 01		 mov	 eax, DWORD PTR [ecx]
  00002	53		 push	 ebx
  00003	32 db		 xor	 bl, bl
  00005	38 58 15	 cmp	 BYTE PTR [eax+21], bl
  00008	74 05		 je	 SHORT $L24965

; 252  : 				_Ptr = _Right(_Ptr);	// end() ==> rightmost

  0000a	8b 40 08	 mov	 eax, DWORD PTR [eax+8]

; 253  : 			else if (!_Isnil(_Left(_Ptr)))

  0000d	eb 2c		 jmp	 SHORT $L43867
$L24965:
  0000f	8b 10		 mov	 edx, DWORD PTR [eax]
  00011	38 5a 15	 cmp	 BYTE PTR [edx+21], bl
  00014	75 18		 jne	 SHORT $L43864

; 254  : 				_Ptr = _Max(_Left(_Ptr));	// ==> largest of left subtree

  00016	eb 02		 jmp	 SHORT $L43869
$L43841:
  00018	8b d0		 mov	 edx, eax
$L43869:
  0001a	8b 42 08	 mov	 eax, DWORD PTR [edx+8]
  0001d	38 58 15	 cmp	 BYTE PTR [eax+21], bl
  00020	74 f6		 je	 SHORT $L43841
  00022	89 11		 mov	 DWORD PTR [ecx], edx
  00024	5b		 pop	 ebx

; 263  : 				}
; 264  : 			}

  00025	c3		 ret	 0
$L24971:

; 255  : 			else
; 256  : 				{	// climb looking for left subtree
; 257  : 				_Nodeptr _Pnode;
; 258  : 				while (!_Isnil(_Pnode = _Parent(_Ptr))
; 259  : 					&& _Ptr == _Left(_Pnode))

  00026	8b 11		 mov	 edx, DWORD PTR [ecx]
  00028	3b 10		 cmp	 edx, DWORD PTR [eax]
  0002a	75 0a		 jne	 SHORT $L24972

; 260  : 					_Ptr = _Pnode;	// ==> parent while left subtree

  0002c	89 01		 mov	 DWORD PTR [ecx], eax
$L43864:

; 255  : 			else
; 256  : 				{	// climb looking for left subtree
; 257  : 				_Nodeptr _Pnode;
; 258  : 				while (!_Isnil(_Pnode = _Parent(_Ptr))
; 259  : 					&& _Ptr == _Left(_Pnode))

  0002e	8b 40 04	 mov	 eax, DWORD PTR [eax+4]
  00031	38 58 15	 cmp	 BYTE PTR [eax+21], bl
  00034	74 f0		 je	 SHORT $L24971
$L24972:

; 261  : 				if (!_Isnil(_Pnode))

  00036	38 58 15	 cmp	 BYTE PTR [eax+21], bl
  00039	75 02		 jne	 SHORT $L24973
$L43867:

; 262  : 					_Ptr = _Pnode;	// ==> parent if not head

  0003b	89 01		 mov	 DWORD PTR [ecx], eax
$L24973:
  0003d	5b		 pop	 ebx

; 263  : 				}
; 264  : 			}

  0003e	c3		 ret	 0
?_Dec@const_iterator@?$_Tree@V?$_Tmap_traits@HPAVMusicTrack@@U?$less@H@std@@V?$allocator@U?$pair@$$CBHPAVMusicTrack@@@std@@@3@$0A@@std@@@std@@QAEXXZ ENDP ; std::_Tree<std::_Tmap_traits<int,MusicTrack *,std::less<int>,std::allocator<std::pair<int const ,MusicTrack *> >,0> >::const_iterator::_Dec
; Function compile flags: /Ogsy
_TEXT	ENDS
;	COMDAT ??Fconst_iterator@?$_Tree@V?$_Tmap_traits@HPAVMusicTrack@@U?$less@H@std@@V?$allocator@U?$pair@$$CBHPAVMusicTrack@@@std@@@3@$0A@@std@@@std@@QAEAAV012@XZ
_TEXT	SEGMENT
_this$ = 8						; size = 4
??Fconst_iterator@?$_Tree@V?$_Tmap_traits@HPAVMusicTrack@@U?$less@H@std@@V?$allocator@U?$pair@$$CBHPAVMusicTrack@@@std@@@3@$0A@@std@@@std@@QAEAAV012@XZ PROC NEAR ; std::_Tree<std::_Tmap_traits<int,MusicTrack *,std::less<int>,std::allocator<std::pair<int const ,MusicTrack *> >,0> >::const_iterator::operator--, COMDAT

; 228  : 			_Dec();

  00000	8b 4c 24 04	 mov	 ecx, DWORD PTR _this$[esp-4]
  00004	e8 00 00 00 00	 call	 ?_Dec@const_iterator@?$_Tree@V?$_Tmap_traits@HPAVMusicTrack@@U?$less@H@std@@V?$allocator@U?$pair@$$CBHPAVMusicTrack@@@std@@@3@$0A@@std@@@std@@QAEXXZ ; std::_Tree<std::_Tmap_traits<int,MusicTrack *,std::less<int>,std::allocator<std::pair<int const ,MusicTrack *> >,0> >::const_iterator::_Dec

; 229  : 			return (*this);

  00009	8b 44 24 04	 mov	 eax, DWORD PTR _this$[esp-4]

; 230  : 			}

  0000d	c2 04 00	 ret	 4
??Fconst_iterator@?$_Tree@V?$_Tmap_traits@HPAVMusicTrack@@U?$less@H@std@@V?$allocator@U?$pair@$$CBHPAVMusicTrack@@@std@@@3@$0A@@std@@@std@@QAEAAV012@XZ ENDP ; std::_Tree<std::_Tmap_traits<int,MusicTrack *,std::less<int>,std::allocator<std::pair<int const ,MusicTrack *> >,0> >::const_iterator::operator--
; Function compile flags: /Ogsy
_TEXT	ENDS
;	COMDAT ??Econst_iterator@?$_Tree@V?$_Tmap_traits@HPAVMusicTrack@@U?$less@H@std@@V?$allocator@U?$pair@$$CBHPAVMusicTrack@@@std@@@3@$0A@@std@@@std@@QAEAAV012@XZ
_TEXT	SEGMENT
_this$ = 8						; size = 4
??Econst_iterator@?$_Tree@V?$_Tmap_traits@HPAVMusicTrack@@U?$less@H@std@@V?$allocator@U?$pair@$$CBHPAVMusicTrack@@@std@@@3@$0A@@std@@@std@@QAEAAV012@XZ PROC NEAR ; std::_Tree<std::_Tmap_traits<int,MusicTrack *,std::less<int>,std::allocator<std::pair<int const ,MusicTrack *> >,0> >::const_iterator::operator++, COMDAT

; 215  : 			_Inc();

  00000	8b 54 24 04	 mov	 edx, DWORD PTR _this$[esp-4]
  00004	e8 00 00 00 00	 call	 ?_Inc@const_iterator@?$_Tree@V?$_Tmap_traits@HPAVMusicTrack@@U?$less@H@std@@V?$allocator@U?$pair@$$CBHPAVMusicTrack@@@std@@@3@$0A@@std@@@std@@QAEXXZ ; std::_Tree<std::_Tmap_traits<int,MusicTrack *,std::less<int>,std::allocator<std::pair<int const ,MusicTrack *> >,0> >::const_iterator::_Inc

; 216  : 			return (*this);

  00009	8b 44 24 04	 mov	 eax, DWORD PTR _this$[esp-4]

; 217  : 			}

  0000d	c2 04 00	 ret	 4
??Econst_iterator@?$_Tree@V?$_Tmap_traits@HPAVMusicTrack@@U?$less@H@std@@V?$allocator@U?$pair@$$CBHPAVMusicTrack@@@std@@@3@$0A@@std@@@std@@QAEAAV012@XZ ENDP ; std::_Tree<std::_Tmap_traits<int,MusicTrack *,std::less<int>,std::allocator<std::pair<int const ,MusicTrack *> >,0> >::const_iterator::operator++
; Function compile flags: /Ogsy
_TEXT	ENDS
;	COMDAT ?_Buynode@?$_Tree@V?$_Tmap_traits@HPAVMusicTrack@@U?$less@H@std@@V?$allocator@U?$pair@$$CBHPAVMusicTrack@@@std@@@3@$0A@@std@@@std@@IAEPAU_Node@?$_Tree_nod@V?$_Tmap_traits@HPAVMusicTrack@@U?$less@H@std@@V?$allocator@U?$pair@$$CBHPAVMusicTrack@@@std@@@3@$0A@@std@@@2@PAU342@00ABU?$pair@$$CBHPAVMusicTrack@@@2@D@Z
_TEXT	SEGMENT
__Larg$ = 8						; size = 4
__Parg$ = 12						; size = 4
__Rarg$ = 16						; size = 4
__Val$ = 20						; size = 4
__Carg$ = 24						; size = 1
?_Buynode@?$_Tree@V?$_Tmap_traits@HPAVMusicTrack@@U?$less@H@std@@V?$allocator@U?$pair@$$CBHPAVMusicTrack@@@std@@@3@$0A@@std@@@std@@IAEPAU_Node@?$_Tree_nod@V?$_Tmap_traits@HPAVMusicTrack@@U?$less@H@std@@V?$allocator@U?$pair@$$CBHPAVMusicTrack@@@std@@@3@$0A@@std@@@2@PAU342@00ABU?$pair@$$CBHPAVMusicTrack@@@2@D@Z PROC NEAR ; std::_Tree<std::_Tmap_traits<int,MusicTrack *,std::less<int>,std::allocator<std::pair<int const ,MusicTrack *> >,0> >::_Buynode, COMDAT

; 1130 : 		{	// allocate a node with pointers, value, and color

  00000	55		 push	 ebp
  00001	8b ec		 mov	 ebp, esp
  00003	56		 push	 esi

; 1131 : 		_Nodeptr _Wherenode = this->_Alnod.allocate(1);

  00004	6a 18		 push	 24			; 00000018H
  00006	e8 00 00 00 00	 call	 ??2@YAPAXI@Z		; operator new
  0000b	8b f0		 mov	 esi, eax

; 1132 : 		_TRY_BEGIN
; 1133 : 		new (_Wherenode) _Node(_Larg, _Parg, _Rarg, _Val, _Carg);

  0000d	85 f6		 test	 esi, esi
  0000f	59		 pop	 ecx
  00010	74 14		 je	 SHORT $L43882
  00012	ff 75 18	 push	 DWORD PTR __Carg$[ebp]
  00015	8b 4d 14	 mov	 ecx, DWORD PTR __Val$[ebp]
  00018	ff 75 10	 push	 DWORD PTR __Rarg$[ebp]
  0001b	8b 55 08	 mov	 edx, DWORD PTR __Larg$[ebp]
  0001e	ff 75 0c	 push	 DWORD PTR __Parg$[ebp]
  00021	e8 00 00 00 00	 call	 ??0_Node@?$_Tree_nod@V?$_Tmap_traits@HPAVMusicTrack@@U?$less@H@std@@V?$allocator@U?$pair@$$CBHPAVMusicTrack@@@std@@@3@$0A@@std@@@std@@QAE@PAU012@00ABU?$pair@$$CBHPAVMusicTrack@@@2@D@Z ; std::_Tree_nod<std::_Tmap_traits<int,MusicTrack *,std::less<int>,std::allocator<std::pair<int const ,MusicTrack *> >,0> >::_Node::_Node
$L43882:

; 1134 : 		_CATCH_ALL
; 1135 : 		this->_Alnod.deallocate(_Wherenode, 1);
; 1136 : 		_RERAISE;
; 1137 : 		_CATCH_END
; 1138 : 		return (_Wherenode);

  00026	8b c6		 mov	 eax, esi
  00028	5e		 pop	 esi

; 1139 : 		}

  00029	5d		 pop	 ebp
  0002a	c2 14 00	 ret	 20			; 00000014H
?_Buynode@?$_Tree@V?$_Tmap_traits@HPAVMusicTrack@@U?$less@H@std@@V?$allocator@U?$pair@$$CBHPAVMusicTrack@@@std@@@3@$0A@@std@@@std@@IAEPAU_Node@?$_Tree_nod@V?$_Tmap_traits@HPAVMusicTrack@@U?$less@H@std@@V?$allocator@U?$pair@$$CBHPAVMusicTrack@@@std@@@3@$0A@@std@@@2@PAU342@00ABU?$pair@$$CBHPAVMusicTrack@@@2@D@Z ENDP ; std::_Tree<std::_Tmap_traits<int,MusicTrack *,std::less<int>,std::allocator<std::pair<int const ,MusicTrack *> >,0> >::_Buynode
; Function compile flags: /Ogsy
_TEXT	ENDS
;	COMDAT ?_Root@?$_Tree@V?$_Tmap_traits@HPAVMusicTrack@@U?$less@H@std@@V?$allocator@U?$pair@$$CBHPAVMusicTrack@@@std@@@3@$0A@@std@@@std@@IBEAAPAU_Node@?$_Tree_nod@V?$_Tmap_traits@HPAVMusicTrack@@U?$less@H@std@@V?$allocator@U?$pair@$$CBHPAVMusicTrack@@@std@@@3@$0A@@std@@@2@XZ
_TEXT	SEGMENT
?_Root@?$_Tree@V?$_Tmap_traits@HPAVMusicTrack@@U?$less@H@std@@V?$allocator@U?$pair@$$CBHPAVMusicTrack@@@std@@@3@$0A@@std@@@std@@IBEAAPAU_Node@?$_Tree_nod@V?$_Tmap_traits@HPAVMusicTrack@@U?$less@H@std@@V?$allocator@U?$pair@$$CBHPAVMusicTrack@@@std@@@3@$0A@@std@@@2@XZ PROC NEAR ; std::_Tree<std::_Tmap_traits<int,MusicTrack *,std::less<int>,std::allocator<std::pair<int const ,MusicTrack *> >,0> >::_Root, COMDAT
; _this$ = eax

; 1064 : 		return (_Parent(_Myhead));

  00000	8b 40 04	 mov	 eax, DWORD PTR [eax+4]
  00003	83 c0 04	 add	 eax, 4

; 1065 : 		}

  00006	c3		 ret	 0
?_Root@?$_Tree@V?$_Tmap_traits@HPAVMusicTrack@@U?$less@H@std@@V?$allocator@U?$pair@$$CBHPAVMusicTrack@@@std@@@3@$0A@@std@@@std@@IBEAAPAU_Node@?$_Tree_nod@V?$_Tmap_traits@HPAVMusicTrack@@U?$less@H@std@@V?$allocator@U?$pair@$$CBHPAVMusicTrack@@@std@@@3@$0A@@std@@@2@XZ ENDP ; std::_Tree<std::_Tmap_traits<int,MusicTrack *,std::less<int>,std::allocator<std::pair<int const ,MusicTrack *> >,0> >::_Root
; Function compile flags: /Ogsy
_TEXT	ENDS
;	COMDAT ?_Root@?$_Tree@V?$_Tmap_traits@HPAVMusicTrack@@U?$less@H@std@@V?$allocator@U?$pair@$$CBHPAVMusicTrack@@@std@@@3@$0A@@std@@@std@@IAEAAPAU_Node@?$_Tree_nod@V?$_Tmap_traits@HPAVMusicTrack@@U?$less@H@std@@V?$allocator@U?$pair@$$CBHPAVMusicTrack@@@std@@@3@$0A@@std@@@2@XZ
_TEXT	SEGMENT
?_Root@?$_Tree@V?$_Tmap_traits@HPAVMusicTrack@@U?$less@H@std@@V?$allocator@U?$pair@$$CBHPAVMusicTrack@@@std@@@3@$0A@@std@@@std@@IAEAAPAU_Node@?$_Tree_nod@V?$_Tmap_traits@HPAVMusicTrack@@U?$less@H@std@@V?$allocator@U?$pair@$$CBHPAVMusicTrack@@@std@@@3@$0A@@std@@@2@XZ PROC NEAR ; std::_Tree<std::_Tmap_traits<int,MusicTrack *,std::less<int>,std::allocator<std::pair<int const ,MusicTrack *> >,0> >::_Root, COMDAT
; _this$ = eax

; 1059 : 		return (_Parent(_Myhead));

  00000	8b 40 04	 mov	 eax, DWORD PTR [eax+4]
  00003	83 c0 04	 add	 eax, 4

; 1060 : 		}

  00006	c3		 ret	 0
?_Root@?$_Tree@V?$_Tmap_traits@HPAVMusicTrack@@U?$less@H@std@@V?$allocator@U?$pair@$$CBHPAVMusicTrack@@@std@@@3@$0A@@std@@@std@@IAEAAPAU_Node@?$_Tree_nod@V?$_Tmap_traits@HPAVMusicTrack@@U?$less@H@std@@V?$allocator@U?$pair@$$CBHPAVMusicTrack@@@std@@@3@$0A@@std@@@2@XZ ENDP ; std::_Tree<std::_Tmap_traits<int,MusicTrack *,std::less<int>,std::allocator<std::pair<int const ,MusicTrack *> >,0> >::_Root
; Function compile flags: /Ogsy
_TEXT	ENDS
;	COMDAT ?_Lrotate@?$_Tree@V?$_Tmap_traits@HPAVMusicTrack@@U?$less@H@std@@V?$allocator@U?$pair@$$CBHPAVMusicTrack@@@std@@@3@$0A@@std@@@std@@IAEXPAU_Node@?$_Tree_nod@V?$_Tmap_traits@HPAVMusicTrack@@U?$less@H@std@@V?$allocator@U?$pair@$$CBHPAVMusicTrack@@@std@@@3@$0A@@std@@@2@@Z
_TEXT	SEGMENT
_this$ = 8						; size = 4
?_Lrotate@?$_Tree@V?$_Tmap_traits@HPAVMusicTrack@@U?$less@H@std@@V?$allocator@U?$pair@$$CBHPAVMusicTrack@@@std@@@3@$0A@@std@@@std@@IAEXPAU_Node@?$_Tree_nod@V?$_Tmap_traits@HPAVMusicTrack@@U?$less@H@std@@V?$allocator@U?$pair@$$CBHPAVMusicTrack@@@std@@@3@$0A@@std@@@2@@Z PROC NEAR ; std::_Tree<std::_Tmap_traits<int,MusicTrack *,std::less<int>,std::allocator<std::pair<int const ,MusicTrack *> >,0> >::_Lrotate, COMDAT
; __Wherenode$ = ecx

; 1015 : 		_Nodeptr _Pnode = _Right(_Wherenode);

  00000	8b 41 08	 mov	 eax, DWORD PTR [ecx+8]

; 1016 : 		_Right(_Wherenode) = _Left(_Pnode);

  00003	8b 10		 mov	 edx, DWORD PTR [eax]
  00005	89 51 08	 mov	 DWORD PTR [ecx+8], edx

; 1017 : 
; 1018 : 		if (!_Isnil(_Left(_Pnode)))

  00008	8b 10		 mov	 edx, DWORD PTR [eax]
  0000a	80 7a 15 00	 cmp	 BYTE PTR [edx+21], 0
  0000e	75 03		 jne	 SHORT $L24858

; 1019 : 			_Parent(_Left(_Pnode)) = _Wherenode;

  00010	89 4a 04	 mov	 DWORD PTR [edx+4], ecx
$L24858:

; 1020 : 		_Parent(_Pnode) = _Parent(_Wherenode);

  00013	8b 51 04	 mov	 edx, DWORD PTR [ecx+4]
  00016	89 50 04	 mov	 DWORD PTR [eax+4], edx

; 1021 : 
; 1022 : 		if (_Wherenode == _Root())

  00019	8b 54 24 04	 mov	 edx, DWORD PTR _this$[esp-4]
  0001d	8b 52 04	 mov	 edx, DWORD PTR [edx+4]
  00020	3b 4a 04	 cmp	 ecx, DWORD PTR [edx+4]
  00023	75 05		 jne	 SHORT $L24859

; 1023 : 			_Root() = _Pnode;

  00025	89 42 04	 mov	 DWORD PTR [edx+4], eax

; 1024 : 		else if (_Wherenode == _Left(_Parent(_Wherenode)))

  00028	eb 0e		 jmp	 SHORT $L24862
$L24859:
  0002a	8b 51 04	 mov	 edx, DWORD PTR [ecx+4]
  0002d	3b 0a		 cmp	 ecx, DWORD PTR [edx]
  0002f	75 04		 jne	 SHORT $L24861

; 1025 : 			_Left(_Parent(_Wherenode)) = _Pnode;

  00031	89 02		 mov	 DWORD PTR [edx], eax

; 1026 : 		else

  00033	eb 03		 jmp	 SHORT $L24862
$L24861:

; 1027 : 			_Right(_Parent(_Wherenode)) = _Pnode;

  00035	89 42 08	 mov	 DWORD PTR [edx+8], eax
$L24862:

; 1028 : 
; 1029 : 		_Left(_Pnode) = _Wherenode;

  00038	89 08		 mov	 DWORD PTR [eax], ecx

; 1030 : 		_Parent(_Wherenode) = _Pnode;

  0003a	89 41 04	 mov	 DWORD PTR [ecx+4], eax

; 1031 : 		}

  0003d	c2 04 00	 ret	 4
?_Lrotate@?$_Tree@V?$_Tmap_traits@HPAVMusicTrack@@U?$less@H@std@@V?$allocator@U?$pair@$$CBHPAVMusicTrack@@@std@@@3@$0A@@std@@@std@@IAEXPAU_Node@?$_Tree_nod@V?$_Tmap_traits@HPAVMusicTrack@@U?$less@H@std@@V?$allocator@U?$pair@$$CBHPAVMusicTrack@@@std@@@3@$0A@@std@@@2@@Z ENDP ; std::_Tree<std::_Tmap_traits<int,MusicTrack *,std::less<int>,std::allocator<std::pair<int const ,MusicTrack *> >,0> >::_Lrotate
; Function compile flags: /Ogsy
_TEXT	ENDS
;	COMDAT ?_Lmost@?$_Tree@V?$_Tmap_traits@HPAVMusicTrack@@U?$less@H@std@@V?$allocator@U?$pair@$$CBHPAVMusicTrack@@@std@@@3@$0A@@std@@@std@@IAEAAPAU_Node@?$_Tree_nod@V?$_Tmap_traits@HPAVMusicTrack@@U?$less@H@std@@V?$allocator@U?$pair@$$CBHPAVMusicTrack@@@std@@@3@$0A@@std@@@2@XZ
_TEXT	SEGMENT
?_Lmost@?$_Tree@V?$_Tmap_traits@HPAVMusicTrack@@U?$less@H@std@@V?$allocator@U?$pair@$$CBHPAVMusicTrack@@@std@@@3@$0A@@std@@@std@@IAEAAPAU_Node@?$_Tree_nod@V?$_Tmap_traits@HPAVMusicTrack@@U?$less@H@std@@V?$allocator@U?$pair@$$CBHPAVMusicTrack@@@std@@@3@$0A@@std@@@2@XZ PROC NEAR ; std::_Tree<std::_Tmap_traits<int,MusicTrack *,std::less<int>,std::allocator<std::pair<int const ,MusicTrack *> >,0> >::_Lmost, COMDAT
; _this$ = eax

; 1005 : 		return (_Left(_Myhead));

  00000	8b 40 04	 mov	 eax, DWORD PTR [eax+4]

; 1006 : 		}

  00003	c3		 ret	 0
?_Lmost@?$_Tree@V?$_Tmap_traits@HPAVMusicTrack@@U?$less@H@std@@V?$allocator@U?$pair@$$CBHPAVMusicTrack@@@std@@@3@$0A@@std@@@std@@IAEAAPAU_Node@?$_Tree_nod@V?$_Tmap_traits@HPAVMusicTrack@@U?$less@H@std@@V?$allocator@U?$pair@$$CBHPAVMusicTrack@@@std@@@3@$0A@@std@@@2@XZ ENDP ; std::_Tree<std::_Tmap_traits<int,MusicTrack *,std::less<int>,std::allocator<std::pair<int const ,MusicTrack *> >,0> >::_Lmost
; Function compile flags: /Ogsy
_TEXT	ENDS
;	COMDAT ??Dconst_iterator@?$_Tree@V?$_Tmap_traits@HPAVMusicTrack@@U?$less@H@std@@V?$allocator@U?$pair@$$CBHPAVMusicTrack@@@std@@@3@$0A@@std@@@std@@QBEABU?$pair@$$CBHPAVMusicTrack@@@2@XZ
_TEXT	SEGMENT
??Dconst_iterator@?$_Tree@V?$_Tmap_traits@HPAVMusicTrack@@U?$less@H@std@@V?$allocator@U?$pair@$$CBHPAVMusicTrack@@@std@@@3@$0A@@std@@@std@@QBEABU?$pair@$$CBHPAVMusicTrack@@@2@XZ PROC NEAR ; std::_Tree<std::_Tmap_traits<int,MusicTrack *,std::less<int>,std::allocator<std::pair<int const ,MusicTrack *> >,0> >::const_iterator::operator*, COMDAT
; _this$ = eax

; 205  : 			return (_Myval(_Ptr));

  00000	8b 00		 mov	 eax, DWORD PTR [eax]
  00002	83 c0 0c	 add	 eax, 12			; 0000000cH

; 206  : 			}

  00005	c3		 ret	 0
??Dconst_iterator@?$_Tree@V?$_Tmap_traits@HPAVMusicTrack@@U?$less@H@std@@V?$allocator@U?$pair@$$CBHPAVMusicTrack@@@std@@@3@$0A@@std@@@std@@QBEABU?$pair@$$CBHPAVMusicTrack@@@2@XZ ENDP ; std::_Tree<std::_Tmap_traits<int,MusicTrack *,std::less<int>,std::allocator<std::pair<int const ,MusicTrack *> >,0> >::const_iterator::operator*
; Function compile flags: /Ogsy
_TEXT	ENDS
;	COMDAT ??Fiterator@?$_Tree@V?$_Tmap_traits@HPAVMusicTrack@@U?$less@H@std@@V?$allocator@U?$pair@$$CBHPAVMusicTrack@@@std@@@3@$0A@@std@@@std@@QAEAAV012@XZ
_TEXT	SEGMENT
_this$ = 8						; size = 4
??Fiterator@?$_Tree@V?$_Tmap_traits@HPAVMusicTrack@@U?$less@H@std@@V?$allocator@U?$pair@$$CBHPAVMusicTrack@@@std@@@3@$0A@@std@@@std@@QAEAAV012@XZ PROC NEAR ; std::_Tree<std::_Tmap_traits<int,MusicTrack *,std::less<int>,std::allocator<std::pair<int const ,MusicTrack *> >,0> >::iterator::operator--, COMDAT

; 340  : 			--(*(const_iterator *)this);

  00000	8b 4c 24 04	 mov	 ecx, DWORD PTR _this$[esp-4]
  00004	e8 00 00 00 00	 call	 ?_Dec@const_iterator@?$_Tree@V?$_Tmap_traits@HPAVMusicTrack@@U?$less@H@std@@V?$allocator@U?$pair@$$CBHPAVMusicTrack@@@std@@@3@$0A@@std@@@std@@QAEXXZ ; std::_Tree<std::_Tmap_traits<int,MusicTrack *,std::less<int>,std::allocator<std::pair<int const ,MusicTrack *> >,0> >::const_iterator::_Dec

; 341  : 			return (*this);

  00009	8b 44 24 04	 mov	 eax, DWORD PTR _this$[esp-4]

; 342  : 			}

  0000d	c2 04 00	 ret	 4
??Fiterator@?$_Tree@V?$_Tmap_traits@HPAVMusicTrack@@U?$less@H@std@@V?$allocator@U?$pair@$$CBHPAVMusicTrack@@@std@@@3@$0A@@std@@@std@@QAEAAV012@XZ ENDP ; std::_Tree<std::_Tmap_traits<int,MusicTrack *,std::less<int>,std::allocator<std::pair<int const ,MusicTrack *> >,0> >::iterator::operator--
; Function compile flags: /Ogsy
_TEXT	ENDS
;	COMDAT ??Eiterator@?$_Tree@V?$_Tmap_traits@HPAVMusicTrack@@U?$less@H@std@@V?$allocator@U?$pair@$$CBHPAVMusicTrack@@@std@@@3@$0A@@std@@@std@@QAEAAV012@XZ
_TEXT	SEGMENT
_this$ = 8						; size = 4
??Eiterator@?$_Tree@V?$_Tmap_traits@HPAVMusicTrack@@U?$less@H@std@@V?$allocator@U?$pair@$$CBHPAVMusicTrack@@@std@@@3@$0A@@std@@@std@@QAEAAV012@XZ PROC NEAR ; std::_Tree<std::_Tmap_traits<int,MusicTrack *,std::less<int>,std::allocator<std::pair<int const ,MusicTrack *> >,0> >::iterator::operator++, COMDAT

; 327  : 			++(*(const_iterator *)this);

  00000	8b 54 24 04	 mov	 edx, DWORD PTR _this$[esp-4]
  00004	e8 00 00 00 00	 call	 ?_Inc@const_iterator@?$_Tree@V?$_Tmap_traits@HPAVMusicTrack@@U?$less@H@std@@V?$allocator@U?$pair@$$CBHPAVMusicTrack@@@std@@@3@$0A@@std@@@std@@QAEXXZ ; std::_Tree<std::_Tmap_traits<int,MusicTrack *,std::less<int>,std::allocator<std::pair<int const ,MusicTrack *> >,0> >::const_iterator::_Inc

; 328  : 			return (*this);

  00009	8b 44 24 04	 mov	 eax, DWORD PTR _this$[esp-4]

; 329  : 			}

  0000d	c2 04 00	 ret	 4
??Eiterator@?$_Tree@V?$_Tmap_traits@HPAVMusicTrack@@U?$less@H@std@@V?$allocator@U?$pair@$$CBHPAVMusicTrack@@@std@@@3@$0A@@std@@@std@@QAEAAV012@XZ ENDP ; std::_Tree<std::_Tmap_traits<int,MusicTrack *,std::less<int>,std::allocator<std::pair<int const ,MusicTrack *> >,0> >::iterator::operator++
; Function compile flags: /Ogsy
_TEXT	ENDS
;	COMDAT ?_Rmost@?$_Tree@V?$_Tmap_traits@HPAVMusicTrack@@U?$less@H@std@@V?$allocator@U?$pair@$$CBHPAVMusicTrack@@@std@@@3@$0A@@std@@@std@@IAEAAPAU_Node@?$_Tree_nod@V?$_Tmap_traits@HPAVMusicTrack@@U?$less@H@std@@V?$allocator@U?$pair@$$CBHPAVMusicTrack@@@std@@@3@$0A@@std@@@2@XZ
_TEXT	SEGMENT
?_Rmost@?$_Tree@V?$_Tmap_traits@HPAVMusicTrack@@U?$less@H@std@@V?$allocator@U?$pair@$$CBHPAVMusicTrack@@@std@@@3@$0A@@std@@@std@@IAEAAPAU_Node@?$_Tree_nod@V?$_Tmap_traits@HPAVMusicTrack@@U?$less@H@std@@V?$allocator@U?$pair@$$CBHPAVMusicTrack@@@std@@@3@$0A@@std@@@2@XZ PROC NEAR ; std::_Tree<std::_Tmap_traits<int,MusicTrack *,std::less<int>,std::allocator<std::pair<int const ,MusicTrack *> >,0> >::_Rmost, COMDAT
; _this$ = eax

; 1049 : 		return (_Right(_Myhead));

  00000	8b 40 04	 mov	 eax, DWORD PTR [eax+4]
  00003	83 c0 08	 add	 eax, 8

; 1050 : 		}

  00006	c3		 ret	 0
?_Rmost@?$_Tree@V?$_Tmap_traits@HPAVMusicTrack@@U?$less@H@std@@V?$allocator@U?$pair@$$CBHPAVMusicTrack@@@std@@@3@$0A@@std@@@std@@IAEAAPAU_Node@?$_Tree_nod@V?$_Tmap_traits@HPAVMusicTrack@@U?$less@H@std@@V?$allocator@U?$pair@$$CBHPAVMusicTrack@@@std@@@3@$0A@@std@@@2@XZ ENDP ; std::_Tree<std::_Tmap_traits<int,MusicTrack *,std::less<int>,std::allocator<std::pair<int const ,MusicTrack *> >,0> >::_Rmost
; Function compile flags: /Ogsy
_TEXT	ENDS
;	COMDAT ?_Lbound@?$_Tree@V?$_Tmap_traits@HPAVMusicTrack@@U?$less@H@std@@V?$allocator@U?$pair@$$CBHPAVMusicTrack@@@std@@@3@$0A@@std@@@std@@IBEPAU_Node@?$_Tree_nod@V?$_Tmap_traits@HPAVMusicTrack@@U?$less@H@std@@V?$allocator@U?$pair@$$CBHPAVMusicTrack@@@std@@@3@$0A@@std@@@2@ABH@Z
_TEXT	SEGMENT
?_Lbound@?$_Tree@V?$_Tmap_traits@HPAVMusicTrack@@U?$less@H@std@@V?$allocator@U?$pair@$$CBHPAVMusicTrack@@@std@@@3@$0A@@std@@@std@@IBEPAU_Node@?$_Tree_nod@V?$_Tmap_traits@HPAVMusicTrack@@U?$less@H@std@@V?$allocator@U?$pair@$$CBHPAVMusicTrack@@@std@@@3@$0A@@std@@@2@ABH@Z PROC NEAR ; std::_Tree<std::_Tmap_traits<int,MusicTrack *,std::less<int>,std::allocator<std::pair<int const ,MusicTrack *> >,0> >::_Lbound, COMDAT
; _this$ = eax
; __Keyval$ = edx

; 988  : 		_Nodeptr _Pnode = _Root();

  00000	8b 40 04	 mov	 eax, DWORD PTR [eax+4]
  00003	8b 48 04	 mov	 ecx, DWORD PTR [eax+4]

; 989  : 		_Nodeptr _Wherenode = _Myhead;	// end() if search fails
; 990  : 
; 991  : 		while (!_Isnil(_Pnode))

  00006	80 79 15 00	 cmp	 BYTE PTR [ecx+21], 0
  0000a	75 16		 jne	 SHORT $L24654
  0000c	8b 12		 mov	 edx, DWORD PTR [edx]
$L24653:

; 992  : 			if (this->comp(_Key(_Pnode), _Keyval))

  0000e	39 51 0c	 cmp	 DWORD PTR [ecx+12], edx
  00011	7d 05		 jge	 SHORT $L24655

; 993  : 				_Pnode = _Right(_Pnode);	// descend right subtree

  00013	8b 49 08	 mov	 ecx, DWORD PTR [ecx+8]

; 994  : 			else

  00016	eb 04		 jmp	 SHORT $L24656
$L24655:

; 995  : 				{	// _Pnode not less than _Keyval, remember it
; 996  : 				_Wherenode = _Pnode;

  00018	8b c1		 mov	 eax, ecx

; 997  : 				_Pnode = _Left(_Pnode);	// descend left subtree

  0001a	8b 09		 mov	 ecx, DWORD PTR [ecx]
$L24656:

; 989  : 		_Nodeptr _Wherenode = _Myhead;	// end() if search fails
; 990  : 
; 991  : 		while (!_Isnil(_Pnode))

  0001c	80 79 15 00	 cmp	 BYTE PTR [ecx+21], 0
  00020	74 ec		 je	 SHORT $L24653
$L24654:

; 998  : 				}
; 999  : 
; 1000 : 		return (_Wherenode);	// return best remembered candidate
; 1001 : 		}

  00022	c3		 ret	 0
?_Lbound@?$_Tree@V?$_Tmap_traits@HPAVMusicTrack@@U?$less@H@std@@V?$allocator@U?$pair@$$CBHPAVMusicTrack@@@std@@@3@$0A@@std@@@std@@IBEPAU_Node@?$_Tree_nod@V?$_Tmap_traits@HPAVMusicTrack@@U?$less@H@std@@V?$allocator@U?$pair@$$CBHPAVMusicTrack@@@std@@@3@$0A@@std@@@2@ABH@Z ENDP ; std::_Tree<std::_Tmap_traits<int,MusicTrack *,std::less<int>,std::allocator<std::pair<int const ,MusicTrack *> >,0> >::_Lbound
; Function compile flags: /Ogsy
_TEXT	ENDS
;	COMDAT ?begin@?$_Tree@V?$_Tmap_traits@HPAVMusicTrack@@U?$less@H@std@@V?$allocator@U?$pair@$$CBHPAVMusicTrack@@@std@@@3@$0A@@std@@@std@@QAE?AViterator@12@XZ
_TEXT	SEGMENT
?begin@?$_Tree@V?$_Tmap_traits@HPAVMusicTrack@@U?$less@H@std@@V?$allocator@U?$pair@$$CBHPAVMusicTrack@@@std@@@3@$0A@@std@@@std@@QAE?AViterator@12@XZ PROC NEAR ; std::_Tree<std::_Tmap_traits<int,MusicTrack *,std::less<int>,std::allocator<std::pair<int const ,MusicTrack *> >,0> >::begin, COMDAT
; _this$ = ecx
; ___$ReturnUdt$ = eax

; 408  : 		return (_TREE_ITERATOR(_Lmost()));

  00000	8b 49 04	 mov	 ecx, DWORD PTR [ecx+4]
  00003	8b 09		 mov	 ecx, DWORD PTR [ecx]
  00005	89 08		 mov	 DWORD PTR [eax], ecx

; 409  : 		}

  00007	c3		 ret	 0
?begin@?$_Tree@V?$_Tmap_traits@HPAVMusicTrack@@U?$less@H@std@@V?$allocator@U?$pair@$$CBHPAVMusicTrack@@@std@@@3@$0A@@std@@@std@@QAE?AViterator@12@XZ ENDP ; std::_Tree<std::_Tmap_traits<int,MusicTrack *,std::less<int>,std::allocator<std::pair<int const ,MusicTrack *> >,0> >::begin
; Function compile flags: /Ogsy
_TEXT	ENDS
;	COMDAT ??Diterator@?$_Tree@V?$_Tmap_traits@HPAVMusicTrack@@U?$less@H@std@@V?$allocator@U?$pair@$$CBHPAVMusicTrack@@@std@@@3@$0A@@std@@@std@@QBEAAU?$pair@$$CBHPAVMusicTrack@@@2@XZ
_TEXT	SEGMENT
??Diterator@?$_Tree@V?$_Tmap_traits@HPAVMusicTrack@@U?$less@H@std@@V?$allocator@U?$pair@$$CBHPAVMusicTrack@@@std@@@3@$0A@@std@@@std@@QBEAAU?$pair@$$CBHPAVMusicTrack@@@2@XZ PROC NEAR ; std::_Tree<std::_Tmap_traits<int,MusicTrack *,std::less<int>,std::allocator<std::pair<int const ,MusicTrack *> >,0> >::iterator::operator*, COMDAT
; _this$ = eax

; 317  : 			return ((reference)**(const_iterator *)this);

  00000	8b 00		 mov	 eax, DWORD PTR [eax]
  00002	83 c0 0c	 add	 eax, 12			; 0000000cH

; 318  : 			}

  00005	c3		 ret	 0
??Diterator@?$_Tree@V?$_Tmap_traits@HPAVMusicTrack@@U?$less@H@std@@V?$allocator@U?$pair@$$CBHPAVMusicTrack@@@std@@@3@$0A@@std@@@std@@QBEAAU?$pair@$$CBHPAVMusicTrack@@@2@XZ ENDP ; std::_Tree<std::_Tmap_traits<int,MusicTrack *,std::less<int>,std::allocator<std::pair<int const ,MusicTrack *> >,0> >::iterator::operator*
; Function compile flags: /Ogsy
_TEXT	ENDS
;	COMDAT ?lower_bound@?$_Tree@V?$_Tmap_traits@HPAVMusicTrack@@U?$less@H@std@@V?$allocator@U?$pair@$$CBHPAVMusicTrack@@@std@@@3@$0A@@std@@@std@@QAE?AViterator@12@ABH@Z
_TEXT	SEGMENT
?lower_bound@?$_Tree@V?$_Tmap_traits@HPAVMusicTrack@@U?$less@H@std@@V?$allocator@U?$pair@$$CBHPAVMusicTrack@@@std@@@3@$0A@@std@@@std@@QAE?AViterator@12@ABH@Z PROC NEAR ; std::_Tree<std::_Tmap_traits<int,MusicTrack *,std::less<int>,std::allocator<std::pair<int const ,MusicTrack *> >,0> >::lower_bound, COMDAT
; _this$ = eax
; ___$ReturnUdt$ = esi
; __Keyval$ = edx

; 810  : 		return (_TREE_ITERATOR(_Lbound(_Keyval)));

  00000	e8 00 00 00 00	 call	 ?_Lbound@?$_Tree@V?$_Tmap_traits@HPAVMusicTrack@@U?$less@H@std@@V?$allocator@U?$pair@$$CBHPAVMusicTrack@@@std@@@3@$0A@@std@@@std@@IBEPAU_Node@?$_Tree_nod@V?$_Tmap_traits@HPAVMusicTrack@@U?$less@H@std@@V?$allocator@U?$pair@$$CBHPAVMusicTrack@@@std@@@3@$0A@@std@@@2@ABH@Z ; std::_Tree<std::_Tmap_traits<int,MusicTrack *,std::less<int>,std::allocator<std::pair<int const ,MusicTrack *> >,0> >::_Lbound
  00005	89 06		 mov	 DWORD PTR [esi], eax
  00007	8b c6		 mov	 eax, esi

; 811  : 		}

  00009	c3		 ret	 0
?lower_bound@?$_Tree@V?$_Tmap_traits@HPAVMusicTrack@@U?$less@H@std@@V?$allocator@U?$pair@$$CBHPAVMusicTrack@@@std@@@3@$0A@@std@@@std@@QAE?AViterator@12@ABH@Z ENDP ; std::_Tree<std::_Tmap_traits<int,MusicTrack *,std::less<int>,std::allocator<std::pair<int const ,MusicTrack *> >,0> >::lower_bound
; Function compile flags: /Ogsy
;	COMDAT ?_Rrotate@?$_Tree@V?$_Tmap_traits@HPAVMusicTrack@@U?$less@H@std@@V?$allocator@U?$pair@$$CBHPAVMusicTrack@@@std@@@3@$0A@@std@@@std@@IAEXPAU_Node@?$_Tree_nod@V?$_Tmap_traits@HPAVMusicTrack@@U?$less@H@std@@V?$allocator@U?$pair@$$CBHPAVMusicTrack@@@std@@@3@$0A@@std@@@2@@Z
_TEXT	SEGMENT
_this$ = 8						; size = 4
?_Rrotate@?$_Tree@V?$_Tmap_traits@HPAVMusicTrack@@U?$less@H@std@@V?$allocator@U?$pair@$$CBHPAVMusicTrack@@@std@@@3@$0A@@std@@@std@@IAEXPAU_Node@?$_Tree_nod@V?$_Tmap_traits@HPAVMusicTrack@@U?$less@H@std@@V?$allocator@U?$pair@$$CBHPAVMusicTrack@@@std@@@3@$0A@@std@@@2@@Z PROC NEAR ; std::_Tree<std::_Tmap_traits<int,MusicTrack *,std::less<int>,std::allocator<std::pair<int const ,MusicTrack *> >,0> >::_Rrotate, COMDAT
; __Wherenode$ = ecx

; 1069 : 		_Nodeptr _Pnode = _Left(_Wherenode);

  00000	8b 01		 mov	 eax, DWORD PTR [ecx]

; 1070 : 		_Left(_Wherenode) = _Right(_Pnode);

  00002	8b 50 08	 mov	 edx, DWORD PTR [eax+8]
  00005	89 11		 mov	 DWORD PTR [ecx], edx

; 1071 : 
; 1072 : 		if (!_Isnil(_Right(_Pnode)))

  00007	8b 50 08	 mov	 edx, DWORD PTR [eax+8]
  0000a	80 7a 15 00	 cmp	 BYTE PTR [edx+21], 0
  0000e	75 03		 jne	 SHORT $L24870

; 1073 : 			_Parent(_Right(_Pnode)) = _Wherenode;

  00010	89 4a 04	 mov	 DWORD PTR [edx+4], ecx
$L24870:

; 1074 : 		_Parent(_Pnode) = _Parent(_Wherenode);

  00013	8b 51 04	 mov	 edx, DWORD PTR [ecx+4]
  00016	89 50 04	 mov	 DWORD PTR [eax+4], edx

; 1075 : 
; 1076 : 		if (_Wherenode == _Root())

  00019	8b 54 24 04	 mov	 edx, DWORD PTR _this$[esp-4]
  0001d	8b 52 04	 mov	 edx, DWORD PTR [edx+4]
  00020	3b 4a 04	 cmp	 ecx, DWORD PTR [edx+4]
  00023	75 05		 jne	 SHORT $L24871

; 1077 : 			_Root() = _Pnode;

  00025	89 42 04	 mov	 DWORD PTR [edx+4], eax

; 1078 : 		else if (_Wherenode == _Right(_Parent(_Wherenode)))

  00028	eb 0f		 jmp	 SHORT $L24874
$L24871:
  0002a	8b 51 04	 mov	 edx, DWORD PTR [ecx+4]
  0002d	3b 4a 08	 cmp	 ecx, DWORD PTR [edx+8]
  00030	75 05		 jne	 SHORT $L24873

; 1079 : 			_Right(_Parent(_Wherenode)) = _Pnode;

  00032	89 42 08	 mov	 DWORD PTR [edx+8], eax

; 1080 : 		else

  00035	eb 02		 jmp	 SHORT $L24874
$L24873:

; 1081 : 			_Left(_Parent(_Wherenode)) = _Pnode;

  00037	89 02		 mov	 DWORD PTR [edx], eax
$L24874:

; 1082 : 
; 1083 : 		_Right(_Pnode) = _Wherenode;

  00039	89 48 08	 mov	 DWORD PTR [eax+8], ecx

; 1084 : 		_Parent(_Wherenode) = _Pnode;

  0003c	89 41 04	 mov	 DWORD PTR [ecx+4], eax

; 1085 : 		}

  0003f	c2 04 00	 ret	 4
?_Rrotate@?$_Tree@V?$_Tmap_traits@HPAVMusicTrack@@U?$less@H@std@@V?$allocator@U?$pair@$$CBHPAVMusicTrack@@@std@@@3@$0A@@std@@@std@@IAEXPAU_Node@?$_Tree_nod@V?$_Tmap_traits@HPAVMusicTrack@@U?$less@H@std@@V?$allocator@U?$pair@$$CBHPAVMusicTrack@@@std@@@3@$0A@@std@@@2@@Z ENDP ; std::_Tree<std::_Tmap_traits<int,MusicTrack *,std::less<int>,std::allocator<std::pair<int const ,MusicTrack *> >,0> >::_Rrotate
; Function compile flags: /Ogsy
; File f:\nes\nsdl\src\nsc\sub.cpp
_TEXT	SEGMENT
_MUS$ = 8						; size = 4
?getAsm@Sub@@UAEXPAVMusicFile@@@Z PROC NEAR		; Sub::getAsm
; _this$ = ecx

; 65   : {

  00000	56		 push	 esi

; 66   : 	*MUS << MUS->Header.Label.c_str() << "SUB" << m_id << ":" << endl;

  00001	8b 74 24 08	 mov	 esi, DWORD PTR _MUS$[esp]
  00005	8d 86 a8 00 00
	00		 lea	 eax, DWORD PTR [esi+168]
  0000b	83 78 18 10	 cmp	 DWORD PTR [eax+24], 16	; 00000010H
  0000f	57		 push	 edi
  00010	8b f9		 mov	 edi, ecx
  00012	72 05		 jb	 SHORT $L64363
  00014	8b 40 04	 mov	 eax, DWORD PTR [eax+4]
  00017	eb 03		 jmp	 SHORT $L64364
$L64363:
  00019	83 c0 04	 add	 eax, 4
$L64364:
  0001c	68 00 00 00 00	 push	 OFFSET FLAT:??_C@_01JLIPDDHJ@?3?$AA@
  00021	ff 77 3c	 push	 DWORD PTR [edi+60]
  00024	8d 4e 3c	 lea	 ecx, DWORD PTR [esi+60]
  00027	68 00 00 00 00	 push	 OFFSET FLAT:??_C@_03KPDLEBHD@SUB?$AA@
  0002c	50		 push	 eax
  0002d	8b c6		 mov	 eax, esi
  0002f	f7 d8		 neg	 eax
  00031	1b c0		 sbb	 eax, eax
  00033	23 c1		 and	 eax, ecx
  00035	50		 push	 eax
  00036	e8 00 00 00 00	 call	 ??$?6U?$char_traits@D@std@@@std@@YAAAV?$basic_ostream@DU?$char_traits@D@std@@@0@AAV10@PBD@Z ; std::operator<<<std::char_traits<char> >
  0003b	59		 pop	 ecx
  0003c	59		 pop	 ecx
  0003d	50		 push	 eax
  0003e	e8 00 00 00 00	 call	 ??$?6U?$char_traits@D@std@@@std@@YAAAV?$basic_ostream@DU?$char_traits@D@std@@@0@AAV10@PBD@Z ; std::operator<<<std::char_traits<char> >
  00043	59		 pop	 ecx
  00044	59		 pop	 ecx
  00045	50		 push	 eax
  00046	e8 00 00 00 00	 call	 ??6?$basic_ostream@DU?$char_traits@D@std@@@std@@QAEAAV01@I@Z ; std::basic_ostream<char,std::char_traits<char> >::operator<<
  0004b	50		 push	 eax
  0004c	e8 00 00 00 00	 call	 ??$?6U?$char_traits@D@std@@@std@@YAAAV?$basic_ostream@DU?$char_traits@D@std@@@0@AAV10@PBD@Z ; std::operator<<<std::char_traits<char> >
  00051	50		 push	 eax
  00052	e8 00 00 00 00	 call	 ?endl@std@@YAAAV?$basic_ostream@DU?$char_traits@D@std@@@1@AAV21@@Z ; std::endl
  00057	83 c4 0c	 add	 esp, 12			; 0000000cH

; 67   : 	TrackSet::getAsm(MUS);

  0005a	56		 push	 esi
  0005b	8b cf		 mov	 ecx, edi
  0005d	e8 00 00 00 00	 call	 ?getAsm@TrackSet@@UAEXPAVMusicFile@@@Z ; TrackSet::getAsm
  00062	5f		 pop	 edi
  00063	5e		 pop	 esi

; 68   : }

  00064	c2 04 00	 ret	 4
?getAsm@Sub@@UAEXPAVMusicFile@@@Z ENDP			; Sub::getAsm
;	COMDAT xdata$x
; File c:\program files (x86)\microsoft visual studio .net 2003\vc7\include\xtree
xdata$x	SEGMENT
$T85110	DD	0ffffffffH
	DD	FLAT:$L84840
$T85102	DD	019930520H
	DD	01H
	DD	FLAT:$T85110
	DD	2 DUP(00H)
	DD	2 DUP(00H)
; Function compile flags: /Ogsy
xdata$x	ENDS
;	COMDAT ?_Insert@?$_Tree@V?$_Tmap_traits@HPAVMusicTrack@@U?$less@H@std@@V?$allocator@U?$pair@$$CBHPAVMusicTrack@@@std@@@3@$0A@@std@@@std@@IAE?AViterator@12@_NPAU_Node@?$_Tree_nod@V?$_Tmap_traits@HPAVMusicTrack@@U?$less@H@std@@V?$allocator@U?$pair@$$CBHPAVMusicTrack@@@std@@@3@$0A@@std@@@2@ABU?$pair@$$CBHPAVMusicTrack@@@2@@Z
_TEXT	SEGMENT
$T84838 = -80						; size = 40
$T84839 = -40						; size = 28
__$EHRec$ = -12						; size = 12
___$ReturnUdt$ = 8					; size = 4
__Addleft$ = 12						; size = 1
__Val$ = 16						; size = 4
?_Insert@?$_Tree@V?$_Tmap_traits@HPAVMusicTrack@@U?$less@H@std@@V?$allocator@U?$pair@$$CBHPAVMusicTrack@@@std@@@3@$0A@@std@@@std@@IAE?AViterator@12@_NPAU_Node@?$_Tree_nod@V?$_Tmap_traits@HPAVMusicTrack@@U?$less@H@std@@V?$allocator@U?$pair@$$CBHPAVMusicTrack@@@std@@@3@$0A@@std@@@2@ABU?$pair@$$CBHPAVMusicTrack@@@2@@Z PROC NEAR ; std::_Tree<std::_Tmap_traits<int,MusicTrack *,std::less<int>,std::allocator<std::pair<int const ,MusicTrack *> >,0> >::_Insert, COMDAT
; _this$ = edi
; __Wherenode$ = ecx

; 911  : 		{	// add node with value next to _Wherenode, to left if _Addnode

  00000	b8 00 00 00 00	 mov	 eax, __ehhandler$?_Insert@?$_Tree@V?$_Tmap_traits@HPAVMusicTrack@@U?$less@H@std@@V?$allocator@U?$pair@$$CBHPAVMusicTrack@@@std@@@3@$0A@@std@@@std@@IAE?AViterator@12@_NPAU_Node@?$_Tree_nod@V?$_Tmap_traits@HPAVMusicTrack@@U?$less@H@std@@V?$allocator@U?$pair@$$CBHPAVMusicTrack@@@std@@@3@$0A@@std@@@2@ABU?$pair@$$CBHPAVMusicTrack@@@2@@Z
  00005	e8 00 00 00 00	 call	 __EH_prolog
  0000a	83 ec 44	 sub	 esp, 68			; 00000044H

; 912  : 		if (max_size() - 1 <= _Mysize)

  0000d	81 7f 08 fe ff
	ff 1f		 cmp	 DWORD PTR [edi+8], 536870910 ; 1ffffffeH
  00014	53		 push	 ebx
  00015	56		 push	 esi
  00016	8b f1		 mov	 esi, ecx
  00018	72 32		 jb	 SHORT $L84862

; 913  : 			_THROW(length_error, "map/set<T> too long");

  0001a	68 00 00 00 00	 push	 OFFSET FLAT:??_C@_0BE@JONHPENG@map?1set?$DMT?$DO?5too?5long?$AA@
  0001f	8d 4d d8	 lea	 ecx, DWORD PTR $T84839[ebp]
  00022	e8 00 00 00 00	 call	 ??0?$basic_string@DU?$char_traits@D@std@@V?$allocator@D@2@@std@@QAE@PBD@Z ; std::basic_string<char,std::char_traits<char>,std::allocator<char> >::basic_string<char,std::char_traits<char>,std::allocator<char> >
  00027	83 65 fc 00	 and	 DWORD PTR __$EHRec$[ebp+8], 0
  0002b	8d 45 d8	 lea	 eax, DWORD PTR $T84839[ebp]
  0002e	50		 push	 eax
  0002f	8d 4d b0	 lea	 ecx, DWORD PTR $T84838[ebp]
  00032	e8 00 00 00 00	 call	 ??0logic_error@std@@QAE@ABV?$basic_string@DU?$char_traits@D@std@@V?$allocator@D@2@@1@@Z ; std::logic_error::logic_error
  00037	68 00 00 00 00	 push	 OFFSET FLAT:__TI3?AVlength_error@std@@
  0003c	8d 45 b0	 lea	 eax, DWORD PTR $T84838[ebp]
  0003f	50		 push	 eax
  00040	c7 45 b0 00 00
	00 00		 mov	 DWORD PTR $T84838[ebp], OFFSET FLAT:??_7length_error@std@@6B@
  00047	e8 00 00 00 00	 call	 __CxxThrowException@8
$L85111:
$L84862:

; 914  : 		_Nodeptr _Newnode = _Buynode(_Myhead, _Wherenode, _Myhead,
; 915  : 			_Val, _Red);

  0004c	8b 47 04	 mov	 eax, DWORD PTR [edi+4]
  0004f	6a 00		 push	 0
  00051	ff 75 10	 push	 DWORD PTR __Val$[ebp]
  00054	50		 push	 eax
  00055	56		 push	 esi
  00056	50		 push	 eax
  00057	e8 00 00 00 00	 call	 ?_Buynode@?$_Tree@V?$_Tmap_traits@HPAVMusicTrack@@U?$less@H@std@@V?$allocator@U?$pair@$$CBHPAVMusicTrack@@@std@@@3@$0A@@std@@@std@@IAEPAU_Node@?$_Tree_nod@V?$_Tmap_traits@HPAVMusicTrack@@U?$less@H@std@@V?$allocator@U?$pair@$$CBHPAVMusicTrack@@@std@@@3@$0A@@std@@@2@PAU342@00ABU?$pair@$$CBHPAVMusicTrack@@@2@D@Z ; std::_Tree<std::_Tmap_traits<int,MusicTrack *,std::less<int>,std::allocator<std::pair<int const ,MusicTrack *> >,0> >::_Buynode

; 916  : 
; 917  : 		++_Mysize;

  0005c	ff 47 08	 inc	 DWORD PTR [edi+8]
  0005f	8b d8		 mov	 ebx, eax

; 918  : 		if (_Wherenode == _Myhead)

  00061	8b 47 04	 mov	 eax, DWORD PTR [edi+4]
  00064	3b f0		 cmp	 esi, eax
  00066	75 0d		 jne	 SHORT $L24629

; 919  : 			{	// first node in tree, just set head values
; 920  : 			_Root() = _Newnode;

  00068	89 58 04	 mov	 DWORD PTR [eax+4], ebx

; 921  : 			_Lmost() = _Newnode, _Rmost() = _Newnode;

  0006b	8b 47 04	 mov	 eax, DWORD PTR [edi+4]
  0006e	89 18		 mov	 DWORD PTR [eax], ebx
  00070	8b 47 04	 mov	 eax, DWORD PTR [edi+4]

; 922  : 			}
; 923  : 		else if (_Addleft)

  00073	eb 1e		 jmp	 SHORT $L85106
$L24629:
  00075	80 7d 0c 00	 cmp	 BYTE PTR __Addleft$[ebp], 0
  00079	74 0d		 je	 SHORT $L24631

; 924  : 			{	// add to left of _Wherenode
; 925  : 			_Left(_Wherenode) = _Newnode;

  0007b	89 1e		 mov	 DWORD PTR [esi], ebx

; 926  : 			if (_Wherenode == _Lmost())

  0007d	8b 47 04	 mov	 eax, DWORD PTR [edi+4]
  00080	3b 30		 cmp	 esi, DWORD PTR [eax]
  00082	75 12		 jne	 SHORT $L24634

; 927  : 				_Lmost() = _Newnode;

  00084	89 18		 mov	 DWORD PTR [eax], ebx

; 928  : 			}
; 929  : 		else

  00086	eb 0e		 jmp	 SHORT $L24634
$L24631:

; 930  : 			{	// add to right of _Wherenode
; 931  : 			_Right(_Wherenode) = _Newnode;

  00088	89 5e 08	 mov	 DWORD PTR [esi+8], ebx

; 932  : 			if (_Wherenode == _Rmost())

  0008b	8b 47 04	 mov	 eax, DWORD PTR [edi+4]
  0008e	3b 70 08	 cmp	 esi, DWORD PTR [eax+8]
  00091	75 03		 jne	 SHORT $L24634
$L85106:

; 933  : 				_Rmost() = _Newnode;

  00093	89 58 08	 mov	 DWORD PTR [eax+8], ebx
$L24634:

; 934  : 			}
; 935  : 
; 936  : 		for (_Nodeptr _Pnode = _Newnode; _Color(_Parent(_Pnode)) == _Red; )

  00096	8b f3		 mov	 esi, ebx
  00098	8d 43 04	 lea	 eax, DWORD PTR [ebx+4]
  0009b	e9 8f 00 00 00	 jmp	 $L85108
$L24637:

; 937  : 			if (_Parent(_Pnode) == _Left(_Parent(_Parent(_Pnode))))

  000a0	8b 08		 mov	 ecx, DWORD PTR [eax]
  000a2	8b 51 04	 mov	 edx, DWORD PTR [ecx+4]
  000a5	8b 12		 mov	 edx, DWORD PTR [edx]
  000a7	3b ca		 cmp	 ecx, edx
  000a9	75 52		 jne	 SHORT $L24639

; 938  : 				{	// fixup red-red in left subtree
; 939  : 				_Wherenode = _Right(_Parent(_Parent(_Pnode)));

  000ab	8b 51 04	 mov	 edx, DWORD PTR [ecx+4]
  000ae	8b 52 08	 mov	 edx, DWORD PTR [edx+8]

; 940  : 				if (_Color(_Wherenode) == _Red)

  000b1	80 7a 14 00	 cmp	 BYTE PTR [edx+20], 0
  000b5	75 1a		 jne	 SHORT $L24640
$L85109:

; 941  : 					{	// parent has two red children, blacken both
; 942  : 					_Color(_Parent(_Pnode)) = _Black;

  000b7	8b 08		 mov	 ecx, DWORD PTR [eax]
  000b9	c6 41 14 01	 mov	 BYTE PTR [ecx+20], 1

; 943  : 					_Color(_Wherenode) = _Black;

  000bd	c6 42 14 01	 mov	 BYTE PTR [edx+20], 1

; 944  : 					_Color(_Parent(_Parent(_Pnode))) = _Red;

  000c1	8b 08		 mov	 ecx, DWORD PTR [eax]
  000c3	8b 49 04	 mov	 ecx, DWORD PTR [ecx+4]
  000c6	c6 41 14 00	 mov	 BYTE PTR [ecx+20], 0

; 945  : 					_Pnode = _Parent(_Parent(_Pnode));

  000ca	8b 00		 mov	 eax, DWORD PTR [eax]
  000cc	8b 70 04	 mov	 esi, DWORD PTR [eax+4]

; 946  : 					}
; 947  : 				else

  000cf	eb 5b		 jmp	 SHORT $L24645
$L24640:

; 948  : 					{	// parent has red and black children
; 949  : 					if (_Pnode == _Right(_Parent(_Pnode)))

  000d1	3b 71 08	 cmp	 esi, DWORD PTR [ecx+8]
  000d4	75 08		 jne	 SHORT $L24642

; 950  : 						{	// rotate right child to left
; 951  : 						_Pnode = _Parent(_Pnode);
; 952  : 						_Lrotate(_Pnode);

  000d6	57		 push	 edi
  000d7	8b f1		 mov	 esi, ecx
  000d9	e8 00 00 00 00	 call	 ?_Lrotate@?$_Tree@V?$_Tmap_traits@HPAVMusicTrack@@U?$less@H@std@@V?$allocator@U?$pair@$$CBHPAVMusicTrack@@@std@@@3@$0A@@std@@@std@@IAEXPAU_Node@?$_Tree_nod@V?$_Tmap_traits@HPAVMusicTrack@@U?$less@H@std@@V?$allocator@U?$pair@$$CBHPAVMusicTrack@@@std@@@3@$0A@@std@@@2@@Z ; std::_Tree<std::_Tmap_traits<int,MusicTrack *,std::less<int>,std::allocator<std::pair<int const ,MusicTrack *> >,0> >::_Lrotate
$L24642:

; 953  : 						}
; 954  : 					_Color(_Parent(_Pnode)) = _Black;	// propagate red up

  000de	8b 46 04	 mov	 eax, DWORD PTR [esi+4]
  000e1	c6 40 14 01	 mov	 BYTE PTR [eax+20], 1

; 955  : 					_Color(_Parent(_Parent(_Pnode))) = _Red;

  000e5	8b 46 04	 mov	 eax, DWORD PTR [esi+4]
  000e8	8b 40 04	 mov	 eax, DWORD PTR [eax+4]
  000eb	c6 40 14 00	 mov	 BYTE PTR [eax+20], 0

; 956  : 					_Rrotate(_Parent(_Parent(_Pnode)));

  000ef	8b 46 04	 mov	 eax, DWORD PTR [esi+4]
  000f2	8b 48 04	 mov	 ecx, DWORD PTR [eax+4]
  000f5	57		 push	 edi
  000f6	e8 00 00 00 00	 call	 ?_Rrotate@?$_Tree@V?$_Tmap_traits@HPAVMusicTrack@@U?$less@H@std@@V?$allocator@U?$pair@$$CBHPAVMusicTrack@@@std@@@3@$0A@@std@@@std@@IAEXPAU_Node@?$_Tree_nod@V?$_Tmap_traits@HPAVMusicTrack@@U?$less@H@std@@V?$allocator@U?$pair@$$CBHPAVMusicTrack@@@std@@@3@$0A@@std@@@2@@Z ; std::_Tree<std::_Tmap_traits<int,MusicTrack *,std::less<int>,std::allocator<std::pair<int const ,MusicTrack *> >,0> >::_Rrotate

; 957  : 					}
; 958  : 				}
; 959  : 			else

  000fb	eb 2f		 jmp	 SHORT $L24645
$L24639:

; 960  : 				{	// fixup red-red in right subtree
; 961  : 				_Wherenode = _Left(_Parent(_Parent(_Pnode)));
; 962  : 				if (_Color(_Wherenode) == _Red)

  000fd	80 7a 14 00	 cmp	 BYTE PTR [edx+20], 0

; 963  : 					{	// parent has two red children, blacken both
; 964  : 					_Color(_Parent(_Pnode)) = _Black;
; 965  : 					_Color(_Wherenode) = _Black;
; 966  : 					_Color(_Parent(_Parent(_Pnode))) = _Red;
; 967  : 					_Pnode = _Parent(_Parent(_Pnode));
; 968  : 					}
; 969  : 				else

  00101	74 b4		 je	 SHORT $L85109

; 970  : 					{	// parent has red and black children
; 971  : 					if (_Pnode == _Left(_Parent(_Pnode)))

  00103	3b 31		 cmp	 esi, DWORD PTR [ecx]
  00105	75 08		 jne	 SHORT $L24646

; 972  : 						{	// rotate left child to right
; 973  : 						_Pnode = _Parent(_Pnode);
; 974  : 						_Rrotate(_Pnode);

  00107	57		 push	 edi
  00108	8b f1		 mov	 esi, ecx
  0010a	e8 00 00 00 00	 call	 ?_Rrotate@?$_Tree@V?$_Tmap_traits@HPAVMusicTrack@@U?$less@H@std@@V?$allocator@U?$pair@$$CBHPAVMusicTrack@@@std@@@3@$0A@@std@@@std@@IAEXPAU_Node@?$_Tree_nod@V?$_Tmap_traits@HPAVMusicTrack@@U?$less@H@std@@V?$allocator@U?$pair@$$CBHPAVMusicTrack@@@std@@@3@$0A@@std@@@2@@Z ; std::_Tree<std::_Tmap_traits<int,MusicTrack *,std::less<int>,std::allocator<std::pair<int const ,MusicTrack *> >,0> >::_Rrotate
$L24646:

; 975  : 						}
; 976  : 					_Color(_Parent(_Pnode)) = _Black;	// propagate red up

  0010f	8b 46 04	 mov	 eax, DWORD PTR [esi+4]
  00112	c6 40 14 01	 mov	 BYTE PTR [eax+20], 1

; 977  : 					_Color(_Parent(_Parent(_Pnode))) = _Red;

  00116	8b 46 04	 mov	 eax, DWORD PTR [esi+4]
  00119	8b 40 04	 mov	 eax, DWORD PTR [eax+4]
  0011c	c6 40 14 00	 mov	 BYTE PTR [eax+20], 0

; 978  : 					_Lrotate(_Parent(_Parent(_Pnode)));

  00120	8b 46 04	 mov	 eax, DWORD PTR [esi+4]
  00123	8b 48 04	 mov	 ecx, DWORD PTR [eax+4]
  00126	57		 push	 edi
  00127	e8 00 00 00 00	 call	 ?_Lrotate@?$_Tree@V?$_Tmap_traits@HPAVMusicTrack@@U?$less@H@std@@V?$allocator@U?$pair@$$CBHPAVMusicTrack@@@std@@@3@$0A@@std@@@std@@IAEXPAU_Node@?$_Tree_nod@V?$_Tmap_traits@HPAVMusicTrack@@U?$less@H@std@@V?$allocator@U?$pair@$$CBHPAVMusicTrack@@@std@@@3@$0A@@std@@@2@@Z ; std::_Tree<std::_Tmap_traits<int,MusicTrack *,std::less<int>,std::allocator<std::pair<int const ,MusicTrack *> >,0> >::_Lrotate
$L24645:

; 934  : 			}
; 935  : 
; 936  : 		for (_Nodeptr _Pnode = _Newnode; _Color(_Parent(_Pnode)) == _Red; )

  0012c	8d 46 04	 lea	 eax, DWORD PTR [esi+4]
$L85108:
  0012f	8b 08		 mov	 ecx, DWORD PTR [eax]
  00131	80 79 14 00	 cmp	 BYTE PTR [ecx+20], 0
  00135	0f 84 65 ff ff
	ff		 je	 $L24637

; 979  : 					}
; 980  : 				}
; 981  : 
; 982  : 		_Color(_Root()) = _Black;	// root is always black

  0013b	8b 47 04	 mov	 eax, DWORD PTR [edi+4]
  0013e	8b 40 04	 mov	 eax, DWORD PTR [eax+4]

; 983  : 		return (_TREE_ITERATOR(_Newnode));
; 984  : 		}

  00141	8b 4d f4	 mov	 ecx, DWORD PTR __$EHRec$[ebp]
  00144	c6 40 14 01	 mov	 BYTE PTR [eax+20], 1
  00148	8b 45 08	 mov	 eax, DWORD PTR ___$ReturnUdt$[ebp]
  0014b	89 18		 mov	 DWORD PTR [eax], ebx
  0014d	5e		 pop	 esi
  0014e	5b		 pop	 ebx
  0014f	64 89 0d 00 00
	00 00		 mov	 DWORD PTR fs:__except_list, ecx
  00156	c9		 leave
  00157	c2 0c 00	 ret	 12			; 0000000cH
$L85105:
_TEXT	ENDS
;	COMDAT text$x
text$x	SEGMENT
$L84840:
  00000	8d 4d d8	 lea	 ecx, DWORD PTR $T84839[ebp]
  00003	e9 00 00 00 00	 jmp	 ??1?$basic_string@DU?$char_traits@D@std@@V?$allocator@D@2@@std@@QAE@XZ ; std::basic_string<char,std::char_traits<char>,std::allocator<char> >::~basic_string<char,std::char_traits<char>,std::allocator<char> >
__ehhandler$?_Insert@?$_Tree@V?$_Tmap_traits@HPAVMusicTrack@@U?$less@H@std@@V?$allocator@U?$pair@$$CBHPAVMusicTrack@@@std@@@3@$0A@@std@@@std@@IAE?AViterator@12@_NPAU_Node@?$_Tree_nod@V?$_Tmap_traits@HPAVMusicTrack@@U?$less@H@std@@V?$allocator@U?$pair@$$CBHPAVMusicTrack@@@std@@@3@$0A@@std@@@2@ABU?$pair@$$CBHPAVMusicTrack@@@2@@Z:
  00008	b8 00 00 00 00	 mov	 eax, OFFSET FLAT:$T85102
  0000d	e9 00 00 00 00	 jmp	 ___CxxFrameHandler
text$x	ENDS
?_Insert@?$_Tree@V?$_Tmap_traits@HPAVMusicTrack@@U?$less@H@std@@V?$allocator@U?$pair@$$CBHPAVMusicTrack@@@std@@@3@$0A@@std@@@std@@IAE?AViterator@12@_NPAU_Node@?$_Tree_nod@V?$_Tmap_traits@HPAVMusicTrack@@U?$less@H@std@@V?$allocator@U?$pair@$$CBHPAVMusicTrack@@@std@@@3@$0A@@std@@@2@ABU?$pair@$$CBHPAVMusicTrack@@@2@@Z ENDP ; std::_Tree<std::_Tmap_traits<int,MusicTrack *,std::less<int>,std::allocator<std::pair<int const ,MusicTrack *> >,0> >::_Insert
; Function compile flags: /Ogsy
;	COMDAT ?insert@?$_Tree@V?$_Tmap_traits@HPAVMusicTrack@@U?$less@H@std@@V?$allocator@U?$pair@$$CBHPAVMusicTrack@@@std@@@3@$0A@@std@@@std@@QAE?AU?$pair@Viterator@?$_Tree@V?$_Tmap_traits@HPAVMusicTrack@@U?$less@H@std@@V?$allocator@U?$pair@$$CBHPAVMusicTrack@@@std@@@3@$0A@@std@@@std@@_N@2@ABU?$pair@$$CBHPAVMusicTrack@@@2@@Z
_TEXT	SEGMENT
__Where$24597 = -8					; size = 4
__Addleft$ = -4						; size = 1
$T85124 = 8						; size = 4
__Val$ = 8						; size = 4
?insert@?$_Tree@V?$_Tmap_traits@HPAVMusicTrack@@U?$less@H@std@@V?$allocator@U?$pair@$$CBHPAVMusicTrack@@@std@@@3@$0A@@std@@@std@@QAE?AU?$pair@Viterator@?$_Tree@V?$_Tmap_traits@HPAVMusicTrack@@U?$less@H@std@@V?$allocator@U?$pair@$$CBHPAVMusicTrack@@@std@@@3@$0A@@std@@@std@@_N@2@ABU?$pair@$$CBHPAVMusicTrack@@@2@@Z PROC NEAR ; std::_Tree<std::_Tmap_traits<int,MusicTrack *,std::less<int>,std::allocator<std::pair<int const ,MusicTrack *> >,0> >::insert, COMDAT
; _this$ = ebx
; ___$ReturnUdt$ = esi

; 477  : 		{	// try to insert node with value _Val

  00000	55		 push	 ebp
  00001	8b ec		 mov	 ebp, esp
  00003	51		 push	 ecx
  00004	51		 push	 ecx

; 478  : 		_Nodeptr _Trynode = _Root();

  00005	8b 4b 04	 mov	 ecx, DWORD PTR [ebx+4]
  00008	8b 41 04	 mov	 eax, DWORD PTR [ecx+4]

; 479  : 		_Nodeptr _Wherenode = _Myhead;
; 480  : 		bool _Addleft = true;	// add to left of head if tree empty
; 481  : 		while (!_Isnil(_Trynode))

  0000b	80 78 15 00	 cmp	 BYTE PTR [eax+21], 0
  0000f	57		 push	 edi
  00010	8b f9		 mov	 edi, ecx
  00012	c6 45 fc 01	 mov	 BYTE PTR __Addleft$[ebp], 1
  00016	75 21		 jne	 SHORT $L85249

; 501  : 				return (_Pairib(_Insert(_Addleft, _Wherenode, _Val), true));

  00018	8b 4d 08	 mov	 ecx, DWORD PTR __Val$[ebp]
  0001b	8b 09		 mov	 ecx, DWORD PTR [ecx]
$L24586:
  0001d	3b 48 0c	 cmp	 ecx, DWORD PTR [eax+12]
  00020	8b f8		 mov	 edi, eax
  00022	0f 9c 45 fc	 setl	 BYTE PTR __Addleft$[ebp]
  00026	80 7d fc 00	 cmp	 BYTE PTR __Addleft$[ebp], 0
  0002a	74 04		 je	 SHORT $L85116

; 482  : 			{	// look for leaf to insert before (_Addleft) or after
; 483  : 			_Wherenode = _Trynode;
; 484  : 			_Addleft = this->comp(this->_Kfn(_Val), _Key(_Trynode));
; 485  : 			_Trynode = _Addleft ? _Left(_Trynode) : _Right(_Trynode);

  0002c	8b 00		 mov	 eax, DWORD PTR [eax]
  0002e	eb 03		 jmp	 SHORT $L85117
$L85116:
  00030	8b 40 08	 mov	 eax, DWORD PTR [eax+8]
$L85117:

; 479  : 		_Nodeptr _Wherenode = _Myhead;
; 480  : 		bool _Addleft = true;	// add to left of head if tree empty
; 481  : 		while (!_Isnil(_Trynode))

  00033	80 78 15 00	 cmp	 BYTE PTR [eax+21], 0
  00037	74 e4		 je	 SHORT $L24586
$L85249:

; 486  : 			}
; 487  : 
; 488  : 		if (this->_Multi)
; 489  : 			return (_Pairib(_Insert(_Addleft, _Wherenode, _Val), true));
; 490  : 		else
; 491  : 			{	// insert only if unique
; 492  : 			iterator _Where = _TREE_ITERATOR(_Wherenode);
; 493  : 			if (!_Addleft)

  00039	80 7d fc 00	 cmp	 BYTE PTR __Addleft$[ebp], 0
  0003d	8b c7		 mov	 eax, edi
  0003f	89 45 f8	 mov	 DWORD PTR __Where$24597[ebp], eax
  00042	74 19		 je	 SHORT $L85217

; 494  : 				;	// need to test if insert after is okay
; 495  : 			else if (_Where == begin())

  00044	8b 43 04	 mov	 eax, DWORD PTR [ebx+4]
  00047	3b 38		 cmp	 edi, DWORD PTR [eax]
  00049	75 07		 jne	 SHORT $L24602

; 496  : 				return (_Pairib(_Insert(true, _Wherenode, _Val), true));

  0004b	ff 75 08	 push	 DWORD PTR __Val$[ebp]
  0004e	6a 01		 push	 1
  00050	eb 19		 jmp	 SHORT $L85251
$L24602:

; 497  : 			else
; 498  : 				--_Where;	// need to test if insert before is okay

  00052	8d 4d f8	 lea	 ecx, DWORD PTR __Where$24597[ebp]
  00055	e8 00 00 00 00	 call	 ?_Dec@const_iterator@?$_Tree@V?$_Tmap_traits@HPAVMusicTrack@@U?$less@H@std@@V?$allocator@U?$pair@$$CBHPAVMusicTrack@@@std@@@3@$0A@@std@@@std@@QAEXXZ ; std::_Tree<std::_Tmap_traits<int,MusicTrack *,std::less<int>,std::allocator<std::pair<int const ,MusicTrack *> >,0> >::const_iterator::_Dec
  0005a	8b 45 f8	 mov	 eax, DWORD PTR __Where$24597[ebp]
$L85217:

; 499  : 
; 500  : 			if (this->comp(_Key(_Where._Mynode()), this->_Kfn(_Val)))

  0005d	8b 50 0c	 mov	 edx, DWORD PTR [eax+12]
  00060	8b 4d 08	 mov	 ecx, DWORD PTR __Val$[ebp]
  00063	3b 11		 cmp	 edx, DWORD PTR [ecx]
  00065	7d 19		 jge	 SHORT $L24607

; 501  : 				return (_Pairib(_Insert(_Addleft, _Wherenode, _Val), true));

  00067	51		 push	 ecx
  00068	ff 75 fc	 push	 DWORD PTR __Addleft$[ebp]
$L85251:
  0006b	8d 45 08	 lea	 eax, DWORD PTR $T85124[ebp]
  0006e	8b cf		 mov	 ecx, edi
  00070	50		 push	 eax
  00071	8b fb		 mov	 edi, ebx
  00073	e8 00 00 00 00	 call	 ?_Insert@?$_Tree@V?$_Tmap_traits@HPAVMusicTrack@@U?$less@H@std@@V?$allocator@U?$pair@$$CBHPAVMusicTrack@@@std@@@3@$0A@@std@@@std@@IAE?AViterator@12@_NPAU_Node@?$_Tree_nod@V?$_Tmap_traits@HPAVMusicTrack@@U?$less@H@std@@V?$allocator@U?$pair@$$CBHPAVMusicTrack@@@std@@@3@$0A@@std@@@2@ABU?$pair@$$CBHPAVMusicTrack@@@2@@Z ; std::_Tree<std::_Tmap_traits<int,MusicTrack *,std::less<int>,std::allocator<std::pair<int const ,MusicTrack *> >,0> >::_Insert
  00078	8b 00		 mov	 eax, DWORD PTR [eax]
  0007a	c6 46 04 01	 mov	 BYTE PTR [esi+4], 1
  0007e	eb 04		 jmp	 SHORT $L85250
$L24607:

; 502  : 			else
; 503  : 				return (_Pairib(_Where, false));

  00080	c6 46 04 00	 mov	 BYTE PTR [esi+4], 0
$L85250:
  00084	89 06		 mov	 DWORD PTR [esi], eax
  00086	8b c6		 mov	 eax, esi
  00088	5f		 pop	 edi

; 504  : 			}
; 505  : 		}

  00089	c9		 leave
  0008a	c2 04 00	 ret	 4
?insert@?$_Tree@V?$_Tmap_traits@HPAVMusicTrack@@U?$less@H@std@@V?$allocator@U?$pair@$$CBHPAVMusicTrack@@@std@@@3@$0A@@std@@@std@@QAE?AU?$pair@Viterator@?$_Tree@V?$_Tmap_traits@HPAVMusicTrack@@U?$less@H@std@@V?$allocator@U?$pair@$$CBHPAVMusicTrack@@@std@@@3@$0A@@std@@@std@@_N@2@ABU?$pair@$$CBHPAVMusicTrack@@@2@@Z ENDP ; std::_Tree<std::_Tmap_traits<int,MusicTrack *,std::less<int>,std::allocator<std::pair<int const ,MusicTrack *> >,0> >::insert
; Function compile flags: /Ogsy
_TEXT	ENDS
;	COMDAT ?insert@?$_Tree@V?$_Tmap_traits@HPAVMusicTrack@@U?$less@H@std@@V?$allocator@U?$pair@$$CBHPAVMusicTrack@@@std@@@3@$0A@@std@@@std@@QAE?AViterator@12@V312@ABU?$pair@$$CBHPAVMusicTrack@@@2@@Z
_TEXT	SEGMENT
$T85260 = -8						; size = 8
___$ReturnUdt$ = 8					; size = 4
__Next$ = 12						; size = 4
__Where$ = 12						; size = 4
?insert@?$_Tree@V?$_Tmap_traits@HPAVMusicTrack@@U?$less@H@std@@V?$allocator@U?$pair@$$CBHPAVMusicTrack@@@std@@@3@$0A@@std@@@std@@QAE?AViterator@12@V312@ABU?$pair@$$CBHPAVMusicTrack@@@2@@Z PROC NEAR ; std::_Tree<std::_Tmap_traits<int,MusicTrack *,std::less<int>,std::allocator<std::pair<int const ,MusicTrack *> >,0> >::insert, COMDAT
; _this$ = ecx
; __Val$ = eax

; 509  : 		{	// try to insert node with value _Val using _Where as a hint

  00000	55		 push	 ebp
  00001	8b ec		 mov	 ebp, esp
  00003	51		 push	 ecx
  00004	51		 push	 ecx
  00005	53		 push	 ebx
  00006	8b d9		 mov	 ebx, ecx

; 510  : 		iterator _Next;
; 511  : 
; 512  : 		if (size() == 0)

  00008	83 7b 08 00	 cmp	 DWORD PTR [ebx+8], 0
  0000c	57		 push	 edi
  0000d	8b f8		 mov	 edi, eax
  0000f	75 18		 jne	 SHORT $L24305

; 513  : 			return (_Insert(true, _Myhead, _Val));	// insert into empty tree

  00011	8b 4b 04	 mov	 ecx, DWORD PTR [ebx+4]
  00014	57		 push	 edi
  00015	6a 01		 push	 1
  00017	ff 75 08	 push	 DWORD PTR ___$ReturnUdt$[ebp]
  0001a	8b fb		 mov	 edi, ebx
  0001c	e8 00 00 00 00	 call	 ?_Insert@?$_Tree@V?$_Tmap_traits@HPAVMusicTrack@@U?$less@H@std@@V?$allocator@U?$pair@$$CBHPAVMusicTrack@@@std@@@3@$0A@@std@@@std@@IAE?AViterator@12@_NPAU_Node@?$_Tree_nod@V?$_Tmap_traits@HPAVMusicTrack@@U?$less@H@std@@V?$allocator@U?$pair@$$CBHPAVMusicTrack@@@std@@@3@$0A@@std@@@2@ABU?$pair@$$CBHPAVMusicTrack@@@2@@Z ; std::_Tree<std::_Tmap_traits<int,MusicTrack *,std::less<int>,std::allocator<std::pair<int const ,MusicTrack *> >,0> >::_Insert
  00021	8b 45 08	 mov	 eax, DWORD PTR ___$ReturnUdt$[ebp]
  00024	e9 c0 00 00 00	 jmp	 $L24303
$L24305:

; 514  : 		else if (this->_Multi)
; 515  : 			{	// insert even if duplicate
; 516  : 			if (_Where == begin())
; 517  : 				{	// insert at beginning if before first element
; 518  : 				if (!this->comp(_Key(_Where._Mynode()), this->_Kfn(_Val)))
; 519  : 					return (_Insert(true, _Where._Mynode(), _Val));
; 520  : 				}
; 521  : 			else if (_Where == end())
; 522  : 				{	// insert at end if after last element
; 523  : 				if (!this->comp(this->_Kfn(_Val), _Key(_Rmost())))
; 524  : 					return (_Insert(false, _Rmost(), _Val));
; 525  : 				}
; 526  : 			else if (!this->comp(_Key(_Where._Mynode()), this->_Kfn(_Val))
; 527  : 				&& !this->comp(this->_Kfn(_Val),
; 528  : 					_Key((--(_Next = _Where))._Mynode())))
; 529  : 				{	// insert before _Where
; 530  : 				if (_Isnil(_Right(_Next._Mynode())))
; 531  : 					return (_Insert(false, _Next._Mynode(), _Val));
; 532  : 				else
; 533  : 					return (_Insert(true, _Where._Mynode(), _Val));
; 534  : 				}
; 535  : 			else if (!this->comp(this->_Kfn(_Val), _Key(_Where._Mynode()))
; 536  : 				&& (++(_Next = _Where) == end()
; 537  : 					|| !this->comp(_Key(_Next._Mynode()),
; 538  : 						this->_Kfn(_Val))))
; 539  : 				{	// insert after _Where
; 540  : 				if (_Isnil(_Right(_Where._Mynode())))
; 541  : 					return (_Insert(false, _Where._Mynode(), _Val));
; 542  : 				else
; 543  : 					return (_Insert(true, _Next._Mynode(), _Val));
; 544  : 				}
; 545  : 			}
; 546  : 		else
; 547  : 			{	// insert only if unique
; 548  : 			if (_Where == begin())

  00029	8b 43 04	 mov	 eax, DWORD PTR [ebx+4]
  0002c	56		 push	 esi
  0002d	8b 75 0c	 mov	 esi, DWORD PTR __Where$[ebp]
  00030	3b 30		 cmp	 esi, DWORD PTR [eax]
  00032	75 22		 jne	 SHORT $L24334

; 549  : 				{	// insert at beginning if before first element
; 550  : 				if (this->comp(this->_Kfn(_Val), _Key(_Where._Mynode())))

  00034	8b 07		 mov	 eax, DWORD PTR [edi]
  00036	3b 46 0c	 cmp	 eax, DWORD PTR [esi+12]
  00039	0f 8d 99 00 00
	00		 jge	 $L24354

; 551  : 					return (_Insert(true, _Where._Mynode(), _Val));

  0003f	57		 push	 edi
  00040	6a 01		 push	 1
  00042	8b ce		 mov	 ecx, esi
$L85806:
  00044	8b fb		 mov	 edi, ebx
$L85807:
  00046	ff 75 08	 push	 DWORD PTR ___$ReturnUdt$[ebp]
  00049	e8 00 00 00 00	 call	 ?_Insert@?$_Tree@V?$_Tmap_traits@HPAVMusicTrack@@U?$less@H@std@@V?$allocator@U?$pair@$$CBHPAVMusicTrack@@@std@@@3@$0A@@std@@@std@@IAE?AViterator@12@_NPAU_Node@?$_Tree_nod@V?$_Tmap_traits@HPAVMusicTrack@@U?$less@H@std@@V?$allocator@U?$pair@$$CBHPAVMusicTrack@@@std@@@3@$0A@@std@@@2@ABU?$pair@$$CBHPAVMusicTrack@@@2@@Z ; std::_Tree<std::_Tmap_traits<int,MusicTrack *,std::less<int>,std::allocator<std::pair<int const ,MusicTrack *> >,0> >::_Insert
  0004e	8b 45 08	 mov	 eax, DWORD PTR ___$ReturnUdt$[ebp]
  00051	e9 92 00 00 00	 jmp	 $L85801
$L24334:

; 552  : 				}
; 553  : 			else if (_Where == end())

  00056	3b f0		 cmp	 esi, eax
  00058	75 11		 jne	 SHORT $L24339

; 554  : 				{	// insert at end if after last element
; 555  : 				if (this->comp(_Key(_Rmost()), this->_Kfn(_Val)))

  0005a	8b 40 08	 mov	 eax, DWORD PTR [eax+8]
  0005d	8b 48 0c	 mov	 ecx, DWORD PTR [eax+12]
  00060	3b 0f		 cmp	 ecx, DWORD PTR [edi]
  00062	7d 74		 jge	 SHORT $L24354

; 556  : 					return (_Insert(false, _Rmost(), _Val));

  00064	57		 push	 edi
  00065	6a 00		 push	 0
  00067	8b c8		 mov	 ecx, eax
  00069	eb d9		 jmp	 SHORT $L85806
$L24339:

; 557  : 				}
; 558  : 			else if (this->comp(this->_Kfn(_Val), _Key(_Where._Mynode()))
; 559  : 				&& this->comp(_Key((--(_Next = _Where))._Mynode()),
; 560  : 					this->_Kfn(_Val)))

  0006b	8b 07		 mov	 eax, DWORD PTR [edi]
  0006d	3b 46 0c	 cmp	 eax, DWORD PTR [esi+12]
  00070	7d 29		 jge	 SHORT $L24343
  00072	8d 4d 0c	 lea	 ecx, DWORD PTR __Next$[ebp]
  00075	89 75 0c	 mov	 DWORD PTR __Next$[ebp], esi
  00078	e8 00 00 00 00	 call	 ?_Dec@const_iterator@?$_Tree@V?$_Tmap_traits@HPAVMusicTrack@@U?$less@H@std@@V?$allocator@U?$pair@$$CBHPAVMusicTrack@@@std@@@3@$0A@@std@@@std@@QAEXXZ ; std::_Tree<std::_Tmap_traits<int,MusicTrack *,std::less<int>,std::allocator<std::pair<int const ,MusicTrack *> >,0> >::const_iterator::_Dec
  0007d	8b 4d 0c	 mov	 ecx, DWORD PTR __Next$[ebp]
  00080	8b 07		 mov	 eax, DWORD PTR [edi]
  00082	39 41 0c	 cmp	 DWORD PTR [ecx+12], eax
  00085	7d 14		 jge	 SHORT $L24343

; 561  : 				{	// insert before _Where
; 562  : 				if (_Isnil(_Right(_Next._Mynode())))

  00087	8b 41 08	 mov	 eax, DWORD PTR [ecx+8]
  0008a	80 78 15 00	 cmp	 BYTE PTR [eax+21], 0

; 563  : 					return (_Insert(false, _Next._Mynode(), _Val));

  0008e	57		 push	 edi
  0008f	8b fb		 mov	 edi, ebx
  00091	74 04		 je	 SHORT $L24344
  00093	6a 00		 push	 0
  00095	eb af		 jmp	 SHORT $L85807
$L24344:

; 564  : 				else
; 565  : 					return (_Insert(true, _Where._Mynode(), _Val));

  00097	6a 01		 push	 1
  00099	eb 2f		 jmp	 SHORT $L85804
$L24343:

; 566  : 				}
; 567  : 			else if (this->comp(_Key(_Where._Mynode()), this->_Kfn(_Val))
; 568  : 				&& (++(_Next = _Where) == end()
; 569  : 					|| this->comp(this->_Kfn(_Val),
; 570  : 						_Key(_Next._Mynode()))))

  0009b	8b 07		 mov	 eax, DWORD PTR [edi]
  0009d	39 46 0c	 cmp	 DWORD PTR [esi+12], eax
  000a0	7d 36		 jge	 SHORT $L24354
  000a2	8d 55 0c	 lea	 edx, DWORD PTR __Next$[ebp]
  000a5	89 75 0c	 mov	 DWORD PTR __Next$[ebp], esi
  000a8	e8 00 00 00 00	 call	 ?_Inc@const_iterator@?$_Tree@V?$_Tmap_traits@HPAVMusicTrack@@U?$less@H@std@@V?$allocator@U?$pair@$$CBHPAVMusicTrack@@@std@@@3@$0A@@std@@@std@@QAEXXZ ; std::_Tree<std::_Tmap_traits<int,MusicTrack *,std::less<int>,std::allocator<std::pair<int const ,MusicTrack *> >,0> >::const_iterator::_Inc
  000ad	8b 4d 0c	 mov	 ecx, DWORD PTR __Next$[ebp]
  000b0	3b 4b 04	 cmp	 ecx, DWORD PTR [ebx+4]
  000b3	74 07		 je	 SHORT $L24351
  000b5	8b 07		 mov	 eax, DWORD PTR [edi]
  000b7	3b 41 0c	 cmp	 eax, DWORD PTR [ecx+12]
  000ba	7d 1c		 jge	 SHORT $L24354
$L24351:

; 571  : 				{	// insert after _Where
; 572  : 				if (_Isnil(_Right(_Where._Mynode())))

  000bc	8b 46 08	 mov	 eax, DWORD PTR [esi+8]
  000bf	80 78 15 00	 cmp	 BYTE PTR [eax+21], 0

; 573  : 					return (_Insert(false, _Where._Mynode(), _Val));

  000c3	57		 push	 edi
  000c4	8b fb		 mov	 edi, ebx
  000c6	74 09		 je	 SHORT $L24352
  000c8	6a 00		 push	 0
$L85804:
  000ca	8b ce		 mov	 ecx, esi
  000cc	e9 75 ff ff ff	 jmp	 $L85807
$L24352:

; 574  : 				else
; 575  : 					return (_Insert(true, _Next._Mynode(), _Val));

  000d1	6a 01		 push	 1
  000d3	e9 6e ff ff ff	 jmp	 $L85807
$L24354:

; 576  : 				}
; 577  : 			}
; 578  : 
; 579  : 		return (insert(_Val).first);	// try usual insert if all else fails

  000d8	57		 push	 edi
  000d9	8d 75 f8	 lea	 esi, DWORD PTR $T85260[ebp]
  000dc	e8 00 00 00 00	 call	 ?insert@?$_Tree@V?$_Tmap_traits@HPAVMusicTrack@@U?$less@H@std@@V?$allocator@U?$pair@$$CBHPAVMusicTrack@@@std@@@3@$0A@@std@@@std@@QAE?AU?$pair@Viterator@?$_Tree@V?$_Tmap_traits@HPAVMusicTrack@@U?$less@H@std@@V?$allocator@U?$pair@$$CBHPAVMusicTrack@@@std@@@3@$0A@@std@@@std@@_N@2@ABU?$pair@$$CBHPAVMusicTrack@@@2@@Z ; std::_Tree<std::_Tmap_traits<int,MusicTrack *,std::less<int>,std::allocator<std::pair<int const ,MusicTrack *> >,0> >::insert
  000e1	8b 08		 mov	 ecx, DWORD PTR [eax]
  000e3	8b 45 08	 mov	 eax, DWORD PTR ___$ReturnUdt$[ebp]
  000e6	89 08		 mov	 DWORD PTR [eax], ecx
$L85801:
  000e8	5e		 pop	 esi
$L24303:
  000e9	5f		 pop	 edi
  000ea	5b		 pop	 ebx

; 580  : 		}

  000eb	c9		 leave
  000ec	c2 08 00	 ret	 8
?insert@?$_Tree@V?$_Tmap_traits@HPAVMusicTrack@@U?$less@H@std@@V?$allocator@U?$pair@$$CBHPAVMusicTrack@@@std@@@3@$0A@@std@@@std@@QAE?AViterator@12@V312@ABU?$pair@$$CBHPAVMusicTrack@@@2@@Z ENDP ; std::_Tree<std::_Tmap_traits<int,MusicTrack *,std::less<int>,std::allocator<std::pair<int const ,MusicTrack *> >,0> >::insert
; Function compile flags: /Ogsy
; File c:\program files (x86)\microsoft visual studio .net 2003\vc7\include\map
_TEXT	ENDS
;	COMDAT ??A?$map@HPAVMusicTrack@@U?$less@H@std@@V?$allocator@U?$pair@$$CBHPAVMusicTrack@@@std@@@3@@std@@QAEAAPAVMusicTrack@@ABH@Z
_TEXT	SEGMENT
$T85811 = -12						; size = 8
$T85813 = -4						; size = 4
??A?$map@HPAVMusicTrack@@U?$less@H@std@@V?$allocator@U?$pair@$$CBHPAVMusicTrack@@@std@@@3@@std@@QAEAAPAVMusicTrack@@ABH@Z PROC NEAR ; std::map<int,MusicTrack *,std::less<int>,std::allocator<std::pair<int const ,MusicTrack *> > >::operator[], COMDAT
; _this$ = edi
; __Keyval$ = esi

; 142  : 		{	// find element matching _Keyval or insert with default mapped

  00000	55		 push	 ebp
  00001	8b ec		 mov	 ebp, esp
  00003	83 ec 0c	 sub	 esp, 12			; 0000000cH

; 143  : 		iterator _Where = this->lower_bound(_Keyval);

  00006	8b d6		 mov	 edx, esi
  00008	8b c7		 mov	 eax, edi
  0000a	e8 00 00 00 00	 call	 ?_Lbound@?$_Tree@V?$_Tmap_traits@HPAVMusicTrack@@U?$less@H@std@@V?$allocator@U?$pair@$$CBHPAVMusicTrack@@@std@@@3@$0A@@std@@@std@@IBEPAU_Node@?$_Tree_nod@V?$_Tmap_traits@HPAVMusicTrack@@U?$less@H@std@@V?$allocator@U?$pair@$$CBHPAVMusicTrack@@@std@@@3@$0A@@std@@@2@ABH@Z ; std::_Tree<std::_Tmap_traits<int,MusicTrack *,std::less<int>,std::allocator<std::pair<int const ,MusicTrack *> >,0> >::_Lbound

; 144  : 		if (_Where == this->end() || this->comp(_Keyval, this->_Key(_Where._Mynode())))

  0000f	3b 47 04	 cmp	 eax, DWORD PTR [edi+4]
  00012	74 07		 je	 SHORT $L24264
  00014	8b 0e		 mov	 ecx, DWORD PTR [esi]
  00016	3b 48 0c	 cmp	 ecx, DWORD PTR [eax+12]
  00019	7d 1a		 jge	 SHORT $L24263
$L24264:

; 145  : 			_Where = this->insert(_Where,
; 146  : 				value_type(_Keyval, mapped_type()));

  0001b	8b 0e		 mov	 ecx, DWORD PTR [esi]
  0001d	83 65 f8 00	 and	 DWORD PTR $T85811[ebp+4], 0
  00021	50		 push	 eax
  00022	8d 45 fc	 lea	 eax, DWORD PTR $T85813[ebp]
  00025	89 4d f4	 mov	 DWORD PTR $T85811[ebp], ecx
  00028	50		 push	 eax
  00029	8d 45 f4	 lea	 eax, DWORD PTR $T85811[ebp]
  0002c	8b cf		 mov	 ecx, edi
  0002e	e8 00 00 00 00	 call	 ?insert@?$_Tree@V?$_Tmap_traits@HPAVMusicTrack@@U?$less@H@std@@V?$allocator@U?$pair@$$CBHPAVMusicTrack@@@std@@@3@$0A@@std@@@std@@QAE?AViterator@12@V312@ABU?$pair@$$CBHPAVMusicTrack@@@2@@Z ; std::_Tree<std::_Tmap_traits<int,MusicTrack *,std::less<int>,std::allocator<std::pair<int const ,MusicTrack *> >,0> >::insert
  00033	8b 00		 mov	 eax, DWORD PTR [eax]
$L24263:

; 147  : 		return ((*_Where).second);

  00035	83 c0 10	 add	 eax, 16			; 00000010H

; 148  : 		}

  00038	c9		 leave
  00039	c3		 ret	 0
??A?$map@HPAVMusicTrack@@U?$less@H@std@@V?$allocator@U?$pair@$$CBHPAVMusicTrack@@@std@@@3@@std@@QAEAAPAVMusicTrack@@ABH@Z ENDP ; std::map<int,MusicTrack *,std::less<int>,std::allocator<std::pair<int const ,MusicTrack *> > >::operator[]
_TEXT	ENDS
PUBLIC	?TickCount@Sub@@QAEIPAVMusicFile@@PAVNSD_WORK@@@Z ; Sub::TickCount
; Function compile flags: /Ogsy
; File f:\nes\nsdl\src\nsc\sub.cpp
_TEXT	SEGMENT
$T85888 = -4						; size = 4
_MUS$ = 8						; size = 4
_work$ = 12						; size = 4
?TickCount@Sub@@QAEIPAVMusicFile@@PAVNSD_WORK@@@Z PROC NEAR ; Sub::TickCount
; _this$ = eax

; 52   : {

  00067	55		 push	 ebp
  00068	8b ec		 mov	 ebp, esp
  0006a	51		 push	 ecx

; 53   : 	return(ptcTrack[0]->TickCount(MUS, work));

  0006b	83 65 fc 00	 and	 DWORD PTR $T85888[ebp], 0
  0006f	56		 push	 esi
  00070	57		 push	 edi
  00071	8b f8		 mov	 edi, eax
  00073	83 c7 44	 add	 edi, 68			; 00000044H
  00076	8d 75 fc	 lea	 esi, DWORD PTR $T85888[ebp]
  00079	e8 00 00 00 00	 call	 ??A?$map@HPAVMusicTrack@@U?$less@H@std@@V?$allocator@U?$pair@$$CBHPAVMusicTrack@@@std@@@3@@std@@QAEAAPAVMusicTrack@@ABH@Z ; std::map<int,MusicTrack *,std::less<int>,std::allocator<std::pair<int const ,MusicTrack *> > >::operator[]
  0007e	ff 75 0c	 push	 DWORD PTR _work$[ebp]
  00081	8b 00		 mov	 eax, DWORD PTR [eax]
  00083	ff 75 08	 push	 DWORD PTR _MUS$[ebp]
  00086	e8 00 00 00 00	 call	 ?TickCount@MusicTrack@@QAEIPAVMusicFile@@PAVNSD_WORK@@@Z ; MusicTrack::TickCount
  0008b	5f		 pop	 edi
  0008c	5e		 pop	 esi

; 54   : }

  0008d	c9		 leave
  0008e	c2 08 00	 ret	 8
?TickCount@Sub@@QAEIPAVMusicFile@@PAVNSD_WORK@@@Z ENDP	; Sub::TickCount
_TEXT	ENDS
PUBLIC	??1Sub@@QAE@XZ					; Sub::~Sub
; Function compile flags: /Ogsy
_TEXT	SEGMENT
??1Sub@@QAE@XZ PROC NEAR				; Sub::~Sub
; _this$ = eax

; 40   : 	
; 41   : }

  00091	50		 push	 eax
  00092	c7 00 00 00 00
	00		 mov	 DWORD PTR [eax], OFFSET FLAT:??_7Sub@@6B@
  00098	e8 00 00 00 00	 call	 ??1TrackSet@@QAE@XZ	; TrackSet::~TrackSet
  0009d	c3		 ret	 0
??1Sub@@QAE@XZ ENDP					; Sub::~Sub
PUBLIC	??0Sub@@QAE@PAVMMLfile@@IQAG@Z			; Sub::Sub
; Function compile flags: /Ogsy
_TEXT	SEGMENT
_MML$ = 8						; size = 4
__strName$ = 12						; size = 4
??0Sub@@QAE@PAVMMLfile@@IQAG@Z PROC NEAR		; Sub::Sub
; _this$ = esi
; __id$ = ecx

; 26   : {

  0009e	ff 74 24 08	 push	 DWORD PTR __strName$[esp-4]
  000a2	6a 00		 push	 0
  000a4	6a 01		 push	 1
  000a6	ff 74 24 10	 push	 DWORD PTR _MML$[esp+8]
  000aa	56		 push	 esi
  000ab	e8 00 00 00 00	 call	 ??0TrackSet@@QAE@PAVMMLfile@@I_N1QBG@Z ; TrackSet::TrackSet
  000b0	c7 06 00 00 00
	00		 mov	 DWORD PTR [esi], OFFSET FLAT:??_7Sub@@6B@

; 27   : 	
; 28   : }

  000b6	8b c6		 mov	 eax, esi
  000b8	c2 08 00	 ret	 8
??0Sub@@QAE@PAVMMLfile@@IQAG@Z ENDP			; Sub::Sub
; Function compile flags: /Ogsy
; File c:\program files (x86)\microsoft visual studio .net 2003\vc7\include\xlocnum
;	COMDAT _$E3
text$yc	SEGMENT
_$E3	PROC NEAR					; COMDAT

; 806  : 		{	// initialize from _Locinfo object

  00000	83 25 00 00 00
	00 00		 and	 DWORD PTR ?id@?$num_put@DV?$ostreambuf_iterator@DU?$char_traits@D@std@@@std@@@std@@2V0locale@2@A, 0 ; std::num_put<char,std::ostreambuf_iterator<char,std::char_traits<char> > >::id
  00007	c3		 ret	 0
_$E3	ENDP
END
