PUBLIC	??1?$map@HPAVMusicTrack@@U?$less@H@std@@V?$allocator@U?$pair@$$CBHPAVMusicTrack@@@std@@@3@@std@@QAE@XZ ; std::map<int,MusicTrack *,std::less<int>,std::allocator<std::pair<int const ,MusicTrack *> > >::~map<int,MusicTrack *,std::less<int>,std::allocator<std::pair<int const ,MusicTrack *> > >
PUBLIC	??0?$map@HPAVMusicTrack@@U?$less@H@std@@V?$allocator@U?$pair@$$CBHPAVMusicTrack@@@std@@@3@@std@@QAE@XZ ; std::map<int,MusicTrack *,std::less<int>,std::allocator<std::pair<int const ,MusicTrack *> > >::map<int,MusicTrack *,std::less<int>,std::allocator<std::pair<int const ,MusicTrack *> > >
PUBLIC	??1?$_Tree@V?$_Tmap_traits@HPAVMusicTrack@@U?$less@H@std@@V?$allocator@U?$pair@$$CBHPAVMusicTrack@@@std@@@3@$0A@@std@@@std@@QAE@XZ ; std::_Tree<std::_Tmap_traits<int,MusicTrack *,std::less<int>,std::allocator<std::pair<int const ,MusicTrack *> >,0> >::~_Tree<std::_Tmap_traits<int,MusicTrack *,std::less<int>,std::allocator<std::pair<int const ,MusicTrack *> >,0> >
PUBLIC	?count@?$_Tree@V?$_Tmap_traits@HPAVMusicTrack@@U?$less@H@std@@V?$allocator@U?$pair@$$CBHPAVMusicTrack@@@std@@@3@$0A@@std@@@std@@QBEIABH@Z ; std::_Tree<std::_Tmap_traits<int,MusicTrack *,std::less<int>,std::allocator<std::pair<int const ,MusicTrack *> >,0> >::count
PUBLIC	??0?$_Tree@V?$_Tmap_traits@HPAVMusicTrack@@U?$less@H@std@@V?$allocator@U?$pair@$$CBHPAVMusicTrack@@@std@@@3@$0A@@std@@@std@@QAE@ABU?$less@H@1@ABV?$allocator@U?$pair@$$CBHPAVMusicTrack@@@std@@@1@@Z ; std::_Tree<std::_Tmap_traits<int,MusicTrack *,std::less<int>,std::allocator<std::pair<int const ,MusicTrack *> >,0> >::_Tree<std::_Tmap_traits<int,MusicTrack *,std::less<int>,std::allocator<std::pair<int const ,MusicTrack *> >,0> >
PUBLIC	?equal_range@?$_Tree@V?$_Tmap_traits@HPAVMusicTrack@@U?$less@H@std@@V?$allocator@U?$pair@$$CBHPAVMusicTrack@@@std@@@3@$0A@@std@@@std@@QBE?AU?$pair@Vconst_iterator@?$_Tree@V?$_Tmap_traits@HPAVMusicTrack@@U?$less@H@std@@V?$allocator@U?$pair@$$CBHPAVMusicTrack@@@std@@@3@$0A@@std@@@std@@V123@@2@ABH@Z ; std::_Tree<std::_Tmap_traits<int,MusicTrack *,std::less<int>,std::allocator<std::pair<int const ,MusicTrack *> >,0> >::equal_range
PUBLIC	?_Tidy@?$_Tree@V?$_Tmap_traits@HPAVMusicTrack@@U?$less@H@std@@V?$allocator@U?$pair@$$CBHPAVMusicTrack@@@std@@@3@$0A@@std@@@std@@IAEXXZ ; std::_Tree<std::_Tmap_traits<int,MusicTrack *,std::less<int>,std::allocator<std::pair<int const ,MusicTrack *> >,0> >::_Tidy
PUBLIC	??0?$allocator@U?$pair@$$CBHPAVMusicTrack@@@std@@@std@@QAE@XZ ; std::allocator<std::pair<int const ,MusicTrack *> >::allocator<std::pair<int const ,MusicTrack *> >
PUBLIC	?erase@?$_Tree@V?$_Tmap_traits@HPAVMusicTrack@@U?$less@H@std@@V?$allocator@U?$pair@$$CBHPAVMusicTrack@@@std@@@3@$0A@@std@@@std@@QAE?AViterator@12@V312@0@Z ; std::_Tree<std::_Tmap_traits<int,MusicTrack *,std::less<int>,std::allocator<std::pair<int const ,MusicTrack *> >,0> >::erase
PUBLIC	?lower_bound@?$_Tree@V?$_Tmap_traits@HPAVMusicTrack@@U?$less@H@std@@V?$allocator@U?$pair@$$CBHPAVMusicTrack@@@std@@@3@$0A@@std@@@std@@QBE?AVconst_iterator@12@ABH@Z ; std::_Tree<std::_Tmap_traits<int,MusicTrack *,std::less<int>,std::allocator<std::pair<int const ,MusicTrack *> >,0> >::lower_bound
PUBLIC	?upper_bound@?$_Tree@V?$_Tmap_traits@HPAVMusicTrack@@U?$less@H@std@@V?$allocator@U?$pair@$$CBHPAVMusicTrack@@@std@@@3@$0A@@std@@@std@@QBE?AVconst_iterator@12@ABH@Z ; std::_Tree<std::_Tmap_traits<int,MusicTrack *,std::less<int>,std::allocator<std::pair<int const ,MusicTrack *> >,0> >::upper_bound
PUBLIC	?_Init@?$_Tree@V?$_Tmap_traits@HPAVMusicTrack@@U?$less@H@std@@V?$allocator@U?$pair@$$CBHPAVMusicTrack@@@std@@@3@$0A@@std@@@std@@IAEXXZ ; std::_Tree<std::_Tmap_traits<int,MusicTrack *,std::less<int>,std::allocator<std::pair<int const ,MusicTrack *> >,0> >::_Init
PUBLIC	??0?$_Tree_val@V?$_Tmap_traits@HPAVMusicTrack@@U?$less@H@std@@V?$allocator@U?$pair@$$CBHPAVMusicTrack@@@std@@@3@$0A@@std@@@std@@IAE@ABU?$less@H@1@V?$allocator@U?$pair@$$CBHPAVMusicTrack@@@std@@@1@@Z ; std::_Tree_val<std::_Tmap_traits<int,MusicTrack *,std::less<int>,std::allocator<std::pair<int const ,MusicTrack *> >,0> >::_Tree_val<std::_Tmap_traits<int,MusicTrack *,std::less<int>,std::allocator<std::pair<int const ,MusicTrack *> >,0> >
PUBLIC	??0?$allocator@U?$pair@$$CBHPAVMusicTrack@@@std@@@std@@QAE@ABV01@@Z ; std::allocator<std::pair<int const ,MusicTrack *> >::allocator<std::pair<int const ,MusicTrack *> >
PUBLIC	?destroy@?$allocator@PAU_Node@?$_Tree_nod@V?$_Tmap_traits@HPAVMusicTrack@@U?$less@H@std@@V?$allocator@U?$pair@$$CBHPAVMusicTrack@@@std@@@3@$0A@@std@@@std@@@std@@QAEXPAPAU_Node@?$_Tree_nod@V?$_Tmap_traits@HPAVMusicTrack@@U?$less@H@std@@V?$allocator@U?$pair@$$CBHPAVMusicTrack@@@std@@@3@$0A@@std@@@2@@Z ; std::allocator<std::_Tree_nod<std::_Tmap_traits<int,MusicTrack *,std::less<int>,std::allocator<std::pair<int const ,MusicTrack *> >,0> >::_Node *>::destroy
PUBLIC	??0?$pair@Vconst_iterator@?$_Tree@V?$_Tmap_traits@HPAVMusicTrack@@U?$less@H@std@@V?$allocator@U?$pair@$$CBHPAVMusicTrack@@@std@@@3@$0A@@std@@@std@@V123@@std@@QAE@ABVconst_iterator@?$_Tree@V?$_Tmap_traits@HPAVMusicTrack@@U?$less@H@std@@V?$allocator@U?$pair@$$CBHPAVMusicTrack@@@std@@@3@$0A@@std@@@1@0@Z ; std::pair<std::_Tree<std::_Tmap_traits<int,MusicTrack *,std::less<int>,std::allocator<std::pair<int const ,MusicTrack *> >,0> >::const_iterator,std::_Tree<std::_Tmap_traits<int,MusicTrack *,std::less<int>,std::allocator<std::pair<int const ,MusicTrack *> >,0> >::const_iterator>::pair<std::_Tree<std::_Tmap_traits<int,MusicTrack *,std::less<int>,std::allocator<std::pair<int const ,MusicTrack *> >,0> >::const_iterator,std::_Tree<std::_Tmap_traits<int,MusicTrack *,std::less<int>,std::allocator<std::pair<int const ,MusicTrack *> >,0> >::const_iterator>
PUBLIC	?erase@?$_Tree@V?$_Tmap_traits@HPAVMusicTrack@@U?$less@H@std@@V?$allocator@U?$pair@$$CBHPAVMusicTrack@@@std@@@3@$0A@@std@@@std@@QAE?AViterator@12@V312@@Z ; std::_Tree<std::_Tmap_traits<int,MusicTrack *,std::less<int>,std::allocator<std::pair<int const ,MusicTrack *> >,0> >::erase
PUBLIC	?clear@?$_Tree@V?$_Tmap_traits@HPAVMusicTrack@@U?$less@H@std@@V?$allocator@U?$pair@$$CBHPAVMusicTrack@@@std@@@3@$0A@@std@@@std@@QAEXXZ ; std::_Tree<std::_Tmap_traits<int,MusicTrack *,std::less<int>,std::allocator<std::pair<int const ,MusicTrack *> >,0> >::clear
PUBLIC	?_Ubound@?$_Tree@V?$_Tmap_traits@HPAVMusicTrack@@U?$less@H@std@@V?$allocator@U?$pair@$$CBHPAVMusicTrack@@@std@@@3@$0A@@std@@@std@@IBEPAU_Node@?$_Tree_nod@V?$_Tmap_traits@HPAVMusicTrack@@U?$less@H@std@@V?$allocator@U?$pair@$$CBHPAVMusicTrack@@@std@@@3@$0A@@std@@@2@ABH@Z ; std::_Tree<std::_Tmap_traits<int,MusicTrack *,std::less<int>,std::allocator<std::pair<int const ,MusicTrack *> >,0> >::_Ubound
PUBLIC	?_Buynode@?$_Tree@V?$_Tmap_traits@HPAVMusicTrack@@U?$less@H@std@@V?$allocator@U?$pair@$$CBHPAVMusicTrack@@@std@@@3@$0A@@std@@@std@@IAEPAU_Node@?$_Tree_nod@V?$_Tmap_traits@HPAVMusicTrack@@U?$less@H@std@@V?$allocator@U?$pair@$$CBHPAVMusicTrack@@@std@@@3@$0A@@std@@@2@XZ ; std::_Tree<std::_Tmap_traits<int,MusicTrack *,std::less<int>,std::allocator<std::pair<int const ,MusicTrack *> >,0> >::_Buynode
PUBLIC	??0?$_Tree_ptr@V?$_Tmap_traits@HPAVMusicTrack@@U?$less@H@std@@V?$allocator@U?$pair@$$CBHPAVMusicTrack@@@std@@@3@$0A@@std@@@std@@IAE@ABU?$less@H@1@V?$allocator@U?$pair@$$CBHPAVMusicTrack@@@std@@@1@@Z ; std::_Tree_ptr<std::_Tmap_traits<int,MusicTrack *,std::less<int>,std::allocator<std::pair<int const ,MusicTrack *> >,0> >::_Tree_ptr<std::_Tmap_traits<int,MusicTrack *,std::less<int>,std::allocator<std::pair<int const ,MusicTrack *> >,0> >
PUBLIC	??Eiterator@?$_Tree@V?$_Tmap_traits@HPAVMusicTrack@@U?$less@H@std@@V?$allocator@U?$pair@$$CBHPAVMusicTrack@@@std@@@3@$0A@@std@@@std@@QAE?AV012@H@Z ; std::_Tree<std::_Tmap_traits<int,MusicTrack *,std::less<int>,std::allocator<std::pair<int const ,MusicTrack *> >,0> >::iterator::operator++
PUBLIC	??9const_iterator@?$_Tree@V?$_Tmap_traits@HPAVMusicTrack@@U?$less@H@std@@V?$allocator@U?$pair@$$CBHPAVMusicTrack@@@std@@@3@$0A@@std@@@std@@QBE_NABV012@@Z ; std::_Tree<std::_Tmap_traits<int,MusicTrack *,std::less<int>,std::allocator<std::pair<int const ,MusicTrack *> >,0> >::const_iterator::operator!=
PUBLIC	?_Erase@?$_Tree@V?$_Tmap_traits@HPAVMusicTrack@@U?$less@H@std@@V?$allocator@U?$pair@$$CBHPAVMusicTrack@@@std@@@3@$0A@@std@@@std@@IAEXPAU_Node@?$_Tree_nod@V?$_Tmap_traits@HPAVMusicTrack@@U?$less@H@std@@V?$allocator@U?$pair@$$CBHPAVMusicTrack@@@std@@@3@$0A@@std@@@2@@Z ; std::_Tree<std::_Tmap_traits<int,MusicTrack *,std::less<int>,std::allocator<std::pair<int const ,MusicTrack *> >,0> >::_Erase
PUBLIC	??0?$_Tree_nod@V?$_Tmap_traits@HPAVMusicTrack@@U?$less@H@std@@V?$allocator@U?$pair@$$CBHPAVMusicTrack@@@std@@@3@$0A@@std@@@std@@IAE@ABU?$less@H@1@V?$allocator@U?$pair@$$CBHPAVMusicTrack@@@std@@@1@@Z ; std::_Tree_nod<std::_Tmap_traits<int,MusicTrack *,std::less<int>,std::allocator<std::pair<int const ,MusicTrack *> >,0> >::_Tree_nod<std::_Tmap_traits<int,MusicTrack *,std::less<int>,std::allocator<std::pair<int const ,MusicTrack *> >,0> >
PUBLIC	?destroy@?$allocator@U_Node@?$_Tree_nod@V?$_Tmap_traits@HPAVMusicTrack@@U?$less@H@std@@V?$allocator@U?$pair@$$CBHPAVMusicTrack@@@std@@@3@$0A@@std@@@std@@@std@@QAEXPAU_Node@?$_Tree_nod@V?$_Tmap_traits@HPAVMusicTrack@@U?$less@H@std@@V?$allocator@U?$pair@$$CBHPAVMusicTrack@@@std@@@3@$0A@@std@@@2@@Z ; std::allocator<std::_Tree_nod<std::_Tmap_traits<int,MusicTrack *,std::less<int>,std::allocator<std::pair<int const ,MusicTrack *> >,0> >::_Node>::destroy
PUBLIC	?construct@?$allocator@PAU_Node@?$_Tree_nod@V?$_Tmap_traits@HPAVMusicTrack@@U?$less@H@std@@V?$allocator@U?$pair@$$CBHPAVMusicTrack@@@std@@@3@$0A@@std@@@std@@@std@@QAEXPAPAU_Node@?$_Tree_nod@V?$_Tmap_traits@HPAVMusicTrack@@U?$less@H@std@@V?$allocator@U?$pair@$$CBHPAVMusicTrack@@@std@@@3@$0A@@std@@@2@ABQAU342@@Z ; std::allocator<std::_Tree_nod<std::_Tmap_traits<int,MusicTrack *,std::less<int>,std::allocator<std::pair<int const ,MusicTrack *> >,0> >::_Node *>::construct
PUBLIC	??0?$_Tmap_traits@HPAVMusicTrack@@U?$less@H@std@@V?$allocator@U?$pair@$$CBHPAVMusicTrack@@@std@@@3@$0A@@std@@QAE@U?$less@H@1@@Z ; std::_Tmap_traits<int,MusicTrack *,std::less<int>,std::allocator<std::pair<int const ,MusicTrack *> >,0>::_Tmap_traits<int,MusicTrack *,std::less<int>,std::allocator<std::pair<int const ,MusicTrack *> >,0>
PUBLIC	??$_Distance@Vconst_iterator@?$_Tree@V?$_Tmap_traits@HPAVMusicTrack@@U?$less@H@std@@V?$allocator@U?$pair@$$CBHPAVMusicTrack@@@std@@@3@$0A@@std@@@std@@I@std@@YAXVconst_iterator@?$_Tree@V?$_Tmap_traits@HPAVMusicTrack@@U?$less@H@std@@V?$allocator@U?$pair@$$CBHPAVMusicTrack@@@std@@@3@$0A@@std@@@0@0AAI@Z ; std::_Distance<std::_Tree<std::_Tmap_traits<int,MusicTrack *,std::less<int>,std::allocator<std::pair<int const ,MusicTrack *> >,0> >::const_iterator,unsigned int>
PUBLIC	??$_Destroy@PAU_Node@?$_Tree_nod@V?$_Tmap_traits@HPAVMusicTrack@@U?$less@H@std@@V?$allocator@U?$pair@$$CBHPAVMusicTrack@@@std@@@3@$0A@@std@@@std@@@std@@YAXPAPAU_Node@?$_Tree_nod@V?$_Tmap_traits@HPAVMusicTrack@@U?$less@H@std@@V?$allocator@U?$pair@$$CBHPAVMusicTrack@@@std@@@3@$0A@@std@@@0@@Z ; std::_Destroy<std::_Tree_nod<std::_Tmap_traits<int,MusicTrack *,std::less<int>,std::allocator<std::pair<int const ,MusicTrack *> >,0> >::_Node *>
PUBLIC	??$?0U?$pair@$$CBHPAVMusicTrack@@@std@@@?$allocator@PAU_Node@?$_Tree_nod@V?$_Tmap_traits@HPAVMusicTrack@@U?$less@H@std@@V?$allocator@U?$pair@$$CBHPAVMusicTrack@@@std@@@3@$0A@@std@@@std@@@std@@QAE@ABV?$allocator@U?$pair@$$CBHPAVMusicTrack@@@std@@@1@@Z ; std::allocator<std::_Tree_nod<std::_Tmap_traits<int,MusicTrack *,std::less<int>,std::allocator<std::pair<int const ,MusicTrack *> >,0> >::_Node *>::allocator<std::_Tree_nod<std::_Tmap_traits<int,MusicTrack *,std::less<int>,std::allocator<std::pair<int const ,MusicTrack *> >,0> >::_Node *><std::pair<int const ,MusicTrack *> >
PUBLIC	??$?0U?$pair@$$CBHPAVMusicTrack@@@std@@@?$allocator@U_Node@?$_Tree_nod@V?$_Tmap_traits@HPAVMusicTrack@@U?$less@H@std@@V?$allocator@U?$pair@$$CBHPAVMusicTrack@@@std@@@3@$0A@@std@@@std@@@std@@QAE@ABV?$allocator@U?$pair@$$CBHPAVMusicTrack@@@std@@@1@@Z ; std::allocator<std::_Tree_nod<std::_Tmap_traits<int,MusicTrack *,std::less<int>,std::allocator<std::pair<int const ,MusicTrack *> >,0> >::_Node>::allocator<std::_Tree_nod<std::_Tmap_traits<int,MusicTrack *,std::less<int>,std::allocator<std::pair<int const ,MusicTrack *> >,0> >::_Node><std::pair<int const ,MusicTrack *> >
PUBLIC	??$_Destroy@U_Node@?$_Tree_nod@V?$_Tmap_traits@HPAVMusicTrack@@U?$less@H@std@@V?$allocator@U?$pair@$$CBHPAVMusicTrack@@@std@@@3@$0A@@std@@@std@@@std@@YAXPAU_Node@?$_Tree_nod@V?$_Tmap_traits@HPAVMusicTrack@@U?$less@H@std@@V?$allocator@U?$pair@$$CBHPAVMusicTrack@@@std@@@3@$0A@@std@@@0@@Z ; std::_Destroy<std::_Tree_nod<std::_Tmap_traits<int,MusicTrack *,std::less<int>,std::allocator<std::pair<int const ,MusicTrack *> >,0> >::_Node>
PUBLIC	??$_Construct@PAU_Node@?$_Tree_nod@V?$_Tmap_traits@HPAVMusicTrack@@U?$less@H@std@@V?$allocator@U?$pair@$$CBHPAVMusicTrack@@@std@@@3@$0A@@std@@@std@@PAU123@@std@@YAXPAPAU_Node@?$_Tree_nod@V?$_Tmap_traits@HPAVMusicTrack@@U?$less@H@std@@V?$allocator@U?$pair@$$CBHPAVMusicTrack@@@std@@@3@$0A@@std@@@0@ABQAU120@@Z ; std::_Construct<std::_Tree_nod<std::_Tmap_traits<int,MusicTrack *,std::less<int>,std::allocator<std::pair<int const ,MusicTrack *> >,0> >::_Node *,std::_Tree_nod<std::_Tmap_traits<int,MusicTrack *,std::less<int>,std::allocator<std::pair<int const ,MusicTrack *> >,0> >::_Node *>
PUBLIC	??$_Iter_cat@Vconst_iterator@?$_Tree@V?$_Tmap_traits@HPAVMusicTrack@@U?$less@H@std@@V?$allocator@U?$pair@$$CBHPAVMusicTrack@@@std@@@3@$0A@@std@@@std@@@std@@YA?AUbidirectional_iterator_tag@0@ABVconst_iterator@?$_Tree@V?$_Tmap_traits@HPAVMusicTrack@@U?$less@H@std@@V?$allocator@U?$pair@$$CBHPAVMusicTrack@@@std@@@3@$0A@@std@@@0@@Z ; std::_Iter_cat<std::_Tree<std::_Tmap_traits<int,MusicTrack *,std::less<int>,std::allocator<std::pair<int const ,MusicTrack *> >,0> >::const_iterator>
PUBLIC	??$_Distance2@Vconst_iterator@?$_Tree@V?$_Tmap_traits@HPAVMusicTrack@@U?$less@H@std@@V?$allocator@U?$pair@$$CBHPAVMusicTrack@@@std@@@3@$0A@@std@@@std@@I@std@@YAXVconst_iterator@?$_Tree@V?$_Tmap_traits@HPAVMusicTrack@@U?$less@H@std@@V?$allocator@U?$pair@$$CBHPAVMusicTrack@@@std@@@3@$0A@@std@@@0@0AAIUbidirectional_iterator_tag@0@@Z ; std::_Distance2<std::_Tree<std::_Tmap_traits<int,MusicTrack *,std::less<int>,std::allocator<std::pair<int const ,MusicTrack *> >,0> >::const_iterator,unsigned int>
PUBLIC	?GetLine@MMLfile@@QAEIXZ			; MMLfile::GetLine
PUBLIC	?GetLine@FileInput@@QAEIXZ			; FileInput::GetLine
PUBLIC	?SetLine@MMLfile@@QAEXI@Z			; MMLfile::SetLine
PUBLIC	?SetLine@FileInput@@QAEXI@Z			; FileInput::SetLine
PUBLIC	?GetCompileFlag@MusicTrack@@QAE_NXZ		; MusicTrack::GetCompileFlag
PUBLIC	?GetMacroNest@MMLfile@@QAEHXZ			; MMLfile::GetMacroNest
PUBLIC	?GetTickTotal@MusicTrack@@QAEIXZ		; MusicTrack::GetTickTotal
PUBLIC	?GetTickLoop@MusicTrack@@QAEIXZ			; MusicTrack::GetTickLoop
PUBLIC	?SetCompileFlag@MusicTrack@@QAEX_N@Z		; MusicTrack::SetCompileFlag
; Listing generated by Microsoft (R) Optimizing Compiler Version 13.10.3077 

	TITLE	.\TrackSet.cpp
	.386P
include listing.inc
if @Version gt 510
.model FLAT
else
;	COMDAT ??_C@_02ODIGJPFH@TR?$AA@
CONST	SEGMENT DWORD USE32 PUBLIC 'CONST'
CONST	ENDS
;	COMDAT ??_C@_08PGKBPJJO@?$IDg?$ID?$IJ?$IDb?$IDN?$AA@
CONST	SEGMENT DWORD USE32 PUBLIC 'CONST'
CONST	ENDS
;	COMDAT ??_C@_05MAGIBEFI@Scale?$AA@
CONST	SEGMENT DWORD USE32 PUBLIC 'CONST'
CONST	ENDS
;	COMDAT ??_C@_05MHMEBBGO@scale?$AA@
CONST	SEGMENT DWORD USE32 PUBLIC 'CONST'
CONST	ENDS
;	COMDAT ??_C@_04KNKPIPFB@Mode?$AA@
CONST	SEGMENT DWORD USE32 PUBLIC 'CONST'
CONST	ENDS
;	COMDAT ??_C@_04GMGOKAFF@mode?$AA@
CONST	SEGMENT DWORD USE32 PUBLIC 'CONST'
CONST	ENDS
;	COMDAT ??_C@_05FDLAJJBN@Major?$AA@
CONST	SEGMENT DWORD USE32 PUBLIC 'CONST'
CONST	ENDS
;	COMDAT ??_C@_05FEBMJMCL@major?$AA@
CONST	SEGMENT DWORD USE32 PUBLIC 'CONST'
CONST	ENDS
;	COMDAT ??_C@_05OMKCEFIL@Minor?$AA@
CONST	SEGMENT DWORD USE32 PUBLIC 'CONST'
CONST	ENDS
;	COMDAT ??_C@_05OLAOEALN@minor?$AA@
CONST	SEGMENT DWORD USE32 PUBLIC 'CONST'
CONST	ENDS
;	COMDAT ??_C@_06LHOIAAEI@HMinor?$AA@
CONST	SEGMENT DWORD USE32 PUBLIC 'CONST'
CONST	ENDS
;	COMDAT ??_C@_06HPPJDMOC@hminor?$AA@
CONST	SEGMENT DWORD USE32 PUBLIC 'CONST'
CONST	ENDS
;	COMDAT ??_C@_06OFNACPOP@MMinor?$AA@
CONST	SEGMENT DWORD USE32 PUBLIC 'CONST'
CONST	ENDS
;	COMDAT ??_C@_06CNMBBDEF@mminor?$AA@
CONST	SEGMENT DWORD USE32 PUBLIC 'CONST'
CONST	ENDS
;	COMDAT ??_C@_01KNKLHLMO@K?$AA@
CONST	SEGMENT DWORD USE32 PUBLIC 'CONST'
CONST	ENDS
;	COMDAT ??_C@_02CINKIGEJ@?$JC?$LC?$AA@
CONST	SEGMENT DWORD USE32 PUBLIC 'CONST'
CONST	ENDS
;	COMDAT ??_C@_02EFPODJMF@?$FL?3?$AA@
CONST	SEGMENT DWORD USE32 PUBLIC 'CONST'
CONST	ENDS
;	COMDAT ??_C@_02CGFHGFLC@?3?$FN?$AA@
CONST	SEGMENT DWORD USE32 PUBLIC 'CONST'
CONST	ENDS
;	COMDAT ??_C@_02HIPMGJKA@?$HM?3?$AA@
CONST	SEGMENT DWORD USE32 PUBLIC 'CONST'
CONST	ENDS
;	COMDAT ??_C@_02KKMIHAFB@?3?$HM?$AA@
CONST	SEGMENT DWORD USE32 PUBLIC 'CONST'
CONST	ENDS
;	COMDAT ??_C@_01OHGJGJJP@?$FL?$AA@
CONST	SEGMENT DWORD USE32 PUBLIC 'CONST'
CONST	ENDS
;	COMDAT ??_C@_01LBDDMOBJ@?$FN?$AA@
CONST	SEGMENT DWORD USE32 PUBLIC 'CONST'
CONST	ENDS
;	COMDAT ??_C@_02JEILFJNG@?$IB?$IH?$AA@
CONST	SEGMENT DWORD USE32 PUBLIC 'CONST'
CONST	ENDS
;	COMDAT ??_C@_04GCKADHHM@?$IBb?$IBF?$AA@
CONST	SEGMENT DWORD USE32 PUBLIC 'CONST'
CONST	ENDS
;	COMDAT ??_C@_02FMFCNDNO@?$IB?$IP?$AA@
CONST	SEGMENT DWORD USE32 PUBLIC 'CONST'
CONST	ENDS
;	COMDAT ??_C@_02NNGKBGMB@?$IB_?$AA@
CONST	SEGMENT DWORD USE32 PUBLIC 'CONST'
CONST	ENDS
;	COMDAT ??_C@_04LMBIOOLD@?$IBF?$IBb?$AA@
CONST	SEGMENT DWORD USE32 PUBLIC 'CONST'
CONST	ENDS
;	COMDAT ??_C@_02BOLEJFOF@?$IBy?$AA@
CONST	SEGMENT DWORD USE32 PUBLIC 'CONST'
CONST	ENDS
;	COMDAT ??_C@_02EGGKLPNJ@?$IBF?$AA@
CONST	SEGMENT DWORD USE32 PUBLIC 'CONST'
CONST	ENDS
;	COMDAT ??_C@_02DFJJMGCG@?$IBz?$AA@
CONST	SEGMENT DWORD USE32 PUBLIC 'CONST'
CONST	ENDS
;	COMDAT ??_C@_02GOGFKHPK@t_?$AA@
CONST	SEGMENT DWORD USE32 PUBLIC 'CONST'
CONST	ENDS
;	COMDAT ??_C@_01PFHFFBPC@t?$AA@
CONST	SEGMENT DWORD USE32 PUBLIC 'CONST'
CONST	ENDS
;	COMDAT ??_C@_06LKBOFJCM@?$IDe?$ID?$JD?$ID?$HM?$AA@
CONST	SEGMENT DWORD USE32 PUBLIC 'CONST'
CONST	ENDS
;	COMDAT ??_C@_02IGJHGBLL@?$IB?$KI?$AA@
CONST	SEGMENT DWORD USE32 PUBLIC 'CONST'
CONST	ENDS
;	COMDAT ??_C@_02JPIMFAPK@?$IB?$KJ?$AA@
CONST	SEGMENT DWORD USE32 PUBLIC 'CONST'
CONST	ENDS
;	COMDAT ??_C@_01NOFIACDB@w?$AA@
CONST	SEGMENT DWORD USE32 PUBLIC 'CONST'
CONST	ENDS
;	COMDAT ??_C@_01JKBOJNNK@?$FO?$AA@
CONST	SEGMENT DWORD USE32 PUBLIC 'CONST'
CONST	ENDS
;	COMDAT ??_C@_02LJAGNDMF@?$IB?$FL?$AA@
CONST	SEGMENT DWORD USE32 PUBLIC 'CONST'
CONST	ENDS
;	COMDAT ??_C@_04EBGGPMEF@?$IJ?$LJ?$JF?$IE?$AA@
CONST	SEGMENT DWORD USE32 PUBLIC 'CONST'
CONST	ENDS
;	COMDAT ??_C@_01BNIGIBBF@Q?$AA@
CONST	SEGMENT DWORD USE32 PUBLIC 'CONST'
CONST	ENDS
;	COMDAT ??_C@_06EFPKECIE@?$IDQ?$IB?$FL?$IDg?$AA@
CONST	SEGMENT DWORD USE32 PUBLIC 'CONST'
CONST	ENDS
;	COMDAT ??_C@_03EOHNIDBB@ECc?$AA@
CONST	SEGMENT DWORD USE32 PUBLIC 'CONST'
CONST	ENDS
;	COMDAT ??_C@_03BDMBFNG@ECd?$AA@
CONST	SEGMENT DWORD USE32 PUBLIC 'CONST'
CONST	ENDS
;	COMDAT ??_C@_03BICHCEJH@ECe?$AA@
CONST	SEGMENT DWORD USE32 PUBLIC 'CONST'
CONST	ENDS
;	COMDAT ??_C@_03DDAKHHFE@ECf?$AA@
CONST	SEGMENT DWORD USE32 PUBLIC 'CONST'
CONST	ENDS
;	COMDAT ??_C@_03CKBBEGBF@ECg?$AA@
CONST	SEGMENT DWORD USE32 PUBLIC 'CONST'
CONST	ENDS
;	COMDAT ??_C@_03HMELOBJD@ECa?$AA@
CONST	SEGMENT DWORD USE32 PUBLIC 'CONST'
CONST	ENDS
;	COMDAT ??_C@_03FHGGLCFA@ECb?$AA@
CONST	SEGMENT DWORD USE32 PUBLIC 'CONST'
CONST	ENDS
;	COMDAT ??_C@_03BNKEKAAB@ECr?$AA@
CONST	SEGMENT DWORD USE32 PUBLIC 'CONST'
CONST	ENDS
;	COMDAT ??_C@_03CAIHOBJK@EC?9?$AA@
CONST	SEGMENT DWORD USE32 PUBLIC 'CONST'
CONST	ENDS
;	COMDAT ??_C@_03GPMGHHFN@EC?$CK?$AA@
CONST	SEGMENT DWORD USE32 PUBLIC 'CONST'
CONST	ENDS
;	COMDAT ??_C@_02KNLLHFAA@EC?$AA@
CONST	SEGMENT DWORD USE32 PUBLIC 'CONST'
CONST	ENDS
;	COMDAT ??_C@_0L@LOJEBEMJ@?$IDG?$IDR?$IB?$FL?$IDI?$IDt?$AA@
CONST	SEGMENT DWORD USE32 PUBLIC 'CONST'
CONST	ENDS
;	COMDAT ??_C@_06OHMKBCHJ@?$IDG?$IDR?$IB?$FL?$AA@
CONST	SEGMENT DWORD USE32 PUBLIC 'CONST'
CONST	ENDS
;	COMDAT ??_C@_01LELAEKIP@J?$AA@
CONST	SEGMENT DWORD USE32 PUBLIC 'CONST'
CONST	ENDS
;	COMDAT ??_C@_01CBDEGOCN@j?$AA@
CONST	SEGMENT DWORD USE32 PUBLIC 'CONST'
CONST	ENDS
;	COMDAT ??_C@_0BB@KNFILCDL@?$IDG?$ID?$JD?$IDx?$ID?$IN?$IB?$FL?$IDv?$IDI?$IDt?$AA@
CONST	SEGMENT DWORD USE32 PUBLIC 'CONST'
CONST	ENDS
;	COMDAT ??_C@_0P@EEJKCPJF@?$IDr?$IDu?$ID?$IJ?$IB?$FL?$IDg?$IDI?$IDt?$AA@
CONST	SEGMENT DWORD USE32 PUBLIC 'CONST'
CONST	ENDS
;	COMDAT ??_C@_02LPNFMJNJ@Rm?$AA@
CONST	SEGMENT DWORD USE32 PUBLIC 'CONST'
CONST	ENDS
;	COMDAT ??_C@_02JPPPJDDG@R?$EA?$AA@
CONST	SEGMENT DWORD USE32 PUBLIC 'CONST'
CONST	ENDS
;	COMDAT ??_C@_02BGODACED@Rv?$AA@
CONST	SEGMENT DWORD USE32 PUBLIC 'CONST'
CONST	ENDS
;	COMDAT ??_C@_03EGHIJKEG@?$EAP?$CK?$AA@
CONST	SEGMENT DWORD USE32 PUBLIC 'CONST'
CONST	ENDS
;	COMDAT ??_C@_02MKJPPGHJ@?$EAP?$AA@
CONST	SEGMENT DWORD USE32 PUBLIC 'CONST'
CONST	ENDS
;	COMDAT ??_C@_03OKOMJFGK@?$EAFC?$AA@
CONST	SEGMENT DWORD USE32 PUBLIC 'CONST'
CONST	ENDS
;	COMDAT ??_C@_03JHJLGBCP@?$EAFF?$AA@
CONST	SEGMENT DWORD USE32 PUBLIC 'CONST'
CONST	ENDS
;	COMDAT ??_C@_03NNFJHDHO@?$EAFV?$AA@
CONST	SEGMENT DWORD USE32 PUBLIC 'CONST'
CONST	ENDS
;	COMDAT ??_C@_02JMMFFBPP@?$EAV?$AA@
CONST	SEGMENT DWORD USE32 PUBLIC 'CONST'
CONST	ENDS
;	COMDAT ??_C@_03GDGHNIBN@?$EANL?$AA@
CONST	SEGMENT DWORD USE32 PUBLIC 'CONST'
CONST	ENDS
;	COMDAT ??_C@_04LOGBILGC@?$IJ?$LJ?$JAF?$AA@
CONST	SEGMENT DWORD USE32 PUBLIC 'CONST'
CONST	ENDS
;	COMDAT ??_C@_02KBOOJKOB@NC?$AA@
CONST	SEGMENT DWORD USE32 PUBLIC 'CONST'
CONST	ENDS
;	COMDAT ??_C@_01BIAFAFID@F?$AA@
CONST	SEGMENT DWORD USE32 PUBLIC 'CONST'
CONST	ENDS
;	COMDAT ??_C@_01FMEDJKGI@o?$AA@
CONST	SEGMENT DWORD USE32 PUBLIC 'CONST'
CONST	ENDS
;	COMDAT ??_C@_04BKHONDIJ@?$IJ?$LJ?$IKK?$AA@
CONST	SEGMENT DWORD USE32 PUBLIC 'CONST'
CONST	ENDS
;	COMDAT ??_C@_01PPODPGHN@?$DO?$AA@
CONST	SEGMENT DWORD USE32 PUBLIC 'CONST'
CONST	ENDS
;	COMDAT ??_C@_02JPIENKHP@?$IP?c?$AA@
CONST	SEGMENT DWORD USE32 PUBLIC 'CONST'
CONST	ENDS
;	COMDAT ??_C@_02LEKBADDJ@?$IB?$KK?$AA@
CONST	SEGMENT DWORD USE32 PUBLIC 'CONST'
CONST	ENDS
;	COMDAT ??_C@_01MNNFJEPP@?$DM?$AA@
CONST	SEGMENT DWORD USE32 PUBLIC 'CONST'
CONST	ENDS
;	COMDAT ??_C@_02PAHAEANA@?$IJ?$LK?$AA@
CONST	SEGMENT DWORD USE32 PUBLIC 'CONST'
CONST	ENDS
;	COMDAT ??_C@_02KNLKDCHI@?$IB?$KL?$AA@
CONST	SEGMENT DWORD USE32 PUBLIC 'CONST'
CONST	ENDS
;	COMDAT ??_C@_01NLNLIGKH@?$GA?$AA@
CONST	SEGMENT DWORD USE32 PUBLIC 'CONST'
CONST	ENDS
;	COMDAT ??_C@_02PIMDMILI@?$IBe?$AA@
CONST	SEGMENT DWORD USE32 PUBLIC 'CONST'
CONST	ENDS
;	COMDAT ??_C@_01BJJEKLCA@?$CC?$AA@
CONST	SEGMENT DWORD USE32 PUBLIC 'CONST'
CONST	ENDS
;	COMDAT ??_C@_02ENGNLGPF@?$IBh?$AA@
CONST	SEGMENT DWORD USE32 PUBLIC 'CONST'
CONST	ENDS
;	COMDAT ??_C@_03MJGICKBJ@D?$CF_?$AA@
CONST	SEGMENT DWORD USE32 PUBLIC 'CONST'
CONST	ENDS
;	COMDAT ??_C@_02JPNONDBG@D?$CF?$AA@
CONST	SEGMENT DWORD USE32 PUBLIC 'CONST'
CONST	ENDS
;	COMDAT ??_C@_02EKAOECGK@D_?$AA@
CONST	SEGMENT DWORD USE32 PUBLIC 'CONST'
CONST	ENDS
;	COMDAT ??_C@_0N@PCNDJPL@?$IDf?$IDB?$ID?$GA?$ID?$IF?$IB?$FL?$ID?$JD?$AA@
CONST	SEGMENT DWORD USE32 PUBLIC 'CONST'
CONST	ENDS
;	COMDAT ??_C@_02FKHNAOPL@__?$AA@
CONST	SEGMENT DWORD USE32 PUBLIC 'CONST'
CONST	ENDS
;	COMDAT ??_C@_02HJBPEDLH@k_?$AA@
CONST	SEGMENT DWORD USE32 PUBLIC 'CONST'
CONST	ENDS
;	COMDAT ??_C@_01DICPFPGM@k?$AA@
CONST	SEGMENT DWORD USE32 PUBLIC 'CONST'
CONST	ENDS
;	COMDAT ??_C@_08GJIKAFHH@TrackKey?$AA@
CONST	SEGMENT DWORD USE32 PUBLIC 'CONST'
CONST	ENDS
;	COMDAT ??_C@_0N@NPJHKLGE@?$ID?$HM?$ID?$IL?$ID?$FO?$ID?$IB?$ID?$JD?$IDg?$AA@
CONST	SEGMENT DWORD USE32 PUBLIC 'CONST'
CONST	ENDS
;	COMDAT ??_C@_01MHEDDDHA@v?$AA@
CONST	SEGMENT DWORD USE32 PUBLIC 'CONST'
CONST	ENDS
;	COMDAT ??_C@_04CMBIEKKA@?$IJ?$LJ?$JH?J?$AA@
CONST	SEGMENT DWORD USE32 PUBLIC 'CONST'
CONST	ENDS
;	COMDAT ??_C@_01PKGAHCOL@?$CJ?$AA@
CONST	SEGMENT DWORD USE32 PUBLIC 'CONST'
CONST	ENDS
;	COMDAT ??_C@_06MFPBKHIE@?$JB?e?$IC?$KL?$IC?$KN?$AA@
CONST	SEGMENT DWORD USE32 PUBLIC 'CONST'
CONST	ENDS
;	COMDAT ??_C@_02NPGGPDID@?$JB?e?$AA@
CONST	SEGMENT DWORD USE32 PUBLIC 'CONST'
CONST	ENDS
;	COMDAT ??_C@_06EPOKGEMD@?$IP?$KM?$IC?$LD?$IC?$KN?$AA@
CONST	SEGMENT DWORD USE32 PUBLIC 'CONST'
CONST	ENDS
;	COMDAT ??_C@_02OIGFIJLF@?$IP?$KM?$AA@
CONST	SEGMENT DWORD USE32 PUBLIC 'CONST'
CONST	ENDS
;	COMDAT ??_C@_02LHHPIPOA@yV?$AA@
CONST	SEGMENT DWORD USE32 PUBLIC 'CONST'
CONST	ENDS
;	COMDAT ??_C@_01EANLCPLP@y?$AA@
CONST	SEGMENT DWORD USE32 PUBLIC 'CONST'
CONST	ENDS
;	COMDAT ??_C@_1DM@LBEIIGCG@?$AAS?$AAu?$AAb0?V0?m0?C0?$KPQ?$IF0g0o0?H0?i0?C0?$KPc?$AH?$FL?$JK0o0g0M0?$HO@
CONST	SEGMENT DWORD USE32 PUBLIC 'CONST'
CONST	ENDS
;	COMDAT ??_C@_1DK@GCJGKPID@?$AAS?$AAu?$AAb0?V0?m0?C0?$KPQ?$IF0g0oq?$CB?$JGP0?k0?$PM0?W0o0g0M0?$HO0?$FL@
CONST	SEGMENT DWORD USE32 PUBLIC 'CONST'
CONST	ENDS
;	COMDAT ??_C@_1BI@IEKIFIDC@?$AAD?$AAe?$AAt?$AAu?$AAn?$AAe?$AA?5?$AAC?$AAe?$AAn?$AAt?$AA?$AA@
CONST	SEGMENT DWORD USE32 PUBLIC 'CONST'
CONST	ENDS
;	COMDAT ??_C@_1CA@DCDMNGOL@?$AAD?$AAe?$AAr?$AAu?$AAn?$AAe?$AA?5?$AAR?$AAe?$AAg?$AAi?$AAs?$AAt?$AAe?$AAr?$AA?$AA@
CONST	SEGMENT DWORD USE32 PUBLIC 'CONST'
CONST	ENDS
;	COMDAT ??_C@_1CK@JBMEODCM@?$AAR?$AAe?$AAl?$AAa?$AAt?$AAi?$AAv?$AAe?$AA?5?$AAD?$AAe?$AAt?$AAu?$AAn?$AAe?$AA?5?$AAC?$AAe?$AAn?$AAt@
CONST	SEGMENT DWORD USE32 PUBLIC 'CONST'
CONST	ENDS
;	COMDAT ??_C@_1DC@KLPFDHDF@?$AAR?$AAe?$AAl?$AAa?$AAt?$AAi?$AAv?$AAe?$AA?5?$AAD?$AAe?$AAt?$AAu?$AAn?$AAe?$AA?5?$AAR?$AAe?$AAg?$AAi@
CONST	SEGMENT DWORD USE32 PUBLIC 'CONST'
CONST	ENDS
;	COMDAT ??_C@_1DC@NPMHHGKK@y?$PL?$IK?$LP0o?$AA?9?$AA1?$AA2?$AA7?$PP?$FO?$AA1?$AA2?$AA80n?$HL?DV?r0gc?$AH?$FL?$JK0W0f0O@
CONST	SEGMENT DWORD USE32 PUBLIC 'CONST'
CONST	ENDS
;	COMDAT ??_C@_03PNPKJHCD@?0?5$?$AA@
CONST	SEGMENT DWORD USE32 PUBLIC 'CONST'
CONST	ENDS
;	COMDAT ??_C@_08EAKLHHJG@?7?4word?7$?$AA@
CONST	SEGMENT DWORD USE32 PUBLIC 'CONST'
CONST	ENDS
;	COMDAT ??_C@_06KPCEEHJM@Track?5?$AA@
CONST	SEGMENT DWORD USE32 PUBLIC 'CONST'
CONST	ENDS
;	COMDAT ??_C@_02KCKGHPCA@?$CJ?5?$AA@
CONST	SEGMENT DWORD USE32 PUBLIC 'CONST'
CONST	ENDS
;	COMDAT ??_C@_05IFBGHAGD@?$HM?5TR?$CI?$AA@
CONST	SEGMENT DWORD USE32 PUBLIC 'CONST'
CONST	ENDS
;	COMDAT ??_C@_06MFAOKAEB@Loop?5?5?$AA@
CONST	SEGMENT DWORD USE32 PUBLIC 'CONST'
CONST	ENDS
;	COMDAT ??_C@_09CCGPGAKD@?$HM?5no?9loop?$AA@
CONST	SEGMENT DWORD USE32 PUBLIC 'CONST'
CONST	ENDS
;	COMDAT ??_C@_06BHCKJACF@Total?5?$AA@
CONST	SEGMENT DWORD USE32 PUBLIC 'CONST'
CONST	ENDS
;	COMDAT ??_C@_1CI@FKLPJOID@0?$NO0?$KP0?mN?90g0?H0?i0?C0?$KP0nc?$AH?$FL?$JK0o0g0M0?$HO0?$FL0?$JD0?$AC?$AA?$AA@
CONST	SEGMENT DWORD USE32 PUBLIC 'CONST'
CONST	ENDS
;	COMDAT ??_C@_1CO@IBJONDON@0?H0?i0?C0?$KPujS?w0gc?$AH?$FL?$JK0g0M0?$IL?$HL?DV?r0?$JC?$IN?$IF0H0f0D0?$HO@
CONST	SEGMENT DWORD USE32 PUBLIC 'CONST'
CONST	ENDS
;	COMDAT ??_C@_1DC@ODCBAGNM@?$AA?$DN?$AA?$DN?$AA?$DN?$AA?$DN?$AA?5?$AA?$FL?$AA?5?$AAM?$AAu?$AAs?$AAi?$AAc?$AA?5?$AAT?$AAr?$AAa?$AAc?$AAk?$AA?5?$AA?$FN@
CONST	SEGMENT DWORD USE32 PUBLIC 'CONST'
CONST	ENDS
;	COMDAT ??_C@_1FO@HMLHKAGM@?$AAM?$AAu?$AAs?$AAi?$AAc?$AAT?$AAr?$AAa?$AAc?$AAk?$AA?$CK?$AA?5?$AAT?$AAr?$AAa?$AAc?$AAk?$AAS?$AAe?$AAt@
CONST	SEGMENT DWORD USE32 PUBLIC 'CONST'
CONST	ENDS
;	COMDAT ??_C@_1DK@DNENJNME@?$AAS?$AAE0?V0?m0?C0?$KPN?eY?$BG0g0oQ?$CKQH?$FO?$KGc?$AH?$FL?$JK0o0g0M0?$HO0?$FL@
CONST	SEGMENT DWORD USE32 PUBLIC 'CONST'
CONST	ENDS
;	COMDAT ??_C@_1DE@GKCFHPBH@R?$LJg?$JM?$JH?s0nQ?$CKQH?$FO?$KG0o0?$AB0o?$AA0?$PP?$FO?$AA30n?$HL?DV?r0gc?$AH?$FL?$JK0W@
CONST	SEGMENT DWORD USE32 PUBLIC 'CONST'
CONST	ENDS
;	COMDAT ??_C@_1BC@PFLOACNN@?$AAJ?$AAu?$AAm?$AAp?$AA?5?$AAO?$AAf?$AAf?$AA?$AA@
CONST	SEGMENT DWORD USE32 PUBLIC 'CONST'
CONST	ENDS
;	COMDAT ??_C@_1BA@DLHAJHPF@?$AAJ?$AAu?$AAm?$AAp?$AA?5?$AAO?$AAn?$AA?$AA@
CONST	SEGMENT DWORD USE32 PUBLIC 'CONST'
CONST	ENDS
;	COMDAT ??_C@_1CK@GFGAOJII@?$AAj0?$LD0?$NO0?s0?I0Lc?$AH?$FL?$JKS?o?$IA?$PN0j?$HL?DV?r0?$JC?$IN?$IF0H0?$HO0W0_0?$AC@
CONST	SEGMENT DWORD USE32 PUBLIC 'CONST'
CONST	ENDS
;	COMDAT ??_C@_1CG@CEHFAHAL@0?F0?s0?$NN0Lc?$AH?$FL?$JKS?o?$IA?$PN0j?$HL?DV?r0?$JC?$IN?$IF0H0?$HO0W0_0?$AC?$AA?$AA@
CONST	SEGMENT DWORD USE32 PUBLIC 'CONST'
CONST	ENDS
;	COMDAT ??_C@_1M@KPBAMICJ@?$AAT?$AAe?$AAm?$AAp?$AAo?$AA?$AA@
CONST	SEGMENT DWORD USE32 PUBLIC 'CONST'
CONST	ENDS
;	COMDAT ??_C@_1BO@NMEFKJBB@?$AAR?$AAe?$AAl?$AAa?$AAt?$AAi?$AAv?$AAe?$AA?5?$AAT?$AAe?$AAm?$AAp?$AAo?$AA?$AA@
CONST	SEGMENT DWORD USE32 PUBLIC 'CONST'
CONST	ENDS
;	COMDAT ??_C@_1EG@KMDFAJLP@?$AAy0?$LD0?$NO0?s0?I0n0?$KC0?I0?l0?$LJ0o?$AA$?$AA0?$AA0?$AA0?$AA0?$PP?$FO?$AA$?$AAF?$AAF@
CONST	SEGMENT DWORD USE32 PUBLIC 'CONST'
CONST	ENDS
;	COMDAT ??_C@_1DM@CBEKDAPN@?$AAy0?$LD0?$NO0?s0?I0n0?Q0?i0?a0?$PM0?$LP0L?$IN?$LD0?$IK0?$HO0?$FL0?$JD0?$AC?$PP?$BC0d@
CONST	SEGMENT DWORD USE32 PUBLIC 'CONST'
CONST	ENDS
;	COMDAT ??_C@_1DM@CNINMOFB@?$AAy0?$LD0?$NO0?s0?I0n0?G0?$PM0?$LP0o?$AA$?$AA0?$AA0?$PP?$FO?$AA$?$AAF?$AAF0n?$HL?DV?r@
CONST	SEGMENT DWORD USE32 PUBLIC 'CONST'
CONST	ENDS
;	COMDAT ??_C@_19MCGBFLHO@?$AAP?$AAo?$AAk?$AAe?$AA?$AA@
CONST	SEGMENT DWORD USE32 PUBLIC 'CONST'
CONST	ENDS
;	COMDAT ??_C@_1CK@JOCIMFBO@?$AAF?$AAD?$AAS?$AA?5?$AAc?$AAa?$AAr?$AAe?$AAe?$AAr?$AA?5?$AAf?$AAr?$AAe?$AAq?$AAu?$AAe?$AAn?$AAc?$AAy@
CONST	SEGMENT DWORD USE32 PUBLIC 'CONST'
CONST	ENDS
;	COMDAT ??_C@_1DO@NCLODOIG@?$AAF?$AAD?$AAS0n0?$KN0?c0?j0?$KCThl?bep0o?$AA0?$PP?$FO?$AA4?$AA0?$AA9?$AA50n?$HL?D@
CONST	SEGMENT DWORD USE32 PUBLIC 'CONST'
CONST	ENDS
;	COMDAT ??_C@_1CE@KIIDBKFM@?$AAF?$AAD?$AAS?$AA?5?$AAM?$AAa?$AAs?$AAt?$AAe?$AAr?$AA?5?$AAv?$AAo?$AAl?$AAu?$AAm?$AAe?$AA?$AA@
CONST	SEGMENT DWORD USE32 PUBLIC 'CONST'
CONST	ENDS
;	COMDAT ??_C@_1DG@FINIAKBK@?$AAF?$AAD?$AAS0n0?$NO0?$LJ0?$LP0?$PM?$JH?s?$JB?O0o?$AA0?$PP?$FO?$AA30n?$HL?DV?r0gc?$AH?$FL?$JK@
CONST	SEGMENT DWORD USE32 PUBLIC 'CONST'
CONST	ENDS
;	COMDAT ??_C@_1EK@HBBIFNHP@?$AAV?$AAR?$AAC?$AA70?l0?$LI0?$LJ0?$LPd?MO?20n?$HL?0?$AA10?Q0?i0?a0?$PM0?$LP0o?$AA0@
CONST	SEGMENT DWORD USE32 PUBLIC 'CONST'
CONST	ENDS
;	COMDAT ??_C@_1EA@HBBIMBFO@?$AAy?$AAV?$AA?50?$LD0?$NO0?s0?I0n0?Q0?i0?a0?$PM0?$LP0L?$IN?$LD0?$IK0?$HO0?$FL0?$JD0?$AC@
CONST	SEGMENT DWORD USE32 PUBLIC 'CONST'
CONST	ENDS
;	COMDAT ??_C@_1EM@NIHECGCK@?$AAV?$AAR?$AAC?$AA70?l0?$LI0?$LJ0?$LPd?MO?20n?$HL?0?$AA20?Q0?i0?a0?$PM0?$LP0o?$AA0@
CONST	SEGMENT DWORD USE32 PUBLIC 'CONST'
CONST	ENDS
;	COMDAT ??_C@_1CI@JIGLHAON@?$AAV?$AAR?$AAC?$AA7?$AA?5?$AAR?$AAe?$AAg?$AAi?$AAs?$AAt?$AAe?$AAr?$AA?5?$AAW?$AAr?$AAi?$AAt?$AAe?$AA?$AA@
CONST	SEGMENT DWORD USE32 PUBLIC 'CONST'
CONST	ENDS
;	COMDAT ??_C@_1BK@BFEDNGPB@?$AAn?$AA1?$AA6?$AA3?$AA?5?$AAc?$AAh?$AAa?$AAn?$AAn?$AAe?$AAl?$AA?$AA@
CONST	SEGMENT DWORD USE32 PUBLIC 'CONST'
CONST	ENDS
;	COMDAT ??_C@_1DK@MLMMPBFK@?$AAn?$AA1?$AA6?$AA30n0?A0?c0?s0?M0?kep0o?$AA1?$PP?$FO?$AA80n?$HL?DV?r0gc?$AH@
CONST	SEGMENT DWORD USE32 PUBLIC 'CONST'
CONST	ENDS
;	COMDAT ??_C@_1CO@GINJDICH@?$AAF?$AAM?$AAE?$AA7?$AA?5?$AAe?$AAn?$AAv?$AAe?$AAl?$AAo?$AAp?$AA?5?$AAf?$AAr?$AAe?$AAq?$AAu?$AAe?$AAn@
CONST	SEGMENT DWORD USE32 PUBLIC 'CONST'
CONST	ENDS
;	COMDAT ??_C@_1FO@MPIPMFBJ@?$AAS?$AAU?$AAN?$AAS?$AAO?$AAF?$AAT?$AA?5?$AA5?$AAb0n0?O0?$PM0?I0?$KG0?$KH0?$KC0?$KI0?s0?Y@
CONST	SEGMENT DWORD USE32 PUBLIC 'CONST'
CONST	ENDS
text$yc	SEGMENT PARA USE32 PUBLIC 'CODE'
text$yc	ENDS
;	COMDAT ??1?$map@HPAVMusicTrack@@U?$less@H@std@@V?$allocator@U?$pair@$$CBHPAVMusicTrack@@@std@@@3@@std@@QAE@XZ
_TEXT	SEGMENT PARA USE32 PUBLIC 'CODE'
_TEXT	ENDS
;	COMDAT ??0?$map@HPAVMusicTrack@@U?$less@H@std@@V?$allocator@U?$pair@$$CBHPAVMusicTrack@@@std@@@3@@std@@QAE@XZ
_TEXT	SEGMENT PARA USE32 PUBLIC 'CODE'
_TEXT	ENDS
;	COMDAT ??1?$_Tree@V?$_Tmap_traits@HPAVMusicTrack@@U?$less@H@std@@V?$allocator@U?$pair@$$CBHPAVMusicTrack@@@std@@@3@$0A@@std@@@std@@QAE@XZ
_TEXT	SEGMENT PARA USE32 PUBLIC 'CODE'
_TEXT	ENDS
;	COMDAT ?count@?$_Tree@V?$_Tmap_traits@HPAVMusicTrack@@U?$less@H@std@@V?$allocator@U?$pair@$$CBHPAVMusicTrack@@@std@@@3@$0A@@std@@@std@@QBEIABH@Z
_TEXT	SEGMENT PARA USE32 PUBLIC 'CODE'
_TEXT	ENDS
;	COMDAT ??0?$_Tree@V?$_Tmap_traits@HPAVMusicTrack@@U?$less@H@std@@V?$allocator@U?$pair@$$CBHPAVMusicTrack@@@std@@@3@$0A@@std@@@std@@QAE@ABU?$less@H@1@ABV?$allocator@U?$pair@$$CBHPAVMusicTrack@@@std@@@1@@Z
_TEXT	SEGMENT PARA USE32 PUBLIC 'CODE'
_TEXT	ENDS
;	COMDAT ?equal_range@?$_Tree@V?$_Tmap_traits@HPAVMusicTrack@@U?$less@H@std@@V?$allocator@U?$pair@$$CBHPAVMusicTrack@@@std@@@3@$0A@@std@@@std@@QBE?AU?$pair@Vconst_iterator@?$_Tree@V?$_Tmap_traits@HPAVMusicTrack@@U?$less@H@std@@V?$allocator@U?$pair@$$CBHPAVMusicTrack@@@std@@@3@$0A@@std@@@std@@V123@@2@ABH@Z
_TEXT	SEGMENT PARA USE32 PUBLIC 'CODE'
_TEXT	ENDS
;	COMDAT ?_Tidy@?$_Tree@V?$_Tmap_traits@HPAVMusicTrack@@U?$less@H@std@@V?$allocator@U?$pair@$$CBHPAVMusicTrack@@@std@@@3@$0A@@std@@@std@@IAEXXZ
_TEXT	SEGMENT PARA USE32 PUBLIC 'CODE'
_TEXT	ENDS
;	COMDAT ??0?$allocator@U?$pair@$$CBHPAVMusicTrack@@@std@@@std@@QAE@XZ
_TEXT	SEGMENT PARA USE32 PUBLIC 'CODE'
_TEXT	ENDS
;	COMDAT ?erase@?$_Tree@V?$_Tmap_traits@HPAVMusicTrack@@U?$less@H@std@@V?$allocator@U?$pair@$$CBHPAVMusicTrack@@@std@@@3@$0A@@std@@@std@@QAE?AViterator@12@V312@0@Z
_TEXT	SEGMENT PARA USE32 PUBLIC 'CODE'
_TEXT	ENDS
;	COMDAT ?lower_bound@?$_Tree@V?$_Tmap_traits@HPAVMusicTrack@@U?$less@H@std@@V?$allocator@U?$pair@$$CBHPAVMusicTrack@@@std@@@3@$0A@@std@@@std@@QBE?AVconst_iterator@12@ABH@Z
_TEXT	SEGMENT PARA USE32 PUBLIC 'CODE'
_TEXT	ENDS
;	COMDAT ?upper_bound@?$_Tree@V?$_Tmap_traits@HPAVMusicTrack@@U?$less@H@std@@V?$allocator@U?$pair@$$CBHPAVMusicTrack@@@std@@@3@$0A@@std@@@std@@QBE?AVconst_iterator@12@ABH@Z
_TEXT	SEGMENT PARA USE32 PUBLIC 'CODE'
_TEXT	ENDS
;	COMDAT ?_Init@?$_Tree@V?$_Tmap_traits@HPAVMusicTrack@@U?$less@H@std@@V?$allocator@U?$pair@$$CBHPAVMusicTrack@@@std@@@3@$0A@@std@@@std@@IAEXXZ
_TEXT	SEGMENT PARA USE32 PUBLIC 'CODE'
_TEXT	ENDS
;	COMDAT ??0?$_Tree_val@V?$_Tmap_traits@HPAVMusicTrack@@U?$less@H@std@@V?$allocator@U?$pair@$$CBHPAVMusicTrack@@@std@@@3@$0A@@std@@@std@@IAE@ABU?$less@H@1@V?$allocator@U?$pair@$$CBHPAVMusicTrack@@@std@@@1@@Z
_TEXT	SEGMENT PARA USE32 PUBLIC 'CODE'
_TEXT	ENDS
;	COMDAT ??0?$allocator@U?$pair@$$CBHPAVMusicTrack@@@std@@@std@@QAE@ABV01@@Z
_TEXT	SEGMENT PARA USE32 PUBLIC 'CODE'
_TEXT	ENDS
;	COMDAT ?destroy@?$allocator@PAU_Node@?$_Tree_nod@V?$_Tmap_traits@HPAVMusicTrack@@U?$less@H@std@@V?$allocator@U?$pair@$$CBHPAVMusicTrack@@@std@@@3@$0A@@std@@@std@@@std@@QAEXPAPAU_Node@?$_Tree_nod@V?$_Tmap_traits@HPAVMusicTrack@@U?$less@H@std@@V?$allocator@U?$pair@$$CBHPAVMusicTrack@@@std@@@3@$0A@@std@@@2@@Z
_TEXT	SEGMENT PARA USE32 PUBLIC 'CODE'
_TEXT	ENDS
;	COMDAT ??0?$pair@Vconst_iterator@?$_Tree@V?$_Tmap_traits@HPAVMusicTrack@@U?$less@H@std@@V?$allocator@U?$pair@$$CBHPAVMusicTrack@@@std@@@3@$0A@@std@@@std@@V123@@std@@QAE@ABVconst_iterator@?$_Tree@V?$_Tmap_traits@HPAVMusicTrack@@U?$less@H@std@@V?$allocator@U?$pair@$$CBHPAVMusicTrack@@@std@@@3@$0A@@std@@@1@0@Z
_TEXT	SEGMENT PARA USE32 PUBLIC 'CODE'
_TEXT	ENDS
;	COMDAT ?erase@?$_Tree@V?$_Tmap_traits@HPAVMusicTrack@@U?$less@H@std@@V?$allocator@U?$pair@$$CBHPAVMusicTrack@@@std@@@3@$0A@@std@@@std@@QAE?AViterator@12@V312@@Z
_TEXT	SEGMENT PARA USE32 PUBLIC 'CODE'
_TEXT	ENDS
;	COMDAT ?clear@?$_Tree@V?$_Tmap_traits@HPAVMusicTrack@@U?$less@H@std@@V?$allocator@U?$pair@$$CBHPAVMusicTrack@@@std@@@3@$0A@@std@@@std@@QAEXXZ
_TEXT	SEGMENT PARA USE32 PUBLIC 'CODE'
_TEXT	ENDS
;	COMDAT ?_Ubound@?$_Tree@V?$_Tmap_traits@HPAVMusicTrack@@U?$less@H@std@@V?$allocator@U?$pair@$$CBHPAVMusicTrack@@@std@@@3@$0A@@std@@@std@@IBEPAU_Node@?$_Tree_nod@V?$_Tmap_traits@HPAVMusicTrack@@U?$less@H@std@@V?$allocator@U?$pair@$$CBHPAVMusicTrack@@@std@@@3@$0A@@std@@@2@ABH@Z
_TEXT	SEGMENT PARA USE32 PUBLIC 'CODE'
_TEXT	ENDS
;	COMDAT ?_Buynode@?$_Tree@V?$_Tmap_traits@HPAVMusicTrack@@U?$less@H@std@@V?$allocator@U?$pair@$$CBHPAVMusicTrack@@@std@@@3@$0A@@std@@@std@@IAEPAU_Node@?$_Tree_nod@V?$_Tmap_traits@HPAVMusicTrack@@U?$less@H@std@@V?$allocator@U?$pair@$$CBHPAVMusicTrack@@@std@@@3@$0A@@std@@@2@XZ
_TEXT	SEGMENT PARA USE32 PUBLIC 'CODE'
_TEXT	ENDS
;	COMDAT ??0?$_Tree_ptr@V?$_Tmap_traits@HPAVMusicTrack@@U?$less@H@std@@V?$allocator@U?$pair@$$CBHPAVMusicTrack@@@std@@@3@$0A@@std@@@std@@IAE@ABU?$less@H@1@V?$allocator@U?$pair@$$CBHPAVMusicTrack@@@std@@@1@@Z
_TEXT	SEGMENT PARA USE32 PUBLIC 'CODE'
_TEXT	ENDS
;	COMDAT ??Eiterator@?$_Tree@V?$_Tmap_traits@HPAVMusicTrack@@U?$less@H@std@@V?$allocator@U?$pair@$$CBHPAVMusicTrack@@@std@@@3@$0A@@std@@@std@@QAE?AV012@H@Z
_TEXT	SEGMENT PARA USE32 PUBLIC 'CODE'
_TEXT	ENDS
;	COMDAT ??9const_iterator@?$_Tree@V?$_Tmap_traits@HPAVMusicTrack@@U?$less@H@std@@V?$allocator@U?$pair@$$CBHPAVMusicTrack@@@std@@@3@$0A@@std@@@std@@QBE_NABV012@@Z
_TEXT	SEGMENT PARA USE32 PUBLIC 'CODE'
_TEXT	ENDS
;	COMDAT ?_Erase@?$_Tree@V?$_Tmap_traits@HPAVMusicTrack@@U?$less@H@std@@V?$allocator@U?$pair@$$CBHPAVMusicTrack@@@std@@@3@$0A@@std@@@std@@IAEXPAU_Node@?$_Tree_nod@V?$_Tmap_traits@HPAVMusicTrack@@U?$less@H@std@@V?$allocator@U?$pair@$$CBHPAVMusicTrack@@@std@@@3@$0A@@std@@@2@@Z
_TEXT	SEGMENT PARA USE32 PUBLIC 'CODE'
_TEXT	ENDS
;	COMDAT ??0?$_Tree_nod@V?$_Tmap_traits@HPAVMusicTrack@@U?$less@H@std@@V?$allocator@U?$pair@$$CBHPAVMusicTrack@@@std@@@3@$0A@@std@@@std@@IAE@ABU?$less@H@1@V?$allocator@U?$pair@$$CBHPAVMusicTrack@@@std@@@1@@Z
_TEXT	SEGMENT PARA USE32 PUBLIC 'CODE'
_TEXT	ENDS
;	COMDAT ?destroy@?$allocator@U_Node@?$_Tree_nod@V?$_Tmap_traits@HPAVMusicTrack@@U?$less@H@std@@V?$allocator@U?$pair@$$CBHPAVMusicTrack@@@std@@@3@$0A@@std@@@std@@@std@@QAEXPAU_Node@?$_Tree_nod@V?$_Tmap_traits@HPAVMusicTrack@@U?$less@H@std@@V?$allocator@U?$pair@$$CBHPAVMusicTrack@@@std@@@3@$0A@@std@@@2@@Z
_TEXT	SEGMENT PARA USE32 PUBLIC 'CODE'
_TEXT	ENDS
;	COMDAT ?construct@?$allocator@PAU_Node@?$_Tree_nod@V?$_Tmap_traits@HPAVMusicTrack@@U?$less@H@std@@V?$allocator@U?$pair@$$CBHPAVMusicTrack@@@std@@@3@$0A@@std@@@std@@@std@@QAEXPAPAU_Node@?$_Tree_nod@V?$_Tmap_traits@HPAVMusicTrack@@U?$less@H@std@@V?$allocator@U?$pair@$$CBHPAVMusicTrack@@@std@@@3@$0A@@std@@@2@ABQAU342@@Z
_TEXT	SEGMENT PARA USE32 PUBLIC 'CODE'
_TEXT	ENDS
;	COMDAT ??0?$_Tmap_traits@HPAVMusicTrack@@U?$less@H@std@@V?$allocator@U?$pair@$$CBHPAVMusicTrack@@@std@@@3@$0A@@std@@QAE@U?$less@H@1@@Z
_TEXT	SEGMENT PARA USE32 PUBLIC 'CODE'
_TEXT	ENDS
;	COMDAT _$E1
text$yc	SEGMENT PARA USE32 PUBLIC 'CODE'
text$yc	ENDS
;	COMDAT ??$_Distance@Vconst_iterator@?$_Tree@V?$_Tmap_traits@HPAVMusicTrack@@U?$less@H@std@@V?$allocator@U?$pair@$$CBHPAVMusicTrack@@@std@@@3@$0A@@std@@@std@@I@std@@YAXVconst_iterator@?$_Tree@V?$_Tmap_traits@HPAVMusicTrack@@U?$less@H@std@@V?$allocator@U?$pair@$$CBHPAVMusicTrack@@@std@@@3@$0A@@std@@@0@0AAI@Z
_TEXT	SEGMENT PARA USE32 PUBLIC 'CODE'
_TEXT	ENDS
;	COMDAT ??$_Destroy@PAU_Node@?$_Tree_nod@V?$_Tmap_traits@HPAVMusicTrack@@U?$less@H@std@@V?$allocator@U?$pair@$$CBHPAVMusicTrack@@@std@@@3@$0A@@std@@@std@@@std@@YAXPAPAU_Node@?$_Tree_nod@V?$_Tmap_traits@HPAVMusicTrack@@U?$less@H@std@@V?$allocator@U?$pair@$$CBHPAVMusicTrack@@@std@@@3@$0A@@std@@@0@@Z
_TEXT	SEGMENT PARA USE32 PUBLIC 'CODE'
_TEXT	ENDS
;	COMDAT ??$?0U?$pair@$$CBHPAVMusicTrack@@@std@@@?$allocator@PAU_Node@?$_Tree_nod@V?$_Tmap_traits@HPAVMusicTrack@@U?$less@H@std@@V?$allocator@U?$pair@$$CBHPAVMusicTrack@@@std@@@3@$0A@@std@@@std@@@std@@QAE@ABV?$allocator@U?$pair@$$CBHPAVMusicTrack@@@std@@@1@@Z
_TEXT	SEGMENT PARA USE32 PUBLIC 'CODE'
_TEXT	ENDS
;	COMDAT ??$?0U?$pair@$$CBHPAVMusicTrack@@@std@@@?$allocator@U_Node@?$_Tree_nod@V?$_Tmap_traits@HPAVMusicTrack@@U?$less@H@std@@V?$allocator@U?$pair@$$CBHPAVMusicTrack@@@std@@@3@$0A@@std@@@std@@@std@@QAE@ABV?$allocator@U?$pair@$$CBHPAVMusicTrack@@@std@@@1@@Z
_TEXT	SEGMENT PARA USE32 PUBLIC 'CODE'
_TEXT	ENDS
;	COMDAT ??$_Destroy@U_Node@?$_Tree_nod@V?$_Tmap_traits@HPAVMusicTrack@@U?$less@H@std@@V?$allocator@U?$pair@$$CBHPAVMusicTrack@@@std@@@3@$0A@@std@@@std@@@std@@YAXPAU_Node@?$_Tree_nod@V?$_Tmap_traits@HPAVMusicTrack@@U?$less@H@std@@V?$allocator@U?$pair@$$CBHPAVMusicTrack@@@std@@@3@$0A@@std@@@0@@Z
_TEXT	SEGMENT PARA USE32 PUBLIC 'CODE'
_TEXT	ENDS
;	COMDAT ??$_Construct@PAU_Node@?$_Tree_nod@V?$_Tmap_traits@HPAVMusicTrack@@U?$less@H@std@@V?$allocator@U?$pair@$$CBHPAVMusicTrack@@@std@@@3@$0A@@std@@@std@@PAU123@@std@@YAXPAPAU_Node@?$_Tree_nod@V?$_Tmap_traits@HPAVMusicTrack@@U?$less@H@std@@V?$allocator@U?$pair@$$CBHPAVMusicTrack@@@std@@@3@$0A@@std@@@0@ABQAU120@@Z
_TEXT	SEGMENT PARA USE32 PUBLIC 'CODE'
_TEXT	ENDS
;	COMDAT _$E3
text$yc	SEGMENT PARA USE32 PUBLIC 'CODE'
text$yc	ENDS
;	COMDAT ??$_Iter_cat@Vconst_iterator@?$_Tree@V?$_Tmap_traits@HPAVMusicTrack@@U?$less@H@std@@V?$allocator@U?$pair@$$CBHPAVMusicTrack@@@std@@@3@$0A@@std@@@std@@@std@@YA?AUbidirectional_iterator_tag@0@ABVconst_iterator@?$_Tree@V?$_Tmap_traits@HPAVMusicTrack@@U?$less@H@std@@V?$allocator@U?$pair@$$CBHPAVMusicTrack@@@std@@@3@$0A@@std@@@0@@Z
_TEXT	SEGMENT PARA USE32 PUBLIC 'CODE'
_TEXT	ENDS
;	COMDAT ??$_Distance2@Vconst_iterator@?$_Tree@V?$_Tmap_traits@HPAVMusicTrack@@U?$less@H@std@@V?$allocator@U?$pair@$$CBHPAVMusicTrack@@@std@@@3@$0A@@std@@@std@@I@std@@YAXVconst_iterator@?$_Tree@V?$_Tmap_traits@HPAVMusicTrack@@U?$less@H@std@@V?$allocator@U?$pair@$$CBHPAVMusicTrack@@@std@@@3@$0A@@std@@@0@0AAIUbidirectional_iterator_tag@0@@Z
_TEXT	SEGMENT PARA USE32 PUBLIC 'CODE'
_TEXT	ENDS
;	COMDAT _$E5
text$yc	SEGMENT PARA USE32 PUBLIC 'CODE'
text$yc	ENDS
;	COMDAT ?GetLine@MMLfile@@QAEIXZ
_TEXT	SEGMENT PARA USE32 PUBLIC 'CODE'
_TEXT	ENDS
;	COMDAT ?GetLine@FileInput@@QAEIXZ
_TEXT	SEGMENT PARA USE32 PUBLIC 'CODE'
_TEXT	ENDS
;	COMDAT ?SetLine@MMLfile@@QAEXI@Z
_TEXT	SEGMENT PARA USE32 PUBLIC 'CODE'
_TEXT	ENDS
;	COMDAT ?SetLine@FileInput@@QAEXI@Z
_TEXT	SEGMENT PARA USE32 PUBLIC 'CODE'
_TEXT	ENDS
;	COMDAT ?GetCompileFlag@MusicTrack@@QAE_NXZ
_TEXT	SEGMENT PARA USE32 PUBLIC 'CODE'
_TEXT	ENDS
;	COMDAT ?GetMacroNest@MMLfile@@QAEHXZ
_TEXT	SEGMENT PARA USE32 PUBLIC 'CODE'
_TEXT	ENDS
;	COMDAT ?GetTickTotal@MusicTrack@@QAEIXZ
_TEXT	SEGMENT PARA USE32 PUBLIC 'CODE'
_TEXT	ENDS
;	COMDAT ?GetTickLoop@MusicTrack@@QAEIXZ
_TEXT	SEGMENT PARA USE32 PUBLIC 'CODE'
_TEXT	ENDS
;	COMDAT ?Command@?1???0TrackSet@@QAE@PAVMMLfile@@I_N1QBG@Z@4QBUCommand_Info@@B
CONST	SEGMENT DWORD USE32 PUBLIC 'CONST'
CONST	ENDS
;	COMDAT ?SetCompileFlag@MusicTrack@@QAEX_N@Z
_TEXT	SEGMENT PARA USE32 PUBLIC 'CODE'
_TEXT	ENDS
;	COMDAT ?Yen_UTF8W@?1???0TrackSet@@QAE@PAVMMLfile@@I_N1QBG@Z@4QBEB
CONST	SEGMENT DWORD USE32 PUBLIC 'CONST'
CONST	ENDS
;	COMDAT ?RS_UTF8W@?1???0TrackSet@@QAE@PAVMMLfile@@I_N1QBG@Z@4QBEB
CONST	SEGMENT DWORD USE32 PUBLIC 'CONST'
CONST	ENDS
;	COMDAT ?Yen_UTF8@?1???0TrackSet@@QAE@PAVMMLfile@@I_N1QBG@Z@4QBEB
CONST	SEGMENT DWORD USE32 PUBLIC 'CONST'
CONST	ENDS
;	COMDAT ?RS_UTF8@?1???0TrackSet@@QAE@PAVMMLfile@@I_N1QBG@Z@4QBEB
CONST	SEGMENT DWORD USE32 PUBLIC 'CONST'
CONST	ENDS
;	COMDAT ??_7TrackSet@@6B@
CONST	SEGMENT DWORD USE32 PUBLIC 'CONST'
CONST	ENDS
FLAT	GROUP _DATA, CONST, _BSS
	ASSUME	CS: FLAT, DS: FLAT, SS: FLAT
endif

INCLUDELIB LIBCMT
INCLUDELIB OLDNAMES

PUBLIC	?getAsm@TrackSet@@UAEXPAVMusicFile@@@Z		; TrackSet::getAsm
PUBLIC	??_C@_02ODIGJPFH@TR?$AA@			; `string'
PUBLIC	??_C@_08PGKBPJJO@?$IDg?$ID?$IJ?$IDb?$IDN?$AA@	; `string'
PUBLIC	??_C@_05MAGIBEFI@Scale?$AA@			; `string'
PUBLIC	??_C@_05MHMEBBGO@scale?$AA@			; `string'
PUBLIC	??_C@_04KNKPIPFB@Mode?$AA@			; `string'
PUBLIC	??_C@_04GMGOKAFF@mode?$AA@			; `string'
PUBLIC	??_C@_05FDLAJJBN@Major?$AA@			; `string'
PUBLIC	??_C@_05FEBMJMCL@major?$AA@			; `string'
PUBLIC	??_C@_05OMKCEFIL@Minor?$AA@			; `string'
PUBLIC	??_C@_05OLAOEALN@minor?$AA@			; `string'
PUBLIC	??_C@_06LHOIAAEI@HMinor?$AA@			; `string'
PUBLIC	??_C@_06HPPJDMOC@hminor?$AA@			; `string'
PUBLIC	??_C@_06OFNACPOP@MMinor?$AA@			; `string'
PUBLIC	??_C@_06CNMBBDEF@mminor?$AA@			; `string'
PUBLIC	??_C@_01KNKLHLMO@K?$AA@				; `string'
PUBLIC	??_C@_02CINKIGEJ@?$JC?$LC?$AA@			; `string'
PUBLIC	??_C@_02EFPODJMF@?$FL?3?$AA@			; `string'
PUBLIC	??_C@_02CGFHGFLC@?3?$FN?$AA@			; `string'
PUBLIC	??_C@_02HIPMGJKA@?$HM?3?$AA@			; `string'
PUBLIC	??_C@_02KKMIHAFB@?3?$HM?$AA@			; `string'
PUBLIC	??_C@_01OHGJGJJP@?$FL?$AA@			; `string'
PUBLIC	??_C@_01LBDDMOBJ@?$FN?$AA@			; `string'
PUBLIC	??_C@_02JEILFJNG@?$IB?$IH?$AA@			; `string'
PUBLIC	??_C@_04GCKADHHM@?$IBb?$IBF?$AA@		; `string'
PUBLIC	??_C@_02FMFCNDNO@?$IB?$IP?$AA@			; `string'
PUBLIC	??_C@_02NNGKBGMB@?$IB_?$AA@			; `string'
PUBLIC	??_C@_04LMBIOOLD@?$IBF?$IBb?$AA@		; `string'
PUBLIC	??_C@_02BOLEJFOF@?$IBy?$AA@			; `string'
PUBLIC	??_C@_02EGGKLPNJ@?$IBF?$AA@			; `string'
PUBLIC	??_C@_02DFJJMGCG@?$IBz?$AA@			; `string'
PUBLIC	??_C@_02GOGFKHPK@t_?$AA@			; `string'
PUBLIC	??_C@_01PFHFFBPC@t?$AA@				; `string'
PUBLIC	??_C@_06LKBOFJCM@?$IDe?$ID?$JD?$ID?$HM?$AA@	; `string'
PUBLIC	??_C@_02IGJHGBLL@?$IB?$KI?$AA@			; `string'
PUBLIC	??_C@_02JPIMFAPK@?$IB?$KJ?$AA@			; `string'
PUBLIC	??_C@_01NOFIACDB@w?$AA@				; `string'
PUBLIC	??_C@_01JKBOJNNK@?$FO?$AA@			; `string'
PUBLIC	??_C@_02LJAGNDMF@?$IB?$FL?$AA@			; `string'
PUBLIC	??_C@_04EBGGPMEF@?$IJ?$LJ?$JF?$IE?$AA@		; `string'
PUBLIC	??_C@_01BNIGIBBF@Q?$AA@				; `string'
PUBLIC	??_C@_06EFPKECIE@?$IDQ?$IB?$FL?$IDg?$AA@	; `string'
PUBLIC	??_C@_03EOHNIDBB@ECc?$AA@			; `string'
PUBLIC	??_C@_03BDMBFNG@ECd?$AA@			; `string'
PUBLIC	??_C@_03BICHCEJH@ECe?$AA@			; `string'
PUBLIC	??_C@_03DDAKHHFE@ECf?$AA@			; `string'
PUBLIC	??_C@_03CKBBEGBF@ECg?$AA@			; `string'
PUBLIC	??_C@_03HMELOBJD@ECa?$AA@			; `string'
PUBLIC	??_C@_03FHGGLCFA@ECb?$AA@			; `string'
PUBLIC	??_C@_03BNKEKAAB@ECr?$AA@			; `string'
PUBLIC	??_C@_03CAIHOBJK@EC?9?$AA@			; `string'
PUBLIC	??_C@_03GPMGHHFN@EC?$CK?$AA@			; `string'
PUBLIC	??_C@_02KNLLHFAA@EC?$AA@			; `string'
PUBLIC	??_C@_0L@LOJEBEMJ@?$IDG?$IDR?$IB?$FL?$IDI?$IDt?$AA@ ; `string'
PUBLIC	??_C@_06OHMKBCHJ@?$IDG?$IDR?$IB?$FL?$AA@	; `string'
PUBLIC	??_C@_01LELAEKIP@J?$AA@				; `string'
PUBLIC	??_C@_01CBDEGOCN@j?$AA@				; `string'
PUBLIC	??_C@_0BB@KNFILCDL@?$IDG?$ID?$JD?$IDx?$ID?$IN?$IB?$FL?$IDv?$IDI?$IDt?$AA@ ; `string'
PUBLIC	??_C@_0P@EEJKCPJF@?$IDr?$IDu?$ID?$IJ?$IB?$FL?$IDg?$IDI?$IDt?$AA@ ; `string'
PUBLIC	??_C@_02LPNFMJNJ@Rm?$AA@			; `string'
PUBLIC	??_C@_02JPPPJDDG@R?$EA?$AA@			; `string'
PUBLIC	??_C@_02BGODACED@Rv?$AA@			; `string'
PUBLIC	??_C@_03EGHIJKEG@?$EAP?$CK?$AA@			; `string'
PUBLIC	??_C@_02MKJPPGHJ@?$EAP?$AA@			; `string'
PUBLIC	??_C@_03OKOMJFGK@?$EAFC?$AA@			; `string'
PUBLIC	??_C@_03JHJLGBCP@?$EAFF?$AA@			; `string'
PUBLIC	??_C@_03NNFJHDHO@?$EAFV?$AA@			; `string'
PUBLIC	??_C@_02JMMFFBPP@?$EAV?$AA@			; `string'
PUBLIC	??_C@_03GDGHNIBN@?$EANL?$AA@			; `string'
PUBLIC	??_C@_04LOGBILGC@?$IJ?$LJ?$JAF?$AA@		; `string'
PUBLIC	??_C@_02KBOOJKOB@NC?$AA@			; `string'
PUBLIC	??_C@_01BIAFAFID@F?$AA@				; `string'
PUBLIC	??_C@_01FMEDJKGI@o?$AA@				; `string'
PUBLIC	??_C@_04BKHONDIJ@?$IJ?$LJ?$IKK?$AA@		; `string'
PUBLIC	??_C@_01PPODPGHN@?$DO?$AA@			; `string'
PUBLIC	??_C@_02JPIENKHP@?$IP?c?$AA@			; `string'
PUBLIC	??_C@_02LEKBADDJ@?$IB?$KK?$AA@			; `string'
PUBLIC	??_C@_01MNNFJEPP@?$DM?$AA@			; `string'
PUBLIC	??_C@_02PAHAEANA@?$IJ?$LK?$AA@			; `string'
PUBLIC	??_C@_02KNLKDCHI@?$IB?$KL?$AA@			; `string'
PUBLIC	??_C@_01NLNLIGKH@?$GA?$AA@			; `string'
PUBLIC	??_C@_02PIMDMILI@?$IBe?$AA@			; `string'
PUBLIC	??_C@_01BJJEKLCA@?$CC?$AA@			; `string'
PUBLIC	??_C@_02ENGNLGPF@?$IBh?$AA@			; `string'
PUBLIC	??_C@_03MJGICKBJ@D?$CF_?$AA@			; `string'
PUBLIC	??_C@_02JPNONDBG@D?$CF?$AA@			; `string'
PUBLIC	??_C@_02EKAOECGK@D_?$AA@			; `string'
PUBLIC	??_C@_0N@PCNDJPL@?$IDf?$IDB?$ID?$GA?$ID?$IF?$IB?$FL?$ID?$JD?$AA@ ; `string'
PUBLIC	??_C@_02FKHNAOPL@__?$AA@			; `string'
PUBLIC	??_C@_02HJBPEDLH@k_?$AA@			; `string'
PUBLIC	??_C@_01DICPFPGM@k?$AA@				; `string'
PUBLIC	??_C@_08GJIKAFHH@TrackKey?$AA@			; `string'
PUBLIC	??_C@_0N@NPJHKLGE@?$ID?$HM?$ID?$IL?$ID?$FO?$ID?$IB?$ID?$JD?$IDg?$AA@ ; `string'
PUBLIC	??_C@_01MHEDDDHA@v?$AA@				; `string'
PUBLIC	??_C@_04CMBIEKKA@?$IJ?$LJ?$JH?J?$AA@		; `string'
PUBLIC	??_C@_01PKGAHCOL@?$CJ?$AA@			; `string'
PUBLIC	??_C@_06MFPBKHIE@?$JB?e?$IC?$KL?$IC?$KN?$AA@	; `string'
PUBLIC	??_C@_02NPGGPDID@?$JB?e?$AA@			; `string'
PUBLIC	??_C@_06EPOKGEMD@?$IP?$KM?$IC?$LD?$IC?$KN?$AA@	; `string'
PUBLIC	??_C@_02OIGFIJLF@?$IP?$KM?$AA@			; `string'
PUBLIC	??_C@_02LHHPIPOA@yV?$AA@			; `string'
PUBLIC	??_C@_01EANLCPLP@y?$AA@				; `string'
PUBLIC	??_C@_1DM@LBEIIGCG@?$AAS?$AAu?$AAb0?V0?m0?C0?$KPQ?$IF0g0o0?H0?i0?C0?$KPc?$AH?$FL?$JK0o0g0M0?$HO@ ; `string'
PUBLIC	??_C@_1DK@GCJGKPID@?$AAS?$AAu?$AAb0?V0?m0?C0?$KPQ?$IF0g0oq?$CB?$JGP0?k0?$PM0?W0o0g0M0?$HO0?$FL@ ; `string'
PUBLIC	??_C@_1BI@IEKIFIDC@?$AAD?$AAe?$AAt?$AAu?$AAn?$AAe?$AA?5?$AAC?$AAe?$AAn?$AAt?$AA?$AA@ ; `string'
PUBLIC	??_C@_1CA@DCDMNGOL@?$AAD?$AAe?$AAr?$AAu?$AAn?$AAe?$AA?5?$AAR?$AAe?$AAg?$AAi?$AAs?$AAt?$AAe?$AAr?$AA?$AA@ ; `string'
PUBLIC	??_C@_1CK@JBMEODCM@?$AAR?$AAe?$AAl?$AAa?$AAt?$AAi?$AAv?$AAe?$AA?5?$AAD?$AAe?$AAt?$AAu?$AAn?$AAe?$AA?5?$AAC?$AAe?$AAn?$AAt@ ; `string'
PUBLIC	??_C@_1DC@KLPFDHDF@?$AAR?$AAe?$AAl?$AAa?$AAt?$AAi?$AAv?$AAe?$AA?5?$AAD?$AAe?$AAt?$AAu?$AAn?$AAe?$AA?5?$AAR?$AAe?$AAg?$AAi@ ; `string'
PUBLIC	??_C@_1DC@NPMHHGKK@y?$PL?$IK?$LP0o?$AA?9?$AA1?$AA2?$AA7?$PP?$FO?$AA1?$AA2?$AA80n?$HL?DV?r0gc?$AH?$FL?$JK0W0f0O@ ; `string'
PUBLIC	??_C@_03PNPKJHCD@?0?5$?$AA@			; `string'
PUBLIC	??_C@_08EAKLHHJG@?7?4word?7$?$AA@		; `string'
PUBLIC	??_C@_06KPCEEHJM@Track?5?$AA@			; `string'
PUBLIC	??_C@_02KCKGHPCA@?$CJ?5?$AA@			; `string'
PUBLIC	??_C@_05IFBGHAGD@?$HM?5TR?$CI?$AA@		; `string'
PUBLIC	??_C@_06MFAOKAEB@Loop?5?5?$AA@			; `string'
PUBLIC	??_C@_09CCGPGAKD@?$HM?5no?9loop?$AA@		; `string'
PUBLIC	??_C@_06BHCKJACF@Total?5?$AA@			; `string'
PUBLIC	??_C@_1CI@FKLPJOID@0?$NO0?$KP0?mN?90g0?H0?i0?C0?$KP0nc?$AH?$FL?$JK0o0g0M0?$HO0?$FL0?$JD0?$AC?$AA?$AA@ ; `string'
PUBLIC	??_C@_1CO@IBJONDON@0?H0?i0?C0?$KPujS?w0gc?$AH?$FL?$JK0g0M0?$IL?$HL?DV?r0?$JC?$IN?$IF0H0f0D0?$HO@ ; `string'
PUBLIC	??_C@_1DC@ODCBAGNM@?$AA?$DN?$AA?$DN?$AA?$DN?$AA?$DN?$AA?5?$AA?$FL?$AA?5?$AAM?$AAu?$AAs?$AAi?$AAc?$AA?5?$AAT?$AAr?$AAa?$AAc?$AAk?$AA?5?$AA?$FN@ ; `string'
PUBLIC	??_C@_1FO@HMLHKAGM@?$AAM?$AAu?$AAs?$AAi?$AAc?$AAT?$AAr?$AAa?$AAc?$AAk?$AA?$CK?$AA?5?$AAT?$AAr?$AAa?$AAc?$AAk?$AAS?$AAe?$AAt@ ; `string'
PUBLIC	??_C@_1DK@DNENJNME@?$AAS?$AAE0?V0?m0?C0?$KPN?eY?$BG0g0oQ?$CKQH?$FO?$KGc?$AH?$FL?$JK0o0g0M0?$HO0?$FL@ ; `string'
PUBLIC	??_C@_1DE@GKCFHPBH@R?$LJg?$JM?$JH?s0nQ?$CKQH?$FO?$KG0o0?$AB0o?$AA0?$PP?$FO?$AA30n?$HL?DV?r0gc?$AH?$FL?$JK0W@ ; `string'
PUBLIC	??_C@_1BC@PFLOACNN@?$AAJ?$AAu?$AAm?$AAp?$AA?5?$AAO?$AAf?$AAf?$AA?$AA@ ; `string'
PUBLIC	??_C@_1BA@DLHAJHPF@?$AAJ?$AAu?$AAm?$AAp?$AA?5?$AAO?$AAn?$AA?$AA@ ; `string'
PUBLIC	??_C@_1CK@GFGAOJII@?$AAj0?$LD0?$NO0?s0?I0Lc?$AH?$FL?$JKS?o?$IA?$PN0j?$HL?DV?r0?$JC?$IN?$IF0H0?$HO0W0_0?$AC@ ; `string'
PUBLIC	??_C@_1CG@CEHFAHAL@0?F0?s0?$NN0Lc?$AH?$FL?$JKS?o?$IA?$PN0j?$HL?DV?r0?$JC?$IN?$IF0H0?$HO0W0_0?$AC?$AA?$AA@ ; `string'
PUBLIC	??_C@_1M@KPBAMICJ@?$AAT?$AAe?$AAm?$AAp?$AAo?$AA?$AA@ ; `string'
PUBLIC	??_C@_1BO@NMEFKJBB@?$AAR?$AAe?$AAl?$AAa?$AAt?$AAi?$AAv?$AAe?$AA?5?$AAT?$AAe?$AAm?$AAp?$AAo?$AA?$AA@ ; `string'
PUBLIC	??_C@_1EG@KMDFAJLP@?$AAy0?$LD0?$NO0?s0?I0n0?$KC0?I0?l0?$LJ0o?$AA$?$AA0?$AA0?$AA0?$AA0?$PP?$FO?$AA$?$AAF?$AAF@ ; `string'
PUBLIC	??_C@_1DM@CBEKDAPN@?$AAy0?$LD0?$NO0?s0?I0n0?Q0?i0?a0?$PM0?$LP0L?$IN?$LD0?$IK0?$HO0?$FL0?$JD0?$AC?$PP?$BC0d@ ; `string'
PUBLIC	??_C@_1DM@CNINMOFB@?$AAy0?$LD0?$NO0?s0?I0n0?G0?$PM0?$LP0o?$AA$?$AA0?$AA0?$PP?$FO?$AA$?$AAF?$AAF0n?$HL?DV?r@ ; `string'
PUBLIC	??_C@_19MCGBFLHO@?$AAP?$AAo?$AAk?$AAe?$AA?$AA@	; `string'
PUBLIC	??_C@_1CK@JOCIMFBO@?$AAF?$AAD?$AAS?$AA?5?$AAc?$AAa?$AAr?$AAe?$AAe?$AAr?$AA?5?$AAf?$AAr?$AAe?$AAq?$AAu?$AAe?$AAn?$AAc?$AAy@ ; `string'
PUBLIC	??_C@_1DO@NCLODOIG@?$AAF?$AAD?$AAS0n0?$KN0?c0?j0?$KCThl?bep0o?$AA0?$PP?$FO?$AA4?$AA0?$AA9?$AA50n?$HL?D@ ; `string'
PUBLIC	??_C@_1CE@KIIDBKFM@?$AAF?$AAD?$AAS?$AA?5?$AAM?$AAa?$AAs?$AAt?$AAe?$AAr?$AA?5?$AAv?$AAo?$AAl?$AAu?$AAm?$AAe?$AA?$AA@ ; `string'
PUBLIC	??_C@_1DG@FINIAKBK@?$AAF?$AAD?$AAS0n0?$NO0?$LJ0?$LP0?$PM?$JH?s?$JB?O0o?$AA0?$PP?$FO?$AA30n?$HL?DV?r0gc?$AH?$FL?$JK@ ; `string'
PUBLIC	??_C@_1EK@HBBIFNHP@?$AAV?$AAR?$AAC?$AA70?l0?$LI0?$LJ0?$LPd?MO?20n?$HL?0?$AA10?Q0?i0?a0?$PM0?$LP0o?$AA0@ ; `string'
PUBLIC	??_C@_1EA@HBBIMBFO@?$AAy?$AAV?$AA?50?$LD0?$NO0?s0?I0n0?Q0?i0?a0?$PM0?$LP0L?$IN?$LD0?$IK0?$HO0?$FL0?$JD0?$AC@ ; `string'
PUBLIC	??_C@_1EM@NIHECGCK@?$AAV?$AAR?$AAC?$AA70?l0?$LI0?$LJ0?$LPd?MO?20n?$HL?0?$AA20?Q0?i0?a0?$PM0?$LP0o?$AA0@ ; `string'
PUBLIC	??_C@_1CI@JIGLHAON@?$AAV?$AAR?$AAC?$AA7?$AA?5?$AAR?$AAe?$AAg?$AAi?$AAs?$AAt?$AAe?$AAr?$AA?5?$AAW?$AAr?$AAi?$AAt?$AAe?$AA?$AA@ ; `string'
PUBLIC	??_C@_1BK@BFEDNGPB@?$AAn?$AA1?$AA6?$AA3?$AA?5?$AAc?$AAh?$AAa?$AAn?$AAn?$AAe?$AAl?$AA?$AA@ ; `string'
PUBLIC	??_C@_1DK@MLMMPBFK@?$AAn?$AA1?$AA6?$AA30n0?A0?c0?s0?M0?kep0o?$AA1?$PP?$FO?$AA80n?$HL?DV?r0gc?$AH@ ; `string'
PUBLIC	??_C@_1CO@GINJDICH@?$AAF?$AAM?$AAE?$AA7?$AA?5?$AAe?$AAn?$AAv?$AAe?$AAl?$AAo?$AAp?$AA?5?$AAf?$AAr?$AAe?$AAq?$AAu?$AAe?$AAn@ ; `string'
PUBLIC	??_C@_1FO@MPIPMFBJ@?$AAS?$AAU?$AAN?$AAS?$AAO?$AAF?$AAT?$AA?5?$AA5?$AAb0n0?O0?$PM0?I0?$KG0?$KH0?$KC0?$KI0?s0?Y@ ; `string'
PUBLIC	??_7TrackSet@@6B@				; TrackSet::`vftable'
;	COMDAT ?RS_UTF8@?1???0TrackSet@@QAE@PAVMMLfile@@I_N1QBG@Z@4QBEB
CONST	SEGMENT
?RS_UTF8@?1???0TrackSet@@QAE@PAVMMLfile@@I_N1QBG@Z@4QBEB DB 05cH ; `TrackSet::TrackSet'::`2'::RS_UTF8
	DB	00H
CONST	ENDS
;	COMDAT ?RS_UTF8W@?1???0TrackSet@@QAE@PAVMMLfile@@I_N1QBG@Z@4QBEB
CONST	SEGMENT
?RS_UTF8W@?1???0TrackSet@@QAE@PAVMMLfile@@I_N1QBG@Z@4QBEB DB 0efH ; `TrackSet::TrackSet'::`2'::RS_UTF8W
	DB	0bcH
	DB	0bcH
	DB	00H
CONST	ENDS
;	COMDAT ?Yen_UTF8@?1???0TrackSet@@QAE@PAVMMLfile@@I_N1QBG@Z@4QBEB
CONST	SEGMENT
?Yen_UTF8@?1???0TrackSet@@QAE@PAVMMLfile@@I_N1QBG@Z@4QBEB DB 0c2H ; `TrackSet::TrackSet'::`2'::Yen_UTF8
	DB	0a5H
	DB	00H
CONST	ENDS
;	COMDAT ?Yen_UTF8W@?1???0TrackSet@@QAE@PAVMMLfile@@I_N1QBG@Z@4QBEB
CONST	SEGMENT
?Yen_UTF8W@?1???0TrackSet@@QAE@PAVMMLfile@@I_N1QBG@Z@4QBEB DB 0efH ; `TrackSet::TrackSet'::`2'::Yen_UTF8W
	DB	0bfH
	DB	0a5H
	DB	00H
CONST	ENDS
;	COMDAT ??_C@_02ODIGJPFH@TR?$AA@
CONST	SEGMENT
??_C@_02ODIGJPFH@TR?$AA@ DB 'TR', 00H			; `string'
CONST	ENDS
;	COMDAT ??_C@_08PGKBPJJO@?$IDg?$ID?$IJ?$IDb?$IDN?$AA@
CONST	SEGMENT
??_C@_08PGKBPJJO@?$IDg?$ID?$IJ?$IDb?$IDN?$AA@ DB 083H, 'g', 083H, 089H, 083H
	DB	'b', 083H, 'N', 00H				; `string'
CONST	ENDS
;	COMDAT ??_C@_05MAGIBEFI@Scale?$AA@
CONST	SEGMENT
??_C@_05MAGIBEFI@Scale?$AA@ DB 'Scale', 00H		; `string'
CONST	ENDS
;	COMDAT ??_C@_05MHMEBBGO@scale?$AA@
CONST	SEGMENT
??_C@_05MHMEBBGO@scale?$AA@ DB 'scale', 00H		; `string'
CONST	ENDS
;	COMDAT ??_C@_04KNKPIPFB@Mode?$AA@
CONST	SEGMENT
??_C@_04KNKPIPFB@Mode?$AA@ DB 'Mode', 00H		; `string'
CONST	ENDS
;	COMDAT ??_C@_04GMGOKAFF@mode?$AA@
CONST	SEGMENT
??_C@_04GMGOKAFF@mode?$AA@ DB 'mode', 00H		; `string'
CONST	ENDS
;	COMDAT ??_C@_05FDLAJJBN@Major?$AA@
CONST	SEGMENT
??_C@_05FDLAJJBN@Major?$AA@ DB 'Major', 00H		; `string'
CONST	ENDS
;	COMDAT ??_C@_05FEBMJMCL@major?$AA@
CONST	SEGMENT
??_C@_05FEBMJMCL@major?$AA@ DB 'major', 00H		; `string'
CONST	ENDS
;	COMDAT ??_C@_05OMKCEFIL@Minor?$AA@
CONST	SEGMENT
??_C@_05OMKCEFIL@Minor?$AA@ DB 'Minor', 00H		; `string'
CONST	ENDS
;	COMDAT ??_C@_05OLAOEALN@minor?$AA@
CONST	SEGMENT
??_C@_05OLAOEALN@minor?$AA@ DB 'minor', 00H		; `string'
CONST	ENDS
;	COMDAT ??_C@_06LHOIAAEI@HMinor?$AA@
CONST	SEGMENT
??_C@_06LHOIAAEI@HMinor?$AA@ DB 'HMinor', 00H		; `string'
CONST	ENDS
;	COMDAT ??_C@_06HPPJDMOC@hminor?$AA@
CONST	SEGMENT
??_C@_06HPPJDMOC@hminor?$AA@ DB 'hminor', 00H		; `string'
CONST	ENDS
;	COMDAT ??_C@_06OFNACPOP@MMinor?$AA@
CONST	SEGMENT
??_C@_06OFNACPOP@MMinor?$AA@ DB 'MMinor', 00H		; `string'
CONST	ENDS
;	COMDAT ??_C@_06CNMBBDEF@mminor?$AA@
CONST	SEGMENT
??_C@_06CNMBBDEF@mminor?$AA@ DB 'mminor', 00H		; `string'
CONST	ENDS
;	COMDAT ??_C@_01KNKLHLMO@K?$AA@
CONST	SEGMENT
??_C@_01KNKLHLMO@K?$AA@ DB 'K', 00H			; `string'
CONST	ENDS
;	COMDAT ??_C@_02CINKIGEJ@?$JC?$LC?$AA@
CONST	SEGMENT
??_C@_02CINKIGEJ@?$JC?$LC?$AA@ DB 092H, 0b2H, 00H	; `string'
CONST	ENDS
;	COMDAT ??_C@_02EFPODJMF@?$FL?3?$AA@
CONST	SEGMENT
??_C@_02EFPODJMF@?$FL?3?$AA@ DB '[:', 00H		; `string'
CONST	ENDS
;	COMDAT ??_C@_02CGFHGFLC@?3?$FN?$AA@
CONST	SEGMENT
??_C@_02CGFHGFLC@?3?$FN?$AA@ DB ':]', 00H		; `string'
CONST	ENDS
;	COMDAT ??_C@_02HIPMGJKA@?$HM?3?$AA@
CONST	SEGMENT
??_C@_02HIPMGJKA@?$HM?3?$AA@ DB '|:', 00H		; `string'
CONST	ENDS
;	COMDAT ??_C@_02KKMIHAFB@?3?$HM?$AA@
CONST	SEGMENT
??_C@_02KKMIHAFB@?3?$HM?$AA@ DB ':|', 00H		; `string'
CONST	ENDS
;	COMDAT ??_C@_01OHGJGJJP@?$FL?$AA@
CONST	SEGMENT
??_C@_01OHGJGJJP@?$FL?$AA@ DB '[', 00H			; `string'
CONST	ENDS
;	COMDAT ??_C@_01LBDDMOBJ@?$FN?$AA@
CONST	SEGMENT
??_C@_01LBDDMOBJ@?$FN?$AA@ DB ']', 00H			; `string'
CONST	ENDS
;	COMDAT ??_C@_02JEILFJNG@?$IB?$IH?$AA@
CONST	SEGMENT
??_C@_02JEILFJNG@?$IB?$IH?$AA@ DB 081H, 087H, 00H	; `string'
CONST	ENDS
;	COMDAT ??_C@_04GCKADHHM@?$IBb?$IBF?$AA@
CONST	SEGMENT
??_C@_04GCKADHHM@?$IBb?$IBF?$AA@ DB 081H, 'b', 081H, 'F', 00H ; `string'
CONST	ENDS
;	COMDAT ??_C@_02FMFCNDNO@?$IB?$IP?$AA@
CONST	SEGMENT
??_C@_02FMFCNDNO@?$IB?$IP?$AA@ DB 081H, 08fH, 00H	; `string'
CONST	ENDS
;	COMDAT ??_C@_02NNGKBGMB@?$IB_?$AA@
CONST	SEGMENT
??_C@_02NNGKBGMB@?$IB_?$AA@ DB 081H, '_', 00H		; `string'
CONST	ENDS
;	COMDAT ??_C@_04LMBIOOLD@?$IBF?$IBb?$AA@
CONST	SEGMENT
??_C@_04LMBIOOLD@?$IBF?$IBb?$AA@ DB 081H, 'F', 081H, 'b', 00H ; `string'
CONST	ENDS
;	COMDAT ??_C@_02BOLEJFOF@?$IBy?$AA@
CONST	SEGMENT
??_C@_02BOLEJFOF@?$IBy?$AA@ DB 081H, 'y', 00H		; `string'
CONST	ENDS
;	COMDAT ??_C@_02EGGKLPNJ@?$IBF?$AA@
CONST	SEGMENT
??_C@_02EGGKLPNJ@?$IBF?$AA@ DB 081H, 'F', 00H		; `string'
CONST	ENDS
;	COMDAT ??_C@_02DFJJMGCG@?$IBz?$AA@
CONST	SEGMENT
??_C@_02DFJJMGCG@?$IBz?$AA@ DB 081H, 'z', 00H		; `string'
CONST	ENDS
;	COMDAT ??_C@_02GOGFKHPK@t_?$AA@
CONST	SEGMENT
??_C@_02GOGFKHPK@t_?$AA@ DB 't_', 00H			; `string'
CONST	ENDS
;	COMDAT ??_C@_01PFHFFBPC@t?$AA@
CONST	SEGMENT
??_C@_01PFHFFBPC@t?$AA@ DB 't', 00H			; `string'
CONST	ENDS
;	COMDAT ??_C@_06LKBOFJCM@?$IDe?$ID?$JD?$ID?$HM?$AA@
CONST	SEGMENT
??_C@_06LKBOFJCM@?$IDe?$ID?$JD?$ID?$HM?$AA@ DB 083H, 'e', 083H, 093H, 083H
	DB	'|', 00H					; `string'
CONST	ENDS
;	COMDAT ??_C@_02IGJHGBLL@?$IB?$KI?$AA@
CONST	SEGMENT
??_C@_02IGJHGBLL@?$IB?$KI?$AA@ DB 081H, 0a8H, 00H	; `string'
CONST	ENDS
;	COMDAT ??_C@_02JPIMFAPK@?$IB?$KJ?$AA@
CONST	SEGMENT
??_C@_02JPIMFAPK@?$IB?$KJ?$AA@ DB 081H, 0a9H, 00H	; `string'
CONST	ENDS
;	COMDAT ??_C@_01NOFIACDB@w?$AA@
CONST	SEGMENT
??_C@_01NOFIACDB@w?$AA@ DB 'w', 00H			; `string'
CONST	ENDS
;	COMDAT ??_C@_01JKBOJNNK@?$FO?$AA@
CONST	SEGMENT
??_C@_01JKBOJNNK@?$FO?$AA@ DB '^', 00H			; `string'
CONST	ENDS
;	COMDAT ??_C@_02LJAGNDMF@?$IB?$FL?$AA@
CONST	SEGMENT
??_C@_02LJAGNDMF@?$IB?$FL?$AA@ DB 081H, '[', 00H	; `string'
CONST	ENDS
;	COMDAT ??_C@_04EBGGPMEF@?$IJ?$LJ?$JF?$IE?$AA@
CONST	SEGMENT
??_C@_04EBGGPMEF@?$IJ?$LJ?$JF?$IE?$AA@ DB 089H, 0b9H, 095H, 084H, 00H ; `string'
CONST	ENDS
;	COMDAT ??_C@_01BNIGIBBF@Q?$AA@
CONST	SEGMENT
??_C@_01BNIGIBBF@Q?$AA@ DB 'Q', 00H			; `string'
CONST	ENDS
;	COMDAT ??_C@_06EFPKECIE@?$IDQ?$IB?$FL?$IDg?$AA@
CONST	SEGMENT
??_C@_06EFPKECIE@?$IDQ?$IB?$FL?$IDg?$AA@ DB 083H, 'Q', 081H, '[', 083H, 'g'
	DB	00H						; `string'
CONST	ENDS
;	COMDAT ??_C@_03EOHNIDBB@ECc?$AA@
CONST	SEGMENT
??_C@_03EOHNIDBB@ECc?$AA@ DB 'ECc', 00H			; `string'
CONST	ENDS
;	COMDAT ??_C@_03BDMBFNG@ECd?$AA@
CONST	SEGMENT
??_C@_03BDMBFNG@ECd?$AA@ DB 'ECd', 00H			; `string'
CONST	ENDS
;	COMDAT ??_C@_03BICHCEJH@ECe?$AA@
CONST	SEGMENT
??_C@_03BICHCEJH@ECe?$AA@ DB 'ECe', 00H			; `string'
CONST	ENDS
;	COMDAT ??_C@_03DDAKHHFE@ECf?$AA@
CONST	SEGMENT
??_C@_03DDAKHHFE@ECf?$AA@ DB 'ECf', 00H			; `string'
CONST	ENDS
;	COMDAT ??_C@_03CKBBEGBF@ECg?$AA@
CONST	SEGMENT
??_C@_03CKBBEGBF@ECg?$AA@ DB 'ECg', 00H			; `string'
CONST	ENDS
;	COMDAT ??_C@_03HMELOBJD@ECa?$AA@
CONST	SEGMENT
??_C@_03HMELOBJD@ECa?$AA@ DB 'ECa', 00H			; `string'
CONST	ENDS
;	COMDAT ??_C@_03FHGGLCFA@ECb?$AA@
CONST	SEGMENT
??_C@_03FHGGLCFA@ECb?$AA@ DB 'ECb', 00H			; `string'
CONST	ENDS
;	COMDAT ??_C@_03BNKEKAAB@ECr?$AA@
CONST	SEGMENT
??_C@_03BNKEKAAB@ECr?$AA@ DB 'ECr', 00H			; `string'
CONST	ENDS
;	COMDAT ??_C@_03CAIHOBJK@EC?9?$AA@
CONST	SEGMENT
??_C@_03CAIHOBJK@EC?9?$AA@ DB 'EC-', 00H		; `string'
CONST	ENDS
;	COMDAT ??_C@_03GPMGHHFN@EC?$CK?$AA@
CONST	SEGMENT
??_C@_03GPMGHHFN@EC?$CK?$AA@ DB 'EC*', 00H		; `string'
CONST	ENDS
;	COMDAT ??_C@_02KNLLHFAA@EC?$AA@
CONST	SEGMENT
??_C@_02KNLLHFAA@EC?$AA@ DB 'EC', 00H			; `string'
CONST	ENDS
;	COMDAT ??_C@_0L@LOJEBEMJ@?$IDG?$IDR?$IB?$FL?$IDI?$IDt?$AA@
CONST	SEGMENT
??_C@_0L@LOJEBEMJ@?$IDG?$IDR?$IB?$FL?$IDI?$IDt?$AA@ DB 083H, 'G', 083H, 'R'
	DB	081H, '[', 083H, 'I', 083H, 't', 00H		; `string'
CONST	ENDS
;	COMDAT ??_C@_06OHMKBCHJ@?$IDG?$IDR?$IB?$FL?$AA@
CONST	SEGMENT
??_C@_06OHMKBCHJ@?$IDG?$IDR?$IB?$FL?$AA@ DB 083H, 'G', 083H, 'R', 081H, '['
	DB	00H						; `string'
CONST	ENDS
;	COMDAT ??_C@_01LELAEKIP@J?$AA@
CONST	SEGMENT
??_C@_01LELAEKIP@J?$AA@ DB 'J', 00H			; `string'
CONST	ENDS
;	COMDAT ??_C@_01CBDEGOCN@j?$AA@
CONST	SEGMENT
??_C@_01CBDEGOCN@j?$AA@ DB 'j', 00H			; `string'
CONST	ENDS
;	COMDAT ??_C@_0BB@KNFILCDL@?$IDG?$ID?$JD?$IDx?$ID?$IN?$IB?$FL?$IDv?$IDI?$IDt?$AA@
CONST	SEGMENT
??_C@_0BB@KNFILCDL@?$IDG?$ID?$JD?$IDx?$ID?$IN?$IB?$FL?$IDv?$IDI?$IDt?$AA@ DB 083H
	DB	'G', 083H, 093H, 083H, 'x', 083H, 08dH, 081H, '[', 083H, 'v', 083H
	DB	'I', 083H, 't', 00H				; `string'
CONST	ENDS
;	COMDAT ??_C@_0P@EEJKCPJF@?$IDr?$IDu?$ID?$IJ?$IB?$FL?$IDg?$IDI?$IDt?$AA@
CONST	SEGMENT
??_C@_0P@EEJKCPJF@?$IDr?$IDu?$ID?$IJ?$IB?$FL?$IDg?$IDI?$IDt?$AA@ DB 083H, 'r'
	DB	083H, 'u', 083H, 089H, 081H, '[', 083H, 'g', 083H, 'I', 083H, 't'
	DB	00H						; `string'
CONST	ENDS
;	COMDAT ??_C@_02LPNFMJNJ@Rm?$AA@
CONST	SEGMENT
??_C@_02LPNFMJNJ@Rm?$AA@ DB 'Rm', 00H			; `string'
CONST	ENDS
;	COMDAT ??_C@_02JPPPJDDG@R?$EA?$AA@
CONST	SEGMENT
??_C@_02JPPPJDDG@R?$EA?$AA@ DB 'R@', 00H		; `string'
CONST	ENDS
;	COMDAT ??_C@_02BGODACED@Rv?$AA@
CONST	SEGMENT
??_C@_02BGODACED@Rv?$AA@ DB 'Rv', 00H			; `string'
CONST	ENDS
;	COMDAT ??_C@_03EGHIJKEG@?$EAP?$CK?$AA@
CONST	SEGMENT
??_C@_03EGHIJKEG@?$EAP?$CK?$AA@ DB '@P*', 00H		; `string'
CONST	ENDS
;	COMDAT ??_C@_02MKJPPGHJ@?$EAP?$AA@
CONST	SEGMENT
??_C@_02MKJPPGHJ@?$EAP?$AA@ DB '@P', 00H		; `string'
CONST	ENDS
;	COMDAT ??_C@_03OKOMJFGK@?$EAFC?$AA@
CONST	SEGMENT
??_C@_03OKOMJFGK@?$EAFC?$AA@ DB '@FC', 00H		; `string'
CONST	ENDS
;	COMDAT ??_C@_03JHJLGBCP@?$EAFF?$AA@
CONST	SEGMENT
??_C@_03JHJLGBCP@?$EAFF?$AA@ DB '@FF', 00H		; `string'
CONST	ENDS
;	COMDAT ??_C@_03NNFJHDHO@?$EAFV?$AA@
CONST	SEGMENT
??_C@_03NNFJHDHO@?$EAFV?$AA@ DB '@FV', 00H		; `string'
CONST	ENDS
;	COMDAT ??_C@_02JMMFFBPP@?$EAV?$AA@
CONST	SEGMENT
??_C@_02JMMFFBPP@?$EAV?$AA@ DB '@V', 00H		; `string'
CONST	ENDS
;	COMDAT ??_C@_03GDGHNIBN@?$EANL?$AA@
CONST	SEGMENT
??_C@_03GDGHNIBN@?$EANL?$AA@ DB '@NL', 00H		; `string'
CONST	ENDS
;	COMDAT ??_C@_04LOGBILGC@?$IJ?$LJ?$JAF?$AA@
CONST	SEGMENT
??_C@_04LOGBILGC@?$IJ?$LJ?$JAF?$AA@ DB 089H, 0b9H, 090H, 'F', 00H ; `string'
CONST	ENDS
;	COMDAT ??_C@_02KBOOJKOB@NC?$AA@
CONST	SEGMENT
??_C@_02KBOOJKOB@NC?$AA@ DB 'NC', 00H			; `string'
CONST	ENDS
;	COMDAT ??_C@_01BIAFAFID@F?$AA@
CONST	SEGMENT
??_C@_01BIAFAFID@F?$AA@ DB 'F', 00H			; `string'
CONST	ENDS
;	COMDAT ??_C@_01FMEDJKGI@o?$AA@
CONST	SEGMENT
??_C@_01FMEDJKGI@o?$AA@ DB 'o', 00H			; `string'
CONST	ENDS
;	COMDAT ??_C@_04BKHONDIJ@?$IJ?$LJ?$IKK?$AA@
CONST	SEGMENT
??_C@_04BKHONDIJ@?$IJ?$LJ?$IKK?$AA@ DB 089H, 0b9H, 08aH, 'K', 00H ; `string'
CONST	ENDS
;	COMDAT ??_C@_01PPODPGHN@?$DO?$AA@
CONST	SEGMENT
??_C@_01PPODPGHN@?$DO?$AA@ DB '>', 00H			; `string'
CONST	ENDS
;	COMDAT ??_C@_02JPIENKHP@?$IP?c?$AA@
CONST	SEGMENT
??_C@_02JPIENKHP@?$IP?c?$AA@ DB 08fH, 0e3H, 00H		; `string'
CONST	ENDS
;	COMDAT ??_C@_02LEKBADDJ@?$IB?$KK?$AA@
CONST	SEGMENT
??_C@_02LEKBADDJ@?$IB?$KK?$AA@ DB 081H, 0aaH, 00H	; `string'
CONST	ENDS
;	COMDAT ??_C@_01MNNFJEPP@?$DM?$AA@
CONST	SEGMENT
??_C@_01MNNFJEPP@?$DM?$AA@ DB '<', 00H			; `string'
CONST	ENDS
;	COMDAT ??_C@_02PAHAEANA@?$IJ?$LK?$AA@
CONST	SEGMENT
??_C@_02PAHAEANA@?$IJ?$LK?$AA@ DB 089H, 0baH, 00H	; `string'
CONST	ENDS
;	COMDAT ??_C@_02KNLKDCHI@?$IB?$KL?$AA@
CONST	SEGMENT
??_C@_02KNLKDCHI@?$IB?$KL?$AA@ DB 081H, 0abH, 00H	; `string'
CONST	ENDS
;	COMDAT ??_C@_01NLNLIGKH@?$GA?$AA@
CONST	SEGMENT
??_C@_01NLNLIGKH@?$GA?$AA@ DB '`', 00H			; `string'
CONST	ENDS
;	COMDAT ??_C@_02PIMDMILI@?$IBe?$AA@
CONST	SEGMENT
??_C@_02PIMDMILI@?$IBe?$AA@ DB 081H, 'e', 00H		; `string'
CONST	ENDS
;	COMDAT ??_C@_01BJJEKLCA@?$CC?$AA@
CONST	SEGMENT
??_C@_01BJJEKLCA@?$CC?$AA@ DB '"', 00H			; `string'
CONST	ENDS
;	COMDAT ??_C@_02ENGNLGPF@?$IBh?$AA@
CONST	SEGMENT
??_C@_02ENGNLGPF@?$IBh?$AA@ DB 081H, 'h', 00H		; `string'
CONST	ENDS
;	COMDAT ??_C@_03MJGICKBJ@D?$CF_?$AA@
CONST	SEGMENT
??_C@_03MJGICKBJ@D?$CF_?$AA@ DB 'D%_', 00H		; `string'
CONST	ENDS
;	COMDAT ??_C@_02JPNONDBG@D?$CF?$AA@
CONST	SEGMENT
??_C@_02JPNONDBG@D?$CF?$AA@ DB 'D%', 00H		; `string'
CONST	ENDS
;	COMDAT ??_C@_02EKAOECGK@D_?$AA@
CONST	SEGMENT
??_C@_02EKAOECGK@D_?$AA@ DB 'D_', 00H			; `string'
CONST	ENDS
;	COMDAT ??_C@_0N@PCNDJPL@?$IDf?$IDB?$ID?$GA?$ID?$IF?$IB?$FL?$ID?$JD?$AA@
CONST	SEGMENT
??_C@_0N@PCNDJPL@?$IDf?$IDB?$ID?$GA?$ID?$IF?$IB?$FL?$ID?$JD?$AA@ DB 083H, 'f'
	DB	083H, 'B', 083H, '`', 083H, 085H, 081H, '[', 083H, 093H, 00H ; `string'
CONST	ENDS
;	COMDAT ??_C@_02FKHNAOPL@__?$AA@
CONST	SEGMENT
??_C@_02FKHNAOPL@__?$AA@ DB '__', 00H			; `string'
CONST	ENDS
;	COMDAT ??_C@_02HJBPEDLH@k_?$AA@
CONST	SEGMENT
??_C@_02HJBPEDLH@k_?$AA@ DB 'k_', 00H			; `string'
CONST	ENDS
;	COMDAT ??_C@_01DICPFPGM@k?$AA@
CONST	SEGMENT
??_C@_01DICPFPGM@k?$AA@ DB 'k', 00H			; `string'
CONST	ENDS
;	COMDAT ??_C@_08GJIKAFHH@TrackKey?$AA@
CONST	SEGMENT
??_C@_08GJIKAFHH@TrackKey?$AA@ DB 'TrackKey', 00H	; `string'
CONST	ENDS
;	COMDAT ??_C@_0N@NPJHKLGE@?$ID?$HM?$ID?$IL?$ID?$FO?$ID?$IB?$ID?$JD?$IDg?$AA@
CONST	SEGMENT
??_C@_0N@NPJHKLGE@?$ID?$HM?$ID?$IL?$ID?$FO?$ID?$IB?$ID?$JD?$IDg?$AA@ DB 083H
	DB	'|', 083H, 08bH, 083H, '^', 083H, 081H, 083H, 093H, 083H, 'g', 00H ; `string'
CONST	ENDS
;	COMDAT ??_C@_01MHEDDDHA@v?$AA@
CONST	SEGMENT
??_C@_01MHEDDDHA@v?$AA@ DB 'v', 00H			; `string'
CONST	ENDS
;	COMDAT ??_C@_04CMBIEKKA@?$IJ?$LJ?$JH?J?$AA@
CONST	SEGMENT
??_C@_04CMBIEKKA@?$IJ?$LJ?$JH?J?$AA@ DB 089H, 0b9H, 097H, 0caH, 00H ; `string'
CONST	ENDS
;	COMDAT ??_C@_01PKGAHCOL@?$CJ?$AA@
CONST	SEGMENT
??_C@_01PKGAHCOL@?$CJ?$AA@ DB ')', 00H			; `string'
CONST	ENDS
;	COMDAT ??_C@_06MFPBKHIE@?$JB?e?$IC?$KL?$IC?$KN?$AA@
CONST	SEGMENT
??_C@_06MFPBKHIE@?$JB?e?$IC?$KL?$IC?$KN?$AA@ DB 091H, 0e5H, 082H, 0abH, 082H
	DB	0adH, 00H					; `string'
CONST	ENDS
;	COMDAT ??_C@_02NPGGPDID@?$JB?e?$AA@
CONST	SEGMENT
??_C@_02NPGGPDID@?$JB?e?$AA@ DB 091H, 0e5H, 00H		; `string'
CONST	ENDS
;	COMDAT ??_C@_06EPOKGEMD@?$IP?$KM?$IC?$LD?$IC?$KN?$AA@
CONST	SEGMENT
??_C@_06EPOKGEMD@?$IP?$KM?$IC?$LD?$IC?$KN?$AA@ DB 08fH, 0acH, 082H, 0b3H, 082H
	DB	0adH, 00H					; `string'
CONST	ENDS
;	COMDAT ??_C@_02OIGFIJLF@?$IP?$KM?$AA@
CONST	SEGMENT
??_C@_02OIGFIJLF@?$IP?$KM?$AA@ DB 08fH, 0acH, 00H	; `string'
CONST	ENDS
;	COMDAT ??_C@_02LHHPIPOA@yV?$AA@
CONST	SEGMENT
??_C@_02LHHPIPOA@yV?$AA@ DB 'yV', 00H			; `string'
CONST	ENDS
;	COMDAT ??_C@_01EANLCPLP@y?$AA@
CONST	SEGMENT
??_C@_01EANLCPLP@y?$AA@ DB 'y', 00H			; `string'
CONST	ENDS
;	COMDAT ?Command@?1???0TrackSet@@QAE@PAVMMLfile@@I_N1QBG@Z@4QBUCommand_Info@@B
CONST	SEGMENT
?Command@?1???0TrackSet@@QAE@PAVMMLfile@@I_N1QBG@Z@4QBUCommand_Info@@B DD FLAT:??_C@_02ODIGJPFH@TR?$AA@ ; `TrackSet::TrackSet'::`2'::Command
	DD	00H
	DD	FLAT:??_C@_08PGKBPJJO@?$IDg?$ID?$IJ?$IDb?$IDN?$AA@
	DD	00H
	DD	FLAT:??_C@_05MAGIBEFI@Scale?$AA@
	DD	01H
	DD	FLAT:??_C@_05MHMEBBGO@scale?$AA@
	DD	01H
	DD	FLAT:??_C@_04KNKPIPFB@Mode?$AA@
	DD	01H
	DD	FLAT:??_C@_04GMGOKAFF@mode?$AA@
	DD	01H
	DD	FLAT:??_C@_05FDLAJJBN@Major?$AA@
	DD	02H
	DD	FLAT:??_C@_05FEBMJMCL@major?$AA@
	DD	02H
	DD	FLAT:??_C@_05OMKCEFIL@Minor?$AA@
	DD	03H
	DD	FLAT:??_C@_05OLAOEALN@minor?$AA@
	DD	03H
	DD	FLAT:??_C@_06LHOIAAEI@HMinor?$AA@
	DD	04H
	DD	FLAT:??_C@_06HPPJDMOC@hminor?$AA@
	DD	04H
	DD	FLAT:??_C@_06OFNACPOP@MMinor?$AA@
	DD	05H
	DD	FLAT:??_C@_06CNMBBDEF@mminor?$AA@
	DD	05H
	DD	FLAT:??_C@_01KNKLHLMO@K?$AA@
	DD	06H
	DD	FLAT:??_C@_02CINKIGEJ@?$JC?$LC?$AA@
	DD	06H
	DD	FLAT:??_C@_02ODEKANEE@SE?$AA@
	DD	09H
	DD	FLAT:??_C@_01CPLAODJH@S?$AA@
	DD	0aH
	DD	FLAT:??_C@_02MOBCCJHH@$$?$AA@
	DD	08H
	DD	FLAT:??_C@_01EPMOAMKG@$?$AA@
	DD	07H
	DD	FLAT:??_C@_01OCOKONAJ@L?$AA@
	DD	0bH
	DD	FLAT:??_C@_02EFPODJMF@?$FL?3?$AA@
	DD	012H
	DD	FLAT:??_C@_02CGFHGFLC@?3?$FN?$AA@
	DD	013H
	DD	FLAT:??_C@_02HIPMGJKA@?$HM?3?$AA@
	DD	0fH
	DD	FLAT:?RS_UTF8@?1???0TrackSet@@QAE@PAVMMLfile@@I_N1QBG@Z@4QBEB
	DD	010H
	DD	FLAT:?Yen_UTF8@?1???0TrackSet@@QAE@PAVMMLfile@@I_N1QBG@Z@4QBEB
	DD	010H
	DD	FLAT:?RS_UTF8W@?1???0TrackSet@@QAE@PAVMMLfile@@I_N1QBG@Z@4QBEB
	DD	010H
	DD	FLAT:?Yen_UTF8W@?1???0TrackSet@@QAE@PAVMMLfile@@I_N1QBG@Z@4QBEB
	DD	010H
	DD	FLAT:??_C@_02KKMIHAFB@?3?$HM?$AA@
	DD	011H
	DD	FLAT:??_C@_01OHGJGJJP@?$FL?$AA@
	DD	0cH
	DD	FLAT:??_C@_01JLIPDDHJ@?3?$AA@
	DD	0dH
	DD	FLAT:??_C@_01LBDDMOBJ@?$FN?$AA@
	DD	0eH
	DD	FLAT:??_C@_02JEILFJNG@?$IB?$IH?$AA@
	DD	0bH
	DD	FLAT:??_C@_04GCKADHHM@?$IBb?$IBF?$AA@
	DD	0fH
	DD	FLAT:??_C@_02FMFCNDNO@?$IB?$IP?$AA@
	DD	010H
	DD	FLAT:??_C@_02NNGKBGMB@?$IB_?$AA@
	DD	010H
	DD	FLAT:??_C@_04LMBIOOLD@?$IBF?$IBb?$AA@
	DD	011H
	DD	FLAT:??_C@_02BOLEJFOF@?$IBy?$AA@
	DD	0cH
	DD	FLAT:??_C@_02EGGKLPNJ@?$IBF?$AA@
	DD	0dH
	DD	FLAT:??_C@_02DFJJMGCG@?$IBz?$AA@
	DD	0eH
	DD	FLAT:??_C@_02GOGFKHPK@t_?$AA@
	DD	015H
	DD	FLAT:??_C@_01PFHFFBPC@t?$AA@
	DD	014H
	DD	FLAT:??_C@_06LKBOFJCM@?$IDe?$ID?$JD?$ID?$HM?$AA@
	DD	014H
	DD	FLAT:??_C@_02IGJHGBLL@?$IB?$KI?$AA@
	DD	016H
	DD	FLAT:??_C@_02JPIMFAPK@?$IB?$KJ?$AA@
	DD	017H
	DD	FLAT:??_C@_01MCMALHOG@a?$AA@
	DD	018H
	DD	FLAT:??_C@_01OJONOECF@b?$AA@
	DD	019H
	DD	FLAT:??_C@_01PAPGNFGE@c?$AA@
	DD	01aH
	DD	FLAT:??_C@_01LPLHEDKD@d?$AA@
	DD	01bH
	DD	FLAT:??_C@_01KGKMHCOC@e?$AA@
	DD	01cH
	DD	FLAT:??_C@_01INIBCBCB@f?$AA@
	DD	01dH
	DD	FLAT:??_C@_01JEJKBAGA@g?$AA@
	DD	01eH
	DD	FLAT:??_C@_01KDCPPGHE@r?$AA@
	DD	01fH
	DD	FLAT:??_C@_01NOFIACDB@w?$AA@
	DD	020H
	DD	FLAT:??_C@_01JKBOJNNK@?$FO?$AA@
	DD	021H
	DD	FLAT:??_C@_02PDDAIMCI@?$IC?g?$AA@
	DD	018H
	DD	FLAT:??_C@_02HLLNLDPO@?$IC?$LF?$AA@
	DD	019H
	DD	FLAT:??_C@_02GGLEKIIK@?$IC?G?$AA@
	DD	01aH
	DD	FLAT:??_C@_02EGJOPCGF@?$IC?j?$AA@
	DD	01bH
	DD	FLAT:??_C@_02NGJJFCFB@?$IC?$NN?$AA@
	DD	01cH
	DD	FLAT:??_C@_04NCHCKEFM@?$IC?S?$IC?$JP?$AA@
	DD	01dH
	DD	FLAT:??_C@_02EIBKHPNP@?$IC?S?$AA@
	DD	01dH
	DD	FLAT:??_C@_02OFDOJOHA@?$IC?$LL?$AA@
	DD	01eH
	DD	FLAT:??_C@_02OPKIDJPP@?$IC?q?$AA@
	DD	01fH
	DD	FLAT:??_C@_02DAOOAPAM@?$IC?A?$AA@
	DD	01fH
	DD	FLAT:??_C@_02LJAGNDMF@?$IB?$FL?$AA@
	DD	021H
	DD	FLAT:??_C@_02JIMKADG@?$ID?$IJ?$AA@
	DD	018H
	DD	FLAT:??_C@_02PCMHJOG@?$IDV?$AA@
	DD	019H
	DD	FLAT:??_C@_02EOOJGCJL@?$IDh?$AA@
	DD	01aH
	DD	FLAT:??_C@_02HEPLFEHD@?$ID?$IM?$AA@
	DD	01bH
	DD	FLAT:??_C@_02FCHBNHEM@?$ID?$HO?$AA@
	DD	01cH
	DD	FLAT:??_C@_04DIMMBPLH@?$IDt?$ID?$EA?$AA@
	DD	01dH
	DD	FLAT:??_C@_02KIJODPMG@?$IDt?$AA@
	DD	01dH
	DD	FLAT:??_C@_02PFMDJBGM@?$ID?2?$AA@
	DD	01eH
	DD	FLAT:??_C@_02LJKBFKON@?$ID?$JD?$AA@
	DD	01fH
	DD	FLAT:??_C@_02LEAGIKBB@?$IDb?$AA@
	DD	01fH
	DD	FLAT:??_C@_02GDMDGBKA@?$IB?$HM?$AA@
	DD	021H
	DD	FLAT:??_C@_02DIJJJPPC@?$IDC?$AA@
	DD	018H
	DD	FLAT:??_C@_02GNOAGFDC@?$ID?$IN?$AA@
	DD	019H
	DD	FLAT:??_C@_02BILDMFBN@?$IDn?$AA@
	DD	01aH
	DD	FLAT:??_C@_02HMNPAABJ@?$IDj?$AA@
	DD	01bH
	DD	FLAT:??_C@_02DGBNBCEI@?$IDz?$AA@
	DD	01cH
	DD	FLAT:??_C@_02IDLDGMAF@?$IDw?$AA@
	DD	01dH
	DD	FLAT:??_C@_02MJHBHOFE@?$IDg?$AA@
	DD	01eH
	DD	FLAT:??_C@_01HHGOMJKL@l?$AA@
	DD	022H
	DD	FLAT:??_C@_04EBGGPMEF@?$IJ?$LJ?$JF?$IE?$AA@
	DD	022H
	DD	FLAT:??_C@_01BNIGIBBF@Q?$AA@
	DD	023H
	DD	FLAT:??_C@_01IIACKFLH@q?$AA@
	DD	024H
	DD	FLAT:??_C@_06EFPKECIE@?$IDQ?$IB?$FL?$IDg?$AA@
	DD	024H
	DD	FLAT:??_C@_01OMGOGALD@u?$AA@
	DD	025H
	DD	FLAT:??_C@_03EOHNIDBB@ECc?$AA@
	DD	029H
	DD	FLAT:??_C@_03BDMBFNG@ECd?$AA@
	DD	02aH
	DD	FLAT:??_C@_03BICHCEJH@ECe?$AA@
	DD	02bH
	DD	FLAT:??_C@_03DDAKHHFE@ECf?$AA@
	DD	02cH
	DD	FLAT:??_C@_03CKBBEGBF@ECg?$AA@
	DD	02dH
	DD	FLAT:??_C@_03HMELOBJD@ECa?$AA@
	DD	02eH
	DD	FLAT:??_C@_03FHGGLCFA@ECb?$AA@
	DD	02fH
	DD	FLAT:??_C@_03BNKEKAAB@ECr?$AA@
	DD	030H
	DD	FLAT:??_C@_03CAIHOBJK@EC?9?$AA@
	DD	028H
	DD	FLAT:??_C@_03GPMGHHFN@EC?$CK?$AA@
	DD	027H
	DD	FLAT:??_C@_02KNLLHFAA@EC?$AA@
	DD	026H
	DD	FLAT:??_C@_0L@LOJEBEMJ@?$IDG?$IDR?$IB?$FL?$IDI?$IDt?$AA@
	DD	027H
	DD	FLAT:??_C@_06OHMKBCHJ@?$IDG?$IDR?$IB?$FL?$AA@
	DD	026H
	DD	FLAT:??_C@_01LELAEKIP@J?$AA@
	DD	031H
	DD	FLAT:??_C@_01CBDEGOCN@j?$AA@
	DD	032H
	DD	FLAT:??_C@_03GNIAMJAE@E?$EA?$CK?$AA@
	DD	037H
	DD	FLAT:??_C@_03ENGGFACG@Ev?$CK?$AA@
	DD	038H
	DD	FLAT:??_C@_03FNBFBMLH@Em?$CK?$AA@
	DD	039H
	DD	FLAT:??_C@_03FPFDKCOO@En?$CK?$AA@
	DD	03aH
	DD	FLAT:??_C@_02IGJGCGMD@E?$EA?$AA@
	DD	033H
	DD	FLAT:??_C@_02PIKLHLG@Ev?$AA@
	DD	034H
	DD	FLAT:??_C@_02KGLMHMCM@Em?$AA@
	DD	035H
	DD	FLAT:??_C@_02INJBCPOP@En?$AA@
	DD	036H
	DD	FLAT:??_C@_0BB@KNFILCDL@?$IDG?$ID?$JD?$IDx?$ID?$IN?$IB?$FL?$IDv?$IDI?$IDt?$AA@
	DD	038H
	DD	FLAT:??_C@_0N@FMGOOFEB@?$IDG?$ID?$JD?$IDx?$ID?$IN?$IB?$FL?$IDv?$AA@
	DD	034H
	DD	FLAT:??_C@_0P@EEJKCPJF@?$IDr?$IDu?$ID?$IJ?$IB?$FL?$IDg?$IDI?$IDt?$AA@
	DD	039H
	DD	FLAT:??_C@_0L@OKKLBHBB@?$IDr?$IDu?$ID?$IJ?$IB?$FL?$IDg?$AA@
	DD	035H
	DD	FLAT:??_C@_02LPNFMJNJ@Rm?$AA@
	DD	03dH
	DD	FLAT:??_C@_02JPPPJDDG@R?$EA?$AA@
	DD	03eH
	DD	FLAT:??_C@_02BGODACED@Rv?$AA@
	DD	03fH
	DD	FLAT:??_C@_03EGHIJKEG@?$EAP?$CK?$AA@
	DD	03cH
	DD	FLAT:??_C@_02MKJPPGHJ@?$EAP?$AA@
	DD	03bH
	DD	FLAT:??_C@_03OKOMJFGK@?$EAFC?$AA@
	DD	041H
	DD	FLAT:??_C@_03HEGPLIOE@?$EAFM?$AA@
	DD	042H
	DD	FLAT:??_C@_03JHJLGBCP@?$EAFF?$AA@
	DD	043H
	DD	FLAT:??_C@_03NNFJHDHO@?$EAFV?$AA@
	DD	044H
	DD	FLAT:??_C@_02JMMFFBPP@?$EAV?$AA@
	DD	045H
	DD	FLAT:??_C@_03KODNNGID@?$EANS?$AA@
	DD	047H
	DD	FLAT:??_C@_03GDGHNIBN@?$EANL?$AA@
	DD	048H
	DD	FLAT:??_C@_02BONOMJKG@?$EAN?$AA@
	DD	046H
	DD	FLAT:??_C@_01EOFPKCAF@?$EA?$AA@
	DD	040H
	DD	FLAT:??_C@_04LOGBILGC@?$IJ?$LJ?$JAF?$AA@
	DD	040H
	DD	FLAT:??_C@_02KBOOJKOB@NC?$AA@
	DD	049H
	DD	FLAT:??_C@_01BIAFAFID@F?$AA@
	DD	04aH
	DD	FLAT:??_C@_01FMEDJKGI@o?$AA@
	DD	04bH
	DD	FLAT:??_C@_04BKHONDIJ@?$IJ?$LJ?$IKK?$AA@
	DD	04bH
	DD	FLAT:??_C@_01PPODPGHN@?$DO?$AA@
	DD	04cH
	DD	FLAT:??_C@_02JPIENKHP@?$IP?c?$AA@
	DD	04cH
	DD	FLAT:??_C@_02LEKBADDJ@?$IB?$KK?$AA@
	DD	04cH
	DD	FLAT:??_C@_01MNNFJEPP@?$DM?$AA@
	DD	04dH
	DD	FLAT:??_C@_02PAHAEANA@?$IJ?$LK?$AA@
	DD	04dH
	DD	FLAT:??_C@_02KNLKDCHI@?$IB?$KL?$AA@
	DD	04dH
	DD	FLAT:??_C@_01NLNLIGKH@?$GA?$AA@
	DD	04eH
	DD	FLAT:??_C@_02PIMDMILI@?$IBe?$AA@
	DD	04eH
	DD	FLAT:??_C@_01BJJEKLCA@?$CC?$AA@
	DD	04fH
	DD	FLAT:??_C@_02ENGNLGPF@?$IBh?$AA@
	DD	04fH
	DD	FLAT:??_C@_03MJGICKBJ@D?$CF_?$AA@
	DD	053H
	DD	FLAT:??_C@_02JPNONDBG@D?$CF?$AA@
	DD	052H
	DD	FLAT:??_C@_02EKAOECGK@D_?$AA@
	DD	051H
	DD	FLAT:??_C@_01CKDDGHAB@D?$AA@
	DD	050H
	DD	FLAT:??_C@_0N@PCNDJPL@?$IDf?$IDB?$ID?$GA?$ID?$IF?$IB?$FL?$ID?$JD?$AA@
	DD	050H
	DD	FLAT:??_C@_02FKHNAOPL@__?$AA@
	DD	055H
	DD	FLAT:??_C@_01IDAFKMJL@_?$AA@
	DD	054H
	DD	FLAT:??_C@_02HJBPEDLH@k_?$AA@
	DD	057H
	DD	FLAT:??_C@_01DICPFPGM@k?$AA@
	DD	056H
	DD	FLAT:??_C@_08GJIKAFHH@TrackKey?$AA@
	DD	054H
	DD	FLAT:??_C@_01EJNLAFE@P?$AA@
	DD	058H
	DD	FLAT:??_C@_0N@NPJHKLGE@?$ID?$HM?$ID?$IL?$ID?$FO?$ID?$IB?$ID?$JD?$IDg?$AA@
	DD	058H
	DD	FLAT:??_C@_01HCONENDN@?$HL?$AA@
	DD	059H
	DD	FLAT:??_C@_01LKDEMHDF@s?$AA@
	DD	05aH
	DD	FLAT:??_C@_01MHEDDDHA@v?$AA@
	DD	05bH
	DD	FLAT:??_C@_04CMBIEKKA@?$IJ?$LJ?$JH?J?$AA@
	DD	05bH
	DD	FLAT:??_C@_01PKGAHCOL@?$CJ?$AA@
	DD	05cH
	DD	FLAT:??_C@_06MFPBKHIE@?$JB?e?$IC?$KL?$IC?$KN?$AA@
	DD	05cH
	DD	FLAT:??_C@_02NPGGPDID@?$JB?e?$AA@
	DD	05cH
	DD	FLAT:??_C@_01ODHLEDKK@?$CI?$AA@
	DD	05dH
	DD	FLAT:??_C@_06EPOKGEMD@?$IP?$KM?$IC?$LD?$IC?$KN?$AA@
	DD	05dH
	DD	FLAT:??_C@_02OIGFIJLF@?$IP?$KM?$AA@
	DD	05dH
	DD	FLAT:??_C@_02LHHPIPOA@yV?$AA@
	DD	05eH
	DD	FLAT:??_C@_01EANLCPLP@y?$AA@
	DD	05fH
	DD	FLAT:??_C@_09KLINEFGN@?$CDPriority?$AA@
	DD	060H
	DD	FLAT:??_C@_09CJHMMHMO@?$CDpriority?$AA@
	DD	060H
	DD	FLAT:??_C@_02BADABIFP@?$IB?$EA?$AA@
	DD	061H
	DD	FLAT:??_C@_01DNKMNLPK@?$HM?$AA@
	DD	061H
	DD	FLAT:??_C@_02LHICFOHP@?$IBb?$AA@
	DD	061H
CONST	ENDS
;	COMDAT ??_C@_1DM@LBEIIGCG@?$AAS?$AAu?$AAb0?V0?m0?C0?$KPQ?$IF0g0o0?H0?i0?C0?$KPc?$AH?$FL?$JK0o0g0M0?$HO@
CONST	SEGMENT
??_C@_1DM@LBEIIGCG@?$AAS?$AAu?$AAb0?V0?m0?C0?$KPQ?$IF0g0o0?H0?i0?C0?$KPc?$AH?$FL?$JK0o0g0M0?$HO@ DB 'S'
	DB	00H, 'u', 00H, 'b', 00H, 0d6H, '0', 0edH, '0', 0c3H, '0', 0afH
	DB	'0', 085H, 'Qg0o0', 0c8H, '0', 0e9H, '0', 0c3H, '0', 0afH, '0', 07H
	DB	'c', 09aH, '[o0g0M0~0[0', 093H, '0', 02H, '0!q', 096H, 089H, 'W'
	DB	'0~0Y0', 02H, '0', 00H, 00H			; `string'
CONST	ENDS
;	COMDAT ??_C@_1DK@GCJGKPID@?$AAS?$AAu?$AAb0?V0?m0?C0?$KPQ?$IF0g0oq?$CB?$JGP0?k0?$PM0?W0o0g0M0?$HO0?$FL@
CONST	SEGMENT
??_C@_1DK@GCJGKPID@?$AAS?$AAu?$AAb0?V0?m0?C0?$KPQ?$IF0g0oq?$CB?$JGP0?k0?$PM0?W0o0g0M0?$HO0?$FL@ DB 'S'
	DB	00H, 'u', 00H, 'b', 00H, 0d6H, '0', 0edH, '0', 0c3H, '0', 0afH
	DB	'0', 085H, 'Qg0o0!qP', 096H, 0ebH, '0', 0fcH, '0', 0d7H, '0o0g'
	DB	'0M0~0[0', 093H, '0', 02H, '0!q', 096H, 089H, 'W0~0Y0', 02H, '0'
	DB	00H, 00H					; `string'
CONST	ENDS
;	COMDAT ??_C@_1BI@IEKIFIDC@?$AAD?$AAe?$AAt?$AAu?$AAn?$AAe?$AA?5?$AAC?$AAe?$AAn?$AAt?$AA?$AA@
CONST	SEGMENT
??_C@_1BI@IEKIFIDC@?$AAD?$AAe?$AAt?$AAu?$AAn?$AAe?$AA?5?$AAC?$AAe?$AAn?$AAt?$AA?$AA@ DB 'D'
	DB	00H, 'e', 00H, 't', 00H, 'u', 00H, 'n', 00H, 'e', 00H, ' ', 00H
	DB	'C', 00H, 'e', 00H, 'n', 00H, 't', 00H, 00H, 00H ; `string'
CONST	ENDS
;	COMDAT ??_C@_1CA@DCDMNGOL@?$AAD?$AAe?$AAr?$AAu?$AAn?$AAe?$AA?5?$AAR?$AAe?$AAg?$AAi?$AAs?$AAt?$AAe?$AAr?$AA?$AA@
CONST	SEGMENT
??_C@_1CA@DCDMNGOL@?$AAD?$AAe?$AAr?$AAu?$AAn?$AAe?$AA?5?$AAR?$AAe?$AAg?$AAi?$AAs?$AAt?$AAe?$AAr?$AA?$AA@ DB 'D'
	DB	00H, 'e', 00H, 'r', 00H, 'u', 00H, 'n', 00H, 'e', 00H, ' ', 00H
	DB	'R', 00H, 'e', 00H, 'g', 00H, 'i', 00H, 's', 00H, 't', 00H, 'e'
	DB	00H, 'r', 00H, 00H, 00H			; `string'
CONST	ENDS
;	COMDAT ??_C@_1CK@JBMEODCM@?$AAR?$AAe?$AAl?$AAa?$AAt?$AAi?$AAv?$AAe?$AA?5?$AAD?$AAe?$AAt?$AAu?$AAn?$AAe?$AA?5?$AAC?$AAe?$AAn?$AAt@
CONST	SEGMENT
??_C@_1CK@JBMEODCM@?$AAR?$AAe?$AAl?$AAa?$AAt?$AAi?$AAv?$AAe?$AA?5?$AAD?$AAe?$AAt?$AAu?$AAn?$AAe?$AA?5?$AAC?$AAe?$AAn?$AAt@ DB 'R'
	DB	00H, 'e', 00H, 'l', 00H, 'a', 00H, 't', 00H, 'i', 00H, 'v', 00H
	DB	'e', 00H, ' ', 00H, 'D', 00H, 'e', 00H, 't', 00H, 'u', 00H, 'n'
	DB	00H, 'e', 00H, ' ', 00H, 'C', 00H, 'e', 00H, 'n', 00H, 't', 00H
	DB	00H, 00H					; `string'
CONST	ENDS
;	COMDAT ??_C@_1DC@KLPFDHDF@?$AAR?$AAe?$AAl?$AAa?$AAt?$AAi?$AAv?$AAe?$AA?5?$AAD?$AAe?$AAt?$AAu?$AAn?$AAe?$AA?5?$AAR?$AAe?$AAg?$AAi@
CONST	SEGMENT
??_C@_1DC@KLPFDHDF@?$AAR?$AAe?$AAl?$AAa?$AAt?$AAi?$AAv?$AAe?$AA?5?$AAD?$AAe?$AAt?$AAu?$AAn?$AAe?$AA?5?$AAR?$AAe?$AAg?$AAi@ DB 'R'
	DB	00H, 'e', 00H, 'l', 00H, 'a', 00H, 't', 00H, 'i', 00H, 'v', 00H
	DB	'e', 00H, ' ', 00H, 'D', 00H, 'e', 00H, 't', 00H, 'u', 00H, 'n'
	DB	00H, 'e', 00H, ' ', 00H, 'R', 00H, 'e', 00H, 'g', 00H, 'i', 00H
	DB	's', 00H, 't', 00H, 'e', 00H, 'r', 00H, 00H, 00H ; `string'
CONST	ENDS
;	COMDAT ??_C@_1DC@NPMHHGKK@y?$PL?$IK?$LP0o?$AA?9?$AA1?$AA2?$AA7?$PP?$FO?$AA1?$AA2?$AA80n?$HL?DV?r0gc?$AH?$FL?$JK0W0f0O@
CONST	SEGMENT
??_C@_1DC@NPMHHGKK@y?$PL?$IK?$LP0o?$AA?9?$AA1?$AA2?$AA7?$PP?$FO?$AA1?$AA2?$AA80n?$HL?DV?r0gc?$AH?$FL?$JK0W0f0O@ DB 0fbH
	DB	'y', 0bfH, 08aH, 'o0-', 00H, '1', 00H, '2', 00H, '7', 00H, '^', 0ffH
	DB	'1', 00H, '2', 00H, '8', 00H, 'n0', 0c4H, '{', 0f2H, 'Vg0', 07H
	DB	'c', 09aH, '[W0f0O0`0U0D0', 02H, '0', 00H, 00H ; `string'
CONST	ENDS
;	COMDAT ??_C@_03PNPKJHCD@?0?5$?$AA@
CONST	SEGMENT
??_C@_03PNPKJHCD@?0?5$?$AA@ DB ', $', 00H		; `string'
CONST	ENDS
;	COMDAT ??_C@_08EAKLHHJG@?7?4word?7$?$AA@
CONST	SEGMENT
??_C@_08EAKLHHJG@?7?4word?7$?$AA@ DB 09H, '.word', 09H, '$', 00H ; `string'
CONST	ENDS
;	COMDAT ??_C@_06KPCEEHJM@Track?5?$AA@
CONST	SEGMENT
??_C@_06KPCEEHJM@Track?5?$AA@ DB 'Track ', 00H		; `string'
CONST	ENDS
;	COMDAT ??_C@_02KCKGHPCA@?$CJ?5?$AA@
CONST	SEGMENT
??_C@_02KCKGHPCA@?$CJ?5?$AA@ DB ') ', 00H		; `string'
CONST	ENDS
;	COMDAT ??_C@_05IFBGHAGD@?$HM?5TR?$CI?$AA@
CONST	SEGMENT
??_C@_05IFBGHAGD@?$HM?5TR?$CI?$AA@ DB '| TR(', 00H	; `string'
CONST	ENDS
;	COMDAT ??_C@_06MFAOKAEB@Loop?5?5?$AA@
CONST	SEGMENT
??_C@_06MFAOKAEB@Loop?5?5?$AA@ DB 'Loop  ', 00H		; `string'
CONST	ENDS
;	COMDAT ??_C@_09CCGPGAKD@?$HM?5no?9loop?$AA@
CONST	SEGMENT
??_C@_09CCGPGAKD@?$HM?5no?9loop?$AA@ DB '| no-loop', 00H ; `string'
CONST	ENDS
;	COMDAT ??_C@_06BHCKJACF@Total?5?$AA@
CONST	SEGMENT
??_C@_06BHCKJACF@Total?5?$AA@ DB 'Total ', 00H		; `string'
CONST	ENDS
;	COMDAT ??_C@_1CI@FKLPJOID@0?$NO0?$KP0?mN?90g0?H0?i0?C0?$KP0nc?$AH?$FL?$JK0o0g0M0?$HO0?$FL0?$JD0?$AC?$AA?$AA@
CONST	SEGMENT
??_C@_1CI@FKLPJOID@0?$NO0?$KP0?mN?90g0?H0?i0?C0?$KP0nc?$AH?$FL?$JK0o0g0M0?$HO0?$FL0?$JD0?$AC?$AA?$AA@ DB 0deH
	DB	'0', 0afH, '0', 0edH, '0-Ng0', 0c8H, '0', 0e9H, '0', 0c3H, '0', 0afH
	DB	'0n0', 07H, 'c', 09aH, '[o0g0M0~0[0', 093H, '0', 02H, '0', 00H
	DB	00H						; `string'
CONST	ENDS
;	COMDAT ??_C@_1CO@IBJONDON@0?H0?i0?C0?$KPujS?w0gc?$AH?$FL?$JK0g0M0?$IL?$HL?DV?r0?$JC?$IN?$IF0H0f0D0?$HO@
CONST	SEGMENT
??_C@_1CO@IBJONDON@0?H0?i0?C0?$KPujS?w0gc?$AH?$FL?$JK0g0M0?$IL?$HL?DV?r0?$JC?$IN?$IF0H0f0D0?$HO@ DB 0c8H
	DB	'0', 0e9H, '0', 0c3H, '0', 0afH, '0ju', 0f7H, 'Sg0', 07H, 'c', 09aH
	DB	'[g0M0', 08bH, '0', 0c4H, '{', 0f2H, 'V', 092H, '0', 085H, 08dH
	DB	'H0f0D0~0Y0', 02H, '0', 00H, 00H		; `string'
CONST	ENDS
;	COMDAT ??_C@_1DC@ODCBAGNM@?$AA?$DN?$AA?$DN?$AA?$DN?$AA?$DN?$AA?5?$AA?$FL?$AA?5?$AAM?$AAu?$AAs?$AAi?$AAc?$AA?5?$AAT?$AAr?$AAa?$AAc?$AAk?$AA?5?$AA?$FN@
CONST	SEGMENT
??_C@_1DC@ODCBAGNM@?$AA?$DN?$AA?$DN?$AA?$DN?$AA?$DN?$AA?5?$AA?$FL?$AA?5?$AAM?$AAu?$AAs?$AAi?$AAc?$AA?5?$AAT?$AAr?$AAa?$AAc?$AAk?$AA?5?$AA?$FN@ DB '='
	DB	00H, '=', 00H, '=', 00H, '=', 00H, ' ', 00H, '[', 00H, ' ', 00H
	DB	'M', 00H, 'u', 00H, 's', 00H, 'i', 00H, 'c', 00H, ' ', 00H, 'T'
	DB	00H, 'r', 00H, 'a', 00H, 'c', 00H, 'k', 00H, ' ', 00H, ']', 00H
	DB	'=', 00H, '=', 00H, '=', 00H, '=', 00H, 00H, 00H ; `string'
CONST	ENDS
;	COMDAT ??_C@_1FO@HMLHKAGM@?$AAM?$AAu?$AAs?$AAi?$AAc?$AAT?$AAr?$AAa?$AAc?$AAk?$AA?$CK?$AA?5?$AAT?$AAr?$AAa?$AAc?$AAk?$AAS?$AAe?$AAt@
CONST	SEGMENT
??_C@_1FO@HMLHKAGM@?$AAM?$AAu?$AAs?$AAi?$AAc?$AAT?$AAr?$AAa?$AAc?$AAk?$AA?$CK?$AA?5?$AAT?$AAr?$AAa?$AAc?$AAk?$AAS?$AAe?$AAt@ DB 'M'
	DB	00H, 'u', 00H, 's', 00H, 'i', 00H, 'c', 00H, 'T', 00H, 'r', 00H
	DB	'a', 00H, 'c', 00H, 'k', 00H, '*', 00H, ' ', 00H, 'T', 00H, 'r'
	DB	00H, 'a', 00H, 'c', 00H, 'k', 00H, 'S', 00H, 'e', 00H, 't', 00H
	DB	':', 00H, ':', 00H, 'g', 00H, 'e', 00H, 't', 00H, 'T', 00H, 'r'
	DB	00H, 'a', 00H, 'c', 00H, 'k', 00H, '(', 00H, ')', 00H, 0a2H, 095H
	DB	'peg0', 0a8H, '0', 0e9H, '0', 0fcH, '0L0zv', 01fH, 'uW0~0W0_0', 02H
	DB	'0', 00H, 00H				; `string'
CONST	ENDS
;	COMDAT ??_C@_1DK@DNENJNME@?$AAS?$AAE0?V0?m0?C0?$KPN?eY?$BG0g0oQ?$CKQH?$FO?$KGc?$AH?$FL?$JK0o0g0M0?$HO0?$FL@
CONST	SEGMENT
??_C@_1DK@DNENJNME@?$AAS?$AAE0?V0?m0?C0?$KPN?eY?$BG0g0oQ?$CKQH?$FO?$KGc?$AH?$FL?$JK0o0g0M0?$HO0?$FL@ DB 'S'
	DB	00H, 'E', 00H, 0d6H, '0', 0edH, '0', 0c3H, '0', 0afH, '0', 0e5H
	DB	'N', 016H, 'Yg0o0*QHQ', 0a6H, '^', 07H, 'c', 09aH, '[o0g0M0~0['
	DB	'0', 093H, '0', 02H, '0!q', 096H, 089H, 'W0~0Y0', 02H, '0', 00H
	DB	00H						; `string'
CONST	ENDS
;	COMDAT ??_C@_1DE@GKCFHPBH@R?$LJg?$JM?$JH?s0nQ?$CKQH?$FO?$KG0o0?$AB0o?$AA0?$PP?$FO?$AA30n?$HL?DV?r0gc?$AH?$FL?$JK0W@
CONST	SEGMENT
??_C@_1DE@GKCFHPBH@R?$LJg?$JM?$JH?s0nQ?$CKQH?$FO?$KG0o0?$AB0o?$AA0?$PP?$FO?$AA30n?$HL?DV?r0gc?$AH?$FL?$JK0W@ DB 0b9H
	DB	'R', 09cH, 'g', 0f3H, 097H, 'n0*QHQ', 0a6H, '^o0', 01H, '0o00', 00H
	DB	'^', 0ffH, '3', 00H, 'n0', 0c4H, '{', 0f2H, 'Vg0', 07H, 'c', 09aH
	DB	'[W0f0', 0bH, 'NU0D0', 02H, '0', 00H, 00H	; `string'
CONST	ENDS
;	COMDAT ??_C@_1BC@PFLOACNN@?$AAJ?$AAu?$AAm?$AAp?$AA?5?$AAO?$AAf?$AAf?$AA?$AA@
CONST	SEGMENT
??_C@_1BC@PFLOACNN@?$AAJ?$AAu?$AAm?$AAp?$AA?5?$AAO?$AAf?$AAf?$AA?$AA@ DB 'J'
	DB	00H, 'u', 00H, 'm', 00H, 'p', 00H, ' ', 00H, 'O', 00H, 'f', 00H
	DB	'f', 00H, 00H, 00H				; `string'
CONST	ENDS
;	COMDAT ??_C@_1BA@DLHAJHPF@?$AAJ?$AAu?$AAm?$AAp?$AA?5?$AAO?$AAn?$AA?$AA@
CONST	SEGMENT
??_C@_1BA@DLHAJHPF@?$AAJ?$AAu?$AAm?$AAp?$AA?5?$AAO?$AAn?$AA?$AA@ DB 'J', 00H
	DB	'u', 00H, 'm', 00H, 'p', 00H, ' ', 00H, 'O', 00H, 'n', 00H, 00H
	DB	00H						; `string'
CONST	ENDS
;	COMDAT ??_C@_1CK@GFGAOJII@?$AAj0?$LD0?$NO0?s0?I0Lc?$AH?$FL?$JKS?o?$IA?$PN0j?$HL?DV?r0?$JC?$IN?$IF0H0?$HO0W0_0?$AC@
CONST	SEGMENT
??_C@_1CK@GFGAOJII@?$AAj0?$LD0?$NO0?s0?I0Lc?$AH?$FL?$JKS?o?$IA?$PN0j?$HL?DV?r0?$JC?$IN?$IF0H0?$HO0W0_0?$AC@ DB 'j'
	DB	00H, 0b3H, '0', 0deH, '0', 0f3H, '0', 0c9H, '0L0', 07H, 'c', 09aH
	DB	'[', 0efH, 'S', 0fdH, 080H, 'j0', 0c4H, '{', 0f2H, 'V', 092H, '0'
	DB	085H, 08dH, 'H0~0W0_0', 02H, '0', 00H, 00H	; `string'
CONST	ENDS
;	COMDAT ??_C@_1CG@CEHFAHAL@0?F0?s0?$NN0Lc?$AH?$FL?$JKS?o?$IA?$PN0j?$HL?DV?r0?$JC?$IN?$IF0H0?$HO0W0_0?$AC?$AA?$AA@
CONST	SEGMENT
??_C@_1CG@CEHFAHAL@0?F0?s0?$NN0Lc?$AH?$FL?$JKS?o?$IA?$PN0j?$HL?DV?r0?$JC?$IN?$IF0H0?$HO0W0_0?$AC?$AA?$AA@ DB 0c6H
	DB	'0', 0f3H, '0', 0ddH, '0L0', 07H, 'c', 09aH, '[', 0efH, 'S', 0fdH
	DB	080H, 'j0', 0c4H, '{', 0f2H, 'V', 092H, '0', 085H, 08dH, 'H0~0'
	DB	'W0_0', 02H, '0', 00H, 00H			; `string'
CONST	ENDS
;	COMDAT ??_C@_1M@KPBAMICJ@?$AAT?$AAe?$AAm?$AAp?$AAo?$AA?$AA@
CONST	SEGMENT
??_C@_1M@KPBAMICJ@?$AAT?$AAe?$AAm?$AAp?$AAo?$AA?$AA@ DB 'T', 00H, 'e', 00H
	DB	'm', 00H, 'p', 00H, 'o', 00H, 00H, 00H	; `string'
CONST	ENDS
;	COMDAT ??_C@_1BO@NMEFKJBB@?$AAR?$AAe?$AAl?$AAa?$AAt?$AAi?$AAv?$AAe?$AA?5?$AAT?$AAe?$AAm?$AAp?$AAo?$AA?$AA@
CONST	SEGMENT
??_C@_1BO@NMEFKJBB@?$AAR?$AAe?$AAl?$AAa?$AAt?$AAi?$AAv?$AAe?$AA?5?$AAT?$AAe?$AAm?$AAp?$AAo?$AA?$AA@ DB 'R'
	DB	00H, 'e', 00H, 'l', 00H, 'a', 00H, 't', 00H, 'i', 00H, 'v', 00H
	DB	'e', 00H, ' ', 00H, 'T', 00H, 'e', 00H, 'm', 00H, 'p', 00H, 'o'
	DB	00H, 00H, 00H				; `string'
CONST	ENDS
;	COMDAT ??_C@_1EG@KMDFAJLP@?$AAy0?$LD0?$NO0?s0?I0n0?$KC0?I0?l0?$LJ0o?$AA$?$AA0?$AA0?$AA0?$AA0?$PP?$FO?$AA$?$AAF?$AAF@
CONST	SEGMENT
??_C@_1EG@KMDFAJLP@?$AAy0?$LD0?$NO0?s0?I0n0?$KC0?I0?l0?$LJ0o?$AA$?$AA0?$AA0?$AA0?$AA0?$PP?$FO?$AA$?$AAF?$AAF@ DB 'y'
	DB	00H, 0b3H, '0', 0deH, '0', 0f3H, '0', 0c9H, '0n0', 0a2H, '0', 0c9H
	DB	'0', 0ecH, '0', 0b9H, '0o0$', 00H, '0', 00H, '0', 00H, '0', 00H
	DB	'0', 00H, '^', 0ffH, '$', 00H, 'F', 00H, 'F', 00H, 'F', 00H, 'F'
	DB	00H, 'n0', 0c4H, '{', 0f2H, 'Vg0', 07H, 'c', 09aH, '[W0f0', 0bH
	DB	'NU0D0', 02H, '0', 00H, 00H			; `string'
CONST	ENDS
;	COMDAT ??_C@_1DM@CBEKDAPN@?$AAy0?$LD0?$NO0?s0?I0n0?Q0?i0?a0?$PM0?$LP0L?$IN?$LD0?$IK0?$HO0?$FL0?$JD0?$AC?$PP?$BC0d@
CONST	SEGMENT
??_C@_1DM@CBEKDAPN@?$AAy0?$LD0?$NO0?s0?I0n0?Q0?i0?a0?$PM0?$LP0L?$IN?$LD0?$IK0?$HO0?$FL0?$JD0?$AC?$PP?$BC0d@ DB 'y'
	DB	00H, 0b3H, '0', 0deH, '0', 0f3H, '0', 0c9H, '0n0', 0d1H, '0', 0e9H
	DB	'0', 0e1H, '0', 0fcH, '0', 0bfH, '0L0', 0b3H, 08dH, 08aH, '0~0'
	DB	'[0', 093H, '0', 02H, '0', 012H, 0ffH, 'd0', 07H, 'c', 09aH, '['
	DB	'W0f0O0`0U0D0', 02H, '0', 00H, 00H		; `string'
CONST	ENDS
;	COMDAT ??_C@_1DM@CNINMOFB@?$AAy0?$LD0?$NO0?s0?I0n0?G0?$PM0?$LP0o?$AA$?$AA0?$AA0?$PP?$FO?$AA$?$AAF?$AAF0n?$HL?DV?r@
CONST	SEGMENT
??_C@_1DM@CNINMOFB@?$AAy0?$LD0?$NO0?s0?I0n0?G0?$PM0?$LP0o?$AA$?$AA0?$AA0?$PP?$FO?$AA$?$AAF?$AAF0n?$HL?DV?r@ DB 'y'
	DB	00H, 0b3H, '0', 0deH, '0', 0f3H, '0', 0c9H, '0n0', 0c7H, '0', 0fcH
	DB	'0', 0bfH, '0o0$', 00H, '0', 00H, '0', 00H, '^', 0ffH, '$', 00H
	DB	'F', 00H, 'F', 00H, 'n0', 0c4H, '{', 0f2H, 'Vg0', 07H, 'c', 09aH
	DB	'[W0f0', 0bH, 'NU0D0', 02H, '0', 00H, 00H	; `string'
CONST	ENDS
;	COMDAT ??_C@_19MCGBFLHO@?$AAP?$AAo?$AAk?$AAe?$AA?$AA@
CONST	SEGMENT
??_C@_19MCGBFLHO@?$AAP?$AAo?$AAk?$AAe?$AA?$AA@ DB 'P', 00H, 'o', 00H, 'k', 00H
	DB	'e', 00H, 00H, 00H				; `string'
CONST	ENDS
;	COMDAT ??_C@_1CK@JOCIMFBO@?$AAF?$AAD?$AAS?$AA?5?$AAc?$AAa?$AAr?$AAe?$AAe?$AAr?$AA?5?$AAf?$AAr?$AAe?$AAq?$AAu?$AAe?$AAn?$AAc?$AAy@
CONST	SEGMENT
??_C@_1CK@JOCIMFBO@?$AAF?$AAD?$AAS?$AA?5?$AAc?$AAa?$AAr?$AAe?$AAe?$AAr?$AA?5?$AAf?$AAr?$AAe?$AAq?$AAu?$AAe?$AAn?$AAc?$AAy@ DB 'F'
	DB	00H, 'D', 00H, 'S', 00H, ' ', 00H, 'c', 00H, 'a', 00H, 'r', 00H
	DB	'e', 00H, 'e', 00H, 'r', 00H, ' ', 00H, 'f', 00H, 'r', 00H, 'e'
	DB	00H, 'q', 00H, 'u', 00H, 'e', 00H, 'n', 00H, 'c', 00H, 'y', 00H
	DB	00H, 00H					; `string'
CONST	ENDS
;	COMDAT ??_C@_1DO@NCLODOIG@?$AAF?$AAD?$AAS0n0?$KN0?c0?j0?$KCThl?bep0o?$AA0?$PP?$FO?$AA4?$AA0?$AA9?$AA50n?$HL?D@
CONST	SEGMENT
??_C@_1DO@NCLODOIG@?$AAF?$AAD?$AAS0n0?$KN0?c0?j0?$KCThl?bep0o?$AA0?$PP?$FO?$AA4?$AA0?$AA9?$AA50n?$HL?D@ DB 'F'
	DB	00H, 'D', 00H, 'S', 00H, 'n0', 0adH, '0', 0e3H, '0', 0eaH, '0', 0a2H
	DB	'0hT', 0e2H, 'lpeo00', 00H, '^', 0ffH, '4', 00H, '0', 00H, '9', 00H
	DB	'5', 00H, 'n0', 0c4H, '{', 0f2H, 'Vg0', 07H, 'c', 09aH, '[W0f0'
	DB	0bH, 'NU0D0', 02H, '0', 00H, 00H		; `string'
CONST	ENDS
;	COMDAT ??_C@_1CE@KIIDBKFM@?$AAF?$AAD?$AAS?$AA?5?$AAM?$AAa?$AAs?$AAt?$AAe?$AAr?$AA?5?$AAv?$AAo?$AAl?$AAu?$AAm?$AAe?$AA?$AA@
CONST	SEGMENT
??_C@_1CE@KIIDBKFM@?$AAF?$AAD?$AAS?$AA?5?$AAM?$AAa?$AAs?$AAt?$AAe?$AAr?$AA?5?$AAv?$AAo?$AAl?$AAu?$AAm?$AAe?$AA?$AA@ DB 'F'
	DB	00H, 'D', 00H, 'S', 00H, ' ', 00H, 'M', 00H, 'a', 00H, 's', 00H
	DB	't', 00H, 'e', 00H, 'r', 00H, ' ', 00H, 'v', 00H, 'o', 00H, 'l'
	DB	00H, 'u', 00H, 'm', 00H, 'e', 00H, 00H, 00H	; `string'
CONST	ENDS
;	COMDAT ??_C@_1DG@FINIAKBK@?$AAF?$AAD?$AAS0n0?$NO0?$LJ0?$LP0?$PM?$JH?s?$JB?O0o?$AA0?$PP?$FO?$AA30n?$HL?DV?r0gc?$AH?$FL?$JK@
CONST	SEGMENT
??_C@_1DG@FINIAKBK@?$AAF?$AAD?$AAS0n0?$NO0?$LJ0?$LP0?$PM?$JH?s?$JB?O0o?$AA0?$PP?$FO?$AA30n?$HL?DV?r0gc?$AH?$FL?$JK@ DB 'F'
	DB	00H, 'D', 00H, 'S', 00H, 'n0', 0deH, '0', 0b9H, '0', 0bfH, '0', 0fcH
	DB	'0', 0f3H, 097H, 0cfH, 091H, 'o00', 00H, '^', 0ffH, '3', 00H, 'n'
	DB	'0', 0c4H, '{', 0f2H, 'Vg0', 07H, 'c', 09aH, '[W0f0', 0bH, 'NU'
	DB	'0D0', 02H, '0', 00H, 00H			; `string'
CONST	ENDS
;	COMDAT ??_C@_1EK@HBBIFNHP@?$AAV?$AAR?$AAC?$AA70?l0?$LI0?$LJ0?$LPd?MO?20n?$HL?0?$AA10?Q0?i0?a0?$PM0?$LP0o?$AA0@
CONST	SEGMENT
??_C@_1EK@HBBIFNHP@?$AAV?$AAR?$AAC?$AA70?l0?$LI0?$LJ0?$LPd?MO?20n?$HL?0?$AA10?Q0?i0?a0?$PM0?$LP0o?$AA0@ DB 'V'
	DB	00H, 'R', 00H, 'C', 00H, '7', 00H, 0ecH, '0', 0b8H, '0', 0b9H, '0'
	DB	0bfH, '0', 0cdH, 'd\On0,{1', 00H, 0d1H, '0', 0e9H, '0', 0e1H, '0'
	DB	0fcH, '0', 0bfH, '0o00', 00H, '^', 0ffH, '6', 00H, '3', 00H, 'n'
	DB	'0', 0c4H, '{', 0f2H, 'Vg0', 07H, 'c', 09aH, '[W0f0O0`0U0D0', 02H
	DB	'0', 00H, 00H				; `string'
CONST	ENDS
;	COMDAT ??_C@_1EA@HBBIMBFO@?$AAy?$AAV?$AA?50?$LD0?$NO0?s0?I0n0?Q0?i0?a0?$PM0?$LP0L?$IN?$LD0?$IK0?$HO0?$FL0?$JD0?$AC@
CONST	SEGMENT
??_C@_1EA@HBBIMBFO@?$AAy?$AAV?$AA?50?$LD0?$NO0?s0?I0n0?Q0?i0?a0?$PM0?$LP0L?$IN?$LD0?$IK0?$HO0?$FL0?$JD0?$AC@ DB 'y'
	DB	00H, 'V', 00H, ' ', 00H, 0b3H, '0', 0deH, '0', 0f3H, '0', 0c9H
	DB	'0n0', 0d1H, '0', 0e9H, '0', 0e1H, '0', 0fcH, '0', 0bfH, '0L0', 0b3H
	DB	08dH, 08aH, '0~0[0', 093H, '0', 02H, '0', 012H, 0ffH, 'd0', 07H
	DB	'c', 09aH, '[W0f0O0`0U0D0', 02H, '0', 00H, 00H ; `string'
CONST	ENDS
;	COMDAT ??_C@_1EM@NIHECGCK@?$AAV?$AAR?$AAC?$AA70?l0?$LI0?$LJ0?$LPd?MO?20n?$HL?0?$AA20?Q0?i0?a0?$PM0?$LP0o?$AA0@
CONST	SEGMENT
??_C@_1EM@NIHECGCK@?$AAV?$AAR?$AAC?$AA70?l0?$LI0?$LJ0?$LPd?MO?20n?$HL?0?$AA20?Q0?i0?a0?$PM0?$LP0o?$AA0@ DB 'V'
	DB	00H, 'R', 00H, 'C', 00H, '7', 00H, 0ecH, '0', 0b8H, '0', 0b9H, '0'
	DB	0bfH, '0', 0cdH, 'd\On0,{2', 00H, 0d1H, '0', 0e9H, '0', 0e1H, '0'
	DB	0fcH, '0', 0bfH, '0o00', 00H, '^', 0ffH, '2', 00H, '5', 00H, '5'
	DB	00H, 'n0', 0c4H, '{', 0f2H, 'Vg0', 07H, 'c', 09aH, '[W0f0O0`0U'
	DB	'0D0', 02H, '0', 00H, 00H			; `string'
CONST	ENDS
;	COMDAT ??_C@_1CI@JIGLHAON@?$AAV?$AAR?$AAC?$AA7?$AA?5?$AAR?$AAe?$AAg?$AAi?$AAs?$AAt?$AAe?$AAr?$AA?5?$AAW?$AAr?$AAi?$AAt?$AAe?$AA?$AA@
CONST	SEGMENT
??_C@_1CI@JIGLHAON@?$AAV?$AAR?$AAC?$AA7?$AA?5?$AAR?$AAe?$AAg?$AAi?$AAs?$AAt?$AAe?$AAr?$AA?5?$AAW?$AAr?$AAi?$AAt?$AAe?$AA?$AA@ DB 'V'
	DB	00H, 'R', 00H, 'C', 00H, '7', 00H, ' ', 00H, 'R', 00H, 'e', 00H
	DB	'g', 00H, 'i', 00H, 's', 00H, 't', 00H, 'e', 00H, 'r', 00H, ' '
	DB	00H, 'W', 00H, 'r', 00H, 'i', 00H, 't', 00H, 'e', 00H, 00H, 00H ; `string'
CONST	ENDS
;	COMDAT ??_C@_1BK@BFEDNGPB@?$AAn?$AA1?$AA6?$AA3?$AA?5?$AAc?$AAh?$AAa?$AAn?$AAn?$AAe?$AAl?$AA?$AA@
CONST	SEGMENT
??_C@_1BK@BFEDNGPB@?$AAn?$AA1?$AA6?$AA3?$AA?5?$AAc?$AAh?$AAa?$AAn?$AAn?$AAe?$AAl?$AA?$AA@ DB 'n'
	DB	00H, '1', 00H, '6', 00H, '3', 00H, ' ', 00H, 'c', 00H, 'h', 00H
	DB	'a', 00H, 'n', 00H, 'n', 00H, 'e', 00H, 'l', 00H, 00H, 00H ; `string'
CONST	ENDS
;	COMDAT ??_C@_1DK@MLMMPBFK@?$AAn?$AA1?$AA6?$AA30n0?A0?c0?s0?M0?kep0o?$AA1?$PP?$FO?$AA80n?$HL?DV?r0gc?$AH@
CONST	SEGMENT
??_C@_1DK@MLMMPBFK@?$AAn?$AA1?$AA6?$AA30n0?A0?c0?s0?M0?kep0o?$AA1?$PP?$FO?$AA80n?$HL?DV?r0gc?$AH@ DB 'n'
	DB	00H, '1', 00H, '6', 00H, '3', 00H, 'n0', 0c1H, '0', 0e3H, '0', 0f3H
	DB	'0', 0cdH, '0', 0ebH, '0peo01', 00H, '^', 0ffH, '8', 00H, 'n0', 0c4H
	DB	'{', 0f2H, 'Vg0', 07H, 'c', 09aH, '[W0f0O0`0U0D0', 02H, '0', 00H
	DB	00H						; `string'
CONST	ENDS
;	COMDAT ??_C@_1CO@GINJDICH@?$AAF?$AAM?$AAE?$AA7?$AA?5?$AAe?$AAn?$AAv?$AAe?$AAl?$AAo?$AAp?$AA?5?$AAf?$AAr?$AAe?$AAq?$AAu?$AAe?$AAn@
CONST	SEGMENT
??_C@_1CO@GINJDICH@?$AAF?$AAM?$AAE?$AA7?$AA?5?$AAe?$AAn?$AAv?$AAe?$AAl?$AAo?$AAp?$AA?5?$AAf?$AAr?$AAe?$AAq?$AAu?$AAe?$AAn@ DB 'F'
	DB	00H, 'M', 00H, 'E', 00H, '7', 00H, ' ', 00H, 'e', 00H, 'n', 00H
	DB	'v', 00H, 'e', 00H, 'l', 00H, 'o', 00H, 'p', 00H, ' ', 00H, 'f'
	DB	00H, 'r', 00H, 'e', 00H, 'q', 00H, 'u', 00H, 'e', 00H, 'n', 00H
	DB	'c', 00H, 'y', 00H, 00H, 00H			; `string'
CONST	ENDS
;	COMDAT ??_C@_1FO@MPIPMFBJ@?$AAS?$AAU?$AAN?$AAS?$AAO?$AAF?$AAT?$AA?5?$AA5?$AAb0n0?O0?$PM0?I0?$KG0?$KH0?$KC0?$KI0?s0?Y@
CONST	SEGMENT
??_C@_1FO@MPIPMFBJ@?$AAS?$AAU?$AAN?$AAS?$AAO?$AAF?$AAT?$AA?5?$AA5?$AAb0n0?O0?$PM0?I0?$KG0?$KH0?$KC0?$KI0?s0?Y@ DB 'S'
	DB	00H, 'U', 00H, 'N', 00H, 'S', 00H, 'O', 00H, 'F', 00H, 'T', 00H
	DB	' ', 00H, '5', 00H, 'b', 00H, 'n0', 0cfH, '0', 0fcH, '0', 0c9H
	DB	'0', 0a6H, '0', 0a7H, '0', 0a2H, '0', 0a8H, '0', 0f3H, '0', 0d9H
	DB	'0', 0edH, '0', 0fcH, '0', 0d7H, '0hT', 0e2H, 'lpeo00', 00H, '^'
	DB	0ffH, '6', 00H, '5', 00H, '5', 00H, '3', 00H, '5', 00H, 'n0', 0c4H
	DB	'{', 0f2H, 'Vg0', 07H, 'c', 09aH, '[W0f0', 0bH, 'NU0D0', 02H, '0'
	DB	00H, 00H					; `string'
CONST	ENDS
;	COMDAT ??_7TrackSet@@6B@
CONST	SEGMENT
??_7TrackSet@@6B@ DD FLAT:?getCode@MusicItem@@UAEXPAV?$basic_string@DU?$char_traits@D@std@@V?$allocator@D@2@@std@@@Z ; TrackSet::`vftable'
	DD	FLAT:?setCode@MusicItem@@UAEXPAV?$basic_string@DU?$char_traits@D@std@@V?$allocator@D@2@@std@@@Z
	DD	FLAT:?getAsm@TrackSet@@UAEXPAVMusicFile@@@Z
; Function compile flags: /Ogsy
; File f:\nes\nsdl\src\nsc\musictrack.h
;	COMDAT ?SetCompileFlag@MusicTrack@@QAEX_N@Z
_TEXT	SEGMENT
?SetCompileFlag@MusicTrack@@QAEX_N@Z PROC NEAR		; MusicTrack::SetCompileFlag, COMDAT
; _this$ = eax
; __flag$ = ecx

; 277  : 				void	SetCompileFlag(bool _flag){compile_flag = _flag;};

  00000	88 88 a0 00 00
	00		 mov	 BYTE PTR [eax+160], cl
  00006	c3		 ret	 0
?SetCompileFlag@MusicTrack@@QAEX_N@Z ENDP		; MusicTrack::SetCompileFlag
; Function compile flags: /Ogsy
_TEXT	ENDS
;	COMDAT ?GetTickLoop@MusicTrack@@QAEIXZ
_TEXT	SEGMENT
?GetTickLoop@MusicTrack@@QAEIXZ PROC NEAR		; MusicTrack::GetTickLoop, COMDAT
; _this$ = eax

; 269  : 	unsigned	int		GetTickLoop(void){	return(iTickLoop);};

  00000	8b 80 98 00 00
	00		 mov	 eax, DWORD PTR [eax+152]
  00006	c3		 ret	 0
?GetTickLoop@MusicTrack@@QAEIXZ ENDP			; MusicTrack::GetTickLoop
; Function compile flags: /Ogsy
_TEXT	ENDS
;	COMDAT ?GetTickTotal@MusicTrack@@QAEIXZ
_TEXT	SEGMENT
?GetTickTotal@MusicTrack@@QAEIXZ PROC NEAR		; MusicTrack::GetTickTotal, COMDAT
; _this$ = eax

; 268  : 	unsigned	int		GetTickTotal(void){	return(iTickTotal);};

  00000	8b 80 94 00 00
	00		 mov	 eax, DWORD PTR [eax+148]
  00006	c3		 ret	 0
?GetTickTotal@MusicTrack@@QAEIXZ ENDP			; MusicTrack::GetTickTotal
; Function compile flags: /Ogsy
; File f:\nes\nsdl\src\nsc\mmlfile.h
_TEXT	ENDS
;	COMDAT ?GetMacroNest@MMLfile@@QAEHXZ
_TEXT	SEGMENT
?GetMacroNest@MMLfile@@QAEHXZ PROC NEAR			; MMLfile::GetMacroNest, COMDAT
; _this$ = eax

; 76   : 				int		GetMacroNest(void){return(p_macro);};

  00000	8b 40 60	 mov	 eax, DWORD PTR [eax+96]
  00003	c3		 ret	 0
?GetMacroNest@MMLfile@@QAEHXZ ENDP			; MMLfile::GetMacroNest
; Function compile flags: /Ogsy
; File f:\nes\nsdl\src\nsc\musictrack.h
_TEXT	ENDS
;	COMDAT ?GetCompileFlag@MusicTrack@@QAE_NXZ
_TEXT	SEGMENT
?GetCompileFlag@MusicTrack@@QAE_NXZ PROC NEAR		; MusicTrack::GetCompileFlag, COMDAT
; _this$ = eax

; 276  : 				bool	GetCompileFlag(void){return(compile_flag);};

  00000	8a 80 a0 00 00
	00		 mov	 al, BYTE PTR [eax+160]
  00006	c3		 ret	 0
?GetCompileFlag@MusicTrack@@QAE_NXZ ENDP		; MusicTrack::GetCompileFlag
; Function compile flags: /Ogsy
; File f:\nes\nsdl\src\nsc\fileinput.h
_TEXT	ENDS
;	COMDAT ?SetLine@FileInput@@QAEXI@Z
_TEXT	SEGMENT
?SetLine@FileInput@@QAEXI@Z PROC NEAR			; FileInput::SetLine, COMDAT
; _this$ = eax
; _i$ = ecx

; 34   : 			void	SetLine(unsigned int i){iLine = i;};

  00000	89 88 80 00 00
	00		 mov	 DWORD PTR [eax+128], ecx
  00006	c3		 ret	 0
?SetLine@FileInput@@QAEXI@Z ENDP			; FileInput::SetLine
; Function compile flags: /Ogsy
; File f:\nes\nsdl\src\nsc\mmlfile.h
_TEXT	ENDS
;	COMDAT ?SetLine@MMLfile@@QAEXI@Z
_TEXT	SEGMENT
?SetLine@MMLfile@@QAEXI@Z PROC NEAR			; MMLfile::SetLine, COMDAT
; _this$ = eax
; _i$ = ecx

; 98   : 				void	SetLine(unsigned int i){nowFile->SetLine(i);};

  00000	8b 40 10	 mov	 eax, DWORD PTR [eax+16]
  00003	89 88 80 00 00
	00		 mov	 DWORD PTR [eax+128], ecx
  00009	c3		 ret	 0
?SetLine@MMLfile@@QAEXI@Z ENDP				; MMLfile::SetLine
; Function compile flags: /Ogsy
; File f:\nes\nsdl\src\nsc\fileinput.h
_TEXT	ENDS
;	COMDAT ?GetLine@FileInput@@QAEIXZ
_TEXT	SEGMENT
?GetLine@FileInput@@QAEIXZ PROC NEAR			; FileInput::GetLine, COMDAT
; _this$ = eax

; 33   : unsigned	int		GetLine(void){return(iLine);};

  00000	8b 80 80 00 00
	00		 mov	 eax, DWORD PTR [eax+128]
  00006	c3		 ret	 0
?GetLine@FileInput@@QAEIXZ ENDP				; FileInput::GetLine
; Function compile flags: /Ogsy
; File f:\nes\nsdl\src\nsc\mmlfile.h
_TEXT	ENDS
;	COMDAT ?GetLine@MMLfile@@QAEIXZ
_TEXT	SEGMENT
?GetLine@MMLfile@@QAEIXZ PROC NEAR			; MMLfile::GetLine, COMDAT
; _this$ = eax

; 97   : 	unsigned	int		GetLine(void){return(nowFile->GetLine());};

  00000	8b 40 10	 mov	 eax, DWORD PTR [eax+16]
  00003	8b 80 80 00 00
	00		 mov	 eax, DWORD PTR [eax+128]
  00009	c3		 ret	 0
?GetLine@MMLfile@@QAEIXZ ENDP				; MMLfile::GetLine
; Function compile flags: /Ogsy
; File c:\program files (x86)\microsoft visual studio .net 2003\vc7\include\xutility
_TEXT	ENDS
;	COMDAT ??$_Iter_cat@Vconst_iterator@?$_Tree@V?$_Tmap_traits@HPAVMusicTrack@@U?$less@H@std@@V?$allocator@U?$pair@$$CBHPAVMusicTrack@@@std@@@3@$0A@@std@@@std@@@std@@YA?AUbidirectional_iterator_tag@0@ABVconst_iterator@?$_Tree@V?$_Tmap_traits@HPAVMusicTrack@@U?$less@H@std@@V?$allocator@U?$pair@$$CBHPAVMusicTrack@@@std@@@3@$0A@@std@@@0@@Z
_TEXT	SEGMENT
??$_Iter_cat@Vconst_iterator@?$_Tree@V?$_Tmap_traits@HPAVMusicTrack@@U?$less@H@std@@V?$allocator@U?$pair@$$CBHPAVMusicTrack@@@std@@@3@$0A@@std@@@std@@@std@@YA?AUbidirectional_iterator_tag@0@ABVconst_iterator@?$_Tree@V?$_Tmap_traits@HPAVMusicTrack@@U?$less@H@std@@V?$allocator@U?$pair@$$CBHPAVMusicTrack@@@std@@@3@$0A@@std@@@0@@Z PROC NEAR ; std::_Iter_cat<std::_Tree<std::_Tmap_traits<int,MusicTrack *,std::less<int>,std::allocator<std::pair<int const ,MusicTrack *> >,0> >::const_iterator>, COMDAT
; ___$ReturnUdt$ = eax

; 202  : 	typename iterator_traits<_Iter>::iterator_category _Cat;
; 203  : 	return (_Cat);
; 204  : 	}

  00000	c3		 ret	 0
??$_Iter_cat@Vconst_iterator@?$_Tree@V?$_Tmap_traits@HPAVMusicTrack@@U?$less@H@std@@V?$allocator@U?$pair@$$CBHPAVMusicTrack@@@std@@@3@$0A@@std@@@std@@@std@@YA?AUbidirectional_iterator_tag@0@ABVconst_iterator@?$_Tree@V?$_Tmap_traits@HPAVMusicTrack@@U?$less@H@std@@V?$allocator@U?$pair@$$CBHPAVMusicTrack@@@std@@@3@$0A@@std@@@0@@Z ENDP ; std::_Iter_cat<std::_Tree<std::_Tmap_traits<int,MusicTrack *,std::less<int>,std::allocator<std::pair<int const ,MusicTrack *> >,0> >::const_iterator>
; Function compile flags: /Ogsy
; File c:\program files (x86)\microsoft visual studio .net 2003\vc7\include\xmemory
_TEXT	ENDS
;	COMDAT ??$_Destroy@U_Node@?$_Tree_nod@V?$_Tmap_traits@HPAVMusicTrack@@U?$less@H@std@@V?$allocator@U?$pair@$$CBHPAVMusicTrack@@@std@@@3@$0A@@std@@@std@@@std@@YAXPAU_Node@?$_Tree_nod@V?$_Tmap_traits@HPAVMusicTrack@@U?$less@H@std@@V?$allocator@U?$pair@$$CBHPAVMusicTrack@@@std@@@3@$0A@@std@@@0@@Z
_TEXT	SEGMENT
??$_Destroy@U_Node@?$_Tree_nod@V?$_Tmap_traits@HPAVMusicTrack@@U?$less@H@std@@V?$allocator@U?$pair@$$CBHPAVMusicTrack@@@std@@@3@$0A@@std@@@std@@@std@@YAXPAU_Node@?$_Tree_nod@V?$_Tmap_traits@HPAVMusicTrack@@U?$less@H@std@@V?$allocator@U?$pair@$$CBHPAVMusicTrack@@@std@@@3@$0A@@std@@@0@@Z PROC NEAR ; std::_Destroy<std::_Tree_nod<std::_Tmap_traits<int,MusicTrack *,std::less<int>,std::allocator<std::pair<int const ,MusicTrack *> >,0> >::_Node>, COMDAT

; 49   : 	_DESTRUCTOR(_Ty, _Ptr);
; 50   : 	}

  00000	c3		 ret	 0
??$_Destroy@U_Node@?$_Tree_nod@V?$_Tmap_traits@HPAVMusicTrack@@U?$less@H@std@@V?$allocator@U?$pair@$$CBHPAVMusicTrack@@@std@@@3@$0A@@std@@@std@@@std@@YAXPAU_Node@?$_Tree_nod@V?$_Tmap_traits@HPAVMusicTrack@@U?$less@H@std@@V?$allocator@U?$pair@$$CBHPAVMusicTrack@@@std@@@3@$0A@@std@@@0@@Z ENDP ; std::_Destroy<std::_Tree_nod<std::_Tmap_traits<int,MusicTrack *,std::less<int>,std::allocator<std::pair<int const ,MusicTrack *> >,0> >::_Node>
; Function compile flags: /Ogsy
_TEXT	ENDS
;	COMDAT ??$?0U?$pair@$$CBHPAVMusicTrack@@@std@@@?$allocator@U_Node@?$_Tree_nod@V?$_Tmap_traits@HPAVMusicTrack@@U?$less@H@std@@V?$allocator@U?$pair@$$CBHPAVMusicTrack@@@std@@@3@$0A@@std@@@std@@@std@@QAE@ABV?$allocator@U?$pair@$$CBHPAVMusicTrack@@@std@@@1@@Z
_TEXT	SEGMENT
??$?0U?$pair@$$CBHPAVMusicTrack@@@std@@@?$allocator@U_Node@?$_Tree_nod@V?$_Tmap_traits@HPAVMusicTrack@@U?$less@H@std@@V?$allocator@U?$pair@$$CBHPAVMusicTrack@@@std@@@3@$0A@@std@@@std@@@std@@QAE@ABV?$allocator@U?$pair@$$CBHPAVMusicTrack@@@std@@@1@@Z PROC NEAR ; std::allocator<std::_Tree_nod<std::_Tmap_traits<int,MusicTrack *,std::less<int>,std::allocator<std::pair<int const ,MusicTrack *> >,0> >::_Node>::allocator<std::_Tree_nod<std::_Tmap_traits<int,MusicTrack *,std::less<int>,std::allocator<std::pair<int const ,MusicTrack *> >,0> >::_Node><std::pair<int const ,MusicTrack *> >, COMDAT
; _this$ = eax

; 121  : 		{	// construct from a related allocator (do nothing)
; 122  : 		}

  00000	c3		 ret	 0
??$?0U?$pair@$$CBHPAVMusicTrack@@@std@@@?$allocator@U_Node@?$_Tree_nod@V?$_Tmap_traits@HPAVMusicTrack@@U?$less@H@std@@V?$allocator@U?$pair@$$CBHPAVMusicTrack@@@std@@@3@$0A@@std@@@std@@@std@@QAE@ABV?$allocator@U?$pair@$$CBHPAVMusicTrack@@@std@@@1@@Z ENDP ; std::allocator<std::_Tree_nod<std::_Tmap_traits<int,MusicTrack *,std::less<int>,std::allocator<std::pair<int const ,MusicTrack *> >,0> >::_Node>::allocator<std::_Tree_nod<std::_Tmap_traits<int,MusicTrack *,std::less<int>,std::allocator<std::pair<int const ,MusicTrack *> >,0> >::_Node><std::pair<int const ,MusicTrack *> >
; Function compile flags: /Ogsy
_TEXT	ENDS
;	COMDAT ??$?0U?$pair@$$CBHPAVMusicTrack@@@std@@@?$allocator@PAU_Node@?$_Tree_nod@V?$_Tmap_traits@HPAVMusicTrack@@U?$less@H@std@@V?$allocator@U?$pair@$$CBHPAVMusicTrack@@@std@@@3@$0A@@std@@@std@@@std@@QAE@ABV?$allocator@U?$pair@$$CBHPAVMusicTrack@@@std@@@1@@Z
_TEXT	SEGMENT
??$?0U?$pair@$$CBHPAVMusicTrack@@@std@@@?$allocator@PAU_Node@?$_Tree_nod@V?$_Tmap_traits@HPAVMusicTrack@@U?$less@H@std@@V?$allocator@U?$pair@$$CBHPAVMusicTrack@@@std@@@3@$0A@@std@@@std@@@std@@QAE@ABV?$allocator@U?$pair@$$CBHPAVMusicTrack@@@std@@@1@@Z PROC NEAR ; std::allocator<std::_Tree_nod<std::_Tmap_traits<int,MusicTrack *,std::less<int>,std::allocator<std::pair<int const ,MusicTrack *> >,0> >::_Node *>::allocator<std::_Tree_nod<std::_Tmap_traits<int,MusicTrack *,std::less<int>,std::allocator<std::pair<int const ,MusicTrack *> >,0> >::_Node *><std::pair<int const ,MusicTrack *> >, COMDAT
; _this$ = eax

; 121  : 		{	// construct from a related allocator (do nothing)
; 122  : 		}

  00000	c3		 ret	 0
??$?0U?$pair@$$CBHPAVMusicTrack@@@std@@@?$allocator@PAU_Node@?$_Tree_nod@V?$_Tmap_traits@HPAVMusicTrack@@U?$less@H@std@@V?$allocator@U?$pair@$$CBHPAVMusicTrack@@@std@@@3@$0A@@std@@@std@@@std@@QAE@ABV?$allocator@U?$pair@$$CBHPAVMusicTrack@@@std@@@1@@Z ENDP ; std::allocator<std::_Tree_nod<std::_Tmap_traits<int,MusicTrack *,std::less<int>,std::allocator<std::pair<int const ,MusicTrack *> >,0> >::_Node *>::allocator<std::_Tree_nod<std::_Tmap_traits<int,MusicTrack *,std::less<int>,std::allocator<std::pair<int const ,MusicTrack *> >,0> >::_Node *><std::pair<int const ,MusicTrack *> >
; Function compile flags: /Ogsy
_TEXT	ENDS
;	COMDAT ??$_Destroy@PAU_Node@?$_Tree_nod@V?$_Tmap_traits@HPAVMusicTrack@@U?$less@H@std@@V?$allocator@U?$pair@$$CBHPAVMusicTrack@@@std@@@3@$0A@@std@@@std@@@std@@YAXPAPAU_Node@?$_Tree_nod@V?$_Tmap_traits@HPAVMusicTrack@@U?$less@H@std@@V?$allocator@U?$pair@$$CBHPAVMusicTrack@@@std@@@3@$0A@@std@@@0@@Z
_TEXT	SEGMENT
??$_Destroy@PAU_Node@?$_Tree_nod@V?$_Tmap_traits@HPAVMusicTrack@@U?$less@H@std@@V?$allocator@U?$pair@$$CBHPAVMusicTrack@@@std@@@3@$0A@@std@@@std@@@std@@YAXPAPAU_Node@?$_Tree_nod@V?$_Tmap_traits@HPAVMusicTrack@@U?$less@H@std@@V?$allocator@U?$pair@$$CBHPAVMusicTrack@@@std@@@3@$0A@@std@@@0@@Z PROC NEAR ; std::_Destroy<std::_Tree_nod<std::_Tmap_traits<int,MusicTrack *,std::less<int>,std::allocator<std::pair<int const ,MusicTrack *> >,0> >::_Node *>, COMDAT

; 49   : 	_DESTRUCTOR(_Ty, _Ptr);
; 50   : 	}

  00000	c3		 ret	 0
??$_Destroy@PAU_Node@?$_Tree_nod@V?$_Tmap_traits@HPAVMusicTrack@@U?$less@H@std@@V?$allocator@U?$pair@$$CBHPAVMusicTrack@@@std@@@3@$0A@@std@@@std@@@std@@YAXPAPAU_Node@?$_Tree_nod@V?$_Tmap_traits@HPAVMusicTrack@@U?$less@H@std@@V?$allocator@U?$pair@$$CBHPAVMusicTrack@@@std@@@3@$0A@@std@@@0@@Z ENDP ; std::_Destroy<std::_Tree_nod<std::_Tmap_traits<int,MusicTrack *,std::less<int>,std::allocator<std::pair<int const ,MusicTrack *> >,0> >::_Node *>
; Function compile flags: /Ogsy
; File c:\program files (x86)\microsoft visual studio .net 2003\vc7\include\map
_TEXT	ENDS
;	COMDAT ??0?$_Tmap_traits@HPAVMusicTrack@@U?$less@H@std@@V?$allocator@U?$pair@$$CBHPAVMusicTrack@@@std@@@3@$0A@@std@@QAE@U?$less@H@1@@Z
_TEXT	SEGMENT
__Parg$ = 8						; size = 1
??0?$_Tmap_traits@HPAVMusicTrack@@U?$less@H@std@@V?$allocator@U?$pair@$$CBHPAVMusicTrack@@@std@@@3@$0A@@std@@QAE@U?$less@H@1@@Z PROC NEAR ; std::_Tmap_traits<int,MusicTrack *,std::less<int>,std::allocator<std::pair<int const ,MusicTrack *> >,0>::_Tmap_traits<int,MusicTrack *,std::less<int>,std::allocator<std::pair<int const ,MusicTrack *> >,0>, COMDAT
; _this$ = eax

; 39   : 		}

  00000	c2 04 00	 ret	 4
??0?$_Tmap_traits@HPAVMusicTrack@@U?$less@H@std@@V?$allocator@U?$pair@$$CBHPAVMusicTrack@@@std@@@3@$0A@@std@@QAE@U?$less@H@1@@Z ENDP ; std::_Tmap_traits<int,MusicTrack *,std::less<int>,std::allocator<std::pair<int const ,MusicTrack *> >,0>::_Tmap_traits<int,MusicTrack *,std::less<int>,std::allocator<std::pair<int const ,MusicTrack *> >,0>
; Function compile flags: /Ogsy
; File c:\program files (x86)\microsoft visual studio .net 2003\vc7\include\xmemory
_TEXT	ENDS
;	COMDAT ?destroy@?$allocator@U_Node@?$_Tree_nod@V?$_Tmap_traits@HPAVMusicTrack@@U?$less@H@std@@V?$allocator@U?$pair@$$CBHPAVMusicTrack@@@std@@@3@$0A@@std@@@std@@@std@@QAEXPAU_Node@?$_Tree_nod@V?$_Tmap_traits@HPAVMusicTrack@@U?$less@H@std@@V?$allocator@U?$pair@$$CBHPAVMusicTrack@@@std@@@3@$0A@@std@@@2@@Z
_TEXT	SEGMENT
?destroy@?$allocator@U_Node@?$_Tree_nod@V?$_Tmap_traits@HPAVMusicTrack@@U?$less@H@std@@V?$allocator@U?$pair@$$CBHPAVMusicTrack@@@std@@@3@$0A@@std@@@std@@@std@@QAEXPAU_Node@?$_Tree_nod@V?$_Tmap_traits@HPAVMusicTrack@@U?$less@H@std@@V?$allocator@U?$pair@$$CBHPAVMusicTrack@@@std@@@3@$0A@@std@@@2@@Z PROC NEAR ; std::allocator<std::_Tree_nod<std::_Tmap_traits<int,MusicTrack *,std::less<int>,std::allocator<std::pair<int const ,MusicTrack *> >,0> >::_Node>::destroy, COMDAT

; 152  : 		_Destroy(_Ptr);
; 153  : 		}

  00000	c3		 ret	 0
?destroy@?$allocator@U_Node@?$_Tree_nod@V?$_Tmap_traits@HPAVMusicTrack@@U?$less@H@std@@V?$allocator@U?$pair@$$CBHPAVMusicTrack@@@std@@@3@$0A@@std@@@std@@@std@@QAEXPAU_Node@?$_Tree_nod@V?$_Tmap_traits@HPAVMusicTrack@@U?$less@H@std@@V?$allocator@U?$pair@$$CBHPAVMusicTrack@@@std@@@3@$0A@@std@@@2@@Z ENDP ; std::allocator<std::_Tree_nod<std::_Tmap_traits<int,MusicTrack *,std::less<int>,std::allocator<std::pair<int const ,MusicTrack *> >,0> >::_Node>::destroy
; Function compile flags: /Ogsy
; File c:\program files (x86)\microsoft visual studio .net 2003\vc7\include\xtree
_TEXT	ENDS
;	COMDAT ??0?$_Tree_nod@V?$_Tmap_traits@HPAVMusicTrack@@U?$less@H@std@@V?$allocator@U?$pair@$$CBHPAVMusicTrack@@@std@@@3@$0A@@std@@@std@@IAE@ABU?$less@H@1@V?$allocator@U?$pair@$$CBHPAVMusicTrack@@@std@@@1@@Z
_TEXT	SEGMENT
__Al$ = 8						; size = 1
??0?$_Tree_nod@V?$_Tmap_traits@HPAVMusicTrack@@U?$less@H@std@@V?$allocator@U?$pair@$$CBHPAVMusicTrack@@@std@@@3@$0A@@std@@@std@@IAE@ABU?$less@H@1@V?$allocator@U?$pair@$$CBHPAVMusicTrack@@@std@@@1@@Z PROC NEAR ; std::_Tree_nod<std::_Tmap_traits<int,MusicTrack *,std::less<int>,std::allocator<std::pair<int const ,MusicTrack *> >,0> >::_Tree_nod<std::_Tmap_traits<int,MusicTrack *,std::less<int>,std::allocator<std::pair<int const ,MusicTrack *> >,0> >, COMDAT
; _this$ = eax

; 55   : 		}

  00000	c2 04 00	 ret	 4
??0?$_Tree_nod@V?$_Tmap_traits@HPAVMusicTrack@@U?$less@H@std@@V?$allocator@U?$pair@$$CBHPAVMusicTrack@@@std@@@3@$0A@@std@@@std@@IAE@ABU?$less@H@1@V?$allocator@U?$pair@$$CBHPAVMusicTrack@@@std@@@1@@Z ENDP ; std::_Tree_nod<std::_Tmap_traits<int,MusicTrack *,std::less<int>,std::allocator<std::pair<int const ,MusicTrack *> >,0> >::_Tree_nod<std::_Tmap_traits<int,MusicTrack *,std::less<int>,std::allocator<std::pair<int const ,MusicTrack *> >,0> >
; Function compile flags: /Ogsy
; File c:\program files (x86)\microsoft visual studio .net 2003\vc7\include\utility
_TEXT	ENDS
;	COMDAT ??0?$pair@Vconst_iterator@?$_Tree@V?$_Tmap_traits@HPAVMusicTrack@@U?$less@H@std@@V?$allocator@U?$pair@$$CBHPAVMusicTrack@@@std@@@3@$0A@@std@@@std@@V123@@std@@QAE@ABVconst_iterator@?$_Tree@V?$_Tmap_traits@HPAVMusicTrack@@U?$less@H@std@@V?$allocator@U?$pair@$$CBHPAVMusicTrack@@@std@@@3@$0A@@std@@@1@0@Z
_TEXT	SEGMENT
__Val2$ = 8						; size = 4
??0?$pair@Vconst_iterator@?$_Tree@V?$_Tmap_traits@HPAVMusicTrack@@U?$less@H@std@@V?$allocator@U?$pair@$$CBHPAVMusicTrack@@@std@@@3@$0A@@std@@@std@@V123@@std@@QAE@ABVconst_iterator@?$_Tree@V?$_Tmap_traits@HPAVMusicTrack@@U?$less@H@std@@V?$allocator@U?$pair@$$CBHPAVMusicTrack@@@std@@@3@$0A@@std@@@1@0@Z PROC NEAR ; std::pair<std::_Tree<std::_Tmap_traits<int,MusicTrack *,std::less<int>,std::allocator<std::pair<int const ,MusicTrack *> >,0> >::const_iterator,std::_Tree<std::_Tmap_traits<int,MusicTrack *,std::less<int>,std::allocator<std::pair<int const ,MusicTrack *> >,0> >::const_iterator>::pair<std::_Tree<std::_Tmap_traits<int,MusicTrack *,std::less<int>,std::allocator<std::pair<int const ,MusicTrack *> >,0> >::const_iterator,std::_Tree<std::_Tmap_traits<int,MusicTrack *,std::less<int>,std::allocator<std::pair<int const ,MusicTrack *> >,0> >::const_iterator>, COMDAT
; _this$ = eax
; __Val1$ = ecx

; 34   : 		{	// construct from specified values

  00000	8b 09		 mov	 ecx, DWORD PTR [ecx]
  00002	89 08		 mov	 DWORD PTR [eax], ecx
  00004	8b 4c 24 04	 mov	 ecx, DWORD PTR __Val2$[esp-4]
  00008	8b 09		 mov	 ecx, DWORD PTR [ecx]
  0000a	89 48 04	 mov	 DWORD PTR [eax+4], ecx

; 35   : 		}

  0000d	c2 04 00	 ret	 4
??0?$pair@Vconst_iterator@?$_Tree@V?$_Tmap_traits@HPAVMusicTrack@@U?$less@H@std@@V?$allocator@U?$pair@$$CBHPAVMusicTrack@@@std@@@3@$0A@@std@@@std@@V123@@std@@QAE@ABVconst_iterator@?$_Tree@V?$_Tmap_traits@HPAVMusicTrack@@U?$less@H@std@@V?$allocator@U?$pair@$$CBHPAVMusicTrack@@@std@@@3@$0A@@std@@@1@0@Z ENDP ; std::pair<std::_Tree<std::_Tmap_traits<int,MusicTrack *,std::less<int>,std::allocator<std::pair<int const ,MusicTrack *> >,0> >::const_iterator,std::_Tree<std::_Tmap_traits<int,MusicTrack *,std::less<int>,std::allocator<std::pair<int const ,MusicTrack *> >,0> >::const_iterator>::pair<std::_Tree<std::_Tmap_traits<int,MusicTrack *,std::less<int>,std::allocator<std::pair<int const ,MusicTrack *> >,0> >::const_iterator,std::_Tree<std::_Tmap_traits<int,MusicTrack *,std::less<int>,std::allocator<std::pair<int const ,MusicTrack *> >,0> >::const_iterator>
; Function compile flags: /Ogsy
; File c:\program files (x86)\microsoft visual studio .net 2003\vc7\include\xmemory
_TEXT	ENDS
;	COMDAT ?destroy@?$allocator@PAU_Node@?$_Tree_nod@V?$_Tmap_traits@HPAVMusicTrack@@U?$less@H@std@@V?$allocator@U?$pair@$$CBHPAVMusicTrack@@@std@@@3@$0A@@std@@@std@@@std@@QAEXPAPAU_Node@?$_Tree_nod@V?$_Tmap_traits@HPAVMusicTrack@@U?$less@H@std@@V?$allocator@U?$pair@$$CBHPAVMusicTrack@@@std@@@3@$0A@@std@@@2@@Z
_TEXT	SEGMENT
?destroy@?$allocator@PAU_Node@?$_Tree_nod@V?$_Tmap_traits@HPAVMusicTrack@@U?$less@H@std@@V?$allocator@U?$pair@$$CBHPAVMusicTrack@@@std@@@3@$0A@@std@@@std@@@std@@QAEXPAPAU_Node@?$_Tree_nod@V?$_Tmap_traits@HPAVMusicTrack@@U?$less@H@std@@V?$allocator@U?$pair@$$CBHPAVMusicTrack@@@std@@@3@$0A@@std@@@2@@Z PROC NEAR ; std::allocator<std::_Tree_nod<std::_Tmap_traits<int,MusicTrack *,std::less<int>,std::allocator<std::pair<int const ,MusicTrack *> >,0> >::_Node *>::destroy, COMDAT

; 152  : 		_Destroy(_Ptr);
; 153  : 		}

  00000	c3		 ret	 0
?destroy@?$allocator@PAU_Node@?$_Tree_nod@V?$_Tmap_traits@HPAVMusicTrack@@U?$less@H@std@@V?$allocator@U?$pair@$$CBHPAVMusicTrack@@@std@@@3@$0A@@std@@@std@@@std@@QAEXPAPAU_Node@?$_Tree_nod@V?$_Tmap_traits@HPAVMusicTrack@@U?$less@H@std@@V?$allocator@U?$pair@$$CBHPAVMusicTrack@@@std@@@3@$0A@@std@@@2@@Z ENDP ; std::allocator<std::_Tree_nod<std::_Tmap_traits<int,MusicTrack *,std::less<int>,std::allocator<std::pair<int const ,MusicTrack *> >,0> >::_Node *>::destroy
; Function compile flags: /Ogsy
_TEXT	ENDS
;	COMDAT ??0?$allocator@U?$pair@$$CBHPAVMusicTrack@@@std@@@std@@QAE@ABV01@@Z
_TEXT	SEGMENT
??0?$allocator@U?$pair@$$CBHPAVMusicTrack@@@std@@@std@@QAE@ABV01@@Z PROC NEAR ; std::allocator<std::pair<int const ,MusicTrack *> >::allocator<std::pair<int const ,MusicTrack *> >, COMDAT
; _this$ = eax

; 116  : 		{	// construct by copying (do nothing)
; 117  : 		}

  00000	c3		 ret	 0
??0?$allocator@U?$pair@$$CBHPAVMusicTrack@@@std@@@std@@QAE@ABV01@@Z ENDP ; std::allocator<std::pair<int const ,MusicTrack *> >::allocator<std::pair<int const ,MusicTrack *> >
; Function compile flags: /Ogsy
_TEXT	ENDS
;	COMDAT ??0?$allocator@U?$pair@$$CBHPAVMusicTrack@@@std@@@std@@QAE@XZ
_TEXT	SEGMENT
??0?$allocator@U?$pair@$$CBHPAVMusicTrack@@@std@@@std@@QAE@XZ PROC NEAR ; std::allocator<std::pair<int const ,MusicTrack *> >::allocator<std::pair<int const ,MusicTrack *> >, COMDAT
; _this$ = eax

; 112  : 		{	// construct default allocator (do nothing)
; 113  : 		}

  00000	c3		 ret	 0
??0?$allocator@U?$pair@$$CBHPAVMusicTrack@@@std@@@std@@QAE@XZ ENDP ; std::allocator<std::pair<int const ,MusicTrack *> >::allocator<std::pair<int const ,MusicTrack *> >
; Function compile flags: /Ogsy
;	COMDAT ??$_Construct@PAU_Node@?$_Tree_nod@V?$_Tmap_traits@HPAVMusicTrack@@U?$less@H@std@@V?$allocator@U?$pair@$$CBHPAVMusicTrack@@@std@@@3@$0A@@std@@@std@@PAU123@@std@@YAXPAPAU_Node@?$_Tree_nod@V?$_Tmap_traits@HPAVMusicTrack@@U?$less@H@std@@V?$allocator@U?$pair@$$CBHPAVMusicTrack@@@std@@@3@$0A@@std@@@0@ABQAU120@@Z
_TEXT	SEGMENT
??$_Construct@PAU_Node@?$_Tree_nod@V?$_Tmap_traits@HPAVMusicTrack@@U?$less@H@std@@V?$allocator@U?$pair@$$CBHPAVMusicTrack@@@std@@@3@$0A@@std@@@std@@PAU123@@std@@YAXPAPAU_Node@?$_Tree_nod@V?$_Tmap_traits@HPAVMusicTrack@@U?$less@H@std@@V?$allocator@U?$pair@$$CBHPAVMusicTrack@@@std@@@3@$0A@@std@@@0@ABQAU120@@Z PROC NEAR ; std::_Construct<std::_Tree_nod<std::_Tmap_traits<int,MusicTrack *,std::less<int>,std::allocator<std::pair<int const ,MusicTrack *> >,0> >::_Node *,std::_Tree_nod<std::_Tmap_traits<int,MusicTrack *,std::less<int>,std::allocator<std::pair<int const ,MusicTrack *> >,0> >::_Node *>, COMDAT
; __Ptr$ = eax
; __Val$ = ecx

; 42   : 	new ((void _FARQ *)_Ptr) _T1(_Val);

  00000	85 c0		 test	 eax, eax
  00002	74 04		 je	 SHORT $L43473
  00004	8b 09		 mov	 ecx, DWORD PTR [ecx]
  00006	89 08		 mov	 DWORD PTR [eax], ecx
$L43473:

; 43   : 	}

  00008	c3		 ret	 0
??$_Construct@PAU_Node@?$_Tree_nod@V?$_Tmap_traits@HPAVMusicTrack@@U?$less@H@std@@V?$allocator@U?$pair@$$CBHPAVMusicTrack@@@std@@@3@$0A@@std@@@std@@PAU123@@std@@YAXPAPAU_Node@?$_Tree_nod@V?$_Tmap_traits@HPAVMusicTrack@@U?$less@H@std@@V?$allocator@U?$pair@$$CBHPAVMusicTrack@@@std@@@3@$0A@@std@@@0@ABQAU120@@Z ENDP ; std::_Construct<std::_Tree_nod<std::_Tmap_traits<int,MusicTrack *,std::less<int>,std::allocator<std::pair<int const ,MusicTrack *> >,0> >::_Node *,std::_Tree_nod<std::_Tmap_traits<int,MusicTrack *,std::less<int>,std::allocator<std::pair<int const ,MusicTrack *> >,0> >::_Node *>
; Function compile flags: /Ogsy
_TEXT	ENDS
;	COMDAT ?construct@?$allocator@PAU_Node@?$_Tree_nod@V?$_Tmap_traits@HPAVMusicTrack@@U?$less@H@std@@V?$allocator@U?$pair@$$CBHPAVMusicTrack@@@std@@@3@$0A@@std@@@std@@@std@@QAEXPAPAU_Node@?$_Tree_nod@V?$_Tmap_traits@HPAVMusicTrack@@U?$less@H@std@@V?$allocator@U?$pair@$$CBHPAVMusicTrack@@@std@@@3@$0A@@std@@@2@ABQAU342@@Z
_TEXT	SEGMENT
?construct@?$allocator@PAU_Node@?$_Tree_nod@V?$_Tmap_traits@HPAVMusicTrack@@U?$less@H@std@@V?$allocator@U?$pair@$$CBHPAVMusicTrack@@@std@@@3@$0A@@std@@@std@@@std@@QAEXPAPAU_Node@?$_Tree_nod@V?$_Tmap_traits@HPAVMusicTrack@@U?$less@H@std@@V?$allocator@U?$pair@$$CBHPAVMusicTrack@@@std@@@3@$0A@@std@@@2@ABQAU342@@Z PROC NEAR ; std::allocator<std::_Tree_nod<std::_Tmap_traits<int,MusicTrack *,std::less<int>,std::allocator<std::pair<int const ,MusicTrack *> >,0> >::_Node *>::construct, COMDAT
; __Ptr$ = eax
; __Val$ = ecx

; 147  : 		_Construct(_Ptr, _Val);

  00000	85 c0		 test	 eax, eax
  00002	74 04		 je	 SHORT $L43491
  00004	8b 09		 mov	 ecx, DWORD PTR [ecx]
  00006	89 08		 mov	 DWORD PTR [eax], ecx
$L43491:

; 148  : 		}

  00008	c3		 ret	 0
?construct@?$allocator@PAU_Node@?$_Tree_nod@V?$_Tmap_traits@HPAVMusicTrack@@U?$less@H@std@@V?$allocator@U?$pair@$$CBHPAVMusicTrack@@@std@@@3@$0A@@std@@@std@@@std@@QAEXPAPAU_Node@?$_Tree_nod@V?$_Tmap_traits@HPAVMusicTrack@@U?$less@H@std@@V?$allocator@U?$pair@$$CBHPAVMusicTrack@@@std@@@3@$0A@@std@@@2@ABQAU342@@Z ENDP ; std::allocator<std::_Tree_nod<std::_Tmap_traits<int,MusicTrack *,std::less<int>,std::allocator<std::pair<int const ,MusicTrack *> >,0> >::_Node *>::construct
; Function compile flags: /Ogsy
; File c:\program files (x86)\microsoft visual studio .net 2003\vc7\include\xtree
_TEXT	ENDS
;	COMDAT ?_Erase@?$_Tree@V?$_Tmap_traits@HPAVMusicTrack@@U?$less@H@std@@V?$allocator@U?$pair@$$CBHPAVMusicTrack@@@std@@@3@$0A@@std@@@std@@IAEXPAU_Node@?$_Tree_nod@V?$_Tmap_traits@HPAVMusicTrack@@U?$less@H@std@@V?$allocator@U?$pair@$$CBHPAVMusicTrack@@@std@@@3@$0A@@std@@@2@@Z
_TEXT	SEGMENT
__Rootnode$ = 8						; size = 4
?_Erase@?$_Tree@V?$_Tmap_traits@HPAVMusicTrack@@U?$less@H@std@@V?$allocator@U?$pair@$$CBHPAVMusicTrack@@@std@@@3@$0A@@std@@@std@@IAEXPAU_Node@?$_Tree_nod@V?$_Tmap_traits@HPAVMusicTrack@@U?$less@H@std@@V?$allocator@U?$pair@$$CBHPAVMusicTrack@@@std@@@3@$0A@@std@@@2@@Z PROC NEAR ; std::_Tree<std::_Tmap_traits<int,MusicTrack *,std::less<int>,std::allocator<std::pair<int const ,MusicTrack *> >,0> >::_Erase, COMDAT
; _this$ = ecx

; 890  : 		{	// free entire subtree, recursively

  00000	53		 push	 ebx
  00001	56		 push	 esi
  00002	57		 push	 edi

; 891  : 		for (_Nodeptr _Pnode = _Rootnode; !_Isnil(_Pnode); _Rootnode = _Pnode)

  00003	8b 7c 24 10	 mov	 edi, DWORD PTR __Rootnode$[esp+8]
  00007	80 7f 15 00	 cmp	 BYTE PTR [edi+21], 0
  0000b	8b d9		 mov	 ebx, ecx
  0000d	8b f7		 mov	 esi, edi
  0000f	75 1b		 jne	 SHORT $L26427
$L26425:

; 892  : 			{	// free subtrees, then node
; 893  : 			_Erase(_Right(_Pnode));

  00011	ff 76 08	 push	 DWORD PTR [esi+8]
  00014	8b cb		 mov	 ecx, ebx
  00016	e8 00 00 00 00	 call	 ?_Erase@?$_Tree@V?$_Tmap_traits@HPAVMusicTrack@@U?$less@H@std@@V?$allocator@U?$pair@$$CBHPAVMusicTrack@@@std@@@3@$0A@@std@@@std@@IAEXPAU_Node@?$_Tree_nod@V?$_Tmap_traits@HPAVMusicTrack@@U?$less@H@std@@V?$allocator@U?$pair@$$CBHPAVMusicTrack@@@std@@@3@$0A@@std@@@2@@Z ; std::_Tree<std::_Tmap_traits<int,MusicTrack *,std::less<int>,std::allocator<std::pair<int const ,MusicTrack *> >,0> >::_Erase

; 894  : 			_Pnode = _Left(_Pnode);

  0001b	8b 36		 mov	 esi, DWORD PTR [esi]

; 895  : 			this->_Alnod.destroy(_Rootnode);	// destroy, free erased node
; 896  : 			this->_Alnod.deallocate(_Rootnode, 1);

  0001d	57		 push	 edi
  0001e	e8 00 00 00 00	 call	 ??3@YAXPAX@Z		; operator delete
  00023	80 7e 15 00	 cmp	 BYTE PTR [esi+21], 0
  00027	59		 pop	 ecx
  00028	8b fe		 mov	 edi, esi
  0002a	74 e5		 je	 SHORT $L26425
$L26427:
  0002c	5f		 pop	 edi
  0002d	5e		 pop	 esi
  0002e	5b		 pop	 ebx

; 897  : 			}
; 898  : 		}

  0002f	c2 04 00	 ret	 4
?_Erase@?$_Tree@V?$_Tmap_traits@HPAVMusicTrack@@U?$less@H@std@@V?$allocator@U?$pair@$$CBHPAVMusicTrack@@@std@@@3@$0A@@std@@@std@@IAEXPAU_Node@?$_Tree_nod@V?$_Tmap_traits@HPAVMusicTrack@@U?$less@H@std@@V?$allocator@U?$pair@$$CBHPAVMusicTrack@@@std@@@3@$0A@@std@@@2@@Z ENDP ; std::_Tree<std::_Tmap_traits<int,MusicTrack *,std::less<int>,std::allocator<std::pair<int const ,MusicTrack *> >,0> >::_Erase
; Function compile flags: /Ogsy
_TEXT	ENDS
;	COMDAT ??9const_iterator@?$_Tree@V?$_Tmap_traits@HPAVMusicTrack@@U?$less@H@std@@V?$allocator@U?$pair@$$CBHPAVMusicTrack@@@std@@@3@$0A@@std@@@std@@QBE_NABV012@@Z
_TEXT	SEGMENT
??9const_iterator@?$_Tree@V?$_Tmap_traits@HPAVMusicTrack@@U?$less@H@std@@V?$allocator@U?$pair@$$CBHPAVMusicTrack@@@std@@@3@$0A@@std@@@std@@QBE_NABV012@@Z PROC NEAR ; std::_Tree<std::_Tmap_traits<int,MusicTrack *,std::less<int>,std::allocator<std::pair<int const ,MusicTrack *> >,0> >::const_iterator::operator!=, COMDAT
; _this$ = eax
; __Right$ = edx

; 246  : 			return (!(*this == _Right));

  00000	8b 00		 mov	 eax, DWORD PTR [eax]
  00002	33 c9		 xor	 ecx, ecx
  00004	3b 02		 cmp	 eax, DWORD PTR [edx]
  00006	0f 95 c1	 setne	 cl
  00009	8a c1		 mov	 al, cl

; 247  : 			}

  0000b	c3		 ret	 0
??9const_iterator@?$_Tree@V?$_Tmap_traits@HPAVMusicTrack@@U?$less@H@std@@V?$allocator@U?$pair@$$CBHPAVMusicTrack@@@std@@@3@$0A@@std@@@std@@QBE_NABV012@@Z ENDP ; std::_Tree<std::_Tmap_traits<int,MusicTrack *,std::less<int>,std::allocator<std::pair<int const ,MusicTrack *> >,0> >::const_iterator::operator!=
; Function compile flags: /Ogsy
_TEXT	ENDS
;	COMDAT ??0?$_Tree_ptr@V?$_Tmap_traits@HPAVMusicTrack@@U?$less@H@std@@V?$allocator@U?$pair@$$CBHPAVMusicTrack@@@std@@@3@$0A@@std@@@std@@IAE@ABU?$less@H@1@V?$allocator@U?$pair@$$CBHPAVMusicTrack@@@std@@@1@@Z
_TEXT	SEGMENT
__Al$ = 8						; size = 1
??0?$_Tree_ptr@V?$_Tmap_traits@HPAVMusicTrack@@U?$less@H@std@@V?$allocator@U?$pair@$$CBHPAVMusicTrack@@@std@@@3@$0A@@std@@@std@@IAE@ABU?$less@H@1@V?$allocator@U?$pair@$$CBHPAVMusicTrack@@@std@@@1@@Z PROC NEAR ; std::_Tree_ptr<std::_Tmap_traits<int,MusicTrack *,std::less<int>,std::allocator<std::pair<int const ,MusicTrack *> >,0> >::_Tree_ptr<std::_Tmap_traits<int,MusicTrack *,std::less<int>,std::allocator<std::pair<int const ,MusicTrack *> >,0> >, COMDAT
; _this$ = eax

; 77   : 		}

  00000	c2 04 00	 ret	 4
??0?$_Tree_ptr@V?$_Tmap_traits@HPAVMusicTrack@@U?$less@H@std@@V?$allocator@U?$pair@$$CBHPAVMusicTrack@@@std@@@3@$0A@@std@@@std@@IAE@ABU?$less@H@1@V?$allocator@U?$pair@$$CBHPAVMusicTrack@@@std@@@1@@Z ENDP ; std::_Tree_ptr<std::_Tmap_traits<int,MusicTrack *,std::less<int>,std::allocator<std::pair<int const ,MusicTrack *> >,0> >::_Tree_ptr<std::_Tmap_traits<int,MusicTrack *,std::less<int>,std::allocator<std::pair<int const ,MusicTrack *> >,0> >
; Function compile flags: /Ogsy
_TEXT	ENDS
;	COMDAT ?_Buynode@?$_Tree@V?$_Tmap_traits@HPAVMusicTrack@@U?$less@H@std@@V?$allocator@U?$pair@$$CBHPAVMusicTrack@@@std@@@3@$0A@@std@@@std@@IAEPAU_Node@?$_Tree_nod@V?$_Tmap_traits@HPAVMusicTrack@@U?$less@H@std@@V?$allocator@U?$pair@$$CBHPAVMusicTrack@@@std@@@3@$0A@@std@@@2@XZ
_TEXT	SEGMENT
?_Buynode@?$_Tree@V?$_Tmap_traits@HPAVMusicTrack@@U?$less@H@std@@V?$allocator@U?$pair@$$CBHPAVMusicTrack@@@std@@@3@$0A@@std@@@std@@IAEPAU_Node@?$_Tree_nod@V?$_Tmap_traits@HPAVMusicTrack@@U?$less@H@std@@V?$allocator@U?$pair@$$CBHPAVMusicTrack@@@std@@@3@$0A@@std@@@2@XZ PROC NEAR ; std::_Tree<std::_Tmap_traits<int,MusicTrack *,std::less<int>,std::allocator<std::pair<int const ,MusicTrack *> >,0> >::_Buynode, COMDAT

; 1106 : 		_Nodeptr _Wherenode = this->_Alnod.allocate(1);

  00000	6a 18		 push	 24			; 00000018H
  00002	e8 00 00 00 00	 call	 ??2@YAPAXI@Z		; operator new

; 1107 : 		int _Linkcnt = 0;
; 1108 : 
; 1109 : 		_TRY_BEGIN
; 1110 : 		this->_Alptr.construct(&_Left(_Wherenode), 0);

  00007	33 d2		 xor	 edx, edx
  00009	3b c2		 cmp	 eax, edx
  0000b	59		 pop	 ecx
  0000c	74 02		 je	 SHORT $L43588
  0000e	89 10		 mov	 DWORD PTR [eax], edx
$L43588:

; 1111 : 		++_Linkcnt;
; 1112 : 		this->_Alptr.construct(&_Parent(_Wherenode), 0);

  00010	8d 48 04	 lea	 ecx, DWORD PTR [eax+4]
  00013	3b ca		 cmp	 ecx, edx
  00015	74 02		 je	 SHORT $L43615
  00017	89 11		 mov	 DWORD PTR [ecx], edx
$L43615:

; 1113 : 		++_Linkcnt;
; 1114 : 		this->_Alptr.construct(&_Right(_Wherenode), 0);

  00019	8d 48 08	 lea	 ecx, DWORD PTR [eax+8]
  0001c	3b ca		 cmp	 ecx, edx
  0001e	74 02		 je	 SHORT $L43642
  00020	89 11		 mov	 DWORD PTR [ecx], edx
$L43642:

; 1115 : 		_CATCH_ALL
; 1116 : 		if (1 < _Linkcnt)
; 1117 : 			this->_Alptr.destroy(&_Parent(_Wherenode));
; 1118 : 		if (0 < _Linkcnt)
; 1119 : 			this->_Alptr.destroy(&_Left(_Wherenode));
; 1120 : 		this->_Alnod.deallocate(_Wherenode, 1);
; 1121 : 		_RERAISE;
; 1122 : 		_CATCH_END
; 1123 : 		_Color(_Wherenode) = _Black;

  00022	c6 40 14 01	 mov	 BYTE PTR [eax+20], 1

; 1124 : 		_Isnil(_Wherenode) = false;

  00026	88 50 15	 mov	 BYTE PTR [eax+21], dl

; 1125 : 		return (_Wherenode);
; 1126 : 		}

  00029	c3		 ret	 0
?_Buynode@?$_Tree@V?$_Tmap_traits@HPAVMusicTrack@@U?$less@H@std@@V?$allocator@U?$pair@$$CBHPAVMusicTrack@@@std@@@3@$0A@@std@@@std@@IAEPAU_Node@?$_Tree_nod@V?$_Tmap_traits@HPAVMusicTrack@@U?$less@H@std@@V?$allocator@U?$pair@$$CBHPAVMusicTrack@@@std@@@3@$0A@@std@@@2@XZ ENDP ; std::_Tree<std::_Tmap_traits<int,MusicTrack *,std::less<int>,std::allocator<std::pair<int const ,MusicTrack *> >,0> >::_Buynode
; Function compile flags: /Ogsy
_TEXT	ENDS
;	COMDAT ??0?$_Tree_val@V?$_Tmap_traits@HPAVMusicTrack@@U?$less@H@std@@V?$allocator@U?$pair@$$CBHPAVMusicTrack@@@std@@@3@$0A@@std@@@std@@IAE@ABU?$less@H@1@V?$allocator@U?$pair@$$CBHPAVMusicTrack@@@std@@@1@@Z
_TEXT	SEGMENT
__Al$ = 8						; size = 1
??0?$_Tree_val@V?$_Tmap_traits@HPAVMusicTrack@@U?$less@H@std@@V?$allocator@U?$pair@$$CBHPAVMusicTrack@@@std@@@3@$0A@@std@@@std@@IAE@ABU?$less@H@1@V?$allocator@U?$pair@$$CBHPAVMusicTrack@@@std@@@1@@Z PROC NEAR ; std::_Tree_val<std::_Tmap_traits<int,MusicTrack *,std::less<int>,std::allocator<std::pair<int const ,MusicTrack *> >,0> >::_Tree_val<std::_Tmap_traits<int,MusicTrack *,std::less<int>,std::allocator<std::pair<int const ,MusicTrack *> >,0> >, COMDAT
; _this$ = eax

; 96   : 		}

  00000	c2 04 00	 ret	 4
??0?$_Tree_val@V?$_Tmap_traits@HPAVMusicTrack@@U?$less@H@std@@V?$allocator@U?$pair@$$CBHPAVMusicTrack@@@std@@@3@$0A@@std@@@std@@IAE@ABU?$less@H@1@V?$allocator@U?$pair@$$CBHPAVMusicTrack@@@std@@@1@@Z ENDP ; std::_Tree_val<std::_Tmap_traits<int,MusicTrack *,std::less<int>,std::allocator<std::pair<int const ,MusicTrack *> >,0> >::_Tree_val<std::_Tmap_traits<int,MusicTrack *,std::less<int>,std::allocator<std::pair<int const ,MusicTrack *> >,0> >
; Function compile flags: /Ogsy
; File c:\program files (x86)\microsoft visual studio .net 2003\vc7\include\xutility
;	COMDAT ??$_Distance2@Vconst_iterator@?$_Tree@V?$_Tmap_traits@HPAVMusicTrack@@U?$less@H@std@@V?$allocator@U?$pair@$$CBHPAVMusicTrack@@@std@@@3@$0A@@std@@@std@@I@std@@YAXVconst_iterator@?$_Tree@V?$_Tmap_traits@HPAVMusicTrack@@U?$less@H@std@@V?$allocator@U?$pair@$$CBHPAVMusicTrack@@@std@@@3@$0A@@std@@@0@0AAIUbidirectional_iterator_tag@0@@Z
_TEXT	SEGMENT
__First$ = 8						; size = 4
__Last$ = 12						; size = 4
___formal$ = 16						; size = 1
??$_Distance2@Vconst_iterator@?$_Tree@V?$_Tmap_traits@HPAVMusicTrack@@U?$less@H@std@@V?$allocator@U?$pair@$$CBHPAVMusicTrack@@@std@@@3@$0A@@std@@@std@@I@std@@YAXVconst_iterator@?$_Tree@V?$_Tmap_traits@HPAVMusicTrack@@U?$less@H@std@@V?$allocator@U?$pair@$$CBHPAVMusicTrack@@@std@@@3@$0A@@std@@@0@0AAIUbidirectional_iterator_tag@0@@Z PROC NEAR ; std::_Distance2<std::_Tree<std::_Tmap_traits<int,MusicTrack *,std::less<int>,std::allocator<std::pair<int const ,MusicTrack *> >,0> >::const_iterator,unsigned int>, COMDAT
; __Off$ = esi

; 469  : 	{	// add to _Off distance between bidirectional iterators (redundant)

  00000	57		 push	 edi

; 470  : 	for (; _First != _Last; ++_First)

  00001	8b 7c 24 0c	 mov	 edi, DWORD PTR __Last$[esp]
  00005	eb 0b		 jmp	 SHORT $L55379
$L55368:

; 471  : 		++_Off;

  00007	ff 06		 inc	 DWORD PTR [esi]
  00009	8d 54 24 08	 lea	 edx, DWORD PTR __First$[esp]
  0000d	e8 00 00 00 00	 call	 ?_Inc@const_iterator@?$_Tree@V?$_Tmap_traits@HPAVMusicTrack@@U?$less@H@std@@V?$allocator@U?$pair@$$CBHPAVMusicTrack@@@std@@@3@$0A@@std@@@std@@QAEXXZ ; std::_Tree<std::_Tmap_traits<int,MusicTrack *,std::less<int>,std::allocator<std::pair<int const ,MusicTrack *> >,0> >::const_iterator::_Inc
$L55379:

; 470  : 	for (; _First != _Last; ++_First)

  00012	39 7c 24 08	 cmp	 DWORD PTR __First$[esp], edi
  00016	75 ef		 jne	 SHORT $L55368
  00018	5f		 pop	 edi

; 472  : 	}

  00019	c3		 ret	 0
??$_Distance2@Vconst_iterator@?$_Tree@V?$_Tmap_traits@HPAVMusicTrack@@U?$less@H@std@@V?$allocator@U?$pair@$$CBHPAVMusicTrack@@@std@@@3@$0A@@std@@@std@@I@std@@YAXVconst_iterator@?$_Tree@V?$_Tmap_traits@HPAVMusicTrack@@U?$less@H@std@@V?$allocator@U?$pair@$$CBHPAVMusicTrack@@@std@@@3@$0A@@std@@@0@0AAIUbidirectional_iterator_tag@0@@Z ENDP ; std::_Distance2<std::_Tree<std::_Tmap_traits<int,MusicTrack *,std::less<int>,std::allocator<std::pair<int const ,MusicTrack *> >,0> >::const_iterator,unsigned int>
; Function compile flags: /Ogsy
_TEXT	ENDS
;	COMDAT ??$_Distance@Vconst_iterator@?$_Tree@V?$_Tmap_traits@HPAVMusicTrack@@U?$less@H@std@@V?$allocator@U?$pair@$$CBHPAVMusicTrack@@@std@@@3@$0A@@std@@@std@@I@std@@YAXVconst_iterator@?$_Tree@V?$_Tmap_traits@HPAVMusicTrack@@U?$less@H@std@@V?$allocator@U?$pair@$$CBHPAVMusicTrack@@@std@@@3@$0A@@std@@@0@0AAI@Z
_TEXT	SEGMENT
$T55383 = -4						; size = 1
__First$ = 8						; size = 4
__Last$ = 12						; size = 4
??$_Distance@Vconst_iterator@?$_Tree@V?$_Tmap_traits@HPAVMusicTrack@@U?$less@H@std@@V?$allocator@U?$pair@$$CBHPAVMusicTrack@@@std@@@3@$0A@@std@@@std@@I@std@@YAXVconst_iterator@?$_Tree@V?$_Tmap_traits@HPAVMusicTrack@@U?$less@H@std@@V?$allocator@U?$pair@$$CBHPAVMusicTrack@@@std@@@3@$0A@@std@@@0@0AAI@Z PROC NEAR ; std::_Distance<std::_Tree<std::_Tmap_traits<int,MusicTrack *,std::less<int>,std::allocator<std::pair<int const ,MusicTrack *> >,0> >::const_iterator,unsigned int>, COMDAT
; __Off$ = esi

; 497  : 	{	// add to _Off distance between iterators

  00000	55		 push	 ebp
  00001	8b ec		 mov	 ebp, esp
  00003	51		 push	 ecx

; 498  : 	_Distance2(_First, _Last, _Off, _Iter_cat(_First));

  00004	ff 75 fc	 push	 DWORD PTR $T55383[ebp]
  00007	ff 75 0c	 push	 DWORD PTR __Last$[ebp]
  0000a	ff 75 08	 push	 DWORD PTR __First$[ebp]
  0000d	e8 00 00 00 00	 call	 ??$_Distance2@Vconst_iterator@?$_Tree@V?$_Tmap_traits@HPAVMusicTrack@@U?$less@H@std@@V?$allocator@U?$pair@$$CBHPAVMusicTrack@@@std@@@3@$0A@@std@@@std@@I@std@@YAXVconst_iterator@?$_Tree@V?$_Tmap_traits@HPAVMusicTrack@@U?$less@H@std@@V?$allocator@U?$pair@$$CBHPAVMusicTrack@@@std@@@3@$0A@@std@@@0@0AAIUbidirectional_iterator_tag@0@@Z ; std::_Distance2<std::_Tree<std::_Tmap_traits<int,MusicTrack *,std::less<int>,std::allocator<std::pair<int const ,MusicTrack *> >,0> >::const_iterator,unsigned int>
  00012	83 c4 0c	 add	 esp, 12			; 0000000cH

; 499  : 	}

  00015	c9		 leave
  00016	c3		 ret	 0
??$_Distance@Vconst_iterator@?$_Tree@V?$_Tmap_traits@HPAVMusicTrack@@U?$less@H@std@@V?$allocator@U?$pair@$$CBHPAVMusicTrack@@@std@@@3@$0A@@std@@@std@@I@std@@YAXVconst_iterator@?$_Tree@V?$_Tmap_traits@HPAVMusicTrack@@U?$less@H@std@@V?$allocator@U?$pair@$$CBHPAVMusicTrack@@@std@@@3@$0A@@std@@@0@0AAI@Z ENDP ; std::_Distance<std::_Tree<std::_Tmap_traits<int,MusicTrack *,std::less<int>,std::allocator<std::pair<int const ,MusicTrack *> >,0> >::const_iterator,unsigned int>
; Function compile flags: /Ogsy
; File c:\program files (x86)\microsoft visual studio .net 2003\vc7\include\xtree
_TEXT	ENDS
;	COMDAT ??Eiterator@?$_Tree@V?$_Tmap_traits@HPAVMusicTrack@@U?$less@H@std@@V?$allocator@U?$pair@$$CBHPAVMusicTrack@@@std@@@3@$0A@@std@@@std@@QAE?AV012@H@Z
_TEXT	SEGMENT
??Eiterator@?$_Tree@V?$_Tmap_traits@HPAVMusicTrack@@U?$less@H@std@@V?$allocator@U?$pair@$$CBHPAVMusicTrack@@@std@@@3@$0A@@std@@@std@@QAE?AV012@H@Z PROC NEAR ; std::_Tree<std::_Tmap_traits<int,MusicTrack *,std::less<int>,std::allocator<std::pair<int const ,MusicTrack *> >,0> >::iterator::operator++, COMDAT
; _this$ = edx
; ___$ReturnUdt$ = edi

; 332  : 			{	// postincrement

  00000	56		 push	 esi

; 333  : 			iterator _Tmp = *this;

  00001	8b 32		 mov	 esi, DWORD PTR [edx]

; 334  : 			++*this;

  00003	e8 00 00 00 00	 call	 ?_Inc@const_iterator@?$_Tree@V?$_Tmap_traits@HPAVMusicTrack@@U?$less@H@std@@V?$allocator@U?$pair@$$CBHPAVMusicTrack@@@std@@@3@$0A@@std@@@std@@QAEXXZ ; std::_Tree<std::_Tmap_traits<int,MusicTrack *,std::less<int>,std::allocator<std::pair<int const ,MusicTrack *> >,0> >::const_iterator::_Inc

; 335  : 			return (_Tmp);

  00008	89 37		 mov	 DWORD PTR [edi], esi
  0000a	8b c7		 mov	 eax, edi
  0000c	5e		 pop	 esi

; 336  : 			}

  0000d	c3		 ret	 0
??Eiterator@?$_Tree@V?$_Tmap_traits@HPAVMusicTrack@@U?$less@H@std@@V?$allocator@U?$pair@$$CBHPAVMusicTrack@@@std@@@3@$0A@@std@@@std@@QAE?AV012@H@Z ENDP ; std::_Tree<std::_Tmap_traits<int,MusicTrack *,std::less<int>,std::allocator<std::pair<int const ,MusicTrack *> >,0> >::iterator::operator++
; Function compile flags: /Ogsy
_TEXT	ENDS
;	COMDAT ?_Ubound@?$_Tree@V?$_Tmap_traits@HPAVMusicTrack@@U?$less@H@std@@V?$allocator@U?$pair@$$CBHPAVMusicTrack@@@std@@@3@$0A@@std@@@std@@IBEPAU_Node@?$_Tree_nod@V?$_Tmap_traits@HPAVMusicTrack@@U?$less@H@std@@V?$allocator@U?$pair@$$CBHPAVMusicTrack@@@std@@@3@$0A@@std@@@2@ABH@Z
_TEXT	SEGMENT
?_Ubound@?$_Tree@V?$_Tmap_traits@HPAVMusicTrack@@U?$less@H@std@@V?$allocator@U?$pair@$$CBHPAVMusicTrack@@@std@@@3@$0A@@std@@@std@@IBEPAU_Node@?$_Tree_nod@V?$_Tmap_traits@HPAVMusicTrack@@U?$less@H@std@@V?$allocator@U?$pair@$$CBHPAVMusicTrack@@@std@@@3@$0A@@std@@@2@ABH@Z PROC NEAR ; std::_Tree<std::_Tmap_traits<int,MusicTrack *,std::less<int>,std::allocator<std::pair<int const ,MusicTrack *> >,0> >::_Ubound, COMDAT
; _this$ = eax
; __Keyval$ = edx

; 1089 : 		_Nodeptr _Pnode = _Root();

  00000	8b 40 04	 mov	 eax, DWORD PTR [eax+4]
  00003	8b 48 04	 mov	 ecx, DWORD PTR [eax+4]

; 1090 : 		_Nodeptr _Wherenode = _Myhead;	// end() if search fails
; 1091 : 
; 1092 : 		while (!_Isnil(_Pnode))

  00006	80 79 15 00	 cmp	 BYTE PTR [ecx+21], 0
  0000a	75 16		 jne	 SHORT $L26314
  0000c	8b 12		 mov	 edx, DWORD PTR [edx]
$L26313:

; 1093 : 			if (this->comp(_Keyval, _Key(_Pnode)))

  0000e	3b 51 0c	 cmp	 edx, DWORD PTR [ecx+12]
  00011	7d 06		 jge	 SHORT $L26315

; 1094 : 				{	// _Pnode greater than _Keyval, remember it
; 1095 : 				_Wherenode = _Pnode;

  00013	8b c1		 mov	 eax, ecx

; 1096 : 				_Pnode = _Left(_Pnode);	// descend left subtree

  00015	8b 09		 mov	 ecx, DWORD PTR [ecx]

; 1097 : 				}
; 1098 : 			else

  00017	eb 03		 jmp	 SHORT $L26316
$L26315:

; 1099 : 				_Pnode = _Right(_Pnode);	// descend right subtree

  00019	8b 49 08	 mov	 ecx, DWORD PTR [ecx+8]
$L26316:

; 1090 : 		_Nodeptr _Wherenode = _Myhead;	// end() if search fails
; 1091 : 
; 1092 : 		while (!_Isnil(_Pnode))

  0001c	80 79 15 00	 cmp	 BYTE PTR [ecx+21], 0
  00020	74 ec		 je	 SHORT $L26313
$L26314:

; 1100 : 
; 1101 : 		return (_Wherenode);	// return best remembered candidate
; 1102 : 		}

  00022	c3		 ret	 0
?_Ubound@?$_Tree@V?$_Tmap_traits@HPAVMusicTrack@@U?$less@H@std@@V?$allocator@U?$pair@$$CBHPAVMusicTrack@@@std@@@3@$0A@@std@@@std@@IBEPAU_Node@?$_Tree_nod@V?$_Tmap_traits@HPAVMusicTrack@@U?$less@H@std@@V?$allocator@U?$pair@$$CBHPAVMusicTrack@@@std@@@3@$0A@@std@@@2@ABH@Z ENDP ; std::_Tree<std::_Tmap_traits<int,MusicTrack *,std::less<int>,std::allocator<std::pair<int const ,MusicTrack *> >,0> >::_Ubound
; Function compile flags: /Ogsy
_TEXT	ENDS
;	COMDAT ?clear@?$_Tree@V?$_Tmap_traits@HPAVMusicTrack@@U?$less@H@std@@V?$allocator@U?$pair@$$CBHPAVMusicTrack@@@std@@@3@$0A@@std@@@std@@QAEXXZ
_TEXT	SEGMENT
?clear@?$_Tree@V?$_Tmap_traits@HPAVMusicTrack@@U?$less@H@std@@V?$allocator@U?$pair@$$CBHPAVMusicTrack@@@std@@@3@$0A@@std@@@std@@QAEXXZ PROC NEAR ; std::_Tree<std::_Tmap_traits<int,MusicTrack *,std::less<int>,std::allocator<std::pair<int const ,MusicTrack *> >,0> >::clear, COMDAT
; _this$ = edi

; 780  : 		{	// erase all

  00000	56		 push	 esi

; 781  : 		_Erase(_Root());

  00001	8d 77 04	 lea	 esi, DWORD PTR [edi+4]
  00004	8b 06		 mov	 eax, DWORD PTR [esi]
  00006	ff 70 04	 push	 DWORD PTR [eax+4]
  00009	8b cf		 mov	 ecx, edi
  0000b	e8 00 00 00 00	 call	 ?_Erase@?$_Tree@V?$_Tmap_traits@HPAVMusicTrack@@U?$less@H@std@@V?$allocator@U?$pair@$$CBHPAVMusicTrack@@@std@@@3@$0A@@std@@@std@@IAEXPAU_Node@?$_Tree_nod@V?$_Tmap_traits@HPAVMusicTrack@@U?$less@H@std@@V?$allocator@U?$pair@$$CBHPAVMusicTrack@@@std@@@3@$0A@@std@@@2@@Z ; std::_Tree<std::_Tmap_traits<int,MusicTrack *,std::less<int>,std::allocator<std::pair<int const ,MusicTrack *> >,0> >::_Erase

; 782  : 		_Root() = _Myhead, _Mysize = 0;

  00010	8b 06		 mov	 eax, DWORD PTR [esi]
  00012	89 40 04	 mov	 DWORD PTR [eax+4], eax

; 783  : 		_Lmost() = _Myhead, _Rmost() = _Myhead;

  00015	8b 06		 mov	 eax, DWORD PTR [esi]
  00017	83 67 08 00	 and	 DWORD PTR [edi+8], 0
  0001b	89 00		 mov	 DWORD PTR [eax], eax
  0001d	8b 36		 mov	 esi, DWORD PTR [esi]
  0001f	89 76 08	 mov	 DWORD PTR [esi+8], esi
  00022	5e		 pop	 esi

; 784  : 		}

  00023	c3		 ret	 0
?clear@?$_Tree@V?$_Tmap_traits@HPAVMusicTrack@@U?$less@H@std@@V?$allocator@U?$pair@$$CBHPAVMusicTrack@@@std@@@3@$0A@@std@@@std@@QAEXXZ ENDP ; std::_Tree<std::_Tmap_traits<int,MusicTrack *,std::less<int>,std::allocator<std::pair<int const ,MusicTrack *> >,0> >::clear
; Function compile flags: /Ogsy
_TEXT	ENDS
;	COMDAT ?_Init@?$_Tree@V?$_Tmap_traits@HPAVMusicTrack@@U?$less@H@std@@V?$allocator@U?$pair@$$CBHPAVMusicTrack@@@std@@@3@$0A@@std@@@std@@IAEXXZ
_TEXT	SEGMENT
?_Init@?$_Tree@V?$_Tmap_traits@HPAVMusicTrack@@U?$less@H@std@@V?$allocator@U?$pair@$$CBHPAVMusicTrack@@@std@@@3@$0A@@std@@@std@@IAEXXZ PROC NEAR ; std::_Tree<std::_Tmap_traits<int,MusicTrack *,std::less<int>,std::allocator<std::pair<int const ,MusicTrack *> >,0> >::_Init, COMDAT
; _this$ = esi

; 902  : 		_Myhead = _Buynode();

  00000	e8 00 00 00 00	 call	 ?_Buynode@?$_Tree@V?$_Tmap_traits@HPAVMusicTrack@@U?$less@H@std@@V?$allocator@U?$pair@$$CBHPAVMusicTrack@@@std@@@3@$0A@@std@@@std@@IAEPAU_Node@?$_Tree_nod@V?$_Tmap_traits@HPAVMusicTrack@@U?$less@H@std@@V?$allocator@U?$pair@$$CBHPAVMusicTrack@@@std@@@3@$0A@@std@@@2@XZ ; std::_Tree<std::_Tmap_traits<int,MusicTrack *,std::less<int>,std::allocator<std::pair<int const ,MusicTrack *> >,0> >::_Buynode
  00005	8d 4e 04	 lea	 ecx, DWORD PTR [esi+4]
  00008	89 01		 mov	 DWORD PTR [ecx], eax

; 903  : 		_Isnil(_Myhead) = true;

  0000a	c6 40 15 01	 mov	 BYTE PTR [eax+21], 1

; 904  : 		_Root() = _Myhead;

  0000e	8b 01		 mov	 eax, DWORD PTR [ecx]
  00010	89 40 04	 mov	 DWORD PTR [eax+4], eax

; 905  : 		_Lmost() = _Myhead, _Rmost() = _Myhead;

  00013	8b 01		 mov	 eax, DWORD PTR [ecx]
  00015	89 00		 mov	 DWORD PTR [eax], eax
  00017	8b 09		 mov	 ecx, DWORD PTR [ecx]
  00019	89 49 08	 mov	 DWORD PTR [ecx+8], ecx

; 906  : 		_Mysize = 0;

  0001c	83 66 08 00	 and	 DWORD PTR [esi+8], 0

; 907  : 		}

  00020	c3		 ret	 0
?_Init@?$_Tree@V?$_Tmap_traits@HPAVMusicTrack@@U?$less@H@std@@V?$allocator@U?$pair@$$CBHPAVMusicTrack@@@std@@@3@$0A@@std@@@std@@IAEXXZ ENDP ; std::_Tree<std::_Tmap_traits<int,MusicTrack *,std::less<int>,std::allocator<std::pair<int const ,MusicTrack *> >,0> >::_Init
; Function compile flags: /Ogsy
_TEXT	ENDS
;	COMDAT ?upper_bound@?$_Tree@V?$_Tmap_traits@HPAVMusicTrack@@U?$less@H@std@@V?$allocator@U?$pair@$$CBHPAVMusicTrack@@@std@@@3@$0A@@std@@@std@@QBE?AVconst_iterator@12@ABH@Z
_TEXT	SEGMENT
?upper_bound@?$_Tree@V?$_Tmap_traits@HPAVMusicTrack@@U?$less@H@std@@V?$allocator@U?$pair@$$CBHPAVMusicTrack@@@std@@@3@$0A@@std@@@std@@QBE?AVconst_iterator@12@ABH@Z PROC NEAR ; std::_Tree<std::_Tmap_traits<int,MusicTrack *,std::less<int>,std::allocator<std::pair<int const ,MusicTrack *> >,0> >::upper_bound, COMDAT
; _this$ = eax
; ___$ReturnUdt$ = esi
; __Keyval$ = edx

; 825  : 		return (_TREE_CONST_ITERATOR(_Ubound(_Keyval)));

  00000	e8 00 00 00 00	 call	 ?_Ubound@?$_Tree@V?$_Tmap_traits@HPAVMusicTrack@@U?$less@H@std@@V?$allocator@U?$pair@$$CBHPAVMusicTrack@@@std@@@3@$0A@@std@@@std@@IBEPAU_Node@?$_Tree_nod@V?$_Tmap_traits@HPAVMusicTrack@@U?$less@H@std@@V?$allocator@U?$pair@$$CBHPAVMusicTrack@@@std@@@3@$0A@@std@@@2@ABH@Z ; std::_Tree<std::_Tmap_traits<int,MusicTrack *,std::less<int>,std::allocator<std::pair<int const ,MusicTrack *> >,0> >::_Ubound
  00005	89 06		 mov	 DWORD PTR [esi], eax
  00007	8b c6		 mov	 eax, esi

; 826  : 		}

  00009	c3		 ret	 0
?upper_bound@?$_Tree@V?$_Tmap_traits@HPAVMusicTrack@@U?$less@H@std@@V?$allocator@U?$pair@$$CBHPAVMusicTrack@@@std@@@3@$0A@@std@@@std@@QBE?AVconst_iterator@12@ABH@Z ENDP ; std::_Tree<std::_Tmap_traits<int,MusicTrack *,std::less<int>,std::allocator<std::pair<int const ,MusicTrack *> >,0> >::upper_bound
; Function compile flags: /Ogsy
_TEXT	ENDS
;	COMDAT ?lower_bound@?$_Tree@V?$_Tmap_traits@HPAVMusicTrack@@U?$less@H@std@@V?$allocator@U?$pair@$$CBHPAVMusicTrack@@@std@@@3@$0A@@std@@@std@@QBE?AVconst_iterator@12@ABH@Z
_TEXT	SEGMENT
?lower_bound@?$_Tree@V?$_Tmap_traits@HPAVMusicTrack@@U?$less@H@std@@V?$allocator@U?$pair@$$CBHPAVMusicTrack@@@std@@@3@$0A@@std@@@std@@QBE?AVconst_iterator@12@ABH@Z PROC NEAR ; std::_Tree<std::_Tmap_traits<int,MusicTrack *,std::less<int>,std::allocator<std::pair<int const ,MusicTrack *> >,0> >::lower_bound, COMDAT
; _this$ = eax
; ___$ReturnUdt$ = esi
; __Keyval$ = edx

; 815  : 		return (_TREE_CONST_ITERATOR(_Lbound(_Keyval)));

  00000	e8 00 00 00 00	 call	 ?_Lbound@?$_Tree@V?$_Tmap_traits@HPAVMusicTrack@@U?$less@H@std@@V?$allocator@U?$pair@$$CBHPAVMusicTrack@@@std@@@3@$0A@@std@@@std@@IBEPAU_Node@?$_Tree_nod@V?$_Tmap_traits@HPAVMusicTrack@@U?$less@H@std@@V?$allocator@U?$pair@$$CBHPAVMusicTrack@@@std@@@3@$0A@@std@@@2@ABH@Z ; std::_Tree<std::_Tmap_traits<int,MusicTrack *,std::less<int>,std::allocator<std::pair<int const ,MusicTrack *> >,0> >::_Lbound
  00005	89 06		 mov	 DWORD PTR [esi], eax
  00007	8b c6		 mov	 eax, esi

; 816  : 		}

  00009	c3		 ret	 0
?lower_bound@?$_Tree@V?$_Tmap_traits@HPAVMusicTrack@@U?$less@H@std@@V?$allocator@U?$pair@$$CBHPAVMusicTrack@@@std@@@3@$0A@@std@@@std@@QBE?AVconst_iterator@12@ABH@Z ENDP ; std::_Tree<std::_Tmap_traits<int,MusicTrack *,std::less<int>,std::allocator<std::pair<int const ,MusicTrack *> >,0> >::lower_bound
; Function compile flags: /Ogsy
_TEXT	ENDS
;	COMDAT ?equal_range@?$_Tree@V?$_Tmap_traits@HPAVMusicTrack@@U?$less@H@std@@V?$allocator@U?$pair@$$CBHPAVMusicTrack@@@std@@@3@$0A@@std@@@std@@QBE?AU?$pair@Vconst_iterator@?$_Tree@V?$_Tmap_traits@HPAVMusicTrack@@U?$less@H@std@@V?$allocator@U?$pair@$$CBHPAVMusicTrack@@@std@@@3@$0A@@std@@@std@@V123@@2@ABH@Z
_TEXT	SEGMENT
_this$ = 8						; size = 4
__Keyval$ = 12						; size = 4
?equal_range@?$_Tree@V?$_Tmap_traits@HPAVMusicTrack@@U?$less@H@std@@V?$allocator@U?$pair@$$CBHPAVMusicTrack@@@std@@@3@$0A@@std@@@std@@QBE?AU?$pair@Vconst_iterator@?$_Tree@V?$_Tmap_traits@HPAVMusicTrack@@U?$less@H@std@@V?$allocator@U?$pair@$$CBHPAVMusicTrack@@@std@@@3@$0A@@std@@@std@@V123@@2@ABH@Z PROC NEAR ; std::_Tree<std::_Tmap_traits<int,MusicTrack *,std::less<int>,std::allocator<std::pair<int const ,MusicTrack *> >,0> >::equal_range, COMDAT
; ___$ReturnUdt$ = esi

; 835  : 		return (_Paircc(lower_bound(_Keyval), upper_bound(_Keyval)));

  00000	8b 54 24 08	 mov	 edx, DWORD PTR __Keyval$[esp-4]
  00004	8b 44 24 04	 mov	 eax, DWORD PTR _this$[esp-4]
  00008	57		 push	 edi
  00009	e8 00 00 00 00	 call	 ?_Ubound@?$_Tree@V?$_Tmap_traits@HPAVMusicTrack@@U?$less@H@std@@V?$allocator@U?$pair@$$CBHPAVMusicTrack@@@std@@@3@$0A@@std@@@std@@IBEPAU_Node@?$_Tree_nod@V?$_Tmap_traits@HPAVMusicTrack@@U?$less@H@std@@V?$allocator@U?$pair@$$CBHPAVMusicTrack@@@std@@@3@$0A@@std@@@2@ABH@Z ; std::_Tree<std::_Tmap_traits<int,MusicTrack *,std::less<int>,std::allocator<std::pair<int const ,MusicTrack *> >,0> >::_Ubound
  0000e	8b 54 24 0c	 mov	 edx, DWORD PTR __Keyval$[esp]
  00012	8b f8		 mov	 edi, eax
  00014	8b 44 24 08	 mov	 eax, DWORD PTR _this$[esp]
  00018	e8 00 00 00 00	 call	 ?_Lbound@?$_Tree@V?$_Tmap_traits@HPAVMusicTrack@@U?$less@H@std@@V?$allocator@U?$pair@$$CBHPAVMusicTrack@@@std@@@3@$0A@@std@@@std@@IBEPAU_Node@?$_Tree_nod@V?$_Tmap_traits@HPAVMusicTrack@@U?$less@H@std@@V?$allocator@U?$pair@$$CBHPAVMusicTrack@@@std@@@3@$0A@@std@@@2@ABH@Z ; std::_Tree<std::_Tmap_traits<int,MusicTrack *,std::less<int>,std::allocator<std::pair<int const ,MusicTrack *> >,0> >::_Lbound
  0001d	89 06		 mov	 DWORD PTR [esi], eax
  0001f	89 7e 04	 mov	 DWORD PTR [esi+4], edi
  00022	8b c6		 mov	 eax, esi
  00024	5f		 pop	 edi

; 836  : 		}

  00025	c2 08 00	 ret	 8
?equal_range@?$_Tree@V?$_Tmap_traits@HPAVMusicTrack@@U?$less@H@std@@V?$allocator@U?$pair@$$CBHPAVMusicTrack@@@std@@@3@$0A@@std@@@std@@QBE?AU?$pair@Vconst_iterator@?$_Tree@V?$_Tmap_traits@HPAVMusicTrack@@U?$less@H@std@@V?$allocator@U?$pair@$$CBHPAVMusicTrack@@@std@@@3@$0A@@std@@@std@@V123@@2@ABH@Z ENDP ; std::_Tree<std::_Tmap_traits<int,MusicTrack *,std::less<int>,std::allocator<std::pair<int const ,MusicTrack *> >,0> >::equal_range
; Function compile flags: /Ogsy
_TEXT	ENDS
;	COMDAT ??0?$_Tree@V?$_Tmap_traits@HPAVMusicTrack@@U?$less@H@std@@V?$allocator@U?$pair@$$CBHPAVMusicTrack@@@std@@@3@$0A@@std@@@std@@QAE@ABU?$less@H@1@ABV?$allocator@U?$pair@$$CBHPAVMusicTrack@@@std@@@1@@Z
_TEXT	SEGMENT
??0?$_Tree@V?$_Tmap_traits@HPAVMusicTrack@@U?$less@H@std@@V?$allocator@U?$pair@$$CBHPAVMusicTrack@@@std@@@3@$0A@@std@@@std@@QAE@ABU?$less@H@1@ABV?$allocator@U?$pair@$$CBHPAVMusicTrack@@@std@@@1@@Z PROC NEAR ; std::_Tree<std::_Tmap_traits<int,MusicTrack *,std::less<int>,std::allocator<std::pair<int const ,MusicTrack *> >,0> >::_Tree<std::_Tmap_traits<int,MusicTrack *,std::less<int>,std::allocator<std::pair<int const ,MusicTrack *> >,0> >, COMDAT
; _this$ = eax

; 361  : 		{	// construct empty tree

  00000	56		 push	 esi
  00001	8b f0		 mov	 esi, eax

; 362  : 		_Init();

  00003	e8 00 00 00 00	 call	 ?_Init@?$_Tree@V?$_Tmap_traits@HPAVMusicTrack@@U?$less@H@std@@V?$allocator@U?$pair@$$CBHPAVMusicTrack@@@std@@@3@$0A@@std@@@std@@IAEXXZ ; std::_Tree<std::_Tmap_traits<int,MusicTrack *,std::less<int>,std::allocator<std::pair<int const ,MusicTrack *> >,0> >::_Init

; 363  : 		}

  00008	8b c6		 mov	 eax, esi
  0000a	5e		 pop	 esi
  0000b	c3		 ret	 0
??0?$_Tree@V?$_Tmap_traits@HPAVMusicTrack@@U?$less@H@std@@V?$allocator@U?$pair@$$CBHPAVMusicTrack@@@std@@@3@$0A@@std@@@std@@QAE@ABU?$less@H@1@ABV?$allocator@U?$pair@$$CBHPAVMusicTrack@@@std@@@1@@Z ENDP ; std::_Tree<std::_Tmap_traits<int,MusicTrack *,std::less<int>,std::allocator<std::pair<int const ,MusicTrack *> >,0> >::_Tree<std::_Tmap_traits<int,MusicTrack *,std::less<int>,std::allocator<std::pair<int const ,MusicTrack *> >,0> >
; Function compile flags: /Ogsy
_TEXT	ENDS
;	COMDAT ?count@?$_Tree@V?$_Tmap_traits@HPAVMusicTrack@@U?$less@H@std@@V?$allocator@U?$pair@$$CBHPAVMusicTrack@@@std@@@3@$0A@@std@@@std@@QBEIABH@Z
_TEXT	SEGMENT
__Ans$ = -8						; size = 8
_this$ = 8						; size = 4
$T55648 = 12						; size = 4
__Keyval$ = 12						; size = 4
?count@?$_Tree@V?$_Tmap_traits@HPAVMusicTrack@@U?$less@H@std@@V?$allocator@U?$pair@$$CBHPAVMusicTrack@@@std@@@3@$0A@@std@@@std@@QBEIABH@Z PROC NEAR ; std::_Tree<std::_Tmap_traits<int,MusicTrack *,std::less<int>,std::allocator<std::pair<int const ,MusicTrack *> >,0> >::count, COMDAT

; 801  : 		{	// count all elements that match _Keyval

  00000	55		 push	 ebp
  00001	8b ec		 mov	 ebp, esp
  00003	51		 push	 ecx
  00004	51		 push	 ecx
  00005	56		 push	 esi
  00006	57		 push	 edi

; 802  : 		_Paircc _Ans = equal_range(_Keyval);

  00007	ff 75 0c	 push	 DWORD PTR __Keyval$[ebp]
  0000a	8d 75 f8	 lea	 esi, DWORD PTR __Ans$[ebp]
  0000d	ff 75 08	 push	 DWORD PTR _this$[ebp]
  00010	e8 00 00 00 00	 call	 ?equal_range@?$_Tree@V?$_Tmap_traits@HPAVMusicTrack@@U?$less@H@std@@V?$allocator@U?$pair@$$CBHPAVMusicTrack@@@std@@@3@$0A@@std@@@std@@QBE?AU?$pair@Vconst_iterator@?$_Tree@V?$_Tmap_traits@HPAVMusicTrack@@U?$less@H@std@@V?$allocator@U?$pair@$$CBHPAVMusicTrack@@@std@@@3@$0A@@std@@@std@@V123@@2@ABH@Z ; std::_Tree<std::_Tmap_traits<int,MusicTrack *,std::less<int>,std::allocator<std::pair<int const ,MusicTrack *> >,0> >::equal_range

; 803  : 		size_type _Num = 0;
; 804  : 		_Distance(_Ans.first, _Ans.second, _Num);

  00015	8b 45 f8	 mov	 eax, DWORD PTR __Ans$[ebp]
  00018	8b 75 fc	 mov	 esi, DWORD PTR __Ans$[ebp+4]
  0001b	33 ff		 xor	 edi, edi
  0001d	3b c6		 cmp	 eax, esi
  0001f	89 45 0c	 mov	 DWORD PTR $T55648[ebp], eax
  00022	74 0e		 je	 SHORT $L55657
$L55660:
  00024	8d 55 0c	 lea	 edx, DWORD PTR $T55648[ebp]
  00027	47		 inc	 edi
  00028	e8 00 00 00 00	 call	 ?_Inc@const_iterator@?$_Tree@V?$_Tmap_traits@HPAVMusicTrack@@U?$less@H@std@@V?$allocator@U?$pair@$$CBHPAVMusicTrack@@@std@@@3@$0A@@std@@@std@@QAEXXZ ; std::_Tree<std::_Tmap_traits<int,MusicTrack *,std::less<int>,std::allocator<std::pair<int const ,MusicTrack *> >,0> >::const_iterator::_Inc
  0002d	39 75 0c	 cmp	 DWORD PTR $T55648[ebp], esi
  00030	75 f2		 jne	 SHORT $L55660
$L55657:

; 805  : 		return (_Num);

  00032	8b c7		 mov	 eax, edi
  00034	5f		 pop	 edi
  00035	5e		 pop	 esi

; 806  : 		}

  00036	c9		 leave
  00037	c2 08 00	 ret	 8
?count@?$_Tree@V?$_Tmap_traits@HPAVMusicTrack@@U?$less@H@std@@V?$allocator@U?$pair@$$CBHPAVMusicTrack@@@std@@@3@$0A@@std@@@std@@QBEIABH@Z ENDP ; std::_Tree<std::_Tmap_traits<int,MusicTrack *,std::less<int>,std::allocator<std::pair<int const ,MusicTrack *> >,0> >::count
; Function compile flags: /Ogsy
; File f:\nes\nsdl\src\nsc\trackset.cpp
_TEXT	SEGMENT
$T64129 = -24						; size = 8
$T64127 = -24						; size = 8
tv464 = -16						; size = 4
tv462 = -16						; size = 4
tv258 = -12						; size = 4
tv245 = -12						; size = 4
tv251 = -8						; size = 4
tv238 = -8						; size = 4
_i$ = -4						; size = 4
_MUS$ = 8						; size = 4
?getAsm@TrackSet@@UAEXPAVMusicFile@@@Z PROC NEAR	; TrackSet::getAsm
; _this$ = ecx

; 943  : {

  00000	55		 push	 ebp
  00001	8b ec		 mov	 ebp, esp
  00003	83 ec 18	 sub	 esp, 24			; 00000018H

; 944  : 	//----------------------
; 945  : 	//Local
; 946  : 	int	i = 0;

  00006	83 65 fc 00	 and	 DWORD PTR _i$[ebp], 0
  0000a	56		 push	 esi
  0000b	57		 push	 edi
  0000c	8b f9		 mov	 edi, ecx

; 947  : 	list<	MusicItem*>::iterator	itItem;
; 948  : 
; 949  : 	if(fSub == false){

  0000e	80 7f 5c 00	 cmp	 BYTE PTR [edi+92], 0
  00012	0f 85 58 01 00
	00		 jne	 $L64251

; 950  : 		*MUS << "	.byte	$" << hex << setw(2) << setfill('0') << (int)(code[0] & 0xFF) << ", $" << (int)(code[1] & 0xFF) << endl;

  00018	83 7f 2c 10	 cmp	 DWORD PTR [edi+44], 16	; 00000010H
  0001c	72 05		 jb	 SHORT $L64152
  0001e	8b 47 18	 mov	 eax, DWORD PTR [edi+24]
  00021	eb 03		 jmp	 SHORT $L64346
$L64152:
  00023	8d 47 18	 lea	 eax, DWORD PTR [edi+24]
$L64346:
  00026	83 7f 2c 10	 cmp	 DWORD PTR [edi+44], 16	; 00000010H
  0002a	89 45 f8	 mov	 DWORD PTR tv238[ebp], eax
  0002d	72 05		 jb	 SHORT $L64168
  0002f	8b 47 18	 mov	 eax, DWORD PTR [edi+24]
  00032	eb 03		 jmp	 SHORT $L64347
$L64168:
  00034	8d 47 18	 lea	 eax, DWORD PTR [edi+24]
$L64347:
  00037	53		 push	 ebx
  00038	8b 5d 08	 mov	 ebx, DWORD PTR _MUS$[ebp]
  0003b	89 45 f4	 mov	 DWORD PTR tv245[ebp], eax
  0003e	8d 43 3c	 lea	 eax, DWORD PTR [ebx+60]
  00041	f7 db		 neg	 ebx
  00043	1b db		 sbb	 ebx, ebx
  00045	23 d8		 and	 ebx, eax
  00047	8d 45 e8	 lea	 eax, DWORD PTR $T64127[ebp]
  0004a	6a 02		 push	 2
  0004c	50		 push	 eax
  0004d	e8 00 00 00 00	 call	 ?setw@std@@YA?AU?$_Smanip@H@1@H@Z ; std::setw
  00052	59		 pop	 ecx
  00053	59		 pop	 ecx
  00054	68 00 00 00 00	 push	 OFFSET FLAT:?hex@std@@YAAAVios_base@1@AAV21@@Z ; std::hex
  00059	68 00 00 00 00	 push	 OFFSET FLAT:??_C@_08JHDOLHLM@?7?4byte?7$?$AA@
  0005e	53		 push	 ebx
  0005f	89 45 f0	 mov	 DWORD PTR tv464[ebp], eax
  00062	e8 00 00 00 00	 call	 ??$?6U?$char_traits@D@std@@@std@@YAAAV?$basic_ostream@DU?$char_traits@D@std@@@0@AAV10@PBD@Z ; std::operator<<<std::char_traits<char> >
  00067	59		 pop	 ecx
  00068	59		 pop	 ecx
  00069	8b f0		 mov	 esi, eax
  0006b	e8 00 00 00 00	 call	 ??6?$basic_ostream@DU?$char_traits@D@std@@@std@@QAEAAV01@P6AAAVios_base@1@AAV21@@Z@Z ; std::basic_ostream<char,std::char_traits<char> >::operator<<
  00070	8b 4d f0	 mov	 ecx, DWORD PTR tv464[ebp]
  00073	8b f0		 mov	 esi, eax
  00075	e8 00 00 00 00	 call	 ??$?6DU?$char_traits@D@std@@H@std@@YAAAV?$basic_ostream@DU?$char_traits@D@std@@@0@AAV10@ABU?$_Smanip@H@0@@Z ; std::operator<<<char,std::char_traits<char>,int>
  0007a	8b 08		 mov	 ecx, DWORD PTR [eax]
  0007c	8b 49 04	 mov	 ecx, DWORD PTR [ecx+4]
  0007f	c6 44 01 30 30	 mov	 BYTE PTR [ecx+eax+48], 48 ; 00000030H
  00084	8b 4d f8	 mov	 ecx, DWORD PTR tv238[ebp]
  00087	0f b6 49 01	 movzx	 ecx, BYTE PTR [ecx+1]
  0008b	51		 push	 ecx
  0008c	8b 4d f4	 mov	 ecx, DWORD PTR tv245[ebp]
  0008f	0f b6 09	 movzx	 ecx, BYTE PTR [ecx]
  00092	68 00 00 00 00	 push	 OFFSET FLAT:??_C@_03PNPKJHCD@?0?5$?$AA@
  00097	51		 push	 ecx
  00098	50		 push	 eax
  00099	e8 00 00 00 00	 call	 ??6?$basic_ostream@DU?$char_traits@D@std@@@std@@QAEAAV01@H@Z ; std::basic_ostream<char,std::char_traits<char> >::operator<<
  0009e	50		 push	 eax
  0009f	e8 00 00 00 00	 call	 ??$?6U?$char_traits@D@std@@@std@@YAAAV?$basic_ostream@DU?$char_traits@D@std@@@0@AAV10@PBD@Z ; std::operator<<<std::char_traits<char> >
  000a4	59		 pop	 ecx
  000a5	59		 pop	 ecx
  000a6	50		 push	 eax
  000a7	e8 00 00 00 00	 call	 ??6?$basic_ostream@DU?$char_traits@D@std@@@std@@QAEAAV01@H@Z ; std::basic_ostream<char,std::char_traits<char> >::operator<<
  000ac	50		 push	 eax
  000ad	e8 00 00 00 00	 call	 ?endl@std@@YAAAV?$basic_ostream@DU?$char_traits@D@std@@@1@AAV21@@Z ; std::endl

; 951  : 		while(i <= maxTrack){

  000b2	83 7f 58 00	 cmp	 DWORD PTR [edi+88], 0
  000b6	59		 pop	 ecx
  000b7	0f 8c 9b 00 00
	00		 jl	 $L24598
$L24597:

; 952  : 			if(i==0){

  000bd	83 7d fc 00	 cmp	 DWORD PTR _i$[ebp], 0
  000c1	75 07		 jne	 SHORT $L24599

; 953  : 				*MUS << "	.word	$";

  000c3	68 00 00 00 00	 push	 OFFSET FLAT:??_C@_08EAKLHHJG@?7?4word?7$?$AA@

; 954  : 			} else {

  000c8	eb 05		 jmp	 SHORT $L64348
$L24599:

; 955  : 				*MUS << " ,$";

  000ca	68 00 00 00 00	 push	 OFFSET FLAT:??_C@_03LODGNBPP@?5?0$?$AA@
$L64348:
  000cf	53		 push	 ebx
  000d0	e8 00 00 00 00	 call	 ??$?6U?$char_traits@D@std@@@std@@YAAAV?$basic_ostream@DU?$char_traits@D@std@@@0@AAV10@PBD@Z ; std::operator<<<std::char_traits<char> >

; 956  : 			}
; 957  : 			*MUS << hex << setw(4) << setfill('0') << (int)((code[i*2+2] & 0xFF) | ((code[i*2+3] & 0xFF)<<8));

  000d5	83 7f 2c 10	 cmp	 DWORD PTR [edi+44], 16	; 00000010H
  000d9	59		 pop	 ecx
  000da	59		 pop	 ecx
  000db	72 05		 jb	 SHORT $L64209
  000dd	8b 47 18	 mov	 eax, DWORD PTR [edi+24]
  000e0	eb 03		 jmp	 SHORT $L64349
$L64209:
  000e2	8d 47 18	 lea	 eax, DWORD PTR [edi+24]
$L64349:
  000e5	83 7f 2c 10	 cmp	 DWORD PTR [edi+44], 16	; 00000010H
  000e9	89 45 f8	 mov	 DWORD PTR tv251[ebp], eax
  000ec	72 05		 jb	 SHORT $L64224
  000ee	8b 47 18	 mov	 eax, DWORD PTR [edi+24]
  000f1	eb 03		 jmp	 SHORT $L64350
$L64224:
  000f3	8d 47 18	 lea	 eax, DWORD PTR [edi+24]
$L64350:
  000f6	89 45 f4	 mov	 DWORD PTR tv258[ebp], eax
  000f9	8d 45 e8	 lea	 eax, DWORD PTR $T64129[ebp]
  000fc	6a 04		 push	 4
  000fe	50		 push	 eax
  000ff	e8 00 00 00 00	 call	 ?setw@std@@YA?AU?$_Smanip@H@1@H@Z ; std::setw
  00104	8b 75 08	 mov	 esi, DWORD PTR _MUS$[ebp]
  00107	59		 pop	 ecx
  00108	59		 pop	 ecx
  00109	68 00 00 00 00	 push	 OFFSET FLAT:?hex@std@@YAAAVios_base@1@AAV21@@Z ; std::hex
  0010e	83 c6 3c	 add	 esi, 60			; 0000003cH
  00111	89 45 f0	 mov	 DWORD PTR tv462[ebp], eax
  00114	e8 00 00 00 00	 call	 ??6?$basic_ostream@DU?$char_traits@D@std@@@std@@QAEAAV01@P6AAAVios_base@1@AAV21@@Z@Z ; std::basic_ostream<char,std::char_traits<char> >::operator<<
  00119	8b 4d f0	 mov	 ecx, DWORD PTR tv462[ebp]
  0011c	8b f0		 mov	 esi, eax
  0011e	e8 00 00 00 00	 call	 ??$?6DU?$char_traits@D@std@@H@std@@YAAAV?$basic_ostream@DU?$char_traits@D@std@@@0@AAV10@ABU?$_Smanip@H@0@@Z ; std::operator<<<char,std::char_traits<char>,int>
  00123	8b 08		 mov	 ecx, DWORD PTR [eax]
  00125	8b 49 04	 mov	 ecx, DWORD PTR [ecx+4]
  00128	8b 75 fc	 mov	 esi, DWORD PTR _i$[ebp]
  0012b	8b 55 f4	 mov	 edx, DWORD PTR tv258[ebp]
  0012e	c6 44 01 30 30	 mov	 BYTE PTR [ecx+eax+48], 48 ; 00000030H
  00133	33 c9		 xor	 ecx, ecx
  00135	03 f6		 add	 esi, esi
  00137	8a 6c 16 03	 mov	 ch, BYTE PTR [esi+edx+3]
  0013b	8b 55 f8	 mov	 edx, DWORD PTR tv251[ebp]
  0013e	8a 4c 16 02	 mov	 cl, BYTE PTR [esi+edx+2]
  00142	51		 push	 ecx
  00143	50		 push	 eax
  00144	e8 00 00 00 00	 call	 ??6?$basic_ostream@DU?$char_traits@D@std@@@std@@QAEAAV01@H@Z ; std::basic_ostream<char,std::char_traits<char> >::operator<<

; 958  : 			i++;

  00149	ff 45 fc	 inc	 DWORD PTR _i$[ebp]
  0014c	8b 45 fc	 mov	 eax, DWORD PTR _i$[ebp]
  0014f	3b 47 58	 cmp	 eax, DWORD PTR [edi+88]
  00152	0f 8e 65 ff ff
	ff		 jle	 $L24597
$L24598:

; 959  : 		}
; 960  : 		*MUS << dec << endl;

  00158	8b 75 08	 mov	 esi, DWORD PTR _MUS$[ebp]
  0015b	68 00 00 00 00	 push	 OFFSET FLAT:?dec@std@@YAAAVios_base@1@AAV21@@Z ; std::dec
  00160	83 c6 3c	 add	 esi, 60			; 0000003cH
  00163	e8 00 00 00 00	 call	 ??6?$basic_ostream@DU?$char_traits@D@std@@@std@@QAEAAV01@P6AAAVios_base@1@AAV21@@Z@Z ; std::basic_ostream<char,std::char_traits<char> >::operator<<
  00168	50		 push	 eax
  00169	e8 00 00 00 00	 call	 ?endl@std@@YAAAV?$basic_ostream@DU?$char_traits@D@std@@@1@AAV21@@Z ; std::endl
  0016e	59		 pop	 ecx
  0016f	5b		 pop	 ebx
$L64251:

; 961  : 	}
; 962  : 
; 963  : 	if(!ptcItem.empty()){

  00170	83 7f 10 00	 cmp	 DWORD PTR [edi+16], 0
  00174	74 1b		 je	 SHORT $L24612

; 964  : 		itItem = ptcItem.begin();

  00176	8b 47 0c	 mov	 eax, DWORD PTR [edi+12]
  00179	8b 30		 mov	 esi, DWORD PTR [eax]

; 965  : 		while(itItem != ptcItem.end()){

  0017b	3b f0		 cmp	 esi, eax
  0017d	74 12		 je	 SHORT $L24612
$L24611:

; 966  : 			(*itItem)->getAsm(MUS);

  0017f	8b 4e 08	 mov	 ecx, DWORD PTR [esi+8]
  00182	ff 75 08	 push	 DWORD PTR _MUS$[ebp]
  00185	8b 01		 mov	 eax, DWORD PTR [ecx]
  00187	ff 50 08	 call	 DWORD PTR [eax+8]

; 967  : 			itItem++;

  0018a	8b 36		 mov	 esi, DWORD PTR [esi]
  0018c	3b 77 0c	 cmp	 esi, DWORD PTR [edi+12]
  0018f	75 ee		 jne	 SHORT $L24611
$L24612:
  00191	5f		 pop	 edi
  00192	5e		 pop	 esi

; 968  : 		}
; 969  : 	}
; 970  : }

  00193	c9		 leave
  00194	c2 04 00	 ret	 4
?getAsm@TrackSet@@UAEXPAVMusicFile@@@Z ENDP		; TrackSet::getAsm
;	COMDAT xdata$x
; File c:\program files (x86)\microsoft visual studio .net 2003\vc7\include\xmemory
xdata$x	SEGMENT
$T68642	DD	0ffffffffH
	DD	FLAT:$L68201
$T68626	DD	019930520H
	DD	01H
	DD	FLAT:$T68642
	DD	2 DUP(00H)
	DD	2 DUP(00H)
; Function compile flags: /Ogsy
; File c:\program files (x86)\microsoft visual studio .net 2003\vc7\include\xtree
xdata$x	ENDS
;	COMDAT ?erase@?$_Tree@V?$_Tmap_traits@HPAVMusicTrack@@U?$less@H@std@@V?$allocator@U?$pair@$$CBHPAVMusicTrack@@@std@@@3@$0A@@std@@@std@@QAE?AViterator@12@V312@@Z
_TEXT	SEGMENT
$T68195 = -80						; size = 40
$T68196 = -40						; size = 28
__$EHRec$ = -12						; size = 12
_this$ = 8						; size = 4
___$ReturnUdt$ = 12					; size = 4
__Where$ = 16						; size = 4
?erase@?$_Tree@V?$_Tmap_traits@HPAVMusicTrack@@U?$less@H@std@@V?$allocator@U?$pair@$$CBHPAVMusicTrack@@@std@@@3@$0A@@std@@@std@@QAE?AViterator@12@V312@@Z PROC NEAR ; std::_Tree<std::_Tmap_traits<int,MusicTrack *,std::less<int>,std::allocator<std::pair<int const ,MusicTrack *> >,0> >::erase, COMDAT

; 590  : 		{	// erase element at _Where

  00000	b8 00 00 00 00	 mov	 eax, __ehhandler$?erase@?$_Tree@V?$_Tmap_traits@HPAVMusicTrack@@U?$less@H@std@@V?$allocator@U?$pair@$$CBHPAVMusicTrack@@@std@@@3@$0A@@std@@@std@@QAE?AViterator@12@V312@@Z
  00005	e8 00 00 00 00	 call	 __EH_prolog
  0000a	83 ec 44	 sub	 esp, 68			; 00000044H
  0000d	53		 push	 ebx

; 591  : 		if (_Isnil(_Where._Mynode()))

  0000e	8b 5d 10	 mov	 ebx, DWORD PTR __Where$[ebp]
  00011	80 7b 15 00	 cmp	 BYTE PTR [ebx+21], 0
  00015	56		 push	 esi
  00016	57		 push	 edi
  00017	74 32		 je	 SHORT $L68213

; 592  : 			_THROW(out_of_range, "invalid map/set<T> iterator");

  00019	68 00 00 00 00	 push	 OFFSET FLAT:??_C@_0BM@PAPJHAGI@invalid?5map?1set?$DMT?$DO?5iterator?$AA@
  0001e	8d 4d d8	 lea	 ecx, DWORD PTR $T68196[ebp]
  00021	e8 00 00 00 00	 call	 ??0?$basic_string@DU?$char_traits@D@std@@V?$allocator@D@2@@std@@QAE@PBD@Z ; std::basic_string<char,std::char_traits<char>,std::allocator<char> >::basic_string<char,std::char_traits<char>,std::allocator<char> >
  00026	83 65 fc 00	 and	 DWORD PTR __$EHRec$[ebp+8], 0
  0002a	8d 45 d8	 lea	 eax, DWORD PTR $T68196[ebp]
  0002d	50		 push	 eax
  0002e	8d 4d b0	 lea	 ecx, DWORD PTR $T68195[ebp]
  00031	e8 00 00 00 00	 call	 ??0logic_error@std@@QAE@ABV?$basic_string@DU?$char_traits@D@std@@V?$allocator@D@2@@1@@Z ; std::logic_error::logic_error
  00036	68 00 00 00 00	 push	 OFFSET FLAT:__TI3?AVout_of_range@std@@
  0003b	8d 45 b0	 lea	 eax, DWORD PTR $T68195[ebp]
  0003e	50		 push	 eax
  0003f	c7 45 b0 00 00
	00 00		 mov	 DWORD PTR $T68195[ebp], OFFSET FLAT:??_7out_of_range@std@@6B@
  00046	e8 00 00 00 00	 call	 __CxxThrowException@8
$L68643:
$L68213:

; 593  : 		_Nodeptr _Erasednode = _Where._Mynode();	// node to erase
; 594  : 		++_Where;	// save successor iterator for return

  0004b	8d 55 10	 lea	 edx, DWORD PTR __Where$[ebp]
  0004e	e8 00 00 00 00	 call	 ?_Inc@const_iterator@?$_Tree@V?$_Tmap_traits@HPAVMusicTrack@@U?$less@H@std@@V?$allocator@U?$pair@$$CBHPAVMusicTrack@@@std@@@3@$0A@@std@@@std@@QAEXXZ ; std::_Tree<std::_Tmap_traits<int,MusicTrack *,std::less<int>,std::allocator<std::pair<int const ,MusicTrack *> >,0> >::const_iterator::_Inc

; 595  : 
; 596  : 		_Nodeptr _Fixnode;	// the node to recolor as needed
; 597  : 		_Nodeptr _Fixnodeparent;	// parent of _Fixnode (which may be nil)
; 598  : 		_Nodeptr _Pnode = _Erasednode;
; 599  : 
; 600  : 		if (_Isnil(_Left(_Pnode)))

  00053	8b 0b		 mov	 ecx, DWORD PTR [ebx]
  00055	80 79 15 00	 cmp	 BYTE PTR [ecx+21], 0
  00059	74 05		 je	 SHORT $L26240

; 601  : 			_Fixnode = _Right(_Pnode);	// must stitch up right subtree

  0005b	8b 7b 08	 mov	 edi, DWORD PTR [ebx+8]

; 602  : 		else if (_Isnil(_Right(_Pnode)))

  0005e	eb 17		 jmp	 SHORT $L68633
$L26240:
  00060	8b 43 08	 mov	 eax, DWORD PTR [ebx+8]
  00063	80 78 15 00	 cmp	 BYTE PTR [eax+21], 0
  00067	74 04		 je	 SHORT $L26242

; 603  : 			_Fixnode = _Left(_Pnode);	// must stitch up left subtree

  00069	8b f9		 mov	 edi, ecx

; 604  : 		else

  0006b	eb 0a		 jmp	 SHORT $L68633
$L26242:

; 605  : 			{	// two subtrees, must lift successor node to replace erased
; 606  : 			_Pnode = _Where._Mynode();	// _Pnode is successor node
; 607  : 			_Fixnode = _Right(_Pnode);	// _Fixnode is its only subtree

  0006d	8b 45 10	 mov	 eax, DWORD PTR __Where$[ebp]

; 608  : 			}
; 609  : 
; 610  : 		if (_Pnode == _Erasednode)

  00070	3b c3		 cmp	 eax, ebx
  00072	8b 78 08	 mov	 edi, DWORD PTR [eax+8]
  00075	75 76		 jne	 SHORT $L26244
$L68633:

; 611  : 			{	// at most one subtree, relink it
; 612  : 			_Fixnodeparent = _Parent(_Erasednode);
; 613  : 			if (!_Isnil(_Fixnode))

  00077	80 7f 15 00	 cmp	 BYTE PTR [edi+21], 0
  0007b	8b 73 04	 mov	 esi, DWORD PTR [ebx+4]
  0007e	75 03		 jne	 SHORT $L26245

; 614  : 				_Parent(_Fixnode) = _Fixnodeparent;	// link up

  00080	89 77 04	 mov	 DWORD PTR [edi+4], esi
$L26245:

; 615  : 
; 616  : 			if (_Root() == _Erasednode)

  00083	8b 4d 08	 mov	 ecx, DWORD PTR _this$[ebp]
  00086	8b 41 04	 mov	 eax, DWORD PTR [ecx+4]
  00089	39 58 04	 cmp	 DWORD PTR [eax+4], ebx
  0008c	75 05		 jne	 SHORT $L26246

; 617  : 				_Root() = _Fixnode;	// link down from root

  0008e	89 78 04	 mov	 DWORD PTR [eax+4], edi

; 618  : 			else if (_Left(_Fixnodeparent) == _Erasednode)

  00091	eb 0b		 jmp	 SHORT $L26249
$L26246:
  00093	39 1e		 cmp	 DWORD PTR [esi], ebx
  00095	75 04		 jne	 SHORT $L26248

; 619  : 				_Left(_Fixnodeparent) = _Fixnode;	// link down to left

  00097	89 3e		 mov	 DWORD PTR [esi], edi

; 620  : 			else

  00099	eb 03		 jmp	 SHORT $L26249
$L26248:

; 621  : 				_Right(_Fixnodeparent) = _Fixnode;	// link down to right

  0009b	89 7e 08	 mov	 DWORD PTR [esi+8], edi
$L26249:

; 622  : 
; 623  : 			if (_Lmost() == _Erasednode)

  0009e	8b 51 04	 mov	 edx, DWORD PTR [ecx+4]
  000a1	39 1a		 cmp	 DWORD PTR [edx], ebx
  000a3	75 1c		 jne	 SHORT $L26250

; 624  : 				_Lmost() = _Isnil(_Fixnode)
; 625  : 					? _Fixnodeparent	// smallest is parent of erased node
; 626  : 					: _Min(_Fixnode);	// smallest in relinked subtree

  000a5	80 7f 15 00	 cmp	 BYTE PTR [edi+21], 0
  000a9	74 04		 je	 SHORT $L68197
  000ab	8b ce		 mov	 ecx, esi
  000ad	eb 10		 jmp	 SHORT $L68198
$L68197:
  000af	8b 07		 mov	 eax, DWORD PTR [edi]
  000b1	8b cf		 mov	 ecx, edi
  000b3	eb 04		 jmp	 SHORT $L68636
$L68307:
  000b5	8b c8		 mov	 ecx, eax
  000b7	8b 01		 mov	 eax, DWORD PTR [ecx]
$L68636:
  000b9	80 78 15 00	 cmp	 BYTE PTR [eax+21], 0
  000bd	74 f6		 je	 SHORT $L68307
$L68198:
  000bf	89 0a		 mov	 DWORD PTR [edx], ecx
$L26250:

; 627  : 
; 628  : 			if (_Rmost() == _Erasednode)

  000c1	8b 45 08	 mov	 eax, DWORD PTR _this$[ebp]
  000c4	8b 50 04	 mov	 edx, DWORD PTR [eax+4]
  000c7	39 5a 08	 cmp	 DWORD PTR [edx+8], ebx
  000ca	75 7b		 jne	 SHORT $L68454

; 629  : 				_Rmost() = _Isnil(_Fixnode)
; 630  : 					? _Fixnodeparent	// largest is parent of erased node
; 631  : 					: _Max(_Fixnode);	// largest in relinked subtree

  000cc	80 7f 15 00	 cmp	 BYTE PTR [edi+21], 0
  000d0	74 04		 je	 SHORT $L68199
  000d2	8b ce		 mov	 ecx, esi
  000d4	eb 12		 jmp	 SHORT $L68200
$L68199:
  000d6	8b 47 08	 mov	 eax, DWORD PTR [edi+8]
  000d9	8b cf		 mov	 ecx, edi
  000db	eb 05		 jmp	 SHORT $L68637
$L68348:
  000dd	8b c8		 mov	 ecx, eax
  000df	8b 41 08	 mov	 eax, DWORD PTR [ecx+8]
$L68637:
  000e2	80 78 15 00	 cmp	 BYTE PTR [eax+21], 0
  000e6	74 f5		 je	 SHORT $L68348
$L68200:
  000e8	89 4a 08	 mov	 DWORD PTR [edx+8], ecx

; 632  : 			}
; 633  : 		else

  000eb	eb 5a		 jmp	 SHORT $L68454
$L26244:

; 634  : 			{	// erased has two subtrees, _Pnode is successor to erased
; 635  : 			_Parent(_Left(_Erasednode)) = _Pnode;	// link left up

  000ed	89 41 04	 mov	 DWORD PTR [ecx+4], eax

; 636  : 			_Left(_Pnode) = _Left(_Erasednode);	// link successor down

  000f0	8b 0b		 mov	 ecx, DWORD PTR [ebx]
  000f2	89 08		 mov	 DWORD PTR [eax], ecx

; 637  : 
; 638  : 			if (_Pnode == _Right(_Erasednode))

  000f4	3b 43 08	 cmp	 eax, DWORD PTR [ebx+8]
  000f7	75 04		 jne	 SHORT $L26253

; 639  : 				_Fixnodeparent = _Pnode;	// successor is next to erased

  000f9	8b f0		 mov	 esi, eax

; 640  : 			else

  000fb	eb 1a		 jmp	 SHORT $L26254
$L26253:

; 641  : 				{	// successor further down, link in place of erased
; 642  : 				_Fixnodeparent = _Parent(_Pnode);	// parent is successor's
; 643  : 				if (!_Isnil(_Fixnode))

  000fd	80 7f 15 00	 cmp	 BYTE PTR [edi+21], 0
  00101	8b 70 04	 mov	 esi, DWORD PTR [eax+4]
  00104	75 03		 jne	 SHORT $L26255

; 644  : 					_Parent(_Fixnode) = _Fixnodeparent;	// link fix up

  00106	89 77 04	 mov	 DWORD PTR [edi+4], esi
$L26255:

; 645  : 				_Left(_Fixnodeparent) = _Fixnode;	// link fix down

  00109	89 3e		 mov	 DWORD PTR [esi], edi

; 646  : 				_Right(_Pnode) = _Right(_Erasednode);	// link successor down

  0010b	8b 4b 08	 mov	 ecx, DWORD PTR [ebx+8]
  0010e	89 48 08	 mov	 DWORD PTR [eax+8], ecx

; 647  : 				_Parent(_Right(_Erasednode)) = _Pnode;	// link right up

  00111	8b 4b 08	 mov	 ecx, DWORD PTR [ebx+8]
  00114	89 41 04	 mov	 DWORD PTR [ecx+4], eax
$L26254:

; 648  : 				}
; 649  : 
; 650  : 			if (_Root() == _Erasednode)

  00117	8b 4d 08	 mov	 ecx, DWORD PTR _this$[ebp]
  0011a	8b 49 04	 mov	 ecx, DWORD PTR [ecx+4]
  0011d	39 59 04	 cmp	 DWORD PTR [ecx+4], ebx
  00120	75 05		 jne	 SHORT $L26256

; 651  : 				_Root() = _Pnode;	// link down from root

  00122	89 41 04	 mov	 DWORD PTR [ecx+4], eax

; 652  : 			else if (_Left(_Parent(_Erasednode)) == _Erasednode)

  00125	eb 0e		 jmp	 SHORT $L26259
$L26256:
  00127	8b 4b 04	 mov	 ecx, DWORD PTR [ebx+4]
  0012a	39 19		 cmp	 DWORD PTR [ecx], ebx
  0012c	75 04		 jne	 SHORT $L26258

; 653  : 				_Left(_Parent(_Erasednode)) = _Pnode;	// link down to left

  0012e	89 01		 mov	 DWORD PTR [ecx], eax

; 654  : 			else

  00130	eb 03		 jmp	 SHORT $L26259
$L26258:

; 655  : 				_Right(_Parent(_Erasednode)) = _Pnode;	// link down to right

  00132	89 41 08	 mov	 DWORD PTR [ecx+8], eax
$L26259:

; 656  : 
; 657  : 			_Parent(_Pnode) = _Parent(_Erasednode);	// link successor up

  00135	8b 4b 04	 mov	 ecx, DWORD PTR [ebx+4]
  00138	89 48 04	 mov	 DWORD PTR [eax+4], ecx

; 658  : 			std::swap(_Color(_Pnode), _Color(_Erasednode));	// recolor it

  0013b	8a 53 14	 mov	 dl, BYTE PTR [ebx+20]
  0013e	8a 48 14	 mov	 cl, BYTE PTR [eax+20]
  00141	88 50 14	 mov	 BYTE PTR [eax+20], dl
  00144	88 4b 14	 mov	 BYTE PTR [ebx+20], cl
$L68454:

; 659  : 			}
; 660  : 
; 661  : 		if (_Color(_Erasednode) == _Black)

  00147	80 7b 14 01	 cmp	 BYTE PTR [ebx+20], 1
  0014b	0f 85 12 01 00
	00		 jne	 $L26265

; 662  : 			{	// erasing black link, must recolor/rebalance tree
; 663  : 			for (; _Fixnode != _Root() && _Color(_Fixnode) == _Black;
; 664  : 				_Fixnodeparent = _Parent(_Fixnode))

  00151	e9 c1 00 00 00	 jmp	 $L68639
$L26266:
  00156	80 7f 14 01	 cmp	 BYTE PTR [edi+20], 1
  0015a	0f 85 ff 00 00
	00		 jne	 $L26268

; 665  : 				if (_Fixnode == _Left(_Fixnodeparent))

  00160	8b 0e		 mov	 ecx, DWORD PTR [esi]
  00162	3b f9		 cmp	 edi, ecx
  00164	75 77		 jne	 SHORT $L26269

; 666  : 					{	// fixup left subtree
; 667  : 					_Pnode = _Right(_Fixnodeparent);

  00166	8b 4e 08	 mov	 ecx, DWORD PTR [esi+8]

; 668  : 					if (_Color(_Pnode) == _Red)

  00169	80 79 14 00	 cmp	 BYTE PTR [ecx+20], 0
  0016d	75 15		 jne	 SHORT $L26270

; 669  : 						{	// rotate red up from right subtree
; 670  : 						_Color(_Pnode) = _Black;
; 671  : 						_Color(_Fixnodeparent) = _Red;
; 672  : 						_Lrotate(_Fixnodeparent);

  0016f	ff 75 08	 push	 DWORD PTR _this$[ebp]
  00172	c6 41 14 01	 mov	 BYTE PTR [ecx+20], 1
  00176	8b ce		 mov	 ecx, esi
  00178	c6 46 14 00	 mov	 BYTE PTR [esi+20], 0
  0017c	e8 00 00 00 00	 call	 ?_Lrotate@?$_Tree@V?$_Tmap_traits@HPAVMusicTrack@@U?$less@H@std@@V?$allocator@U?$pair@$$CBHPAVMusicTrack@@@std@@@3@$0A@@std@@@std@@IAEXPAU_Node@?$_Tree_nod@V?$_Tmap_traits@HPAVMusicTrack@@U?$less@H@std@@V?$allocator@U?$pair@$$CBHPAVMusicTrack@@@std@@@3@$0A@@std@@@2@@Z ; std::_Tree<std::_Tmap_traits<int,MusicTrack *,std::less<int>,std::allocator<std::pair<int const ,MusicTrack *> >,0> >::_Lrotate

; 673  : 						_Pnode = _Right(_Fixnodeparent);

  00181	8b 4e 08	 mov	 ecx, DWORD PTR [esi+8]
$L26270:

; 674  : 						}
; 675  : 
; 676  : 					if (_Isnil(_Pnode))

  00184	80 79 15 00	 cmp	 BYTE PTR [ecx+21], 0

; 677  : 						_Fixnode = _Fixnodeparent;	// shouldn't happen
; 678  : 					else if (_Color(_Left(_Pnode)) == _Black

  00188	0f 85 84 00 00
	00		 jne	 $L68640

; 679  : 						&& _Color(_Right(_Pnode)) == _Black)

  0018e	8b 01		 mov	 eax, DWORD PTR [ecx]
  00190	80 78 14 01	 cmp	 BYTE PTR [eax+20], 1
  00194	75 09		 jne	 SHORT $L26273
  00196	8b 41 08	 mov	 eax, DWORD PTR [ecx+8]
  00199	80 78 14 01	 cmp	 BYTE PTR [eax+20], 1
  0019d	74 6f		 je	 SHORT $L68641
$L26273:

; 680  : 						{	// redden right subtree with black children
; 681  : 						_Color(_Pnode) = _Red;
; 682  : 						_Fixnode = _Fixnodeparent;
; 683  : 						}
; 684  : 					else
; 685  : 						{	// must rearrange right subtree
; 686  : 						if (_Color(_Right(_Pnode)) == _Black)

  0019f	8b 41 08	 mov	 eax, DWORD PTR [ecx+8]
  001a2	80 78 14 01	 cmp	 BYTE PTR [eax+20], 1
  001a6	75 15		 jne	 SHORT $L26275

; 687  : 							{	// rotate red up from left sub-subtree
; 688  : 							_Color(_Left(_Pnode)) = _Black;

  001a8	8b 01		 mov	 eax, DWORD PTR [ecx]

; 689  : 							_Color(_Pnode) = _Red;
; 690  : 							_Rrotate(_Pnode);

  001aa	ff 75 08	 push	 DWORD PTR _this$[ebp]
  001ad	c6 40 14 01	 mov	 BYTE PTR [eax+20], 1
  001b1	c6 41 14 00	 mov	 BYTE PTR [ecx+20], 0
  001b5	e8 00 00 00 00	 call	 ?_Rrotate@?$_Tree@V?$_Tmap_traits@HPAVMusicTrack@@U?$less@H@std@@V?$allocator@U?$pair@$$CBHPAVMusicTrack@@@std@@@3@$0A@@std@@@std@@IAEXPAU_Node@?$_Tree_nod@V?$_Tmap_traits@HPAVMusicTrack@@U?$less@H@std@@V?$allocator@U?$pair@$$CBHPAVMusicTrack@@@std@@@3@$0A@@std@@@2@@Z ; std::_Tree<std::_Tmap_traits<int,MusicTrack *,std::less<int>,std::allocator<std::pair<int const ,MusicTrack *> >,0> >::_Rrotate

; 691  : 							_Pnode = _Right(_Fixnodeparent);

  001ba	8b 4e 08	 mov	 ecx, DWORD PTR [esi+8]
$L26275:

; 692  : 							}
; 693  : 
; 694  : 						_Color(_Pnode) = _Color(_Fixnodeparent);

  001bd	8a 46 14	 mov	 al, BYTE PTR [esi+20]

; 695  : 						_Color(_Fixnodeparent) = _Black;
; 696  : 						_Color(_Right(_Pnode)) = _Black;
; 697  : 						_Lrotate(_Fixnodeparent);

  001c0	ff 75 08	 push	 DWORD PTR _this$[ebp]
  001c3	88 41 14	 mov	 BYTE PTR [ecx+20], al
  001c6	c6 46 14 01	 mov	 BYTE PTR [esi+20], 1
  001ca	8b 41 08	 mov	 eax, DWORD PTR [ecx+8]
  001cd	8b ce		 mov	 ecx, esi
  001cf	c6 40 14 01	 mov	 BYTE PTR [eax+20], 1
  001d3	e8 00 00 00 00	 call	 ?_Lrotate@?$_Tree@V?$_Tmap_traits@HPAVMusicTrack@@U?$less@H@std@@V?$allocator@U?$pair@$$CBHPAVMusicTrack@@@std@@@3@$0A@@std@@@std@@IAEXPAU_Node@?$_Tree_nod@V?$_Tmap_traits@HPAVMusicTrack@@U?$less@H@std@@V?$allocator@U?$pair@$$CBHPAVMusicTrack@@@std@@@3@$0A@@std@@@2@@Z ; std::_Tree<std::_Tmap_traits<int,MusicTrack *,std::less<int>,std::allocator<std::pair<int const ,MusicTrack *> >,0> >::_Lrotate

; 698  : 						break;	// tree now recolored/rebalanced

  001d8	e9 82 00 00 00	 jmp	 $L26268
$L26269:

; 699  : 						}
; 700  : 					}
; 701  : 				else
; 702  : 					{	// fixup right subtree
; 703  : 					_Pnode = _Left(_Fixnodeparent);
; 704  : 					if (_Color(_Pnode) == _Red)

  001dd	80 79 14 00	 cmp	 BYTE PTR [ecx+20], 0
  001e1	75 14		 jne	 SHORT $L26277

; 705  : 						{	// rotate red up from left subtree
; 706  : 						_Color(_Pnode) = _Black;
; 707  : 						_Color(_Fixnodeparent) = _Red;
; 708  : 						_Rrotate(_Fixnodeparent);

  001e3	ff 75 08	 push	 DWORD PTR _this$[ebp]
  001e6	c6 41 14 01	 mov	 BYTE PTR [ecx+20], 1
  001ea	8b ce		 mov	 ecx, esi
  001ec	c6 46 14 00	 mov	 BYTE PTR [esi+20], 0
  001f0	e8 00 00 00 00	 call	 ?_Rrotate@?$_Tree@V?$_Tmap_traits@HPAVMusicTrack@@U?$less@H@std@@V?$allocator@U?$pair@$$CBHPAVMusicTrack@@@std@@@3@$0A@@std@@@std@@IAEXPAU_Node@?$_Tree_nod@V?$_Tmap_traits@HPAVMusicTrack@@U?$less@H@std@@V?$allocator@U?$pair@$$CBHPAVMusicTrack@@@std@@@3@$0A@@std@@@2@@Z ; std::_Tree<std::_Tmap_traits<int,MusicTrack *,std::less<int>,std::allocator<std::pair<int const ,MusicTrack *> >,0> >::_Rrotate

; 709  : 						_Pnode = _Left(_Fixnodeparent);

  001f5	8b 0e		 mov	 ecx, DWORD PTR [esi]
$L26277:

; 710  : 						}
; 711  : 					if (_Isnil(_Pnode))

  001f7	80 79 15 00	 cmp	 BYTE PTR [ecx+21], 0

; 712  : 						_Fixnode = _Fixnodeparent;	// shouldn't happen
; 713  : 					else if (_Color(_Right(_Pnode)) == _Black

  001fb	75 15		 jne	 SHORT $L68640

; 714  : 						&& _Color(_Left(_Pnode)) == _Black)

  001fd	8b 41 08	 mov	 eax, DWORD PTR [ecx+8]
  00200	80 78 14 01	 cmp	 BYTE PTR [eax+20], 1
  00204	75 22		 jne	 SHORT $L26280
  00206	8b 01		 mov	 eax, DWORD PTR [ecx]
  00208	80 78 14 01	 cmp	 BYTE PTR [eax+20], 1
  0020c	75 1a		 jne	 SHORT $L26280
$L68641:

; 715  : 						{	// redden left subtree with black children
; 716  : 						_Color(_Pnode) = _Red;

  0020e	c6 41 14 00	 mov	 BYTE PTR [ecx+20], 0
$L68640:

; 717  : 						_Fixnode = _Fixnodeparent;

  00212	8b fe		 mov	 edi, esi
  00214	8b 76 04	 mov	 esi, DWORD PTR [esi+4]
$L68639:
  00217	8b 45 08	 mov	 eax, DWORD PTR _this$[ebp]
  0021a	8b 40 04	 mov	 eax, DWORD PTR [eax+4]
  0021d	3b 78 04	 cmp	 edi, DWORD PTR [eax+4]
  00220	0f 85 30 ff ff
	ff		 jne	 $L26266

; 662  : 			{	// erasing black link, must recolor/rebalance tree
; 663  : 			for (; _Fixnode != _Root() && _Color(_Fixnode) == _Black;
; 664  : 				_Fixnodeparent = _Parent(_Fixnode))

  00226	eb 37		 jmp	 SHORT $L26268
$L26280:

; 718  : 						}
; 719  : 					else
; 720  : 						{	// must rearrange left subtree
; 721  : 						if (_Color(_Left(_Pnode)) == _Black)

  00228	8b 01		 mov	 eax, DWORD PTR [ecx]
  0022a	80 78 14 01	 cmp	 BYTE PTR [eax+20], 1
  0022e	75 15		 jne	 SHORT $L26282

; 722  : 							{	// rotate red up from right sub-subtree
; 723  : 							_Color(_Right(_Pnode)) = _Black;

  00230	8b 41 08	 mov	 eax, DWORD PTR [ecx+8]

; 724  : 							_Color(_Pnode) = _Red;
; 725  : 							_Lrotate(_Pnode);

  00233	ff 75 08	 push	 DWORD PTR _this$[ebp]
  00236	c6 40 14 01	 mov	 BYTE PTR [eax+20], 1
  0023a	c6 41 14 00	 mov	 BYTE PTR [ecx+20], 0
  0023e	e8 00 00 00 00	 call	 ?_Lrotate@?$_Tree@V?$_Tmap_traits@HPAVMusicTrack@@U?$less@H@std@@V?$allocator@U?$pair@$$CBHPAVMusicTrack@@@std@@@3@$0A@@std@@@std@@IAEXPAU_Node@?$_Tree_nod@V?$_Tmap_traits@HPAVMusicTrack@@U?$less@H@std@@V?$allocator@U?$pair@$$CBHPAVMusicTrack@@@std@@@3@$0A@@std@@@2@@Z ; std::_Tree<std::_Tmap_traits<int,MusicTrack *,std::less<int>,std::allocator<std::pair<int const ,MusicTrack *> >,0> >::_Lrotate

; 726  : 							_Pnode = _Left(_Fixnodeparent);

  00243	8b 0e		 mov	 ecx, DWORD PTR [esi]
$L26282:

; 727  : 							}
; 728  : 
; 729  : 						_Color(_Pnode) = _Color(_Fixnodeparent);

  00245	8a 46 14	 mov	 al, BYTE PTR [esi+20]

; 730  : 						_Color(_Fixnodeparent) = _Black;
; 731  : 						_Color(_Left(_Pnode)) = _Black;
; 732  : 						_Rrotate(_Fixnodeparent);

  00248	ff 75 08	 push	 DWORD PTR _this$[ebp]
  0024b	88 41 14	 mov	 BYTE PTR [ecx+20], al
  0024e	c6 46 14 01	 mov	 BYTE PTR [esi+20], 1
  00252	8b 01		 mov	 eax, DWORD PTR [ecx]
  00254	8b ce		 mov	 ecx, esi
  00256	c6 40 14 01	 mov	 BYTE PTR [eax+20], 1
  0025a	e8 00 00 00 00	 call	 ?_Rrotate@?$_Tree@V?$_Tmap_traits@HPAVMusicTrack@@U?$less@H@std@@V?$allocator@U?$pair@$$CBHPAVMusicTrack@@@std@@@3@$0A@@std@@@std@@IAEXPAU_Node@?$_Tree_nod@V?$_Tmap_traits@HPAVMusicTrack@@U?$less@H@std@@V?$allocator@U?$pair@$$CBHPAVMusicTrack@@@std@@@3@$0A@@std@@@2@@Z ; std::_Tree<std::_Tmap_traits<int,MusicTrack *,std::less<int>,std::allocator<std::pair<int const ,MusicTrack *> >,0> >::_Rrotate
$L26268:

; 733  : 						break;	// tree now recolored/rebalanced
; 734  : 						}
; 735  : 					}
; 736  : 
; 737  : 			_Color(_Fixnode) = _Black;	// ensure stopping node is black

  0025f	c6 47 14 01	 mov	 BYTE PTR [edi+20], 1
$L26265:

; 738  : 			}
; 739  : 
; 740  : 		this->_Alnod.destroy(_Erasednode);	// destroy, free erased node
; 741  : 		this->_Alnod.deallocate(_Erasednode, 1);

  00263	53		 push	 ebx
  00264	e8 00 00 00 00	 call	 ??3@YAXPAX@Z		; operator delete
  00269	59		 pop	 ecx

; 742  : 
; 743  : 		if (0 < _Mysize)

  0026a	8b 4d 08	 mov	 ecx, DWORD PTR _this$[ebp]
  0026d	8b 41 08	 mov	 eax, DWORD PTR [ecx+8]
  00270	85 c0		 test	 eax, eax
  00272	5f		 pop	 edi
  00273	5e		 pop	 esi
  00274	5b		 pop	 ebx
  00275	76 04		 jbe	 SHORT $L26283

; 744  : 			--_Mysize;

  00277	48		 dec	 eax
  00278	89 41 08	 mov	 DWORD PTR [ecx+8], eax
$L26283:

; 745  : 
; 746  : 		return (_Where);	// return successor iterator

  0027b	8b 4d 10	 mov	 ecx, DWORD PTR __Where$[ebp]
  0027e	8b 45 0c	 mov	 eax, DWORD PTR ___$ReturnUdt$[ebp]
  00281	89 08		 mov	 DWORD PTR [eax], ecx

; 747  : 		}

  00283	8b 4d f4	 mov	 ecx, DWORD PTR __$EHRec$[ebp]
  00286	64 89 0d 00 00
	00 00		 mov	 DWORD PTR fs:__except_list, ecx
  0028d	c9		 leave
  0028e	c2 0c 00	 ret	 12			; 0000000cH
$L68635:
_TEXT	ENDS
;	COMDAT text$x
text$x	SEGMENT
$L68201:
  00000	8d 4d d8	 lea	 ecx, DWORD PTR $T68196[ebp]
  00003	e9 00 00 00 00	 jmp	 ??1?$basic_string@DU?$char_traits@D@std@@V?$allocator@D@2@@std@@QAE@XZ ; std::basic_string<char,std::char_traits<char>,std::allocator<char> >::~basic_string<char,std::char_traits<char>,std::allocator<char> >
__ehhandler$?erase@?$_Tree@V?$_Tmap_traits@HPAVMusicTrack@@U?$less@H@std@@V?$allocator@U?$pair@$$CBHPAVMusicTrack@@@std@@@3@$0A@@std@@@std@@QAE?AViterator@12@V312@@Z:
  00008	b8 00 00 00 00	 mov	 eax, OFFSET FLAT:$T68626
  0000d	e9 00 00 00 00	 jmp	 ___CxxFrameHandler
text$x	ENDS
?erase@?$_Tree@V?$_Tmap_traits@HPAVMusicTrack@@U?$less@H@std@@V?$allocator@U?$pair@$$CBHPAVMusicTrack@@@std@@@3@$0A@@std@@@std@@QAE?AViterator@12@V312@@Z ENDP ; std::_Tree<std::_Tmap_traits<int,MusicTrack *,std::less<int>,std::allocator<std::pair<int const ,MusicTrack *> >,0> >::erase
; Function compile flags: /Ogsy
;	COMDAT ?erase@?$_Tree@V?$_Tmap_traits@HPAVMusicTrack@@U?$less@H@std@@V?$allocator@U?$pair@$$CBHPAVMusicTrack@@@std@@@3@$0A@@std@@@std@@QAE?AViterator@12@V312@0@Z
_TEXT	SEGMENT
$T68651 = -4						; size = 4
__First$ = 8						; size = 4
__Last$ = 12						; size = 4
?erase@?$_Tree@V?$_Tmap_traits@HPAVMusicTrack@@U?$less@H@std@@V?$allocator@U?$pair@$$CBHPAVMusicTrack@@@std@@@3@$0A@@std@@@std@@QAE?AViterator@12@V312@0@Z PROC NEAR ; std::_Tree<std::_Tmap_traits<int,MusicTrack *,std::less<int>,std::allocator<std::pair<int const ,MusicTrack *> >,0> >::erase, COMDAT
; _this$ = eax
; ___$ReturnUdt$ = ebx

; 750  : 		{	// erase [_First, _Last)

  00000	55		 push	 ebp
  00001	8b ec		 mov	 ebp, esp
  00003	51		 push	 ecx

; 751  : 		if (_First == begin() && _Last == end())

  00004	8b 4d 08	 mov	 ecx, DWORD PTR __First$[ebp]
  00007	57		 push	 edi
  00008	8b f8		 mov	 edi, eax
  0000a	8b 47 04	 mov	 eax, DWORD PTR [edi+4]
  0000d	3b 08		 cmp	 ecx, DWORD PTR [eax]
  0000f	75 13		 jne	 SHORT $L68758
  00011	39 45 0c	 cmp	 DWORD PTR __Last$[ebp], eax
  00014	75 0e		 jne	 SHORT $L68758

; 752  : 			{	// erase all
; 753  : 			clear();

  00016	e8 00 00 00 00	 call	 ?clear@?$_Tree@V?$_Tmap_traits@HPAVMusicTrack@@U?$less@H@std@@V?$allocator@U?$pair@$$CBHPAVMusicTrack@@@std@@@3@$0A@@std@@@std@@QAEXXZ ; std::_Tree<std::_Tmap_traits<int,MusicTrack *,std::less<int>,std::allocator<std::pair<int const ,MusicTrack *> >,0> >::clear

; 754  : 			return (begin());

  0001b	8b 47 04	 mov	 eax, DWORD PTR [edi+4]
  0001e	8b 00		 mov	 eax, DWORD PTR [eax]
  00020	89 03		 mov	 DWORD PTR [ebx], eax
  00022	eb 26		 jmp	 SHORT $L68759
$L68758:

; 755  : 			}
; 756  : 		else
; 757  : 			{	// partial erase, one at a time
; 758  : 			while (_First != _Last)

  00024	3b 4d 0c	 cmp	 ecx, DWORD PTR __Last$[ebp]
  00027	74 1f		 je	 SHORT $L25950
  00029	56		 push	 esi
$L25949:

; 759  : 				erase(_First++);

  0002a	8d 55 08	 lea	 edx, DWORD PTR __First$[ebp]
  0002d	8b f1		 mov	 esi, ecx
  0002f	e8 00 00 00 00	 call	 ?_Inc@const_iterator@?$_Tree@V?$_Tmap_traits@HPAVMusicTrack@@U?$less@H@std@@V?$allocator@U?$pair@$$CBHPAVMusicTrack@@@std@@@3@$0A@@std@@@std@@QAEXXZ ; std::_Tree<std::_Tmap_traits<int,MusicTrack *,std::less<int>,std::allocator<std::pair<int const ,MusicTrack *> >,0> >::const_iterator::_Inc
  00034	56		 push	 esi
  00035	8d 45 fc	 lea	 eax, DWORD PTR $T68651[ebp]
  00038	50		 push	 eax
  00039	57		 push	 edi
  0003a	e8 00 00 00 00	 call	 ?erase@?$_Tree@V?$_Tmap_traits@HPAVMusicTrack@@U?$less@H@std@@V?$allocator@U?$pair@$$CBHPAVMusicTrack@@@std@@@3@$0A@@std@@@std@@QAE?AViterator@12@V312@@Z ; std::_Tree<std::_Tmap_traits<int,MusicTrack *,std::less<int>,std::allocator<std::pair<int const ,MusicTrack *> >,0> >::erase
  0003f	8b 4d 08	 mov	 ecx, DWORD PTR __First$[ebp]
  00042	3b 4d 0c	 cmp	 ecx, DWORD PTR __Last$[ebp]
  00045	75 e3		 jne	 SHORT $L25949
  00047	5e		 pop	 esi
$L25950:

; 760  : 			return (_First);

  00048	89 0b		 mov	 DWORD PTR [ebx], ecx
$L68759:
  0004a	8b c3		 mov	 eax, ebx
  0004c	5f		 pop	 edi

; 761  : 			}
; 762  : 		}

  0004d	c9		 leave
  0004e	c2 08 00	 ret	 8
?erase@?$_Tree@V?$_Tmap_traits@HPAVMusicTrack@@U?$less@H@std@@V?$allocator@U?$pair@$$CBHPAVMusicTrack@@@std@@@3@$0A@@std@@@std@@QAE?AViterator@12@V312@0@Z ENDP ; std::_Tree<std::_Tmap_traits<int,MusicTrack *,std::less<int>,std::allocator<std::pair<int const ,MusicTrack *> >,0> >::erase
; Function compile flags: /Ogsy
_TEXT	ENDS
;	COMDAT ?_Tidy@?$_Tree@V?$_Tmap_traits@HPAVMusicTrack@@U?$less@H@std@@V?$allocator@U?$pair@$$CBHPAVMusicTrack@@@std@@@3@$0A@@std@@@std@@IAEXXZ
_TEXT	SEGMENT
$T68764 = -4						; size = 4
?_Tidy@?$_Tree@V?$_Tmap_traits@HPAVMusicTrack@@U?$less@H@std@@V?$allocator@U?$pair@$$CBHPAVMusicTrack@@@std@@@3@$0A@@std@@@std@@IAEXXZ PROC NEAR ; std::_Tree<std::_Tmap_traits<int,MusicTrack *,std::less<int>,std::allocator<std::pair<int const ,MusicTrack *> >,0> >::_Tidy, COMDAT
; _this$ = esi

; 1142 : 		{	// free all storage

  00000	51		 push	 ecx

; 1143 : 		erase(begin(), end());

  00001	8b 46 04	 mov	 eax, DWORD PTR [esi+4]
  00004	8b 08		 mov	 ecx, DWORD PTR [eax]
  00006	53		 push	 ebx
  00007	50		 push	 eax
  00008	51		 push	 ecx
  00009	8d 5c 24 0c	 lea	 ebx, DWORD PTR $T68764[esp+16]
  0000d	8b c6		 mov	 eax, esi
  0000f	e8 00 00 00 00	 call	 ?erase@?$_Tree@V?$_Tmap_traits@HPAVMusicTrack@@U?$less@H@std@@V?$allocator@U?$pair@$$CBHPAVMusicTrack@@@std@@@3@$0A@@std@@@std@@QAE?AViterator@12@V312@0@Z ; std::_Tree<std::_Tmap_traits<int,MusicTrack *,std::less<int>,std::allocator<std::pair<int const ,MusicTrack *> >,0> >::erase

; 1144 : 		this->_Alptr.destroy(&_Left(_Myhead));
; 1145 : 		this->_Alptr.destroy(&_Parent(_Myhead));
; 1146 : 		this->_Alptr.destroy(&_Right(_Myhead));
; 1147 : 		this->_Alnod.deallocate(_Myhead, 1);

  00014	ff 76 04	 push	 DWORD PTR [esi+4]
  00017	e8 00 00 00 00	 call	 ??3@YAXPAX@Z		; operator delete

; 1148 : 		_Myhead = 0, _Mysize = 0;

  0001c	83 66 04 00	 and	 DWORD PTR [esi+4], 0
  00020	83 66 08 00	 and	 DWORD PTR [esi+8], 0
  00024	59		 pop	 ecx
  00025	5b		 pop	 ebx

; 1149 : 		}

  00026	59		 pop	 ecx
  00027	c3		 ret	 0
?_Tidy@?$_Tree@V?$_Tmap_traits@HPAVMusicTrack@@U?$less@H@std@@V?$allocator@U?$pair@$$CBHPAVMusicTrack@@@std@@@3@$0A@@std@@@std@@IAEXXZ ENDP ; std::_Tree<std::_Tmap_traits<int,MusicTrack *,std::less<int>,std::allocator<std::pair<int const ,MusicTrack *> >,0> >::_Tidy
; Function compile flags: /Ogsy
_TEXT	ENDS
;	COMDAT ??1?$_Tree@V?$_Tmap_traits@HPAVMusicTrack@@U?$less@H@std@@V?$allocator@U?$pair@$$CBHPAVMusicTrack@@@std@@@3@$0A@@std@@@std@@QAE@XZ
_TEXT	SEGMENT
??1?$_Tree@V?$_Tmap_traits@HPAVMusicTrack@@U?$less@H@std@@V?$allocator@U?$pair@$$CBHPAVMusicTrack@@@std@@@3@$0A@@std@@@std@@QAE@XZ PROC NEAR ; std::_Tree<std::_Tmap_traits<int,MusicTrack *,std::less<int>,std::allocator<std::pair<int const ,MusicTrack *> >,0> >::~_Tree<std::_Tmap_traits<int,MusicTrack *,std::less<int>,std::allocator<std::pair<int const ,MusicTrack *> >,0> >, COMDAT
; _this$ = esi

; 392  : 		_Tidy();

  00000	e9 00 00 00 00	 jmp	 ?_Tidy@?$_Tree@V?$_Tmap_traits@HPAVMusicTrack@@U?$less@H@std@@V?$allocator@U?$pair@$$CBHPAVMusicTrack@@@std@@@3@$0A@@std@@@std@@IAEXXZ ; std::_Tree<std::_Tmap_traits<int,MusicTrack *,std::less<int>,std::allocator<std::pair<int const ,MusicTrack *> >,0> >::_Tidy
??1?$_Tree@V?$_Tmap_traits@HPAVMusicTrack@@U?$less@H@std@@V?$allocator@U?$pair@$$CBHPAVMusicTrack@@@std@@@3@$0A@@std@@@std@@QAE@XZ ENDP ; std::_Tree<std::_Tmap_traits<int,MusicTrack *,std::less<int>,std::allocator<std::pair<int const ,MusicTrack *> >,0> >::~_Tree<std::_Tmap_traits<int,MusicTrack *,std::less<int>,std::allocator<std::pair<int const ,MusicTrack *> >,0> >
; Function compile flags: /Ogsy
; File c:\program files (x86)\microsoft visual studio .net 2003\vc7\include\map
_TEXT	ENDS
;	COMDAT ??0?$map@HPAVMusicTrack@@U?$less@H@std@@V?$allocator@U?$pair@$$CBHPAVMusicTrack@@@std@@@3@@std@@QAE@XZ
_TEXT	SEGMENT
??0?$map@HPAVMusicTrack@@U?$less@H@std@@V?$allocator@U?$pair@$$CBHPAVMusicTrack@@@std@@@3@@std@@QAE@XZ PROC NEAR ; std::map<int,MusicTrack *,std::less<int>,std::allocator<std::pair<int const ,MusicTrack *> > >::map<int,MusicTrack *,std::less<int>,std::allocator<std::pair<int const ,MusicTrack *> > >, COMDAT
; _this$ = eax

; 102  : 		{	// construct empty map from defaults

  00000	56		 push	 esi
  00001	8b f0		 mov	 esi, eax
  00003	e8 00 00 00 00	 call	 ?_Init@?$_Tree@V?$_Tmap_traits@HPAVMusicTrack@@U?$less@H@std@@V?$allocator@U?$pair@$$CBHPAVMusicTrack@@@std@@@3@$0A@@std@@@std@@IAEXXZ ; std::_Tree<std::_Tmap_traits<int,MusicTrack *,std::less<int>,std::allocator<std::pair<int const ,MusicTrack *> >,0> >::_Init

; 103  : 		}

  00008	8b c6		 mov	 eax, esi
  0000a	5e		 pop	 esi
  0000b	c3		 ret	 0
??0?$map@HPAVMusicTrack@@U?$less@H@std@@V?$allocator@U?$pair@$$CBHPAVMusicTrack@@@std@@@3@@std@@QAE@XZ ENDP ; std::map<int,MusicTrack *,std::less<int>,std::allocator<std::pair<int const ,MusicTrack *> > >::map<int,MusicTrack *,std::less<int>,std::allocator<std::pair<int const ,MusicTrack *> > >
; Function compile flags: /Ogsy
_TEXT	ENDS
;	COMDAT ??1?$map@HPAVMusicTrack@@U?$less@H@std@@V?$allocator@U?$pair@$$CBHPAVMusicTrack@@@std@@@3@@std@@QAE@XZ
_TEXT	SEGMENT
??1?$map@HPAVMusicTrack@@U?$less@H@std@@V?$allocator@U?$pair@$$CBHPAVMusicTrack@@@std@@@3@@std@@QAE@XZ PROC NEAR ; std::map<int,MusicTrack *,std::less<int>,std::allocator<std::pair<int const ,MusicTrack *> > >::~map<int,MusicTrack *,std::less<int>,std::allocator<std::pair<int const ,MusicTrack *> > >, COMDAT
; _this$ = esi
  00000	e9 00 00 00 00	 jmp	 ?_Tidy@?$_Tree@V?$_Tmap_traits@HPAVMusicTrack@@U?$less@H@std@@V?$allocator@U?$pair@$$CBHPAVMusicTrack@@@std@@@3@$0A@@std@@@std@@IAEXXZ ; std::_Tree<std::_Tmap_traits<int,MusicTrack *,std::less<int>,std::allocator<std::pair<int const ,MusicTrack *> >,0> >::_Tidy
??1?$map@HPAVMusicTrack@@U?$less@H@std@@V?$allocator@U?$pair@$$CBHPAVMusicTrack@@@std@@@3@@std@@QAE@XZ ENDP ; std::map<int,MusicTrack *,std::less<int>,std::allocator<std::pair<int const ,MusicTrack *> > >::~map<int,MusicTrack *,std::less<int>,std::allocator<std::pair<int const ,MusicTrack *> > >
PUBLIC	?clear@TrackSet@@QAEXH@Z			; TrackSet::clear
; Function compile flags: /Ogsy
; File f:\nes\nsdl\src\nsc\trackset.cpp
_TEXT	SEGMENT
__id$ = 8						; size = 4
?clear@TrackSet@@QAEXH@Z PROC NEAR			; TrackSet::clear
; _this$ = eax

; 930  : 	maxTrack = -1;

  00197	83 48 58 ff	 or	 DWORD PTR [eax+88], -1

; 931  : 	MusicItem::clear(_id);

  0019b	e9 00 00 00 00	 jmp	 ?clear@MusicItem@@QAEXH@Z ; MusicItem::clear
?clear@TrackSet@@QAEXH@Z ENDP				; TrackSet::clear
_TEXT	ENDS
PUBLIC	??1TrackSet@@QAE@XZ				; TrackSet::~TrackSet
$T84836	DD	0ffffffffH
	DD	FLAT:$L84821
$T84834	DD	019930520H
	DD	01H
	DD	FLAT:$T84836
	DD	2 DUP(00H)
	DD	2 DUP(00H)
; Function compile flags: /Ogsy
_TEXT	SEGMENT
__$EHRec$ = -12						; size = 12
_this$ = 8						; size = 4
??1TrackSet@@QAE@XZ PROC NEAR				; TrackSet::~TrackSet

; 917  : {

  001a0	b8 00 00 00 00	 mov	 eax, __ehhandler$??1TrackSet@@QAE@XZ
  001a5	e8 00 00 00 00	 call	 __EH_prolog
  001aa	56		 push	 esi
  001ab	57		 push	 edi
  001ac	8b 7d 08	 mov	 edi, DWORD PTR _this$[ebp]
  001af	c7 07 00 00 00
	00		 mov	 DWORD PTR [edi], OFFSET FLAT:??_7TrackSet@@6B@
  001b5	83 65 fc 00	 and	 DWORD PTR __$EHRec$[ebp+8], 0

; 918  : }

  001b9	8d 77 44	 lea	 esi, DWORD PTR [edi+68]
  001bc	e8 00 00 00 00	 call	 ?_Tidy@?$_Tree@V?$_Tmap_traits@HPAVMusicTrack@@U?$less@H@std@@V?$allocator@U?$pair@$$CBHPAVMusicTrack@@@std@@@3@$0A@@std@@@std@@IAEXXZ ; std::_Tree<std::_Tmap_traits<int,MusicTrack *,std::less<int>,std::allocator<std::pair<int const ,MusicTrack *> >,0> >::_Tidy
  001c1	83 4d fc ff	 or	 DWORD PTR __$EHRec$[ebp+8], -1
  001c5	8b cf		 mov	 ecx, edi
  001c7	e8 00 00 00 00	 call	 ??1MusicItem@@QAE@XZ	; MusicItem::~MusicItem
  001cc	8b 4d f4	 mov	 ecx, DWORD PTR __$EHRec$[ebp]
  001cf	5f		 pop	 edi
  001d0	5e		 pop	 esi
  001d1	64 89 0d 00 00
	00 00		 mov	 DWORD PTR fs:__except_list, ecx
  001d8	c9		 leave
  001d9	c2 04 00	 ret	 4
$L84821:
  00267	8b 4d 08	 mov	 ecx, DWORD PTR _this$[ebp]
  0026a	e9 00 00 00 00	 jmp	 ??1MusicItem@@QAE@XZ	; MusicItem::~MusicItem
__ehhandler$??1TrackSet@@QAE@XZ:
  0026f	b8 00 00 00 00	 mov	 eax, OFFSET FLAT:$T84834
  00274	e9 00 00 00 00	 jmp	 ___CxxFrameHandler
??1TrackSet@@QAE@XZ ENDP				; TrackSet::~TrackSet
PUBLIC	?SetEvent@TrackSet@@QAEXPAVMusicItem@@@Z	; TrackSet::SetEvent
; Function compile flags: /Ogsy
_TEXT	SEGMENT
__item$ = 8						; size = 4
?SetEvent@TrackSet@@QAEXPAVMusicItem@@@Z PROC NEAR	; TrackSet::SetEvent
; _this$ = eax

; 1251 : 	nowTrack->SetEvent(_item);

  001dc	8b 40 50	 mov	 eax, DWORD PTR [eax+80]
  001df	e9 00 00 00 00	 jmp	 ?SetEvent@MusicTrack@@QAEXPAVMusicItem@@@Z ; MusicTrack::SetEvent
?SetEvent@TrackSet@@QAEXPAVMusicItem@@@Z ENDP		; TrackSet::SetEvent
_TEXT	ENDS
PUBLIC	?makeTrack@TrackSet@@QAEPAVMusicTrack@@PAVMMLfile@@H@Z ; TrackSet::makeTrack
$T104628 DD	0ffffffffH
	DD	FLAT:$L104595
	DD	0ffffffffH
	DD	FLAT:$L104596
$T104626 DD	019930520H
	DD	02H
	DD	FLAT:$T104628
	DD	2 DUP(00H)
	DD	2 DUP(00H)
; Function compile flags: /Ogsy
_TEXT	SEGMENT
$T104590 = -16						; size = 4
$T104587 = -16						; size = 4
__$EHRec$ = -12						; size = 12
$T104592 = 8						; size = 4
_MML$ = 8						; size = 4
__track$ = 12						; size = 4
?makeTrack@TrackSet@@QAEPAVMusicTrack@@PAVMMLfile@@H@Z PROC NEAR ; TrackSet::makeTrack
; _this$ = ecx

; 1189 : {

  001e4	b8 00 00 00 00	 mov	 eax, __ehhandler$?makeTrack@TrackSet@@QAEPAVMusicTrack@@PAVMMLfile@@H@Z
  001e9	e8 00 00 00 00	 call	 __EH_prolog
  001ee	51		 push	 ecx
  001ef	53		 push	 ebx
  001f0	56		 push	 esi

; 1190 : 	//gbNIuWFNgB
; 1191 : 	MusicTrack*	newTrack	= new MusicTrack(MML);

  001f1	68 e8 02 00 00	 push	 744			; 000002e8H
  001f6	8b f1		 mov	 esi, ecx
  001f8	e8 00 00 00 00	 call	 ??2@YAPAXI@Z		; operator new
  001fd	59		 pop	 ecx
  001fe	89 45 f0	 mov	 DWORD PTR $T104587[ebp], eax
  00201	33 db		 xor	 ebx, ebx
  00203	3b c3		 cmp	 eax, ebx
  00205	89 5d fc	 mov	 DWORD PTR __$EHRec$[ebp+8], ebx
  00208	74 10		 je	 SHORT $L104589
  0020a	68 00 00 00 00	 push	 OFFSET FLAT:??_C@_1DC@ODCBAGNM@?$AA?$DN?$AA?$DN?$AA?$DN?$AA?$DN?$AA?5?$AA?$FL?$AA?5?$AAM?$AAu?$AAs?$AAi?$AAc?$AA?5?$AAT?$AAr?$AAa?$AAc?$AAk?$AA?5?$AA?$FN@
  0020f	ff 75 08	 push	 DWORD PTR _MML$[ebp]
  00212	50		 push	 eax
  00213	e8 00 00 00 00	 call	 ??0MusicTrack@@QAE@PAVMMLfile@@QBG@Z ; MusicTrack::MusicTrack
  00218	8b d8		 mov	 ebx, eax
$L104589:
  0021a	83 4d fc ff	 or	 DWORD PTR __$EHRec$[ebp+8], -1
  0021e	57		 push	 edi

; 1192 : 
; 1193 : 	//ACe
; 1194 : 	ptcItem.push_back(newTrack);		//NX"MusicItem"JB

  0021f	8d 46 08	 lea	 eax, DWORD PTR [esi+8]
  00222	8b 48 04	 mov	 ecx, DWORD PTR [eax+4]
  00225	8d 55 f0	 lea	 edx, DWORD PTR $T104590[ebp]
  00228	52		 push	 edx
  00229	51		 push	 ecx
  0022a	50		 push	 eax
  0022b	89 5d f0	 mov	 DWORD PTR $T104590[ebp], ebx
  0022e	e8 00 00 00 00	 call	 ?_Insert@?$list@PAVMusicItem@@V?$allocator@PAVMusicItem@@@std@@@std@@QAEXViterator@12@ABQAVMusicItem@@@Z ; std::list<MusicItem *,std::allocator<MusicItem *> >::_Insert

; 1195 : 	ptcTrack[_track] = newTrack;

  00233	8d 7e 44	 lea	 edi, DWORD PTR [esi+68]
  00236	8d 75 0c	 lea	 esi, DWORD PTR __track$[ebp]
  00239	e8 00 00 00 00	 call	 ??A?$map@HPAVMusicTrack@@U?$less@H@std@@V?$allocator@U?$pair@$$CBHPAVMusicTrack@@@std@@@3@@std@@QAEAAPAVMusicTrack@@ABH@Z ; std::map<int,MusicTrack *,std::less<int>,std::allocator<std::pair<int const ,MusicTrack *> > >::operator[]

; 1196 : 
; 1197 : 	if(MML->iReleaseVolume != 2){		//hCo[ftHgQ

  0023e	8b 75 08	 mov	 esi, DWORD PTR _MML$[ebp]
  00241	89 18		 mov	 DWORD PTR [eax], ebx
  00243	83 be 84 00 00
	00 02		 cmp	 DWORD PTR [esi+132], 2
  0024a	5f		 pop	 edi
  0024b	74 3d		 je	 SHORT $L24723

; 1198 : 		newTrack->SetEvent(new mml_general(nsd_Release_Volume + (unsigned char)MML->iReleaseVolume, _T("Release Volume")));

  0024d	6a 3c		 push	 60			; 0000003cH
  0024f	e8 00 00 00 00	 call	 ??2@YAPAXI@Z		; operator new
  00254	59		 pop	 ecx
  00255	89 45 08	 mov	 DWORD PTR $T104592[ebp], eax
  00258	85 c0		 test	 eax, eax
  0025a	c7 45 fc 01 00
	00 00		 mov	 DWORD PTR __$EHRec$[ebp+8], 1
  00261	74 19		 je	 SHORT $L104593
  00263	33 c9		 xor	 ecx, ecx
  00265	8a 8e 84 00 00
	00		 mov	 cl, BYTE PTR [esi+132]
  0026b	80 c1 70	 add	 cl, 112			; 00000070H
  0026e	68 00 00 00 00	 push	 OFFSET FLAT:??_C@_1BO@IEEELBMO@?$AAR?$AAe?$AAl?$AAe?$AAa?$AAs?$AAe?$AA?5?$AAV?$AAo?$AAl?$AAu?$AAm?$AAe?$AA?$AA@
  00273	51		 push	 ecx
  00274	50		 push	 eax
  00275	e8 00 00 00 00	 call	 ??0mml_general@@QAE@EQBG@Z ; mml_general::mml_general
  0027a	eb 02		 jmp	 SHORT $L104594
$L104593:
  0027c	33 c0		 xor	 eax, eax
$L104594:
  0027e	83 4d fc ff	 or	 DWORD PTR __$EHRec$[ebp+8], -1
  00282	50		 push	 eax
  00283	8b c3		 mov	 eax, ebx
  00285	e8 00 00 00 00	 call	 ?SetEvent@MusicTrack@@QAEXPAVMusicItem@@@Z ; MusicTrack::SetEvent
$L24723:

; 1199 : 	}
; 1200 : 
; 1201 : 	//|C^n
; 1202 : 	return(newTrack);
; 1203 : }

  0028a	8b 4d f4	 mov	 ecx, DWORD PTR __$EHRec$[ebp]
  0028d	5e		 pop	 esi
  0028e	8b c3		 mov	 eax, ebx
  00290	5b		 pop	 ebx
  00291	64 89 0d 00 00
	00 00		 mov	 DWORD PTR fs:__except_list, ecx
  00298	c9		 leave
  00299	c2 08 00	 ret	 8
$L104595:
  00613	ff 75 f0	 push	 DWORD PTR $T104587[ebp]
  00616	e8 00 00 00 00	 call	 ??3@YAXPAX@Z		; operator delete
  0061b	59		 pop	 ecx
  0061c	c3		 ret	 0
$L104596:
  0061d	ff 75 08	 push	 DWORD PTR $T104592[ebp]
  00620	e8 00 00 00 00	 call	 ??3@YAXPAX@Z		; operator delete
  00625	59		 pop	 ecx
  00626	c3		 ret	 0
__ehhandler$?makeTrack@TrackSet@@QAEPAVMusicTrack@@PAVMMLfile@@H@Z:
  00627	b8 00 00 00 00	 mov	 eax, OFFSET FLAT:$T104626
  0062c	e9 00 00 00 00	 jmp	 ___CxxFrameHandler
?makeTrack@TrackSet@@QAEPAVMusicTrack@@PAVMMLfile@@H@Z ENDP ; TrackSet::makeTrack
PUBLIC	?Fix_Address@TrackSet@@QAEXPAVMusicFile@@@Z	; TrackSet::Fix_Address
; Function compile flags: /Ogsy
_TEXT	SEGMENT
_this$ = 8						; size = 4
_MUS$ = 12						; size = 4
?Fix_Address@TrackSet@@QAEXPAVMusicFile@@@Z PROC NEAR	; TrackSet::Fix_Address

; 1071 : 	iTrack = 0;

  0029c	8b 44 24 04	 mov	 eax, DWORD PTR _this$[esp-4]
  002a0	56		 push	 esi
  002a1	8d 70 54	 lea	 esi, DWORD PTR [eax+84]
  002a4	83 26 00	 and	 DWORD PTR [esi], 0

; 1072 : 	while(iTrack <= maxTrack){

  002a7	83 78 58 00	 cmp	 DWORD PTR [eax+88], 0
  002ab	7c 24		 jl	 SHORT $L24678
  002ad	53		 push	 ebx
  002ae	57		 push	 edi
  002af	8d 78 44	 lea	 edi, DWORD PTR [eax+68]
$L24677:

; 1073 : 		ptcTrack[iTrack]->Fix_Address(MUS);

  002b2	e8 00 00 00 00	 call	 ??A?$map@HPAVMusicTrack@@U?$less@H@std@@V?$allocator@U?$pair@$$CBHPAVMusicTrack@@@std@@@3@@std@@QAEAAPAVMusicTrack@@ABH@Z ; std::map<int,MusicTrack *,std::less<int>,std::allocator<std::pair<int const ,MusicTrack *> > >::operator[]
  002b7	ff 74 24 14	 push	 DWORD PTR _MUS$[esp+8]
  002bb	8b 18		 mov	 ebx, DWORD PTR [eax]
  002bd	e8 00 00 00 00	 call	 ?Fix_Address@MusicTrack@@QAEXPAVMusicFile@@@Z ; MusicTrack::Fix_Address

; 1074 : 		iTrack++;

  002c2	ff 06		 inc	 DWORD PTR [esi]
  002c4	8b 06		 mov	 eax, DWORD PTR [esi]
  002c6	8b 4c 24 10	 mov	 ecx, DWORD PTR _this$[esp+8]
  002ca	3b 41 58	 cmp	 eax, DWORD PTR [ecx+88]
  002cd	7e e3		 jle	 SHORT $L24677
  002cf	5f		 pop	 edi
  002d0	5b		 pop	 ebx
$L24678:
  002d1	5e		 pop	 esi

; 1075 : 	}
; 1076 : 
; 1077 : }

  002d2	c2 08 00	 ret	 8
?Fix_Address@TrackSet@@QAEXPAVMusicFile@@@Z ENDP	; TrackSet::Fix_Address
_TEXT	ENDS
PUBLIC	?OptimizeDefineCheck@TrackSet@@QAEXPAVMusicFile@@@Z ; TrackSet::OptimizeDefineCheck
; Function compile flags: /Ogsy
_TEXT	SEGMENT
_MUS$ = 8						; size = 4
?OptimizeDefineCheck@TrackSet@@QAEXPAVMusicFile@@@Z PROC NEAR ; TrackSet::OptimizeDefineCheck
; _this$ = ebx

; 1052 : {

  002d5	56		 push	 esi

; 1053 : 	iTrack = 0;

  002d6	8d 73 54	 lea	 esi, DWORD PTR [ebx+84]
  002d9	83 26 00	 and	 DWORD PTR [esi], 0

; 1054 : 	while(iTrack <= maxTrack){

  002dc	83 7b 58 00	 cmp	 DWORD PTR [ebx+88], 0
  002e0	7c 1e		 jl	 SHORT $L24671
  002e2	57		 push	 edi
  002e3	8d 7b 44	 lea	 edi, DWORD PTR [ebx+68]
$L24670:

; 1055 : 		ptcTrack[iTrack]->OptimizeDefineCheck(MUS);

  002e6	e8 00 00 00 00	 call	 ??A?$map@HPAVMusicTrack@@U?$less@H@std@@V?$allocator@U?$pair@$$CBHPAVMusicTrack@@@std@@@3@@std@@QAEAAPAVMusicTrack@@ABH@Z ; std::map<int,MusicTrack *,std::less<int>,std::allocator<std::pair<int const ,MusicTrack *> > >::operator[]
  002eb	ff 74 24 0c	 push	 DWORD PTR _MUS$[esp+4]
  002ef	ff 30		 push	 DWORD PTR [eax]
  002f1	e8 00 00 00 00	 call	 ?OptimizeDefineCheck@MusicTrack@@QAEXPAVMusicFile@@@Z ; MusicTrack::OptimizeDefineCheck

; 1056 : 		iTrack++;

  002f6	ff 06		 inc	 DWORD PTR [esi]
  002f8	8b 06		 mov	 eax, DWORD PTR [esi]
  002fa	3b 43 58	 cmp	 eax, DWORD PTR [ebx+88]
  002fd	7e e7		 jle	 SHORT $L24670
  002ff	5f		 pop	 edi
$L24671:
  00300	5e		 pop	 esi

; 1057 : 	}
; 1058 : 
; 1059 : }

  00301	c2 04 00	 ret	 4
?OptimizeDefineCheck@TrackSet@@QAEXPAVMusicFile@@@Z ENDP ; TrackSet::OptimizeDefineCheck
_TEXT	ENDS
PUBLIC	?TickCountPrint@TrackSet@@QAEXPAVMusicFile@@HH@Z ; TrackSet::TickCountPrint
; Function compile flags: /Ogsy
_TEXT	SEGMENT
$T104641 = -20						; size = 8
$T104639 = -20						; size = 8
$T104636 = -12						; size = 8
tv235 = -8						; size = 4
_i$ = -4						; size = 4
_this$ = 8						; size = 4
_MUS$ = 12						; size = 4
_iStart$ = 16						; size = 4
_iEnd$ = 20						; size = 4
?TickCountPrint@TrackSet@@QAEXPAVMusicFile@@HH@Z PROC NEAR ; TrackSet::TickCountPrint

; 983  : {

  00304	55		 push	 ebp
  00305	8b ec		 mov	 ebp, esp
  00307	83 ec 14	 sub	 esp, 20			; 00000014H
  0030a	53		 push	 ebx
  0030b	56		 push	 esi
  0030c	57		 push	 edi

; 984  : 	int		i		= iStart;

  0030d	8b 7d 10	 mov	 edi, DWORD PTR _iStart$[ebp]

; 985  : 	int		iTick;
; 986  : 
; 987  : 	cout	<< "Track ";

  00310	68 00 00 00 00	 push	 OFFSET FLAT:??_C@_06KPCEEHJM@Track?5?$AA@
  00315	bb 00 00 00 00	 mov	 ebx, OFFSET FLAT:?cout@std@@3V?$basic_ostream@DU?$char_traits@D@std@@@1@A ; std::cout
  0031a	53		 push	 ebx
  0031b	e8 00 00 00 00	 call	 ??$?6U?$char_traits@D@std@@@std@@YAAAV?$basic_ostream@DU?$char_traits@D@std@@@0@AAV10@PBD@Z ; std::operator<<<std::char_traits<char> >

; 988  : 	while(i < iEnd){

  00320	3b 7d 14	 cmp	 edi, DWORD PTR _iEnd$[ebp]
  00323	59		 pop	 ecx
  00324	59		 pop	 ecx
  00325	7d 4a		 jge	 SHORT $L24626
$L24625:

; 989  : 		i++;
; 990  : 		cout << "| TR(" << setfill(' ')  << setw(2) << i << ") ";

  00327	68 00 00 00 00	 push	 OFFSET FLAT:??_C@_05IFBGHAGD@?$HM?5TR?$CI?$AA@
  0032c	53		 push	 ebx
  0032d	47		 inc	 edi
  0032e	e8 00 00 00 00	 call	 ??$?6U?$char_traits@D@std@@@std@@YAAAV?$basic_ostream@DU?$char_traits@D@std@@@0@AAV10@PBD@Z ; std::operator<<<std::char_traits<char> >
  00333	59		 pop	 ecx
  00334	8b f0		 mov	 esi, eax
  00336	8b 06		 mov	 eax, DWORD PTR [esi]
  00338	8b 40 04	 mov	 eax, DWORD PTR [eax+4]
  0033b	59		 pop	 ecx
  0033c	68 00 00 00 00	 push	 OFFSET FLAT:??_C@_02KCKGHPCA@?$CJ?5?$AA@
  00341	57		 push	 edi
  00342	c6 44 30 30 20	 mov	 BYTE PTR [eax+esi+48], 32 ; 00000020H
  00347	8d 45 f4	 lea	 eax, DWORD PTR $T104636[ebp]
  0034a	6a 02		 push	 2
  0034c	50		 push	 eax
  0034d	e8 00 00 00 00	 call	 ?setw@std@@YA?AU?$_Smanip@H@1@H@Z ; std::setw
  00352	59		 pop	 ecx
  00353	59		 pop	 ecx
  00354	8b c8		 mov	 ecx, eax
  00356	e8 00 00 00 00	 call	 ??$?6DU?$char_traits@D@std@@H@std@@YAAAV?$basic_ostream@DU?$char_traits@D@std@@@0@AAV10@ABU?$_Smanip@H@0@@Z ; std::operator<<<char,std::char_traits<char>,int>
  0035b	50		 push	 eax
  0035c	e8 00 00 00 00	 call	 ??6?$basic_ostream@DU?$char_traits@D@std@@@std@@QAEAAV01@H@Z ; std::basic_ostream<char,std::char_traits<char> >::operator<<
  00361	50		 push	 eax
  00362	e8 00 00 00 00	 call	 ??$?6U?$char_traits@D@std@@@std@@YAAAV?$basic_ostream@DU?$char_traits@D@std@@@0@AAV10@PBD@Z ; std::operator<<<std::char_traits<char> >
  00367	3b 7d 14	 cmp	 edi, DWORD PTR _iEnd$[ebp]
  0036a	59		 pop	 ecx
  0036b	59		 pop	 ecx
  0036c	7c b9		 jl	 SHORT $L24625

; 988  : 	while(i < iEnd){

  0036e	8b 7d 10	 mov	 edi, DWORD PTR _iStart$[ebp]
$L24626:

; 991  : 	}
; 992  : 
; 993  : 	i = iStart;
; 994  : 	cout << endl <<	"Loop  ";

  00371	68 00 00 00 00	 push	 OFFSET FLAT:??_C@_06MFAOKAEB@Loop?5?5?$AA@
  00376	68 00 00 00 00	 push	 OFFSET FLAT:?cout@std@@3V?$basic_ostream@DU?$char_traits@D@std@@@1@A
  0037b	89 7d fc	 mov	 DWORD PTR _i$[ebp], edi
  0037e	e8 00 00 00 00	 call	 ?endl@std@@YAAAV?$basic_ostream@DU?$char_traits@D@std@@@1@AAV21@@Z ; std::endl
  00383	59		 pop	 ecx
  00384	50		 push	 eax
  00385	e8 00 00 00 00	 call	 ??$?6U?$char_traits@D@std@@@std@@YAAAV?$basic_ostream@DU?$char_traits@D@std@@@0@AAV10@PBD@Z ; std::operator<<<std::char_traits<char> >

; 995  : 	while(i < iEnd){

  0038a	3b 7d 14	 cmp	 edi, DWORD PTR _iEnd$[ebp]
  0038d	59		 pop	 ecx
  0038e	59		 pop	 ecx
  0038f	0f 8d 95 00 00
	00		 jge	 $L24636
  00395	8b 45 08	 mov	 eax, DWORD PTR _this$[ebp]

; 1009 : 	while(i < iEnd){

  00398	83 c0 44	 add	 eax, 68			; 00000044H
  0039b	89 45 f8	 mov	 DWORD PTR tv235[ebp], eax
$L24635:
  0039e	8b 7d f8	 mov	 edi, DWORD PTR tv235[ebp]
  003a1	8d 75 fc	 lea	 esi, DWORD PTR _i$[ebp]
  003a4	e8 00 00 00 00	 call	 ??A?$map@HPAVMusicTrack@@U?$less@H@std@@V?$allocator@U?$pair@$$CBHPAVMusicTrack@@@std@@@3@@std@@QAEAAPAVMusicTrack@@ABH@Z ; std::map<int,MusicTrack *,std::less<int>,std::allocator<std::pair<int const ,MusicTrack *> > >::operator[]
  003a9	8b 00		 mov	 eax, DWORD PTR [eax]
  003ab	83 c0 3c	 add	 eax, 60			; 0000003cH
  003ae	e8 00 00 00 00	 call	 ?init@NSD_WORK@@QAEXXZ	; NSD_WORK::init
  003b3	e8 00 00 00 00	 call	 ??A?$map@HPAVMusicTrack@@U?$less@H@std@@V?$allocator@U?$pair@$$CBHPAVMusicTrack@@@std@@@3@@std@@QAEAAPAVMusicTrack@@ABH@Z ; std::map<int,MusicTrack *,std::less<int>,std::allocator<std::pair<int const ,MusicTrack *> > >::operator[]
  003b8	ff 75 0c	 push	 DWORD PTR _MUS$[ebp]
  003bb	8b 08		 mov	 ecx, DWORD PTR [eax]
  003bd	e8 00 00 00 00	 call	 ?TickCount@MusicTrack@@QAEIPAVMusicFile@@@Z ; MusicTrack::TickCount
  003c2	e8 00 00 00 00	 call	 ??A?$map@HPAVMusicTrack@@U?$less@H@std@@V?$allocator@U?$pair@$$CBHPAVMusicTrack@@@std@@@3@@std@@QAEAAPAVMusicTrack@@ABH@Z ; std::map<int,MusicTrack *,std::less<int>,std::allocator<std::pair<int const ,MusicTrack *> > >::operator[]
  003c7	8b 00		 mov	 eax, DWORD PTR [eax]
  003c9	8b b8 98 00 00
	00		 mov	 edi, DWORD PTR [eax+152]
  003cf	83 ff ff	 cmp	 edi, -1
  003d2	75 0f		 jne	 SHORT $L24637
  003d4	68 00 00 00 00	 push	 OFFSET FLAT:??_C@_09CCGPGAKD@?$HM?5no?9loop?$AA@
  003d9	53		 push	 ebx
  003da	e8 00 00 00 00	 call	 ??$?6U?$char_traits@D@std@@@std@@YAAAV?$basic_ostream@DU?$char_traits@D@std@@@0@AAV10@PBD@Z ; std::operator<<<std::char_traits<char> >
  003df	59		 pop	 ecx
  003e0	59		 pop	 ecx
  003e1	eb 35		 jmp	 SHORT $L24639
$L24637:

; 996  : 		ptcTrack[i]->nsd.init();		//G~[^Ep[^
; 997  : 		ptcTrack[i]->TickCount(MUS);	//G~[g
; 998  : 		iTick = ptcTrack[i]->GetTickLoop();
; 999  : 		if(iTick == -1){
; 1000 : 			cout << "| no-loop";
; 1001 : 		} else {
; 1002 : 			cout << "|" << setw(8) << setfill(' ') << iTick;

  003e3	8d 45 ec	 lea	 eax, DWORD PTR $T104639[ebp]
  003e6	6a 08		 push	 8
  003e8	50		 push	 eax
  003e9	e8 00 00 00 00	 call	 ?setw@std@@YA?AU?$_Smanip@H@1@H@Z ; std::setw
  003ee	68 00 00 00 00	 push	 OFFSET FLAT:??_C@_01DNKMNLPK@?$HM?$AA@
  003f3	53		 push	 ebx
  003f4	8b f0		 mov	 esi, eax
  003f6	e8 00 00 00 00	 call	 ??$?6U?$char_traits@D@std@@@std@@YAAAV?$basic_ostream@DU?$char_traits@D@std@@@0@AAV10@PBD@Z ; std::operator<<<std::char_traits<char> >
  003fb	8b ce		 mov	 ecx, esi
  003fd	83 c4 10	 add	 esp, 16			; 00000010H
  00400	8b f0		 mov	 esi, eax
  00402	e8 00 00 00 00	 call	 ??$?6DU?$char_traits@D@std@@H@std@@YAAAV?$basic_ostream@DU?$char_traits@D@std@@@0@AAV10@ABU?$_Smanip@H@0@@Z ; std::operator<<<char,std::char_traits<char>,int>
  00407	8b 08		 mov	 ecx, DWORD PTR [eax]
  00409	8b 49 04	 mov	 ecx, DWORD PTR [ecx+4]
  0040c	57		 push	 edi
  0040d	50		 push	 eax
  0040e	c6 44 01 30 20	 mov	 BYTE PTR [ecx+eax+48], 32 ; 00000020H
  00413	e8 00 00 00 00	 call	 ??6?$basic_ostream@DU?$char_traits@D@std@@@std@@QAEAAV01@H@Z ; std::basic_ostream<char,std::char_traits<char> >::operator<<
$L24639:

; 1003 : 		}
; 1004 : 		i++;

  00418	ff 45 fc	 inc	 DWORD PTR _i$[ebp]
  0041b	8b 45 fc	 mov	 eax, DWORD PTR _i$[ebp]
  0041e	3b 45 14	 cmp	 eax, DWORD PTR _iEnd$[ebp]
  00421	0f 8c 77 ff ff
	ff		 jl	 $L24635

; 995  : 	while(i < iEnd){

  00427	8b 7d 10	 mov	 edi, DWORD PTR _iStart$[ebp]
$L24636:

; 1005 : 	}
; 1006 : 
; 1007 : 	i = iStart;
; 1008 : 	cout << endl <<	"Total ";;

  0042a	68 00 00 00 00	 push	 OFFSET FLAT:??_C@_06BHCKJACF@Total?5?$AA@
  0042f	68 00 00 00 00	 push	 OFFSET FLAT:?cout@std@@3V?$basic_ostream@DU?$char_traits@D@std@@@1@A
  00434	89 7d fc	 mov	 DWORD PTR _i$[ebp], edi
  00437	e8 00 00 00 00	 call	 ?endl@std@@YAAAV?$basic_ostream@DU?$char_traits@D@std@@@1@AAV21@@Z ; std::endl
  0043c	59		 pop	 ecx
  0043d	50		 push	 eax
  0043e	e8 00 00 00 00	 call	 ??$?6U?$char_traits@D@std@@@std@@YAAAV?$basic_ostream@DU?$char_traits@D@std@@@0@AAV10@PBD@Z ; std::operator<<<std::char_traits<char> >

; 1009 : 	while(i < iEnd){

  00443	3b 7d 14	 cmp	 edi, DWORD PTR _iEnd$[ebp]
  00446	59		 pop	 ecx
  00447	59		 pop	 ecx
  00448	7d 5c		 jge	 SHORT $L24647
  0044a	8b 45 08	 mov	 eax, DWORD PTR _this$[ebp]
  0044d	83 c0 44	 add	 eax, 68			; 00000044H
  00450	89 45 f8	 mov	 DWORD PTR tv235[ebp], eax
$L24646:

; 1010 : 		cout << "|" << setw(8) << setfill(' ') << ptcTrack[i]->GetTickTotal();

  00453	8b 7d f8	 mov	 edi, DWORD PTR tv235[ebp]
  00456	8d 75 fc	 lea	 esi, DWORD PTR _i$[ebp]
  00459	e8 00 00 00 00	 call	 ??A?$map@HPAVMusicTrack@@U?$less@H@std@@V?$allocator@U?$pair@$$CBHPAVMusicTrack@@@std@@@3@@std@@QAEAAPAVMusicTrack@@ABH@Z ; std::map<int,MusicTrack *,std::less<int>,std::allocator<std::pair<int const ,MusicTrack *> > >::operator[]
  0045e	8b 00		 mov	 eax, DWORD PTR [eax]
  00460	8b b8 94 00 00
	00		 mov	 edi, DWORD PTR [eax+148]
  00466	8d 45 ec	 lea	 eax, DWORD PTR $T104641[ebp]
  00469	6a 08		 push	 8
  0046b	50		 push	 eax
  0046c	e8 00 00 00 00	 call	 ?setw@std@@YA?AU?$_Smanip@H@1@H@Z ; std::setw
  00471	68 00 00 00 00	 push	 OFFSET FLAT:??_C@_01DNKMNLPK@?$HM?$AA@
  00476	53		 push	 ebx
  00477	8b f0		 mov	 esi, eax
  00479	e8 00 00 00 00	 call	 ??$?6U?$char_traits@D@std@@@std@@YAAAV?$basic_ostream@DU?$char_traits@D@std@@@0@AAV10@PBD@Z ; std::operator<<<std::char_traits<char> >
  0047e	8b ce		 mov	 ecx, esi
  00480	83 c4 10	 add	 esp, 16			; 00000010H
  00483	8b f0		 mov	 esi, eax
  00485	e8 00 00 00 00	 call	 ??$?6DU?$char_traits@D@std@@H@std@@YAAAV?$basic_ostream@DU?$char_traits@D@std@@@0@AAV10@ABU?$_Smanip@H@0@@Z ; std::operator<<<char,std::char_traits<char>,int>
  0048a	8b 08		 mov	 ecx, DWORD PTR [eax]
  0048c	8b 49 04	 mov	 ecx, DWORD PTR [ecx+4]
  0048f	57		 push	 edi
  00490	50		 push	 eax
  00491	c6 44 01 30 20	 mov	 BYTE PTR [ecx+eax+48], 32 ; 00000020H
  00496	e8 00 00 00 00	 call	 ??6?$basic_ostream@DU?$char_traits@D@std@@@std@@QAEAAV01@I@Z ; std::basic_ostream<char,std::char_traits<char> >::operator<<

; 1011 : 		i++;

  0049b	ff 45 fc	 inc	 DWORD PTR _i$[ebp]
  0049e	8b 45 fc	 mov	 eax, DWORD PTR _i$[ebp]
  004a1	3b 45 14	 cmp	 eax, DWORD PTR _iEnd$[ebp]
  004a4	7c ad		 jl	 SHORT $L24646
$L24647:

; 1012 : 	}
; 1013 : 	cout << endl;

  004a6	68 00 00 00 00	 push	 OFFSET FLAT:?cout@std@@3V?$basic_ostream@DU?$char_traits@D@std@@@1@A
  004ab	e8 00 00 00 00	 call	 ?endl@std@@YAAAV?$basic_ostream@DU?$char_traits@D@std@@@1@AAV21@@Z ; std::endl
  004b0	59		 pop	 ecx
  004b1	5f		 pop	 edi
  004b2	5e		 pop	 esi
  004b3	5b		 pop	 ebx

; 1014 : 	
; 1015 : }

  004b4	c9		 leave
  004b5	c2 10 00	 ret	 16			; 00000010H
?TickCountPrint@TrackSet@@QAEXPAVMusicFile@@HH@Z ENDP	; TrackSet::TickCountPrint
PUBLIC	?Set_FME7_Frequency@TrackSet@@QAEXPAVMMLfile@@@Z ; TrackSet::Set_FME7_Frequency
$T105662 DD	0ffffffffH
	DD	FLAT:$L105654
$T105659 DD	019930520H
	DD	01H
	DD	FLAT:$T105662
	DD	2 DUP(00H)
	DD	2 DUP(00H)
; Function compile flags: /Ogsy
_TEXT	SEGMENT
$T105651 = -16						; size = 4
__$EHRec$ = -12						; size = 12
_this$ = 8						; size = 4
_c1$25115 = 12						; size = 1
_MML$ = 12						; size = 4
?Set_FME7_Frequency@TrackSet@@QAEXPAVMMLfile@@@Z PROC NEAR ; TrackSet::Set_FME7_Frequency

; 1506 : {

  004b8	b8 00 00 00 00	 mov	 eax, __ehhandler$?Set_FME7_Frequency@TrackSet@@QAEXPAVMMLfile@@@Z
  004bd	e8 00 00 00 00	 call	 __EH_prolog
  004c2	51		 push	 ecx

; 1507 : 	int	i = MML->GetInt();

  004c3	8b 45 0c	 mov	 eax, DWORD PTR _MML$[ebp]
  004c6	56		 push	 esi
  004c7	e8 00 00 00 00	 call	 ?GetInt@MMLfile@@QAEHXZ	; MMLfile::GetInt
  004cc	8b f0		 mov	 esi, eax

; 1508 : 
; 1509 : 	if( (i <= 0xFFFF) && (i >=0) ){

  004ce	81 fe ff ff 00
	00		 cmp	 esi, 65535		; 0000ffffH
  004d4	7f 51		 jg	 SHORT $L25112
  004d6	85 f6		 test	 esi, esi
  004d8	7c 4d		 jl	 SHORT $L25112

; 1510 : 		unsigned	char	c0 = (unsigned char)( i       & 0xFF);
; 1511 : 		unsigned	char	c1 = (unsigned char)((i >> 8) & 0xFF);

  004da	c1 f8 08	 sar	 eax, 8

; 1512 : 		SetEvent(new mml_general(nsc_FME7_frequency,c0,c1,_T("FME7 envelop frequency")));

  004dd	6a 3c		 push	 60			; 0000003cH
  004df	88 45 0c	 mov	 BYTE PTR _c1$25115[ebp], al
  004e2	e8 00 00 00 00	 call	 ??2@YAPAXI@Z		; operator new
  004e7	59		 pop	 ecx
  004e8	89 45 f0	 mov	 DWORD PTR $T105651[ebp], eax
  004eb	83 65 fc 00	 and	 DWORD PTR __$EHRec$[ebp+8], 0
  004ef	85 c0		 test	 eax, eax
  004f1	74 13		 je	 SHORT $L105652
  004f3	68 00 00 00 00	 push	 OFFSET FLAT:??_C@_1CO@GINJDICH@?$AAF?$AAM?$AAE?$AA7?$AA?5?$AAe?$AAn?$AAv?$AAe?$AAl?$AAo?$AAp?$AA?5?$AAf?$AAr?$AAe?$AAq?$AAu?$AAe?$AAn@
  004f8	ff 75 0c	 push	 DWORD PTR _c1$25115[ebp]
  004fb	56		 push	 esi
  004fc	6a 26		 push	 38			; 00000026H
  004fe	50		 push	 eax
  004ff	e8 00 00 00 00	 call	 ??0mml_general@@QAE@EDDQBG@Z ; mml_general::mml_general
  00504	eb 02		 jmp	 SHORT $L105653
$L105652:
  00506	33 c0		 xor	 eax, eax
$L105653:
  00508	83 4d fc ff	 or	 DWORD PTR __$EHRec$[ebp+8], -1
  0050c	50		 push	 eax
  0050d	8b 45 08	 mov	 eax, DWORD PTR _this$[ebp]
  00510	8b 40 50	 mov	 eax, DWORD PTR [eax+80]
  00513	e8 00 00 00 00	 call	 ?SetEvent@MusicTrack@@QAEXPAVMusicItem@@@Z ; MusicTrack::SetEvent

; 1515 : 	}
; 1516 : }

  00518	8b 4d f4	 mov	 ecx, DWORD PTR __$EHRec$[ebp]
  0051b	5e		 pop	 esi
  0051c	64 89 0d 00 00
	00 00		 mov	 DWORD PTR fs:__except_list, ecx
  00523	c9		 leave
  00524	c2 08 00	 ret	 8
$L25112:

; 1513 : 	} else {
; 1514 : 		MML->Err(_T("SUNSOFT 5bn[hEFAGx[vg0`65535wB"));

  00527	8b 45 0c	 mov	 eax, DWORD PTR _MML$[ebp]
  0052a	68 00 00 00 00	 push	 OFFSET FLAT:??_C@_1FO@MPIPMFBJ@?$AAS?$AAU?$AAN?$AAS?$AAO?$AAF?$AAT?$AA?5?$AA5?$AAb0n0?O0?$PM0?I0?$KG0?$KH0?$KC0?$KI0?s0?Y@
  0052f	e8 00 00 00 00	 call	 ?Err@MMLfile@@QAEXQBG@Z	; MMLfile::Err
$L105663:
$L105661:
  00534	cc		 int	 3
$L105654:
  008a1	ff 75 f0	 push	 DWORD PTR $T105651[ebp]
  008a4	e8 00 00 00 00	 call	 ??3@YAXPAX@Z		; operator delete
  008a9	59		 pop	 ecx
  008aa	c3		 ret	 0
__ehhandler$?Set_FME7_Frequency@TrackSet@@QAEXPAVMMLfile@@@Z:
  008ab	b8 00 00 00 00	 mov	 eax, OFFSET FLAT:$T105659
  008b0	e9 00 00 00 00	 jmp	 ___CxxFrameHandler
?Set_FME7_Frequency@TrackSet@@QAEXPAVMMLfile@@@Z ENDP	; TrackSet::Set_FME7_Frequency
PUBLIC	?Set_N163_Channel@TrackSet@@QAEXPAVMMLfile@@@Z	; TrackSet::Set_N163_Channel
$T105677 DD	0ffffffffH
	DD	FLAT:$L105669
$T105674 DD	019930520H
	DD	01H
	DD	FLAT:$T105677
	DD	2 DUP(00H)
	DD	2 DUP(00H)
; Function compile flags: /Ogsy
_TEXT	SEGMENT
__$EHRec$ = -12						; size = 12
_this$ = 8						; size = 4
$T105666 = 12						; size = 4
_MML$ = 12						; size = 4
?Set_N163_Channel@TrackSet@@QAEXPAVMMLfile@@@Z PROC NEAR ; TrackSet::Set_N163_Channel

; 1486 : {

  00535	b8 00 00 00 00	 mov	 eax, __ehhandler$?Set_N163_Channel@TrackSet@@QAEXPAVMMLfile@@@Z
  0053a	e8 00 00 00 00	 call	 __EH_prolog

; 1487 : 	int	i = MML->GetInt();

  0053f	8b 45 0c	 mov	 eax, DWORD PTR _MML$[ebp]
  00542	53		 push	 ebx
  00543	e8 00 00 00 00	 call	 ?GetInt@MMLfile@@QAEHXZ	; MMLfile::GetInt
  00548	8b d8		 mov	 ebx, eax

; 1488 : 
; 1489 : 	if( (i <= 8) && (i >=1) ){

  0054a	83 fb 08	 cmp	 ebx, 8
  0054d	7f 4b		 jg	 SHORT $L25098
  0054f	83 fb 01	 cmp	 ebx, 1
  00552	7c 46		 jl	 SHORT $L25098

; 1490 : 		SetEvent(new mml_general(nsc_N163_Channel,(unsigned char)(i-1),_T("n163 channel")));

  00554	6a 3c		 push	 60			; 0000003cH
  00556	e8 00 00 00 00	 call	 ??2@YAPAXI@Z		; operator new
  0055b	59		 pop	 ecx
  0055c	89 45 0c	 mov	 DWORD PTR $T105666[ebp], eax
  0055f	83 65 fc 00	 and	 DWORD PTR __$EHRec$[ebp+8], 0
  00563	85 c0		 test	 eax, eax
  00565	74 12		 je	 SHORT $L105667
  00567	fe cb		 dec	 bl
  00569	68 00 00 00 00	 push	 OFFSET FLAT:??_C@_1BK@BFEDNGPB@?$AAn?$AA1?$AA6?$AA3?$AA?5?$AAc?$AAh?$AAa?$AAn?$AAn?$AAe?$AAl?$AA?$AA@
  0056e	53		 push	 ebx
  0056f	6a 1f		 push	 31			; 0000001fH
  00571	50		 push	 eax
  00572	e8 00 00 00 00	 call	 ??0mml_general@@QAE@EDQBG@Z ; mml_general::mml_general
  00577	eb 02		 jmp	 SHORT $L105668
$L105667:
  00579	33 c0		 xor	 eax, eax
$L105668:
  0057b	83 4d fc ff	 or	 DWORD PTR __$EHRec$[ebp+8], -1
  0057f	50		 push	 eax
  00580	8b 45 08	 mov	 eax, DWORD PTR _this$[ebp]
  00583	8b 40 50	 mov	 eax, DWORD PTR [eax+80]
  00586	e8 00 00 00 00	 call	 ?SetEvent@MusicTrack@@QAEXPAVMusicItem@@@Z ; MusicTrack::SetEvent

; 1493 : 	}
; 1494 : 
; 1495 : }

  0058b	8b 4d f4	 mov	 ecx, DWORD PTR __$EHRec$[ebp]
  0058e	5b		 pop	 ebx
  0058f	64 89 0d 00 00
	00 00		 mov	 DWORD PTR fs:__except_list, ecx
  00596	c9		 leave
  00597	c2 08 00	 ret	 8
$L25098:

; 1491 : 	} else {
; 1492 : 		MML->Err(_T("n163`l1`8wB"));

  0059a	8b 45 0c	 mov	 eax, DWORD PTR _MML$[ebp]
  0059d	68 00 00 00 00	 push	 OFFSET FLAT:??_C@_1DK@MLMMPBFK@?$AAn?$AA1?$AA6?$AA30n0?A0?c0?s0?M0?kep0o?$AA1?$PP?$FO?$AA80n?$HL?DV?r0gc?$AH@
  005a2	e8 00 00 00 00	 call	 ?Err@MMLfile@@QAEXQBG@Z	; MMLfile::Err
$L105678:
$L105676:
  005a7	cc		 int	 3
$L105669:
  008b5	ff 75 0c	 push	 DWORD PTR $T105666[ebp]
  008b8	e8 00 00 00 00	 call	 ??3@YAXPAX@Z		; operator delete
  008bd	59		 pop	 ecx
  008be	c3		 ret	 0
__ehhandler$?Set_N163_Channel@TrackSet@@QAEXPAVMMLfile@@@Z:
  008bf	b8 00 00 00 00	 mov	 eax, OFFSET FLAT:$T105674
  008c4	e9 00 00 00 00	 jmp	 ___CxxFrameHandler
?Set_N163_Channel@TrackSet@@QAEXPAVMMLfile@@@Z ENDP	; TrackSet::Set_N163_Channel
PUBLIC	?Set_VRC7_Write@TrackSet@@QAEXPAVMMLfile@@@Z	; TrackSet::Set_VRC7_Write
$T105694 DD	0ffffffffH
	DD	FLAT:$L105684
$T105689 DD	019930520H
	DD	01H
	DD	FLAT:$T105694
	DD	2 DUP(00H)
	DD	2 DUP(00H)
; Function compile flags: /Ogsy
_TEXT	SEGMENT
$T105681 = -16						; size = 4
__$EHRec$ = -12						; size = 12
_this$ = 8						; size = 4
?Set_VRC7_Write@TrackSet@@QAEXPAVMMLfile@@@Z PROC NEAR	; TrackSet::Set_VRC7_Write
; _MML$ = ecx

; 1453 : {

  005a8	b8 00 00 00 00	 mov	 eax, __ehhandler$?Set_VRC7_Write@TrackSet@@QAEXPAVMMLfile@@@Z
  005ad	e8 00 00 00 00	 call	 __EH_prolog
  005b2	51		 push	 ecx
  005b3	53		 push	 ebx
  005b4	56		 push	 esi
  005b5	57		 push	 edi
  005b6	8b f9		 mov	 edi, ecx

; 1454 : 	unsigned	char	cData;
; 1455 : 
; 1456 : 				int		_Reg;
; 1457 : 				int		_Dat;
; 1458 : 
; 1459 : 	_Reg = MML->GetInt();

  005b8	8b c7		 mov	 eax, edi
  005ba	e8 00 00 00 00	 call	 ?GetInt@MMLfile@@QAEHXZ	; MMLfile::GetInt
  005bf	8b d8		 mov	 ebx, eax

; 1460 : 	if( (_Reg < 0) || (_Reg > 0x40) ){

  005c1	85 db		 test	 ebx, ebx
  005c3	7c 78		 jl	 SHORT $L25079
  005c5	83 fb 40	 cmp	 ebx, 64			; 00000040H
  005c8	7f 73		 jg	 SHORT $L25079

; 1462 : 	}
; 1463 : 
; 1464 : 	cData = MML->GetChar();

  005ca	e8 00 00 00 00	 call	 ?GetChar@MMLfile@@QAEDXZ ; MMLfile::GetChar

; 1465 : 	if(cData != ','){

  005cf	3c 2c		 cmp	 al, 44			; 0000002cH

; 1466 : 		MML->Err(_T("yV R}hp[^BQwB"));

  005d1	8b c7		 mov	 eax, edi
  005d3	74 07		 je	 SHORT $L25081
  005d5	68 00 00 00 00	 push	 OFFSET FLAT:??_C@_1EA@HBBIMBFO@?$AAy?$AAV?$AA?50?$LD0?$NO0?s0?I0n0?Q0?i0?a0?$PM0?$LP0L?$IN?$LD0?$IK0?$HO0?$FL0?$JD0?$AC@
  005da	eb 68		 jmp	 SHORT $L105693
$L25081:

; 1467 : 	}
; 1468 : 
; 1469 : 	_Dat = MML->GetInt();

  005dc	e8 00 00 00 00	 call	 ?GetInt@MMLfile@@QAEHXZ	; MMLfile::GetInt
  005e1	8b f0		 mov	 esi, eax

; 1470 : 	if( (_Dat < 0) || (_Dat > 255) ){

  005e3	85 f6		 test	 esi, esi
  005e5	7c 4f		 jl	 SHORT $L25084
  005e7	81 fe ff 00 00
	00		 cmp	 esi, 255		; 000000ffH
  005ed	7f 47		 jg	 SHORT $L25084

; 1472 : 	}
; 1473 : 
; 1474 : 	SetEvent(new mml_general(nsc_VRC7_reg,(unsigned char)_Reg,(unsigned char)_Dat, _T("VRC7 Register Write")));

  005ef	6a 3c		 push	 60			; 0000003cH
  005f1	e8 00 00 00 00	 call	 ??2@YAPAXI@Z		; operator new
  005f6	59		 pop	 ecx
  005f7	89 45 f0	 mov	 DWORD PTR $T105681[ebp], eax
  005fa	83 65 fc 00	 and	 DWORD PTR __$EHRec$[ebp+8], 0
  005fe	85 c0		 test	 eax, eax
  00600	74 11		 je	 SHORT $L105682
  00602	68 00 00 00 00	 push	 OFFSET FLAT:??_C@_1CI@JIGLHAON@?$AAV?$AAR?$AAC?$AA7?$AA?5?$AAR?$AAe?$AAg?$AAi?$AAs?$AAt?$AAe?$AAr?$AA?5?$AAW?$AAr?$AAi?$AAt?$AAe?$AA?$AA@
  00607	56		 push	 esi
  00608	53		 push	 ebx
  00609	6a 1d		 push	 29			; 0000001dH
  0060b	50		 push	 eax
  0060c	e8 00 00 00 00	 call	 ??0mml_general@@QAE@EDDQBG@Z ; mml_general::mml_general
  00611	eb 02		 jmp	 SHORT $L105683
$L105682:
  00613	33 c0		 xor	 eax, eax
$L105683:
  00615	83 4d fc ff	 or	 DWORD PTR __$EHRec$[ebp+8], -1
  00619	50		 push	 eax
  0061a	8b 45 08	 mov	 eax, DWORD PTR _this$[ebp]
  0061d	8b 40 50	 mov	 eax, DWORD PTR [eax+80]
  00620	e8 00 00 00 00	 call	 ?SetEvent@MusicTrack@@QAEXPAVMusicItem@@@Z ; MusicTrack::SetEvent

; 1475 : }

  00625	8b 4d f4	 mov	 ecx, DWORD PTR __$EHRec$[ebp]
  00628	5f		 pop	 edi
  00629	5e		 pop	 esi
  0062a	5b		 pop	 ebx
  0062b	64 89 0d 00 00
	00 00		 mov	 DWORD PTR fs:__except_list, ecx
  00632	c9		 leave
  00633	c2 04 00	 ret	 4
$L25084:

; 1471 : 		MML->Err(_T("VRC7WX^2p[^0`255wB"));

  00636	68 00 00 00 00	 push	 OFFSET FLAT:??_C@_1EM@NIHECGCK@?$AAV?$AAR?$AAC?$AA70?l0?$LI0?$LJ0?$LPd?MO?20n?$HL?0?$AA20?Q0?i0?a0?$PM0?$LP0o?$AA0@
  0063b	eb 05		 jmp	 SHORT $L105692
$L25079:

; 1461 : 		MML->Err(_T("VRC7WX^1p[^0`63wB"));

  0063d	68 00 00 00 00	 push	 OFFSET FLAT:??_C@_1EK@HBBIFNHP@?$AAV?$AAR?$AAC?$AA70?l0?$LI0?$LJ0?$LPd?MO?20n?$HL?0?$AA10?Q0?i0?a0?$PM0?$LP0o?$AA0@
$L105692:
  00642	8b c7		 mov	 eax, edi
$L105693:
  00644	e8 00 00 00 00	 call	 ?Err@MMLfile@@QAEXQBG@Z	; MMLfile::Err
$L105695:
$L105691:
  00649	cc		 int	 3
$L105684:
  008c9	ff 75 f0	 push	 DWORD PTR $T105681[ebp]
  008cc	e8 00 00 00 00	 call	 ??3@YAXPAX@Z		; operator delete
  008d1	59		 pop	 ecx
  008d2	c3		 ret	 0
__ehhandler$?Set_VRC7_Write@TrackSet@@QAEXPAVMMLfile@@@Z:
  008d3	b8 00 00 00 00	 mov	 eax, OFFSET FLAT:$T105689
  008d8	e9 00 00 00 00	 jmp	 ___CxxFrameHandler
?Set_VRC7_Write@TrackSet@@QAEXPAVMMLfile@@@Z ENDP	; TrackSet::Set_VRC7_Write
PUBLIC	?Set_FDS_Volume@TrackSet@@QAEXPAVMMLfile@@@Z	; TrackSet::Set_FDS_Volume
$T105709 DD	0ffffffffH
	DD	FLAT:$L105701
$T105706 DD	019930520H
	DD	01H
	DD	FLAT:$T105709
	DD	2 DUP(00H)
	DD	2 DUP(00H)
; Function compile flags: /Ogsy
_TEXT	SEGMENT
__$EHRec$ = -12						; size = 12
_this$ = 8						; size = 4
$T105698 = 12						; size = 4
_MML$ = 12						; size = 4
?Set_FDS_Volume@TrackSet@@QAEXPAVMMLfile@@@Z PROC NEAR	; TrackSet::Set_FDS_Volume

; 1434 : {

  0064a	b8 00 00 00 00	 mov	 eax, __ehhandler$?Set_FDS_Volume@TrackSet@@QAEXPAVMMLfile@@@Z
  0064f	e8 00 00 00 00	 call	 __EH_prolog

; 1435 : 	int		i = MML->GetInt();

  00654	8b 45 0c	 mov	 eax, DWORD PTR _MML$[ebp]
  00657	56		 push	 esi
  00658	e8 00 00 00 00	 call	 ?GetInt@MMLfile@@QAEHXZ	; MMLfile::GetInt
  0065d	8b f0		 mov	 esi, eax

; 1436 : 
; 1437 : 	if((i<=3 ) && (i>=0)){

  0065f	83 fe 03	 cmp	 esi, 3
  00662	7f 48		 jg	 SHORT $L25062
  00664	85 f6		 test	 esi, esi
  00666	7c 44		 jl	 SHORT $L25062

; 1438 : 		SetEvent(new mml_general(nsd_FDS_Volume,(unsigned char)i,_T("FDS Master volume")));

  00668	6a 3c		 push	 60			; 0000003cH
  0066a	e8 00 00 00 00	 call	 ??2@YAPAXI@Z		; operator new
  0066f	59		 pop	 ecx
  00670	89 45 0c	 mov	 DWORD PTR $T105698[ebp], eax
  00673	83 65 fc 00	 and	 DWORD PTR __$EHRec$[ebp+8], 0
  00677	85 c0		 test	 eax, eax
  00679	74 10		 je	 SHORT $L105699
  0067b	68 00 00 00 00	 push	 OFFSET FLAT:??_C@_1CE@KIIDBKFM@?$AAF?$AAD?$AAS?$AA?5?$AAM?$AAa?$AAs?$AAt?$AAe?$AAr?$AA?5?$AAv?$AAo?$AAl?$AAu?$AAm?$AAe?$AA?$AA@
  00680	56		 push	 esi
  00681	6a 25		 push	 37			; 00000025H
  00683	50		 push	 eax
  00684	e8 00 00 00 00	 call	 ??0mml_general@@QAE@EDQBG@Z ; mml_general::mml_general
  00689	eb 02		 jmp	 SHORT $L105700
$L105699:
  0068b	33 c0		 xor	 eax, eax
$L105700:
  0068d	83 4d fc ff	 or	 DWORD PTR __$EHRec$[ebp+8], -1
  00691	50		 push	 eax
  00692	8b 45 08	 mov	 eax, DWORD PTR _this$[ebp]
  00695	8b 40 50	 mov	 eax, DWORD PTR [eax+80]
  00698	e8 00 00 00 00	 call	 ?SetEvent@MusicTrack@@QAEXPAVMusicItem@@@Z ; MusicTrack::SetEvent

; 1441 : 	}
; 1442 : }

  0069d	8b 4d f4	 mov	 ecx, DWORD PTR __$EHRec$[ebp]
  006a0	5e		 pop	 esi
  006a1	64 89 0d 00 00
	00 00		 mov	 DWORD PTR fs:__except_list, ecx
  006a8	c9		 leave
  006a9	c2 08 00	 ret	 8
$L25062:

; 1439 : 	} else {
; 1440 : 		MML->Err(_T("FDS}X^[0`3wB"));

  006ac	8b 45 0c	 mov	 eax, DWORD PTR _MML$[ebp]
  006af	68 00 00 00 00	 push	 OFFSET FLAT:??_C@_1DG@FINIAKBK@?$AAF?$AAD?$AAS0n0?$NO0?$LJ0?$LP0?$PM?$JH?s?$JB?O0o?$AA0?$PP?$FO?$AA30n?$HL?DV?r0gc?$AH?$FL?$JK@
  006b4	e8 00 00 00 00	 call	 ?Err@MMLfile@@QAEXQBG@Z	; MMLfile::Err
$L105710:
$L105708:
  006b9	cc		 int	 3
$L105701:
  008dd	ff 75 0c	 push	 DWORD PTR $T105698[ebp]
  008e0	e8 00 00 00 00	 call	 ??3@YAXPAX@Z		; operator delete
  008e5	59		 pop	 ecx
  008e6	c3		 ret	 0
__ehhandler$?Set_FDS_Volume@TrackSet@@QAEXPAVMMLfile@@@Z:
  008e7	b8 00 00 00 00	 mov	 eax, OFFSET FLAT:$T105706
  008ec	e9 00 00 00 00	 jmp	 ___CxxFrameHandler
?Set_FDS_Volume@TrackSet@@QAEXPAVMMLfile@@@Z ENDP	; TrackSet::Set_FDS_Volume
PUBLIC	?Set_FDS_Frequency@TrackSet@@QAEXPAVMMLfile@@@Z	; TrackSet::Set_FDS_Frequency
$T105724 DD	0ffffffffH
	DD	FLAT:$L105716
$T105721 DD	019930520H
	DD	01H
	DD	FLAT:$T105724
	DD	2 DUP(00H)
	DD	2 DUP(00H)
; Function compile flags: /Ogsy
_TEXT	SEGMENT
$T105713 = -16						; size = 4
__$EHRec$ = -12						; size = 12
_this$ = 8						; size = 4
_c1$25048 = 12						; size = 1
_MML$ = 12						; size = 4
?Set_FDS_Frequency@TrackSet@@QAEXPAVMMLfile@@@Z PROC NEAR ; TrackSet::Set_FDS_Frequency

; 1413 : {

  006ba	b8 00 00 00 00	 mov	 eax, __ehhandler$?Set_FDS_Frequency@TrackSet@@QAEXPAVMMLfile@@@Z
  006bf	e8 00 00 00 00	 call	 __EH_prolog
  006c4	51		 push	 ecx

; 1414 : 	int	i = MML->GetInt();

  006c5	8b 45 0c	 mov	 eax, DWORD PTR _MML$[ebp]
  006c8	56		 push	 esi
  006c9	e8 00 00 00 00	 call	 ?GetInt@MMLfile@@QAEHXZ	; MMLfile::GetInt
  006ce	8b f0		 mov	 esi, eax

; 1415 : 
; 1416 : 	if( (i <= 0x0FFF) && (i >=0) ){

  006d0	81 fe ff 0f 00
	00		 cmp	 esi, 4095		; 00000fffH
  006d6	7f 51		 jg	 SHORT $L25045
  006d8	85 f6		 test	 esi, esi
  006da	7c 4d		 jl	 SHORT $L25045

; 1417 : 		unsigned	char	c0 = (unsigned char)( i       & 0xFF);
; 1418 : 		unsigned	char	c1 = (unsigned char)((i >> 8) & 0xFF);

  006dc	c1 f8 08	 sar	 eax, 8

; 1419 : 		SetEvent(new mml_general(nsd_FDS_Frequency,c0,c1,_T("FDS career frequency")));

  006df	6a 3c		 push	 60			; 0000003cH
  006e1	88 45 0c	 mov	 BYTE PTR _c1$25048[ebp], al
  006e4	e8 00 00 00 00	 call	 ??2@YAPAXI@Z		; operator new
  006e9	59		 pop	 ecx
  006ea	89 45 f0	 mov	 DWORD PTR $T105713[ebp], eax
  006ed	83 65 fc 00	 and	 DWORD PTR __$EHRec$[ebp+8], 0
  006f1	85 c0		 test	 eax, eax
  006f3	74 13		 je	 SHORT $L105714
  006f5	68 00 00 00 00	 push	 OFFSET FLAT:??_C@_1CK@JOCIMFBO@?$AAF?$AAD?$AAS?$AA?5?$AAc?$AAa?$AAr?$AAe?$AAe?$AAr?$AA?5?$AAf?$AAr?$AAe?$AAq?$AAu?$AAe?$AAn?$AAc?$AAy@
  006fa	ff 75 0c	 push	 DWORD PTR _c1$25048[ebp]
  006fd	56		 push	 esi
  006fe	6a 24		 push	 36			; 00000024H
  00700	50		 push	 eax
  00701	e8 00 00 00 00	 call	 ??0mml_general@@QAE@EDDQBG@Z ; mml_general::mml_general
  00706	eb 02		 jmp	 SHORT $L105715
$L105714:
  00708	33 c0		 xor	 eax, eax
$L105715:
  0070a	83 4d fc ff	 or	 DWORD PTR __$EHRec$[ebp+8], -1
  0070e	50		 push	 eax
  0070f	8b 45 08	 mov	 eax, DWORD PTR _this$[ebp]
  00712	8b 40 50	 mov	 eax, DWORD PTR [eax+80]
  00715	e8 00 00 00 00	 call	 ?SetEvent@MusicTrack@@QAEXPAVMusicItem@@@Z ; MusicTrack::SetEvent

; 1422 : 	}
; 1423 : }

  0071a	8b 4d f4	 mov	 ecx, DWORD PTR __$EHRec$[ebp]
  0071d	5e		 pop	 esi
  0071e	64 89 0d 00 00
	00 00		 mov	 DWORD PTR fs:__except_list, ecx
  00725	c9		 leave
  00726	c2 08 00	 ret	 8
$L25045:

; 1420 : 	} else {
; 1421 : 		MML->Err(_T("FDSLAg0`4095wB"));

  00729	8b 45 0c	 mov	 eax, DWORD PTR _MML$[ebp]
  0072c	68 00 00 00 00	 push	 OFFSET FLAT:??_C@_1DO@NCLODOIG@?$AAF?$AAD?$AAS0n0?$KN0?c0?j0?$KCThl?bep0o?$AA0?$PP?$FO?$AA4?$AA0?$AA9?$AA50n?$HL?D@
  00731	e8 00 00 00 00	 call	 ?Err@MMLfile@@QAEXQBG@Z	; MMLfile::Err
$L105725:
$L105723:
  00736	cc		 int	 3
$L105716:
  008f1	ff 75 f0	 push	 DWORD PTR $T105713[ebp]
  008f4	e8 00 00 00 00	 call	 ??3@YAXPAX@Z		; operator delete
  008f9	59		 pop	 ecx
  008fa	c3		 ret	 0
__ehhandler$?Set_FDS_Frequency@TrackSet@@QAEXPAVMMLfile@@@Z:
  008fb	b8 00 00 00 00	 mov	 eax, OFFSET FLAT:$T105721
  00900	e9 00 00 00 00	 jmp	 ___CxxFrameHandler
?Set_FDS_Frequency@TrackSet@@QAEXPAVMMLfile@@@Z ENDP	; TrackSet::Set_FDS_Frequency
PUBLIC	?Set_Poke@TrackSet@@QAEXPAVMMLfile@@@Z		; TrackSet::Set_Poke
$T105741 DD	0ffffffffH
	DD	FLAT:$L105731
$T105736 DD	019930520H
	DD	01H
	DD	FLAT:$T105741
	DD	2 DUP(00H)
	DD	2 DUP(00H)
; Function compile flags: /Ogsy
_TEXT	SEGMENT
$T105728 = -16						; size = 4
__$EHRec$ = -12						; size = 12
_this$ = 8						; size = 4
?Set_Poke@TrackSet@@QAEXPAVMMLfile@@@Z PROC NEAR	; TrackSet::Set_Poke
; _MML$ = ecx

; 1382 : {

  00737	b8 00 00 00 00	 mov	 eax, __ehhandler$?Set_Poke@TrackSet@@QAEXPAVMMLfile@@@Z
  0073c	e8 00 00 00 00	 call	 __EH_prolog
  00741	51		 push	 ecx
  00742	53		 push	 ebx
  00743	56		 push	 esi
  00744	57		 push	 edi
  00745	8b f9		 mov	 edi, ecx

; 1383 : 	unsigned	int		addr;
; 1384 : 	unsigned	int		data;
; 1385 : 	unsigned	char	cData;
; 1386 : 
; 1387 : 	addr = MML->GetInt();

  00747	8b c7		 mov	 eax, edi
  00749	e8 00 00 00 00	 call	 ?GetInt@MMLfile@@QAEHXZ	; MMLfile::GetInt
  0074e	8b d8		 mov	 ebx, eax

; 1388 : 	if( (addr < 0x0000) || (addr > 0xFFFF) ){

  00750	81 fb ff ff 00
	00		 cmp	 ebx, 65535		; 0000ffffH
  00756	77 6e		 ja	 SHORT $L25028

; 1390 : 	}
; 1391 : 
; 1392 : 	cData = MML->GetChar();

  00758	e8 00 00 00 00	 call	 ?GetChar@MMLfile@@QAEDXZ ; MMLfile::GetChar

; 1393 : 	if(cData != ','){

  0075d	3c 2c		 cmp	 al, 44			; 0000002cH

; 1394 : 		MML->Err(_T("yR}hp[^BQwB"));

  0075f	8b c7		 mov	 eax, edi
  00761	74 07		 je	 SHORT $L25030
  00763	68 00 00 00 00	 push	 OFFSET FLAT:??_C@_1DM@CBEKDAPN@?$AAy0?$LD0?$NO0?s0?I0n0?Q0?i0?a0?$PM0?$LP0L?$IN?$LD0?$IK0?$HO0?$FL0?$JD0?$AC?$PP?$BC0d@
  00768	eb 63		 jmp	 SHORT $L105740
$L25030:

; 1395 : 	}
; 1396 : 
; 1397 : 	data = MML->GetInt();

  0076a	e8 00 00 00 00	 call	 ?GetInt@MMLfile@@QAEHXZ	; MMLfile::GetInt
  0076f	8b f0		 mov	 esi, eax

; 1398 : 	if(data > 255){

  00771	81 fe ff 00 00
	00		 cmp	 esi, 255		; 000000ffH
  00777	76 07		 jbe	 SHORT $L25032

; 1399 : 		MML->Err(_T("yR}hf[^$00`$FFwB"));

  00779	68 00 00 00 00	 push	 OFFSET FLAT:??_C@_1DM@CNINMOFB@?$AAy0?$LD0?$NO0?s0?I0n0?G0?$PM0?$LP0o?$AA$?$AA0?$AA0?$PP?$FO?$AA$?$AAF?$AAF0n?$HL?DV?r@
  0077e	eb 4b		 jmp	 SHORT $L105739
$L25032:

; 1400 : 	}
; 1401 : 	SetEvent(new mml_poke(addr, (unsigned char)data));

  00780	6a 3c		 push	 60			; 0000003cH
  00782	e8 00 00 00 00	 call	 ??2@YAPAXI@Z		; operator new
  00787	59		 pop	 ecx
  00788	89 45 f0	 mov	 DWORD PTR $T105728[ebp], eax
  0078b	83 65 fc 00	 and	 DWORD PTR __$EHRec$[ebp+8], 0
  0078f	85 c0		 test	 eax, eax
  00791	74 10		 je	 SHORT $L105729
  00793	68 00 00 00 00	 push	 OFFSET FLAT:??_C@_19MCGBFLHO@?$AAP?$AAo?$AAk?$AAe?$AA?$AA@
  00798	56		 push	 esi
  00799	50		 push	 eax
  0079a	8b cb		 mov	 ecx, ebx
  0079c	e8 00 00 00 00	 call	 ??0mml_poke@@QAE@IEQBG@Z ; mml_poke::mml_poke
  007a1	eb 02		 jmp	 SHORT $L105730
$L105729:
  007a3	33 c0		 xor	 eax, eax
$L105730:
  007a5	83 4d fc ff	 or	 DWORD PTR __$EHRec$[ebp+8], -1
  007a9	50		 push	 eax
  007aa	8b 45 08	 mov	 eax, DWORD PTR _this$[ebp]
  007ad	8b 40 50	 mov	 eax, DWORD PTR [eax+80]
  007b0	e8 00 00 00 00	 call	 ?SetEvent@MusicTrack@@QAEXPAVMusicItem@@@Z ; MusicTrack::SetEvent

; 1402 : }

  007b5	8b 4d f4	 mov	 ecx, DWORD PTR __$EHRec$[ebp]
  007b8	5f		 pop	 edi
  007b9	5e		 pop	 esi
  007ba	5b		 pop	 ebx
  007bb	64 89 0d 00 00
	00 00		 mov	 DWORD PTR fs:__except_list, ecx
  007c2	c9		 leave
  007c3	c2 04 00	 ret	 4
$L25028:

; 1389 : 		MML->Err(_T("yR}hAhX$0000`$FFFFwB"));

  007c6	68 00 00 00 00	 push	 OFFSET FLAT:??_C@_1EG@KMDFAJLP@?$AAy0?$LD0?$NO0?s0?I0n0?$KC0?I0?l0?$LJ0o?$AA$?$AA0?$AA0?$AA0?$AA0?$PP?$FO?$AA$?$AAF?$AAF@
$L105739:
  007cb	8b c7		 mov	 eax, edi
$L105740:
  007cd	e8 00 00 00 00	 call	 ?Err@MMLfile@@QAEXQBG@Z	; MMLfile::Err
$L105742:
$L105738:
  007d2	cc		 int	 3
$L105731:
  00905	ff 75 f0	 push	 DWORD PTR $T105728[ebp]
  00908	e8 00 00 00 00	 call	 ??3@YAXPAX@Z		; operator delete
  0090d	59		 pop	 ecx
  0090e	c3		 ret	 0
__ehhandler$?Set_Poke@TrackSet@@QAEXPAVMMLfile@@@Z:
  0090f	b8 00 00 00 00	 mov	 eax, OFFSET FLAT:$T105736
  00914	e9 00 00 00 00	 jmp	 ___CxxFrameHandler
?Set_Poke@TrackSet@@QAEXPAVMMLfile@@@Z ENDP		; TrackSet::Set_Poke
PUBLIC	?TempoDown@TrackSet@@QAEXXZ			; TrackSet::TempoDown
$T105755 DD	0ffffffffH
	DD	FLAT:$L105748
$T105753 DD	019930520H
	DD	01H
	DD	FLAT:$T105755
	DD	2 DUP(00H)
	DD	2 DUP(00H)
; Function compile flags: /Ogsy
_TEXT	SEGMENT
$T105745 = -16						; size = 4
__$EHRec$ = -12						; size = 12
?TempoDown@TrackSet@@QAEXXZ PROC NEAR			; TrackSet::TempoDown
; _this$ = esi

; 1366 : {

  007d3	b8 00 00 00 00	 mov	 eax, __ehhandler$?TempoDown@TrackSet@@QAEXXZ
  007d8	e8 00 00 00 00	 call	 __EH_prolog
  007dd	51		 push	 ecx

; 1367 : 	iTempo -= 4;

  007de	83 46 40 fc	 add	 DWORD PTR [esi+64], -4	; fffffffcH

; 1368 : 
; 1369 : 	SetEvent(new mml_general(nsd_Relative_Tempo, (char)-4, _T("Relative Tempo")));

  007e2	6a 3c		 push	 60			; 0000003cH
  007e4	e8 00 00 00 00	 call	 ??2@YAPAXI@Z		; operator new
  007e9	59		 pop	 ecx
  007ea	89 45 f0	 mov	 DWORD PTR $T105745[ebp], eax
  007ed	83 65 fc 00	 and	 DWORD PTR __$EHRec$[ebp+8], 0
  007f1	85 c0		 test	 eax, eax
  007f3	74 11		 je	 SHORT $L105746
  007f5	68 00 00 00 00	 push	 OFFSET FLAT:??_C@_1BO@NMEFKJBB@?$AAR?$AAe?$AAl?$AAa?$AAt?$AAi?$AAv?$AAe?$AA?5?$AAT?$AAe?$AAm?$AAp?$AAo?$AA?$AA@
  007fa	6a fc		 push	 -4			; fffffffcH
  007fc	6a 0c		 push	 12			; 0000000cH
  007fe	50		 push	 eax
  007ff	e8 00 00 00 00	 call	 ??0mml_general@@QAE@EDQBG@Z ; mml_general::mml_general
  00804	eb 02		 jmp	 SHORT $L105747
$L105746:
  00806	33 c0		 xor	 eax, eax
$L105747:
  00808	83 4d fc ff	 or	 DWORD PTR __$EHRec$[ebp+8], -1
  0080c	50		 push	 eax
  0080d	8b 46 50	 mov	 eax, DWORD PTR [esi+80]
  00810	e8 00 00 00 00	 call	 ?SetEvent@MusicTrack@@QAEXPAVMusicItem@@@Z ; MusicTrack::SetEvent

; 1370 : 
; 1371 : }

  00815	8b 4d f4	 mov	 ecx, DWORD PTR __$EHRec$[ebp]
  00818	64 89 0d 00 00
	00 00		 mov	 DWORD PTR fs:__except_list, ecx
  0081f	c9		 leave
  00820	c3		 ret	 0
$L105748:
  00919	ff 75 f0	 push	 DWORD PTR $T105745[ebp]
  0091c	e8 00 00 00 00	 call	 ??3@YAXPAX@Z		; operator delete
  00921	59		 pop	 ecx
  00922	c3		 ret	 0
__ehhandler$?TempoDown@TrackSet@@QAEXXZ:
  00923	b8 00 00 00 00	 mov	 eax, OFFSET FLAT:$T105753
  00928	e9 00 00 00 00	 jmp	 ___CxxFrameHandler
?TempoDown@TrackSet@@QAEXXZ ENDP			; TrackSet::TempoDown
PUBLIC	?TempoUp@TrackSet@@QAEXXZ			; TrackSet::TempoUp
$T105768 DD	0ffffffffH
	DD	FLAT:$L105761
$T105766 DD	019930520H
	DD	01H
	DD	FLAT:$T105768
	DD	2 DUP(00H)
	DD	2 DUP(00H)
; Function compile flags: /Ogsy
_TEXT	SEGMENT
$T105758 = -16						; size = 4
__$EHRec$ = -12						; size = 12
?TempoUp@TrackSet@@QAEXXZ PROC NEAR			; TrackSet::TempoUp
; _this$ = esi

; 1350 : {

  00821	b8 00 00 00 00	 mov	 eax, __ehhandler$?TempoUp@TrackSet@@QAEXXZ
  00826	e8 00 00 00 00	 call	 __EH_prolog
  0082b	51		 push	 ecx

; 1351 : 	iTempo += 4;

  0082c	83 46 40 04	 add	 DWORD PTR [esi+64], 4

; 1352 : 
; 1353 : 	SetEvent(new mml_general(nsd_Relative_Tempo, (char)4, _T("Relative Tempo")));

  00830	6a 3c		 push	 60			; 0000003cH
  00832	e8 00 00 00 00	 call	 ??2@YAPAXI@Z		; operator new
  00837	59		 pop	 ecx
  00838	89 45 f0	 mov	 DWORD PTR $T105758[ebp], eax
  0083b	83 65 fc 00	 and	 DWORD PTR __$EHRec$[ebp+8], 0
  0083f	85 c0		 test	 eax, eax
  00841	74 11		 je	 SHORT $L105759
  00843	68 00 00 00 00	 push	 OFFSET FLAT:??_C@_1BO@NMEFKJBB@?$AAR?$AAe?$AAl?$AAa?$AAt?$AAi?$AAv?$AAe?$AA?5?$AAT?$AAe?$AAm?$AAp?$AAo?$AA?$AA@
  00848	6a 04		 push	 4
  0084a	6a 0c		 push	 12			; 0000000cH
  0084c	50		 push	 eax
  0084d	e8 00 00 00 00	 call	 ??0mml_general@@QAE@EDQBG@Z ; mml_general::mml_general
  00852	eb 02		 jmp	 SHORT $L105760
$L105759:
  00854	33 c0		 xor	 eax, eax
$L105760:
  00856	83 4d fc ff	 or	 DWORD PTR __$EHRec$[ebp+8], -1
  0085a	50		 push	 eax
  0085b	8b 46 50	 mov	 eax, DWORD PTR [esi+80]
  0085e	e8 00 00 00 00	 call	 ?SetEvent@MusicTrack@@QAEXPAVMusicItem@@@Z ; MusicTrack::SetEvent

; 1354 : 
; 1355 : }

  00863	8b 4d f4	 mov	 ecx, DWORD PTR __$EHRec$[ebp]
  00866	64 89 0d 00 00
	00 00		 mov	 DWORD PTR fs:__except_list, ecx
  0086d	c9		 leave
  0086e	c3		 ret	 0
$L105761:
  0092d	ff 75 f0	 push	 DWORD PTR $T105758[ebp]
  00930	e8 00 00 00 00	 call	 ??3@YAXPAX@Z		; operator delete
  00935	59		 pop	 ecx
  00936	c3		 ret	 0
__ehhandler$?TempoUp@TrackSet@@QAEXXZ:
  00937	b8 00 00 00 00	 mov	 eax, OFFSET FLAT:$T105766
  0093c	e9 00 00 00 00	 jmp	 ___CxxFrameHandler
?TempoUp@TrackSet@@QAEXXZ ENDP				; TrackSet::TempoUp
PUBLIC	?SetRelativeTempo@TrackSet@@QAEXPAVMMLfile@@@Z	; TrackSet::SetRelativeTempo
$T105781 DD	0ffffffffH
	DD	FLAT:$L105774
$T105779 DD	019930520H
	DD	01H
	DD	FLAT:$T105781
	DD	2 DUP(00H)
	DD	2 DUP(00H)
; Function compile flags: /Ogsy
_TEXT	SEGMENT
__$EHRec$ = -12						; size = 12
$T105771 = 8						; size = 4
_MML$ = 8						; size = 4
?SetRelativeTempo@TrackSet@@QAEXPAVMMLfile@@@Z PROC NEAR ; TrackSet::SetRelativeTempo
; _this$ = esi

; 1332 : {

  0086f	b8 00 00 00 00	 mov	 eax, __ehhandler$?SetRelativeTempo@TrackSet@@QAEXPAVMMLfile@@@Z
  00874	e8 00 00 00 00	 call	 __EH_prolog

; 1333 : 	int	iValue	= MML->GetInt();

  00879	8b 45 08	 mov	 eax, DWORD PTR _MML$[ebp]
  0087c	57		 push	 edi
  0087d	e8 00 00 00 00	 call	 ?GetInt@MMLfile@@QAEHXZ	; MMLfile::GetInt
  00882	8b f8		 mov	 edi, eax

; 1334 : 
; 1335 : 	iTempo += iValue;

  00884	01 7e 40	 add	 DWORD PTR [esi+64], edi

; 1336 : 
; 1337 : 	SetEvent(new mml_general(nsd_Relative_Tempo, (char)iValue, _T("Relative Tempo")));

  00887	6a 3c		 push	 60			; 0000003cH
  00889	e8 00 00 00 00	 call	 ??2@YAPAXI@Z		; operator new
  0088e	59		 pop	 ecx
  0088f	89 45 08	 mov	 DWORD PTR $T105771[ebp], eax
  00892	83 65 fc 00	 and	 DWORD PTR __$EHRec$[ebp+8], 0
  00896	85 c0		 test	 eax, eax
  00898	74 10		 je	 SHORT $L105772
  0089a	68 00 00 00 00	 push	 OFFSET FLAT:??_C@_1BO@NMEFKJBB@?$AAR?$AAe?$AAl?$AAa?$AAt?$AAi?$AAv?$AAe?$AA?5?$AAT?$AAe?$AAm?$AAp?$AAo?$AA?$AA@
  0089f	57		 push	 edi
  008a0	6a 0c		 push	 12			; 0000000cH
  008a2	50		 push	 eax
  008a3	e8 00 00 00 00	 call	 ??0mml_general@@QAE@EDQBG@Z ; mml_general::mml_general
  008a8	eb 02		 jmp	 SHORT $L105773
$L105772:
  008aa	33 c0		 xor	 eax, eax
$L105773:
  008ac	83 4d fc ff	 or	 DWORD PTR __$EHRec$[ebp+8], -1
  008b0	50		 push	 eax
  008b1	8b 46 50	 mov	 eax, DWORD PTR [esi+80]
  008b4	e8 00 00 00 00	 call	 ?SetEvent@MusicTrack@@QAEXPAVMusicItem@@@Z ; MusicTrack::SetEvent

; 1338 : 
; 1339 : }

  008b9	8b 4d f4	 mov	 ecx, DWORD PTR __$EHRec$[ebp]
  008bc	5f		 pop	 edi
  008bd	64 89 0d 00 00
	00 00		 mov	 DWORD PTR fs:__except_list, ecx
  008c4	c9		 leave
  008c5	c2 04 00	 ret	 4
$L105774:
  00941	ff 75 08	 push	 DWORD PTR $T105771[ebp]
  00944	e8 00 00 00 00	 call	 ??3@YAXPAX@Z		; operator delete
  00949	59		 pop	 ecx
  0094a	c3		 ret	 0
__ehhandler$?SetRelativeTempo@TrackSet@@QAEXPAVMMLfile@@@Z:
  0094b	b8 00 00 00 00	 mov	 eax, OFFSET FLAT:$T105779
  00950	e9 00 00 00 00	 jmp	 ___CxxFrameHandler
?SetRelativeTempo@TrackSet@@QAEXPAVMMLfile@@@Z ENDP	; TrackSet::SetRelativeTempo
PUBLIC	?SetTempo@TrackSet@@QAEXPAVMMLfile@@@Z		; TrackSet::SetTempo
$T105795 DD	0ffffffffH
	DD	FLAT:$L105787
$T105792 DD	019930520H
	DD	01H
	DD	FLAT:$T105795
	DD	2 DUP(00H)
	DD	2 DUP(00H)
; Function compile flags: /Ogsy
_TEXT	SEGMENT
$T105784 = -16						; size = 4
__$EHRec$ = -12						; size = 12
?SetTempo@TrackSet@@QAEXPAVMMLfile@@@Z PROC NEAR	; TrackSet::SetTempo
; _this$ = esi
; _MML$ = edi

; 1312 : {

  008c8	b8 00 00 00 00	 mov	 eax, __ehhandler$?SetTempo@TrackSet@@QAEXPAVMMLfile@@@Z
  008cd	e8 00 00 00 00	 call	 __EH_prolog
  008d2	51		 push	 ecx

; 1313 : 	int	iValue	= MML->GetInt();

  008d3	8b c7		 mov	 eax, edi
  008d5	e8 00 00 00 00	 call	 ?GetInt@MMLfile@@QAEHXZ	; MMLfile::GetInt
  008da	8b c8		 mov	 ecx, eax

; 1314 : 
; 1315 : 	iTempo = ((iValue * MML->timebase) / 24);

  008dc	8b 87 90 00 00
	00		 mov	 eax, DWORD PTR [edi+144]
  008e2	0f af c1	 imul	 eax, ecx
  008e5	6a 18		 push	 24			; 00000018H
  008e7	99		 cdq
  008e8	59		 pop	 ecx
  008e9	f7 f9		 idiv	 ecx

; 1316 : 	
; 1317 : 	if((iTempo<0) || (iTempo>255)){

  008eb	85 c0		 test	 eax, eax
  008ed	89 46 40	 mov	 DWORD PTR [esi+64], eax
  008f0	7c 4a		 jl	 SHORT $L24985
  008f2	3d ff 00 00 00	 cmp	 eax, 255		; 000000ffH
  008f7	7f 43		 jg	 SHORT $L24985

; 1319 : 	}
; 1320 : 	SetEvent(new mml_general(nsd_Tempo, (unsigned char)iTempo, _T("Tempo")));

  008f9	6a 3c		 push	 60			; 0000003cH
  008fb	e8 00 00 00 00	 call	 ??2@YAPAXI@Z		; operator new
  00900	59		 pop	 ecx
  00901	89 45 f0	 mov	 DWORD PTR $T105784[ebp], eax
  00904	83 65 fc 00	 and	 DWORD PTR __$EHRec$[ebp+8], 0
  00908	85 c0		 test	 eax, eax
  0090a	74 15		 je	 SHORT $L105785
  0090c	33 c9		 xor	 ecx, ecx
  0090e	8a 4e 40	 mov	 cl, BYTE PTR [esi+64]
  00911	68 00 00 00 00	 push	 OFFSET FLAT:??_C@_1M@KPBAMICJ@?$AAT?$AAe?$AAm?$AAp?$AAo?$AA?$AA@
  00916	51		 push	 ecx
  00917	6a 08		 push	 8
  00919	50		 push	 eax
  0091a	e8 00 00 00 00	 call	 ??0mml_general@@QAE@EDQBG@Z ; mml_general::mml_general
  0091f	eb 02		 jmp	 SHORT $L105786
$L105785:
  00921	33 c0		 xor	 eax, eax
$L105786:
  00923	83 4d fc ff	 or	 DWORD PTR __$EHRec$[ebp+8], -1
  00927	50		 push	 eax
  00928	8b 46 50	 mov	 eax, DWORD PTR [esi+80]
  0092b	e8 00 00 00 00	 call	 ?SetEvent@MusicTrack@@QAEXPAVMusicItem@@@Z ; MusicTrack::SetEvent

; 1321 : }

  00930	8b 4d f4	 mov	 ecx, DWORD PTR __$EHRec$[ebp]
  00933	64 89 0d 00 00
	00 00		 mov	 DWORD PTR fs:__except_list, ecx
  0093a	c9		 leave
  0093b	c3		 ret	 0
$L24985:

; 1318 : 		MML->Err(_T("e|w\B"));

  0093c	68 00 00 00 00	 push	 OFFSET FLAT:??_C@_1CG@CEHFAHAL@0?F0?s0?$NN0Lc?$AH?$FL?$JKS?o?$IA?$PN0j?$HL?DV?r0?$JC?$IN?$IF0H0?$HO0W0_0?$AC?$AA?$AA@
  00941	8b c7		 mov	 eax, edi
  00943	e8 00 00 00 00	 call	 ?Err@MMLfile@@QAEXQBG@Z	; MMLfile::Err
$L105796:
$L105794:
  00948	cc		 int	 3
$L105787:
  00955	ff 75 f0	 push	 DWORD PTR $T105784[ebp]
  00958	e8 00 00 00 00	 call	 ??3@YAXPAX@Z		; operator delete
  0095d	59		 pop	 ecx
  0095e	c3		 ret	 0
__ehhandler$?SetTempo@TrackSet@@QAEXPAVMMLfile@@@Z:
  0095f	b8 00 00 00 00	 mov	 eax, OFFSET FLAT:$T105792
  00964	e9 00 00 00 00	 jmp	 ___CxxFrameHandler
?SetTempo@TrackSet@@QAEXPAVMMLfile@@@Z ENDP		; TrackSet::SetTempo
PUBLIC	?SetJumpDrv@TrackSet@@QAEXPAVMMLfile@@@Z	; TrackSet::SetJumpDrv
$T105819 DD	0ffffffffH
	DD	FLAT:$L105806
	DD	0ffffffffH
	DD	FLAT:$L105807
$T105815 DD	019930520H
	DD	02H
	DD	FLAT:$T105819
	DD	2 DUP(00H)
	DD	2 DUP(00H)
; Function compile flags: /Ogsy
_TEXT	SEGMENT
__$EHRec$ = -12						; size = 12
$T105803 = 8						; size = 4
$T105799 = 8						; size = 4
_MML$ = 8						; size = 4
?SetJumpDrv@TrackSet@@QAEXPAVMMLfile@@@Z PROC NEAR	; TrackSet::SetJumpDrv
; _this$ = edi

; 1288 : {

  00949	b8 00 00 00 00	 mov	 eax, __ehhandler$?SetJumpDrv@TrackSet@@QAEXPAVMMLfile@@@Z
  0094e	e8 00 00 00 00	 call	 __EH_prolog

; 1289 : 	int	i	= MML->GetInt();

  00953	8b 45 08	 mov	 eax, DWORD PTR _MML$[ebp]
  00956	e8 00 00 00 00	 call	 ?GetInt@MMLfile@@QAEHXZ	; MMLfile::GetInt

; 1290 : 
; 1291 : 	switch(i){

  0095b	83 e8 00	 sub	 eax, 0
  0095e	74 37		 je	 SHORT $L24963
  00960	48		 dec	 eax
  00961	74 0d		 je	 SHORT $L24970

; 1297 : 			break;
; 1298 : 		default:
; 1299 : 			MML->Err(_T("jR}hw\B"));

  00963	8b 45 08	 mov	 eax, DWORD PTR _MML$[ebp]
  00966	68 00 00 00 00	 push	 OFFSET FLAT:??_C@_1CK@GFGAOJII@?$AAj0?$LD0?$NO0?s0?I0Lc?$AH?$FL?$JKS?o?$IA?$PN0j?$HL?DV?r0?$JC?$IN?$IF0H0?$HO0W0_0?$AC@
  0096b	e8 00 00 00 00	 call	 ?Err@MMLfile@@QAEXQBG@Z	; MMLfile::Err
$L105820:
$L24970:

; 1294 : 			break;
; 1295 : 		case(1):
; 1296 : 			SetEvent(new mml_general(nsd_SubCommand, (const char)nsd_sub_Jump_on, _T("Jump On")));

  00970	6a 3c		 push	 60			; 0000003cH
  00972	e8 00 00 00 00	 call	 ??2@YAPAXI@Z		; operator new
  00977	59		 pop	 ecx
  00978	89 45 08	 mov	 DWORD PTR $T105803[ebp], eax
  0097b	85 c0		 test	 eax, eax
  0097d	c7 45 fc 01 00
	00 00		 mov	 DWORD PTR __$EHRec$[ebp+8], 1
  00984	74 2d		 je	 SHORT $L105800
  00986	68 00 00 00 00	 push	 OFFSET FLAT:??_C@_1BA@DLHAJHPF@?$AAJ?$AAu?$AAm?$AAp?$AA?5?$AAO?$AAn?$AA?$AA@
  0098b	6a 00		 push	 0
$L105818:
  0098d	6a 2f		 push	 47			; 0000002fH
  0098f	50		 push	 eax
  00990	e8 00 00 00 00	 call	 ??0mml_general@@QAE@EDQBG@Z ; mml_general::mml_general
  00995	eb 1e		 jmp	 SHORT $L105801
$L24963:

; 1292 : 		case(0):
; 1293 : 			SetEvent(new mml_general(nsd_SubCommand, (const char)nsd_sub_Jump_off, _T("Jump Off")));

  00997	6a 3c		 push	 60			; 0000003cH
  00999	e8 00 00 00 00	 call	 ??2@YAPAXI@Z		; operator new
  0099e	59		 pop	 ecx
  0099f	89 45 08	 mov	 DWORD PTR $T105799[ebp], eax
  009a2	83 65 fc 00	 and	 DWORD PTR __$EHRec$[ebp+8], 0
  009a6	85 c0		 test	 eax, eax
  009a8	74 09		 je	 SHORT $L105800
  009aa	68 00 00 00 00	 push	 OFFSET FLAT:??_C@_1BC@PFLOACNN@?$AAJ?$AAu?$AAm?$AAp?$AA?5?$AAO?$AAf?$AAf?$AA?$AA@
  009af	6a 01		 push	 1
  009b1	eb da		 jmp	 SHORT $L105818
$L105800:
  009b3	33 c0		 xor	 eax, eax
$L105801:
  009b5	83 4d fc ff	 or	 DWORD PTR __$EHRec$[ebp+8], -1
  009b9	50		 push	 eax
  009ba	8b 47 50	 mov	 eax, DWORD PTR [edi+80]
  009bd	e8 00 00 00 00	 call	 ?SetEvent@MusicTrack@@QAEXPAVMusicItem@@@Z ; MusicTrack::SetEvent

; 1300 : 	}
; 1301 : }

  009c2	8b 4d f4	 mov	 ecx, DWORD PTR __$EHRec$[ebp]
  009c5	64 89 0d 00 00
	00 00		 mov	 DWORD PTR fs:__except_list, ecx
  009cc	c9		 leave
  009cd	c2 04 00	 ret	 4
$L105817:
$L105807:
  00969	ff 75 08	 push	 DWORD PTR $T105803[ebp]
  0096c	e8 00 00 00 00	 call	 ??3@YAXPAX@Z		; operator delete
  00971	59		 pop	 ecx
  00972	c3		 ret	 0
$L105806:
  00973	ff 75 08	 push	 DWORD PTR $T105799[ebp]
  00976	e8 00 00 00 00	 call	 ??3@YAXPAX@Z		; operator delete
  0097b	59		 pop	 ecx
  0097c	c3		 ret	 0
__ehhandler$?SetJumpDrv@TrackSet@@QAEXPAVMMLfile@@@Z:
  0097d	b8 00 00 00 00	 mov	 eax, OFFSET FLAT:$T105815
  00982	e9 00 00 00 00	 jmp	 ___CxxFrameHandler
?SetJumpDrv@TrackSet@@QAEXPAVMMLfile@@@Z ENDP		; TrackSet::SetJumpDrv
PUBLIC	?Set_Priority@TrackSet@@QAEXPAVMMLfile@@@Z	; TrackSet::Set_Priority
; Function compile flags: /Ogsy
_TEXT	SEGMENT
_MML$ = 8						; size = 4
?Set_Priority@TrackSet@@QAEXPAVMMLfile@@@Z PROC NEAR	; TrackSet::Set_Priority
; _this$ = esi

; 1264 : 	int	i = MML->GetInt();

  009d0	8b 44 24 04	 mov	 eax, DWORD PTR _MML$[esp-4]
  009d4	e8 00 00 00 00	 call	 ?GetInt@MMLfile@@QAEHXZ	; MMLfile::GetInt

; 1265 : 
; 1266 : 	//se?
; 1267 : 	if(fSE == false){

  009d9	80 7e 5d 00	 cmp	 BYTE PTR [esi+93], 0
  009dd	75 11		 jne	 SHORT $L24947

; 1268 : 		MML->Warning(_T("SEubNODxwBB"));

  009df	8b 44 24 04	 mov	 eax, DWORD PTR _MML$[esp-4]
  009e3	68 00 00 00 00	 push	 OFFSET FLAT:??_C@_1DK@DNENJNME@?$AAS?$AAE0?V0?m0?C0?$KPN?eY?$BG0g0oQ?$CKQH?$FO?$KGc?$AH?$FL?$JK0o0g0M0?$HO0?$FL@
  009e8	e8 00 00 00 00	 call	 ?Warning@MMLfile@@QAEXQBG@Z ; MMLfile::Warning
$L24945:

; 1274 : 		}
; 1275 : 	}
; 1276 : 
; 1277 : }

  009ed	c2 04 00	 ret	 4
$L24947:

; 1269 : 	} else {
; 1270 : 		if( (i <= 3) && (i >=0) ){

  009f0	83 f8 03	 cmp	 eax, 3
  009f3	7f 09		 jg	 SHORT $L24950
  009f5	85 c0		 test	 eax, eax
  009f7	7c 05		 jl	 SHORT $L24950

; 1271 : 			Priority = (char)i;

  009f9	88 46 68	 mov	 BYTE PTR [esi+104], al

; 1274 : 		}
; 1275 : 	}
; 1276 : 
; 1277 : }

  009fc	eb ef		 jmp	 SHORT $L24945
$L24950:

; 1272 : 		} else {
; 1273 : 			MML->Err(_T("DxA0`3wB"));

  009fe	8b 44 24 04	 mov	 eax, DWORD PTR _MML$[esp-4]
  00a02	68 00 00 00 00	 push	 OFFSET FLAT:??_C@_1DE@GKCFHPBH@R?$LJg?$JM?$JH?s0nQ?$CKQH?$FO?$KG0o0?$AB0o?$AA0?$PP?$FO?$AA30n?$HL?DV?r0gc?$AH?$FL?$JK0W@
  00a07	e8 00 00 00 00	 call	 ?Err@MMLfile@@QAEXQBG@Z	; MMLfile::Err
$L105823:
$L105822:
  00a0c	cc		 int	 3
?Set_Priority@TrackSet@@QAEXPAVMMLfile@@@Z ENDP		; TrackSet::Set_Priority
_TEXT	ENDS
PUBLIC	?getTrack@TrackSet@@QAEPAVMusicTrack@@PAVMMLfile@@H@Z ; TrackSet::getTrack
; Function compile flags: /Ogsy
_TEXT	SEGMENT
_i$ = -4						; size = 4
_MML$ = 8						; size = 4
__track$ = 12						; size = 4
?getTrack@TrackSet@@QAEPAVMusicTrack@@PAVMMLfile@@H@Z PROC NEAR ; TrackSet::getTrack
; _this$ = eax

; 1218 : {

  00a0d	55		 push	 ebp
  00a0e	8b ec		 mov	 ebp, esp
  00a10	51		 push	 ecx
  00a11	56		 push	 esi
  00a12	8b f0		 mov	 esi, eax
  00a14	57		 push	 edi

; 1219 : 			int	i			 = maxTrack;	// i = AIgbN

  00a15	8b 7e 58	 mov	 edi, DWORD PTR [esi+88]

; 1220 : 	MusicTrack*	_getTrack;
; 1221 : 
; 1222 : 	//IgbNwlAJB
; 1223 : 	while(i < _track){

  00a18	3b 7d 0c	 cmp	 edi, DWORD PTR __track$[ebp]
  00a1b	7d 27		 jge	 SHORT $L24739
  00a1d	53		 push	 ebx
  00a1e	8d 5e 44	 lea	 ebx, DWORD PTR [esi+68]
$L24738:

; 1224 : 		i++;
; 1225 : 		//gbN
; 1226 : 		if(ptcTrack.count(i) == 0){

  00a21	8d 45 fc	 lea	 eax, DWORD PTR _i$[ebp]
  00a24	50		 push	 eax
  00a25	47		 inc	 edi
  00a26	53		 push	 ebx
  00a27	89 7d fc	 mov	 DWORD PTR _i$[ebp], edi
  00a2a	e8 00 00 00 00	 call	 ?count@?$_Tree@V?$_Tmap_traits@HPAVMusicTrack@@U?$less@H@std@@V?$allocator@U?$pair@$$CBHPAVMusicTrack@@@std@@@3@$0A@@std@@@std@@QBEIABH@Z ; std::_Tree<std::_Tmap_traits<int,MusicTrack *,std::less<int>,std::allocator<std::pair<int const ,MusicTrack *> >,0> >::count
  00a2f	85 c0		 test	 eax, eax
  00a31	75 27		 jne	 SHORT $L24740

; 1227 : 			_getTrack	= makeTrack(MML, i);

  00a33	57		 push	 edi
  00a34	ff 75 08	 push	 DWORD PTR _MML$[ebp]
  00a37	8b ce		 mov	 ecx, esi
  00a39	e8 00 00 00 00	 call	 ?makeTrack@TrackSet@@QAEPAVMusicTrack@@PAVMMLfile@@H@Z ; TrackSet::makeTrack
  00a3e	3b 7d 0c	 cmp	 edi, DWORD PTR __track$[ebp]
  00a41	7c de		 jl	 SHORT $L24738
  00a43	5b		 pop	 ebx
$L24739:

; 1231 : 		}
; 1232 : 	}
; 1233 : 	maxTrack = i;	//gbNlLB

  00a44	89 7e 58	 mov	 DWORD PTR [esi+88], edi

; 1234 : 
; 1235 : 	//|C^B
; 1236 : 	_getTrack = ptcTrack[_track];

  00a47	8d 7e 44	 lea	 edi, DWORD PTR [esi+68]
  00a4a	8d 75 0c	 lea	 esi, DWORD PTR __track$[ebp]
  00a4d	e8 00 00 00 00	 call	 ??A?$map@HPAVMusicTrack@@U?$less@H@std@@V?$allocator@U?$pair@$$CBHPAVMusicTrack@@@std@@@3@@std@@QAEAAPAVMusicTrack@@ABH@Z ; std::map<int,MusicTrack *,std::less<int>,std::allocator<std::pair<int const ,MusicTrack *> > >::operator[]

; 1237 : 
; 1238 : 	return(_getTrack);

  00a52	8b 00		 mov	 eax, DWORD PTR [eax]
  00a54	5f		 pop	 edi
  00a55	5e		 pop	 esi

; 1239 : }

  00a56	c9		 leave
  00a57	c2 08 00	 ret	 8
$L24740:

; 1228 : 		} else {
; 1229 : 			_CERR << _T("MusicTrack* TrackSet::getTrack()G[B") << endl;

  00a5a	68 00 00 00 00	 push	 OFFSET FLAT:??_C@_1FO@HMLHKAGM@?$AAM?$AAu?$AAs?$AAi?$AAc?$AAT?$AAr?$AAa?$AAc?$AAk?$AA?$CK?$AA?5?$AAT?$AAr?$AAa?$AAc?$AAk?$AAS?$AAe?$AAt@
  00a5f	68 00 00 00 00	 push	 OFFSET FLAT:?wcerr@std@@3V?$basic_ostream@GU?$char_traits@G@std@@@1@A ; std::wcerr
  00a64	e8 00 00 00 00	 call	 ??$?6GU?$char_traits@G@std@@@std@@YAAAV?$basic_ostream@GU?$char_traits@G@std@@@0@AAV10@PBG@Z ; std::operator<<<unsigned short,std::char_traits<unsigned short> >
  00a69	50		 push	 eax
  00a6a	e8 00 00 00 00	 call	 ?endl@std@@YAAAV?$basic_ostream@GU?$char_traits@G@std@@@1@AAV21@@Z ; std::endl

; 1230 : 			nsc_exit(EXIT_FAILURE);

  00a6f	33 c0		 xor	 eax, eax
  00a71	83 c4 0c	 add	 esp, 12			; 0000000cH
  00a74	40		 inc	 eax
  00a75	e8 00 00 00 00	 call	 ?nsc_exit@@YAXH@Z	; nsc_exit
$L105831:
$L105830:
  00a7a	cc		 int	 3
?getTrack@TrackSet@@QAEPAVMusicTrack@@PAVMMLfile@@H@Z ENDP ; TrackSet::getTrack
_TEXT	ENDS
PUBLIC	?TrackChk@TrackSet@@QAEXPAVMMLfile@@@Z		; TrackSet::TrackChk
; Function compile flags: /Ogsy
_TEXT	SEGMENT
_i$ = -4						; size = 4
_MML$ = 8						; size = 4
?TrackChk@TrackSet@@QAEXPAVMMLfile@@@Z PROC NEAR	; TrackSet::TrackChk
; _this$ = ebx

; 1088 : {

  00a7b	55		 push	 ebp
  00a7c	8b ec		 mov	 ebp, esp
  00a7e	51		 push	 ecx

; 1089 : 	int		i = iTrack + 1;

  00a7f	8b 43 54	 mov	 eax, DWORD PTR [ebx+84]

; 1090 : 
; 1091 : 	if(MML->GetMacroNest() > 0){

  00a82	8b 4d 08	 mov	 ecx, DWORD PTR _MML$[ebp]
  00a85	40		 inc	 eax
  00a86	83 79 60 00	 cmp	 DWORD PTR [ecx+96], 0
  00a8a	89 45 fc	 mov	 DWORD PTR _i$[ebp], eax
  00a8d	7e 0c		 jle	 SHORT $L24684

; 1092 : 		MML->Err(_T("}NgbNwB"));

  00a8f	68 00 00 00 00	 push	 OFFSET FLAT:??_C@_1CI@FKLPJOID@0?$NO0?$KP0?mN?90g0?H0?i0?C0?$KP0nc?$AH?$FL?$JK0o0g0M0?$HO0?$FL0?$JD0?$AC?$AA?$AA@
  00a94	8b c1		 mov	 eax, ecx
  00a96	e8 00 00 00 00	 call	 ?Err@MMLfile@@QAEXQBG@Z	; MMLfile::Err
$L105857:
$L24684:

; 1093 : 	}
; 1094 : 
; 1095 : 	//------------------
; 1096 : 	//gbN`FbN
; 1097 : //	i		= iTrack + 1;
; 1098 : 	iTrack	= 0;

  00a9b	83 63 54 00	 and	 DWORD PTR [ebx+84], 0

; 1099 : 	while(i <= maxTrack){

  00a9f	3b 43 58	 cmp	 eax, DWORD PTR [ebx+88]
  00aa2	56		 push	 esi
  00aa3	7f 2b		 jg	 SHORT $L24688
  00aa5	57		 push	 edi
  00aa6	8d 7b 44	 lea	 edi, DWORD PTR [ebx+68]
$L24687:

; 1100 : 		if(ptcTrack[i]->GetCompileFlag() == true){

  00aa9	8d 75 fc	 lea	 esi, DWORD PTR _i$[ebp]
  00aac	e8 00 00 00 00	 call	 ??A?$map@HPAVMusicTrack@@U?$less@H@std@@V?$allocator@U?$pair@$$CBHPAVMusicTrack@@@std@@@3@@std@@QAEAAPAVMusicTrack@@ABH@Z ; std::map<int,MusicTrack *,std::less<int>,std::allocator<std::pair<int const ,MusicTrack *> > >::operator[]
  00ab1	8b 00		 mov	 eax, DWORD PTR [eax]
  00ab3	80 b8 a0 00 00
	00 01		 cmp	 BYTE PTR [eax+160], 1
  00aba	74 0d		 je	 SHORT $L105853

; 1102 : 			break;
; 1103 : 		}
; 1104 : 		i++;

  00abc	ff 45 fc	 inc	 DWORD PTR _i$[ebp]
  00abf	8b 45 fc	 mov	 eax, DWORD PTR _i$[ebp]
  00ac2	3b 43 58	 cmp	 eax, DWORD PTR [ebx+88]
  00ac5	7e e2		 jle	 SHORT $L24687

; 1100 : 		if(ptcTrack[i]->GetCompileFlag() == true){

  00ac7	eb 06		 jmp	 SHORT $L105855
$L105853:

; 1101 : 			iTrack = i;

  00ac9	8b 45 fc	 mov	 eax, DWORD PTR _i$[ebp]
  00acc	89 43 54	 mov	 DWORD PTR [ebx+84], eax
$L105855:
  00acf	5f		 pop	 edi
$L24688:

; 1105 : 	}
; 1106 : 
; 1107 : 	if(iTrack != 0){

  00ad0	83 7b 54 00	 cmp	 DWORD PTR [ebx+84], 0
  00ad4	74 29		 je	 SHORT $L24690

; 1108 : 		//------------------
; 1109 : 		//gbN
; 1110 : 
; 1111 : 		//|C^sA
; 1112 : 		MML->StreamPointerMove(TrackPt);

  00ad6	8b 75 08	 mov	 esi, DWORD PTR _MML$[ebp]
  00ad9	8b 4b 60	 mov	 ecx, DWORD PTR [ebx+96]
  00adc	8b c6		 mov	 eax, esi
  00ade	e8 00 00 00 00	 call	 ?StreamPointerMove@MMLfile@@QAEXJ@Z ; MMLfile::StreamPointerMove

; 1113 : 		MML->SetLine(TrackLine);

  00ae3	8b 46 10	 mov	 eax, DWORD PTR [esi+16]
  00ae6	8b 4b 64	 mov	 ecx, DWORD PTR [ebx+100]
  00ae9	89 88 80 00 00
	00		 mov	 DWORD PTR [eax+128], ecx

; 1114 : 		nowTrack = getTrack(MML, iTrack);

  00aef	ff 73 54	 push	 DWORD PTR [ebx+84]
  00af2	8b c3		 mov	 eax, ebx
  00af4	56		 push	 esi
  00af5	e8 00 00 00 00	 call	 ?getTrack@TrackSet@@QAEPAVMusicTrack@@PAVMMLfile@@H@Z ; TrackSet::getTrack
  00afa	89 43 50	 mov	 DWORD PTR [ebx+80], eax

; 1115 : 	} else {

  00afd	eb 04		 jmp	 SHORT $L24691
$L24690:

; 1116 : 		nowTrack = NULL;

  00aff	83 63 50 00	 and	 DWORD PTR [ebx+80], 0
$L24691:
  00b03	5e		 pop	 esi

; 1117 : 	}
; 1118 : }

  00b04	c9		 leave
  00b05	c2 04 00	 ret	 4
$L105856:
?TrackChk@TrackSet@@QAEXPAVMMLfile@@@Z ENDP		; TrackSet::TrackChk
_TEXT	ENDS
PUBLIC	?TickCount@TrackSet@@QAEXPAVMusicFile@@@Z	; TrackSet::TickCount
; Function compile flags: /Ogsy
_TEXT	SEGMENT
_MUS$ = 8						; size = 4
?TickCount@TrackSet@@QAEXPAVMusicFile@@@Z PROC NEAR	; TrackSet::TickCount
; _this$ = ebx

; 1026 : {

  00b08	56		 push	 esi

; 1027 : 
; 1028 : 	int		iTrack = 0;
; 1029 : 	int		j;
; 1030 : 	int		_maxTrack = maxTrack + 1;

  00b09	8b 73 58	 mov	 esi, DWORD PTR [ebx+88]
  00b0c	33 c0		 xor	 eax, eax
  00b0e	46		 inc	 esi

; 1031 : 
; 1032 : 	while(iTrack < _maxTrack){

  00b0f	85 f6		 test	 esi, esi
  00b11	7e 28		 jle	 SHORT $L24661
  00b13	57		 push	 edi
$L24660:

; 1033 : 		j = iTrack + 8;

  00b14	8d 78 08	 lea	 edi, DWORD PTR [eax+8]

; 1034 : 		if(j >= _maxTrack){

  00b17	3b fe		 cmp	 edi, esi
  00b19	7c 02		 jl	 SHORT $L24662

; 1035 : 			j = _maxTrack;

  00b1b	8b fe		 mov	 edi, esi
$L24662:

; 1036 : 		}
; 1037 : 		TickCountPrint(MUS,iTrack,j);

  00b1d	57		 push	 edi
  00b1e	50		 push	 eax
  00b1f	ff 74 24 14	 push	 DWORD PTR _MUS$[esp+12]
  00b23	53		 push	 ebx
  00b24	e8 00 00 00 00	 call	 ?TickCountPrint@TrackSet@@QAEXPAVMusicFile@@HH@Z ; TrackSet::TickCountPrint

; 1038 : 		cout << endl;

  00b29	68 00 00 00 00	 push	 OFFSET FLAT:?cout@std@@3V?$basic_ostream@DU?$char_traits@D@std@@@1@A
  00b2e	e8 00 00 00 00	 call	 ?endl@std@@YAAAV?$basic_ostream@DU?$char_traits@D@std@@@1@AAV21@@Z ; std::endl
  00b33	3b fe		 cmp	 edi, esi
  00b35	59		 pop	 ecx

; 1039 : 		iTrack = j;

  00b36	8b c7		 mov	 eax, edi
  00b38	7c da		 jl	 SHORT $L24660
  00b3a	5f		 pop	 edi
$L24661:
  00b3b	5e		 pop	 esi

; 1040 : 	}
; 1041 : }

  00b3c	c2 04 00	 ret	 4
?TickCount@TrackSet@@QAEXPAVMusicFile@@@Z ENDP		; TrackSet::TickCount
PUBLIC	?TrackProc@TrackSet@@QAEXPAVMMLfile@@@Z		; TrackSet::TrackProc
; Function compile flags: /Ogsy
_TEXT	SEGMENT
_i$ = -4						; size = 4
_MML$ = 8						; size = 4
?TrackProc@TrackSet@@QAEXPAVMMLfile@@@Z PROC NEAR	; TrackSet::TrackProc
; _this$ = eax

; 1129 : {

  00b3f	55		 push	 ebp
  00b40	8b ec		 mov	 ebp, esp
  00b42	51		 push	 ecx
  00b43	53		 push	 ebx
  00b44	56		 push	 esi
  00b45	57		 push	 edi

; 1130 : 					int		i;
; 1131 : 	unsigned		char	cData;
; 1132 : 
; 1133 : 	//------------------
; 1134 : 	//gbN`FbN
; 1135 : 
; 1136 : 	TrackChk(MML);

  00b46	8b 7d 08	 mov	 edi, DWORD PTR _MML$[ebp]
  00b49	8b d8		 mov	 ebx, eax
  00b4b	57		 push	 edi
  00b4c	e8 00 00 00 00	 call	 ?TrackChk@TrackSet@@QAEXPAVMMLfile@@@Z ; TrackSet::TrackChk

; 1137 : 
; 1138 : 	if(nowTrack == NULL){

  00b51	33 f6		 xor	 esi, esi
  00b53	39 73 50	 cmp	 DWORD PTR [ebx+80], esi
  00b56	0f 85 c0 00 00
	00		 jne	 $L24709

; 1139 : 		//------------------
; 1140 : 		//gbN
; 1141 : 
; 1142 : 		//tOSZbg
; 1143 : 		i = 0;
; 1144 : 		while(i <= maxTrack){

  00b5c	39 73 58	 cmp	 DWORD PTR [ebx+88], esi
  00b5f	89 75 fc	 mov	 DWORD PTR _i$[ebp], esi
  00b62	7c 24		 jl	 SHORT $L24702
  00b64	8d 7b 44	 lea	 edi, DWORD PTR [ebx+68]
$L24700:

; 1145 : 			ptcTrack[i]->SetCompileFlag(false);

  00b67	8d 75 fc	 lea	 esi, DWORD PTR _i$[ebp]
  00b6a	e8 00 00 00 00	 call	 ??A?$map@HPAVMusicTrack@@U?$less@H@std@@V?$allocator@U?$pair@$$CBHPAVMusicTrack@@@std@@@3@@std@@QAEAAPAVMusicTrack@@ABH@Z ; std::map<int,MusicTrack *,std::less<int>,std::allocator<std::pair<int const ,MusicTrack *> > >::operator[]
  00b6f	8b 00		 mov	 eax, DWORD PTR [eax]

; 1146 : 			i++;

  00b71	ff 45 fc	 inc	 DWORD PTR _i$[ebp]
  00b74	c6 80 a0 00 00
	00 00		 mov	 BYTE PTR [eax+160], 0
  00b7b	8b 45 fc	 mov	 eax, DWORD PTR _i$[ebp]
  00b7e	3b 43 58	 cmp	 eax, DWORD PTR [ebx+88]
  00b81	7e e4		 jle	 SHORT $L24700
  00b83	8b 7d 08	 mov	 edi, DWORD PTR _MML$[ebp]
  00b86	33 f6		 xor	 esi, esi
$L24702:

; 1147 : 		}
; 1148 : 		
; 1149 : 		//RpCgbN
; 1150 : 		do{
; 1151 : 			iTrack = MML->GetInt() - 1;

  00b88	8b c7		 mov	 eax, edi
  00b8a	e8 00 00 00 00	 call	 ?GetInt@MMLfile@@QAEHXZ	; MMLfile::GetInt
  00b8f	48		 dec	 eax

; 1152 : 			if( (iTrack <= -1) ){

  00b90	83 f8 ff	 cmp	 eax, -1
  00b93	89 43 54	 mov	 DWORD PTR [ebx+84], eax
  00b96	7e 64		 jle	 SHORT $L109494

; 1154 : 			}
; 1155 : 			nowTrack = getTrack(MML, iTrack);

  00b98	50		 push	 eax
  00b99	57		 push	 edi
  00b9a	8b c3		 mov	 eax, ebx
  00b9c	e8 00 00 00 00	 call	 ?getTrack@TrackSet@@QAEPAVMusicTrack@@PAVMMLfile@@H@Z ; TrackSet::getTrack
  00ba1	89 43 50	 mov	 DWORD PTR [ebx+80], eax

; 1156 : 			nowTrack->SetCompileFlag(true);

  00ba4	c6 80 a0 00 00
	00 01		 mov	 BYTE PTR [eax+160], 1

; 1157 : 			cData = MML->GetChar();

  00bab	e8 00 00 00 00	 call	 ?GetChar@MMLfile@@QAEDXZ ; MMLfile::GetChar

; 1158 : 		} while(cData == ',');

  00bb0	3c 2c		 cmp	 al, 44			; 0000002cH
  00bb2	74 d4		 je	 SHORT $L24702

; 1159 : 		MML->Back();

  00bb4	8b c7		 mov	 eax, edi
  00bb6	e8 00 00 00 00	 call	 ?Back@MMLfile@@QAEXXZ	; MMLfile::Back

; 1160 : 
; 1161 : 		//|C^s
; 1162 : 		TrackPt		= MML->tellg();

  00bbb	8b c7		 mov	 eax, edi
  00bbd	e8 00 00 00 00	 call	 ?tellg@MMLfile@@QAEHXZ	; MMLfile::tellg

; 1163 : 		TrackLine	= MML->GetLine();
; 1164 : 
; 1165 : 		//
; 1166 : 		i = 0;
; 1167 : 		while(i <= maxTrack){

  00bc2	39 73 58	 cmp	 DWORD PTR [ebx+88], esi
  00bc5	89 43 60	 mov	 DWORD PTR [ebx+96], eax
  00bc8	8b 47 10	 mov	 eax, DWORD PTR [edi+16]
  00bcb	8b 80 80 00 00
	00		 mov	 eax, DWORD PTR [eax+128]
  00bd1	89 43 64	 mov	 DWORD PTR [ebx+100], eax
  00bd4	89 75 fc	 mov	 DWORD PTR _i$[ebp], esi
  00bd7	7c 43		 jl	 SHORT $L24709
  00bd9	8d 7b 44	 lea	 edi, DWORD PTR [ebx+68]
$L24708:

; 1168 : 			if(ptcTrack[i]->GetCompileFlag() == true){

  00bdc	8d 75 fc	 lea	 esi, DWORD PTR _i$[ebp]
  00bdf	e8 00 00 00 00	 call	 ??A?$map@HPAVMusicTrack@@U?$less@H@std@@V?$allocator@U?$pair@$$CBHPAVMusicTrack@@@std@@@3@@std@@QAEAAPAVMusicTrack@@ABH@Z ; std::map<int,MusicTrack *,std::less<int>,std::allocator<std::pair<int const ,MusicTrack *> > >::operator[]
  00be4	8b 00		 mov	 eax, DWORD PTR [eax]
  00be6	80 b8 a0 00 00
	00 01		 cmp	 BYTE PTR [eax+160], 1
  00bed	74 19		 je	 SHORT $L109496

; 1171 : 				break;
; 1172 : 			}
; 1173 : 			i++;

  00bef	ff 45 fc	 inc	 DWORD PTR _i$[ebp]
  00bf2	8b 45 fc	 mov	 eax, DWORD PTR _i$[ebp]
  00bf5	3b 43 58	 cmp	 eax, DWORD PTR [ebx+88]
  00bf8	7e e2		 jle	 SHORT $L24708

; 1168 : 			if(ptcTrack[i]->GetCompileFlag() == true){

  00bfa	eb 20		 jmp	 SHORT $L24709
$L109494:

; 1153 : 				MML->Err(_T("gbNwB"));

  00bfc	68 00 00 00 00	 push	 OFFSET FLAT:??_C@_1CO@IBJONDON@0?H0?i0?C0?$KPujS?w0gc?$AH?$FL?$JK0g0M0?$IL?$HL?DV?r0?$JC?$IN?$IF0H0f0D0?$HO@
  00c01	8b c7		 mov	 eax, edi
  00c03	e8 00 00 00 00	 call	 ?Err@MMLfile@@QAEXQBG@Z	; MMLfile::Err
$L109502:
$L109496:

; 1169 : 				iTrack = i;

  00c08	8b 45 fc	 mov	 eax, DWORD PTR _i$[ebp]

; 1170 : 				nowTrack = getTrack(MML, iTrack);

  00c0b	50		 push	 eax
  00c0c	ff 75 08	 push	 DWORD PTR _MML$[ebp]
  00c0f	89 43 54	 mov	 DWORD PTR [ebx+84], eax
  00c12	8b c3		 mov	 eax, ebx
  00c14	e8 00 00 00 00	 call	 ?getTrack@TrackSet@@QAEPAVMusicTrack@@PAVMMLfile@@H@Z ; TrackSet::getTrack
  00c19	89 43 50	 mov	 DWORD PTR [ebx+80], eax
$L24709:
  00c1c	5f		 pop	 edi
  00c1d	5e		 pop	 esi
  00c1e	5b		 pop	 ebx

; 1174 : 		}
; 1175 : 
; 1176 : 	}
; 1177 : 
; 1178 : }

  00c1f	c9		 leave
  00c20	c2 04 00	 ret	 4
$L109501:
?TrackProc@TrackSet@@QAEXPAVMMLfile@@@Z ENDP		; TrackSet::TrackProc
PUBLIC	??0TrackSet@@QAE@PAVMMLfile@@I_N1QBG@Z		; TrackSet::TrackSet
$T110290 DD	0ffffffffH
	DD	FLAT:$L109967
	DD	00H
	DD	FLAT:$L109968
	DD	01H
	DD	FLAT:$L109969
	DD	01H
	DD	FLAT:$L109970
	DD	01H
	DD	FLAT:$L109971
	DD	01H
	DD	FLAT:$L109972
$T110258 DD	019930520H
	DD	06H
	DD	FLAT:$T110290
	DD	2 DUP(00H)
	DD	2 DUP(00H)
; Function compile flags: /Ogsy
_TEXT	SEGMENT
__$EHRec$ = -12						; size = 12
_this$ = 8						; size = 4
_MML$ = 12						; size = 4
_i$ = 16						; size = 4
$T109964 = 16						; size = 4
$T109960 = 16						; size = 4
$T109956 = 16						; size = 4
$T109952 = 16						; size = 4
__sub$ = 16						; size = 1
tv938 = 20						; size = 4
__se$ = 20						; size = 1
tv933 = 24						; size = 4
__strName$ = 24						; size = 4
??0TrackSet@@QAE@PAVMMLfile@@I_N1QBG@Z PROC NEAR	; TrackSet::TrackSet
; __id$ = ecx

; 28   : {

  00c23	b8 00 00 00 00	 mov	 eax, __ehhandler$??0TrackSet@@QAE@PAVMMLfile@@I_N1QBG@Z
  00c28	e8 00 00 00 00	 call	 __EH_prolog
  00c2d	53		 push	 ebx
  00c2e	8b 5d 08	 mov	 ebx, DWORD PTR _this$[ebp]
  00c31	56		 push	 esi
  00c32	57		 push	 edi
  00c33	ff 75 18	 push	 DWORD PTR __strName$[ebp]
  00c36	8b f1		 mov	 esi, ecx
  00c38	56		 push	 esi
  00c39	53		 push	 ebx
  00c3a	e8 00 00 00 00	 call	 ??0MusicItem@@QAE@HQBG@Z ; MusicItem::MusicItem
  00c3f	33 ff		 xor	 edi, edi
  00c41	89 7d fc	 mov	 DWORD PTR __$EHRec$[ebp+8], edi
  00c44	89 73 3c	 mov	 DWORD PTR [ebx+60], esi
  00c47	8d 73 44	 lea	 esi, DWORD PTR [ebx+68]
  00c4a	c7 03 00 00 00
	00		 mov	 DWORD PTR [ebx], OFFSET FLAT:??_7TrackSet@@6B@
  00c50	c7 43 40 78 00
	00 00		 mov	 DWORD PTR [ebx+64], 120	; 00000078H
  00c57	89 75 18	 mov	 DWORD PTR tv933[ebp], esi
  00c5a	e8 00 00 00 00	 call	 ?_Init@?$_Tree@V?$_Tmap_traits@HPAVMusicTrack@@U?$less@H@std@@V?$allocator@U?$pair@$$CBHPAVMusicTrack@@@std@@@3@$0A@@std@@@std@@IAEXXZ ; std::_Tree<std::_Tmap_traits<int,MusicTrack *,std::less<int>,std::allocator<std::pair<int const ,MusicTrack *> >,0> >::_Init

; 29   : 	//----------------------
; 30   : 	//Local
; 31   : 
; 32   : //	`
; 33   : enum	Command_ID_mml {
; 34   : 	mml_Track,
; 35   : 	mml_Scale,
; 36   : 	mml_Major,
; 37   : 	mml_Minor,
; 38   : 	mml_HMinor,
; 39   : 	mml_MMinor,
; 40   : 	mml_KeySignature,
; 41   : 	mml_Macro,
; 42   : 	mml_MacroSet,
; 43   : 	mml_CallSE,
; 44   : 	mml_Subroutine,
; 45   : 
; 46   : 	mml_Loop,
; 47   : 	mml_Repeat_A_Start,
; 48   : 	mml_Repeat_A_Branch,
; 49   : 	mml_Repeat_A_End,
; 50   : 	mml_Repeat_B_Start,
; 51   : 	mml_Repeat_B_Branch,
; 52   : 	mml_Repeat_B_End,
; 53   : 	mml_Repeat_C_Start,
; 54   : //	mml_Repeat_C_Branch,
; 55   : 	mml_Repeat_C_End,
; 56   : 
; 57   : 	mml_Tempo,
; 58   : 	mml_Tempo_Relative,
; 59   : 	mml_Tempo_Up,
; 60   : 	mml_Tempo_Down,
; 61   : 
; 62   : 	mml_La,
; 63   : 	mml_Si,
; 64   : 	mml_Do,
; 65   : 	mml_Re,
; 66   : 	mml_Mi,
; 67   : 	mml_Fa,
; 68   : 	mml_Sol,
; 69   : 	mml_Rest,
; 70   : 	mml_Wait,
; 71   : 	mml_Tai,
; 72   : 
; 73   : 	mml_Length,
; 74   : 	mml_Gate_Q,
; 75   : 	mml_Gate_q,
; 76   : 	mml_Gate_u,
; 77   : 
; 78   : 	mml_Echo,
; 79   : 	mml_Echo_Off,
; 80   : 	mml_Echo_Reset,
; 81   : 	mml_Echo_C,
; 82   : 	mml_Echo_D,
; 83   : 	mml_Echo_E,
; 84   : 	mml_Echo_F,
; 85   : 	mml_Echo_G,
; 86   : 	mml_Echo_A,
; 87   : 	mml_Echo_B,
; 88   : 	mml_Echo_R,
; 89   : 
; 90   : 	mml_Jump,
; 91   : 	mml_Jump_drv,
; 92   : 
; 93   : 	mml_Envelop_Voice,
; 94   : 	mml_Envelop_Volume,
; 95   : 	mml_Envelop_Frequency,
; 96   : 	mml_Envelop_Note,
; 97   : 
; 98   : 	mml_Envelop_Off_Voice,
; 99   : 	mml_Envelop_Off_Volume,
; 100  : 	mml_Envelop_Off_Frequency,
; 101  : 	mml_Envelop_Off_Note,
; 102  : 
; 103  : 	mml_Patch,
; 104  : 	mml_Patch_Off,
; 105  : 
; 106  : 	mml_Release_mdoe,
; 107  : 	mml_Release_Voice,
; 108  : 	mml_Release_Volume,
; 109  : 
; 110  : 	mml_Voice,
; 111  : 	mml_FDSC,
; 112  : 	mml_FDSM,
; 113  : 	mml_FDSF,
; 114  : 	mml_FDSV,
; 115  : 	mml_VRC7,
; 116  : 	mml_N163,
; 117  : 	mml_N163_Set,
; 118  : 	mml_N163_Load,
; 119  : 	mml_N163_Channel,
; 120  : 	mml_FME7_frequency,
; 121  : 
; 122  : 	mml_Octave,
; 123  : 	mml_Octave_Up,
; 124  : 	mml_Octave_Down,
; 125  : 	mml_Octave_Up1,
; 126  : 	mml_Octave_Down1,
; 127  : 	mml_Detune_Cent,
; 128  : 	mml_Detune_Cent_Relative,
; 129  : 	mml_Detune_Register,
; 130  : 	mml_Detune_Register_Relative,
; 131  : 	mml_Transpose,
; 132  : 	mml_Transpose_Relative,
; 133  : 	mml_KeyShift,
; 134  : 	mml_KeyShift_Relative,
; 135  : 	mml_Protament,
; 136  : 	mml_Protament2,
; 137  : 	mml_Sweep,
; 138  : 
; 139  : 	mml_Volume,
; 140  : 	mml_Volume_Up,
; 141  : 	mml_Volume_Down,
; 142  : 
; 143  : 	mml_VRC7_Write,
; 144  : 	mml_Memory_Write,
; 145  : 
; 146  : 	mml_Priority,
; 147  : 
; 148  : 	mml_Bar
; 149  : };
; 150  : 
; 151  : //	AMML\gR}hB
; 152  : 
; 153  : const	static	unsigned	char	RS_UTF8[]	=	{0x5c, 0x00};				//REVERSE SOLIDUS
; 154  : const	static	unsigned	char	RS_UTF8W[]	=	{0xEF, 0xBC, 0xBC, 0x00};	//REVERSE SOLIDUS
; 155  : const	static	unsigned	char	Yen_UTF8[]	=	{0xC2, 0xA5, 0x00};			//Yen
; 156  : const	static	unsigned	char	Yen_UTF8W[]	=	{0xEF, 0xBF, 0xA5, 0x00};	//Yen
; 157  : 
; 158  : const	static	Command_Info	Command[] = {
; 159  : 		{	"TR",		mml_Track				},
; 160  : 		{	"gbN",	mml_Track				},
; 161  : 		{	"Scale",	mml_Scale				},
; 162  : 		{	"scale",	mml_Scale				},
; 163  : 		{	"Mode",		mml_Scale				},
; 164  : 		{	"mode",		mml_Scale				},
; 165  : 		{	"Major",	mml_Major				},
; 166  : 		{	"major",	mml_Major				},
; 167  : 		{	"Minor",	mml_Minor				},
; 168  : 		{	"minor",	mml_Minor				},
; 169  : 		{	"HMinor",	mml_HMinor				},
; 170  : 		{	"hminor",	mml_HMinor				},
; 171  : 		{	"MMinor",	mml_MMinor				},
; 172  : 		{	"mminor",	mml_MMinor				},
; 173  : 
; 174  : 		{	"K",		mml_KeySignature		},
; 175  : 		{	"",		mml_KeySignature		},
; 176  : 		{	"SE",		mml_CallSE				},
; 177  : 		{	"S",		mml_Subroutine			},
; 178  : 		{	"$$",		mml_MacroSet			},
; 179  : 		{	"$",		mml_Macro				},
; 180  : 
; 181  : 		{	"L",		mml_Loop				},
; 182  : 		{	"[:",		mml_Repeat_C_Start		},
; 183  : 	//	{	":",		mml_Repeat_C_Branch		},
; 184  : 		{	":]",		mml_Repeat_C_End		},
; 185  : 		{	"|:",		mml_Repeat_B_Start		},
; 186  : 		{	(char*)RS_UTF8,		mml_Repeat_B_Branch		},
; 187  : 		{	(char*)Yen_UTF8,	mml_Repeat_B_Branch		},
; 188  : 		{	(char*)RS_UTF8W,	mml_Repeat_B_Branch		},
; 189  : 		{	(char*)Yen_UTF8W,	mml_Repeat_B_Branch		},
; 190  : 		{	":|",		mml_Repeat_B_End		},
; 191  : 		{	"[",		mml_Repeat_A_Start		},
; 192  : 		{	":",		mml_Repeat_A_Branch		},
; 193  : 		{	"]",		mml_Repeat_A_End		},
; 194  : 
; 195  : 		{	"",		mml_Loop				},
; 196  : 		{	"bF",		mml_Repeat_B_Start		},
; 197  : 		{	"",		mml_Repeat_B_Branch		},
; 198  : 		{	"_",		mml_Repeat_B_Branch		},
; 199  : 		{	"Fb",		mml_Repeat_B_End		},
; 200  : 		{	"y",		mml_Repeat_A_Start		},
; 201  : 		{	"F",		mml_Repeat_A_Branch		},
; 202  : 		{	"z",		mml_Repeat_A_End		},
; 203  : 
; 204  : 		{	"t_",		mml_Tempo_Relative,		},
; 205  : 		{	"t",		mml_Tempo,				},
; 206  : 		{	"e|",	mml_Tempo,				},
; 207  : 		{	"",		mml_Tempo_Up,			},
; 208  : 		{	"",		mml_Tempo_Down,			},
; 209  : 
; 210  : 		{	"a",	mml_La					},
; 211  : 		{	"b",	mml_Si					},
; 212  : 		{	"c",	mml_Do					},
; 213  : 		{	"d",	mml_Re					},
; 214  : 		{	"e",	mml_Mi					},
; 215  : 		{	"f",	mml_Fa					},
; 216  : 		{	"g",	mml_Sol					},
; 217  : 		{	"r",	mml_Rest				},
; 218  : 		{	"w",	mml_Wait				},
; 219  : 		{	"^",	mml_Tai					},
; 220  : 
; 221  : 		{	"",	mml_La					},
; 222  : 		{	"",	mml_Si					},
; 223  : 		{	"",	mml_Do					},
; 224  : 		{	"",	mml_Re					},
; 225  : 		{	"",	mml_Mi					},
; 226  : 		{	"",	mml_Fa					},
; 227  : 		{	"",	mml_Fa					},
; 228  : 		{	"",	mml_Sol					},
; 229  : 		{	"",	mml_Rest				},
; 230  : 		{	"",	mml_Rest				},
; 231  : 		{	"[",	mml_Tai					},
; 232  : 
; 233  : 		{	"",	mml_La					},
; 234  : 		{	"V",	mml_Si					},
; 235  : 		{	"h",	mml_Do					},
; 236  : 		{	"",	mml_Re					},
; 237  : 		{	"~",	mml_Mi					},
; 238  : 		{	"t@",	mml_Fa					},
; 239  : 		{	"t",	mml_Fa					},
; 240  : 		{	"\",	mml_Sol					},
; 241  : 		{	"",	mml_Rest				},
; 242  : 		{	"b",	mml_Rest				},
; 243  : 		{	"|",	mml_Tai					},
; 244  : 
; 245  : 		{	"C",	mml_La					},
; 246  : 		{	"",	mml_Si					},
; 247  : 		{	"n",	mml_Do					},
; 248  : 		{	"j",	mml_Re					},
; 249  : 		{	"z",	mml_Mi					},
; 250  : 		{	"w",	mml_Fa					},
; 251  : 		{	"g",	mml_Sol					},
; 252  : 
; 253  : 		{	"l",		mml_Length				},
; 254  : 		{	"",		mml_Length				},
; 255  : 		{	"Q",		mml_Gate_Q				},
; 256  : 		{	"q",		mml_Gate_q				},
; 257  : 		{	"Q[g",	mml_Gate_q				},
; 258  : 		{	"u",		mml_Gate_u				},
; 259  : 
; 260  : 		{	"ECc",			mml_Echo_C				},
; 261  : 		{	"ECd",			mml_Echo_D				},
; 262  : 		{	"ECe",			mml_Echo_E				},
; 263  : 		{	"ECf",			mml_Echo_F				},
; 264  : 		{	"ECg",			mml_Echo_G				},
; 265  : 		{	"ECa",			mml_Echo_A				},
; 266  : 		{	"ECb",			mml_Echo_B				},
; 267  : 		{	"ECr",			mml_Echo_R				},
; 268  : 		{	"EC-",			mml_Echo_Reset			},
; 269  : 		{	"EC*",			mml_Echo_Off			},
; 270  : 		{	"EC",			mml_Echo				},
; 271  : 		{	"GR[It",	mml_Echo_Off			},
; 272  : 		{	"GR[",		mml_Echo				},
; 273  : 
; 274  : 		{	"J",			mml_Jump				},
; 275  : 		{	"j",			mml_Jump_drv			},
; 276  : 
; 277  : 		{	"E@*",	mml_Envelop_Off_Voice		},
; 278  : 		{	"Ev*",	mml_Envelop_Off_Volume		},
; 279  : 		{	"Em*",	mml_Envelop_Off_Frequency	},
; 280  : 		{	"En*",	mml_Envelop_Off_Note		},
; 281  : 
; 282  : 		{	"E@",	mml_Envelop_Voice		},
; 283  : 		{	"Ev",	mml_Envelop_Volume		},
; 284  : 		{	"Em",	mml_Envelop_Frequency	},
; 285  : 		{	"En",	mml_Envelop_Note		},
; 286  : 
; 287  : 		{	"Gx[vIt",	mml_Envelop_Off_Volume		},
; 288  : 		{	"Gx[v",		mml_Envelop_Volume			},
; 289  : 		{	"ru[gIt",	mml_Envelop_Off_Frequency	},
; 290  : 		{	"ru[g",		mml_Envelop_Frequency		},
; 291  : 
; 292  : 		{	"Rm",	mml_Release_mdoe		},
; 293  : 		{	"R@",	mml_Release_Voice		},
; 294  : 		{	"Rv",	mml_Release_Volume		},
; 295  : 
; 296  : 		{	"@P*",	mml_Patch_Off			},
; 297  : 		{	"@P",	mml_Patch				},
; 298  : 
; 299  : 		{	"@FC",	mml_FDSC				},
; 300  : 		{	"@FM",	mml_FDSM				},
; 301  : 		{	"@FF",	mml_FDSF				},
; 302  : 		{	"@FV",	mml_FDSV				},
; 303  : 		{	"@V",	mml_VRC7				},
; 304  : 		{	"@NS",	mml_N163_Set			},
; 305  : 		{	"@NL",	mml_N163_Load			},
; 306  : 		{	"@N",	mml_N163				},
; 307  : 		{	"@",	mml_Voice				},
; 308  : 		{	"F",	mml_Voice				},
; 309  : 		{	"NC",	mml_N163_Channel		},
; 310  : 		{	"F",	mml_FME7_frequency		},
; 311  : 
; 312  : 		{	"o",	mml_Octave				},
; 313  : 		{	"K",	mml_Octave				},
; 314  : 		{	">",	mml_Octave_Up			},
; 315  : 		{	"",	mml_Octave_Up			},
; 316  : 		{	"",	mml_Octave_Up			},
; 317  : 		{	"<",	mml_Octave_Down			},
; 318  : 		{	"",	mml_Octave_Down			},
; 319  : 		{	"",	mml_Octave_Down			},
; 320  : 		{	"`",	mml_Octave_Up1			},
; 321  : 		{	"e",	mml_Octave_Up1			},
; 322  : 		{	"\"",	mml_Octave_Down1		},
; 323  : 		{	"h",	mml_Octave_Down1		},
; 324  : 
; 325  : 		{	"D%_",			mml_Detune_Register_Relative		},
; 326  : 		{	"D%",			mml_Detune_Register					},
; 327  : 		{	"D_",			mml_Detune_Cent_Relative			},
; 328  : 		{	"D",			mml_Detune_Cent						},
; 329  : 		{	"fB`[",	mml_Detune_Cent			},
; 330  : 		{	"__",			mml_Transpose_Relative	},
; 331  : 		{	"_",			mml_Transpose			},
; 332  : 		{	"k_",			mml_KeyShift_Relative	},
; 333  : 		{	"k",			mml_KeyShift			},
; 334  : 		{	"TrackKey",		mml_Transpose			},
; 335  : 		{	"P",			mml_Protament			},
; 336  : 		{	"|^g",	mml_Protament			},
; 337  : 		{	"{",			mml_Protament2			},
; 338  : 		{	"s",			mml_Sweep				},
; 339  : 
; 340  : 		{	"v",		mml_Volume				},
; 341  : 		{	"",		mml_Volume				},
; 342  : 		{	")",		mml_Volume_Up			},
; 343  : 		{	"",	mml_Volume_Up			},
; 344  : 		{	"",		mml_Volume_Up			},
; 345  : 		{	"(",		mml_Volume_Down			},
; 346  : 		{	"",	mml_Volume_Down			},
; 347  : 		{	"",		mml_Volume_Down			},
; 348  : 
; 349  : 		{	"yV",	mml_VRC7_Write			},
; 350  : 		{	"y",	mml_Memory_Write		},
; 351  : 
; 352  : 		{	"#Priority",	mml_Priority	},
; 353  : 		{	"#priority",	mml_Priority	},
; 354  : 
; 355  : 		{	"@",	mml_Bar					},
; 356  : 		{	"|",	mml_Bar					},
; 357  : 		{	"b",	mml_Bar					}
; 358  : };
; 359  : 
; 360  : 	unsigned	char	cData;
; 361  : 				int		i;
; 362  : 
; 363  : 	//------------------------------
; 364  : 	//NX
; 365  : 	fSub		= _sub;		//Tu[`tO
; 366  : 	fSE			= _se;		//

  00c5f	8a 4d 14	 mov	 cl, BYTE PTR __se$[ebp]

; 367  : 	iTrack		= 0;		//RpCgbNiDefault = 0j
; 368  : 	maxTrack	= 0;		//gbN
; 369  : 
; 370  : 	if(fSE == true){

  00c62	80 f9 01	 cmp	 cl, 1

; 371  : 		Priority	= MML->priority;

  00c65	8b 75 0c	 mov	 esi, DWORD PTR _MML$[ebp]
  00c68	c6 45 fc 01	 mov	 BYTE PTR __$EHRec$[ebp+8], 1
  00c6c	8a 45 10	 mov	 al, BYTE PTR __sub$[ebp]
  00c6f	88 43 5c	 mov	 BYTE PTR [ebx+92], al
  00c72	8d 43 54	 lea	 eax, DWORD PTR [ebx+84]
  00c75	88 4b 5d	 mov	 BYTE PTR [ebx+93], cl
  00c78	89 45 14	 mov	 DWORD PTR tv938[ebp], eax
  00c7b	89 38		 mov	 DWORD PTR [eax], edi
  00c7d	89 7b 58	 mov	 DWORD PTR [ebx+88], edi
  00c80	75 0b		 jne	 SHORT $L24210
  00c82	8a 86 a4 00 00
	00		 mov	 al, BYTE PTR [esi+164]
  00c88	88 43 68	 mov	 BYTE PTR [ebx+104], al

; 372  : 	} else {

  00c8b	eb 04		 jmp	 SHORT $L24211
$L24210:

; 373  : 		Priority	= 0;

  00c8d	c6 43 68 00	 mov	 BYTE PTR [ebx+104], 0
$L24211:

; 374  : 	}
; 375  : 
; 376  : 	//APgbNi0jIuWFNgB
; 377  : 	nowTrack	= makeTrack(MML, iTrack);

  00c91	57		 push	 edi
  00c92	56		 push	 esi
  00c93	8b cb		 mov	 ecx, ebx
  00c95	e8 00 00 00 00	 call	 ?makeTrack@TrackSet@@QAEPAVMusicTrack@@PAVMMLfile@@H@Z ; TrackSet::makeTrack
  00c9a	89 43 50	 mov	 DWORD PTR [ebx+80], eax

; 378  : 	nowTrack->SetCompileFlag(true);

  00c9d	c6 80 a0 00 00
	00 01		 mov	 BYTE PTR [eax+160], 1

; 379  : 
; 380  : 
; 381  : 	//------------------------------
; 382  : 	//RpC
; 383  : 
; 384  : 	// { 
; 385  : 	while(MML->cRead() != '{'){

  00ca4	eb 0f		 jmp	 SHORT $L110277
$L24213:

; 386  : 		if(MML->eof()){

  00ca6	8b 46 10	 mov	 eax, DWORD PTR [esi+16]
  00ca9	8b 08		 mov	 ecx, DWORD PTR [eax]
  00cab	8b 49 04	 mov	 ecx, DWORD PTR [ecx+4]
  00cae	f6 44 01 08 01	 test	 BYTE PTR [ecx+eax+8], 1
  00cb3	75 2c		 jne	 SHORT $L110262
$L110277:

; 379  : 
; 380  : 
; 381  : 	//------------------------------
; 382  : 	//RpC
; 383  : 
; 384  : 	// { 
; 385  : 	while(MML->cRead() != '{'){

  00cb5	e8 00 00 00 00	 call	 ?cRead@MMLfile@@QAEDXZ	; MMLfile::cRead
  00cba	3c 7b		 cmp	 al, 123			; 0000007bH
  00cbc	75 e8		 jne	 SHORT $L24213
$L24218:

; 388  : 		}
; 389  : 	}
; 390  : 
; 391  : 	// } ALqubNRpCB
; 392  : 	while(1){
; 393  : 
; 394  : 		cData = MML->GetChar();

  00cbe	8b 7d 0c	 mov	 edi, DWORD PTR _MML$[ebp]
  00cc1	e8 00 00 00 00	 call	 ?GetChar@MMLfile@@QAEDXZ ; MMLfile::GetChar

; 395  : 		if(cData == '}'){

  00cc6	3c 7d		 cmp	 al, 125			; 0000007dH
  00cc8	75 21		 jne	 SHORT $L24220

; 396  : 			TrackChk(MML);

  00cca	57		 push	 edi
  00ccb	e8 00 00 00 00	 call	 ?TrackChk@TrackSet@@QAEXPAVMMLfile@@@Z ; TrackSet::TrackChk

; 397  : 			if(nowTrack == NULL){

  00cd0	8b 7d 08	 mov	 edi, DWORD PTR _this$[ebp]
  00cd3	83 7f 50 00	 cmp	 DWORD PTR [edi+80], 0
  00cd7	0f 84 ae 06 00
	00		 je	 $L110263

; 398  : 				break;
; 399  : 			}
; 400  : 		} else {

  00cdd	8b df		 mov	 ebx, edi
  00cdf	eb 24		 jmp	 SHORT $L24222
$L110262:

; 387  : 			MML->Err(_T("ubNJn{B"));

  00ce1	68 00 00 00 00	 push	 OFFSET FLAT:??_C@_1CK@CKPPJBGB@0?V0?m0?C0?$KP0n?$JF?$ILY?K0?$JCy?30Y?$AA?$HL0L?$IJ?$IL0d0K0?$IK0?$HO0?$FL0?$JD0?$AC@
  00ce6	e9 e2 07 00 00	 jmp	 $L110287
$L24220:

; 401  : 			// } OA[EOF]G[
; 402  : 			if( MML->eof() ){

  00ceb	8b 47 10	 mov	 eax, DWORD PTR [edi+16]
  00cee	8b 08		 mov	 ecx, DWORD PTR [eax]
  00cf0	8b 49 04	 mov	 ecx, DWORD PTR [ecx+4]
  00cf3	f6 44 01 08 01	 test	 BYTE PTR [ecx+eax+8], 1

; 404  : 			}
; 405  : 
; 406  : 			//P
; 407  : 			MML->Back();

  00cf8	8b c7		 mov	 eax, edi
  00cfa	0f 85 b3 07 00
	00		 jne	 $L110264
  00d00	e8 00 00 00 00	 call	 ?Back@MMLfile@@QAEXXZ	; MMLfile::Back
$L24222:

; 408  : 		}
; 409  : 
; 410  : 		//eR}h
; 411  : 		switch(MML->GetCommandID(Command, sizeof(Command)/sizeof(Command_Info))){

  00d05	8b 75 0c	 mov	 esi, DWORD PTR _MML$[ebp]
  00d08	68 af 00 00 00	 push	 175			; 000000afH
  00d0d	68 00 00 00 00	 push	 OFFSET FLAT:?Command@?1???0TrackSet@@QAE@PAVMMLfile@@I_N1QBG@Z@4QBUCommand_Info@@B
  00d12	8b c6		 mov	 eax, esi
  00d14	e8 00 00 00 00	 call	 ?GetCommandID@MMLfile@@QAEHQBUCommand_Info@@I@Z ; MMLfile::GetCommandID
  00d19	83 f8 61	 cmp	 eax, 97			; 00000061H
  00d1c	0f 87 a6 07 00
	00		 ja	 $L24385
  00d22	ff 24 85 00 00
	00 00		 jmp	 DWORD PTR $L110289[eax*4]
$L24230:

; 412  : 
; 413  : 			case(mml_Track):
; 414  : 				if(fSub == true){

  00d29	80 7b 5c 01	 cmp	 BYTE PTR [ebx+92], 1
  00d2d	75 0e		 jne	 SHORT $L24231

; 415  : 					MML->Warning(_T("SububNgbNwBB"));

  00d2f	68 00 00 00 00	 push	 OFFSET FLAT:??_C@_1DM@LBEIIGCG@?$AAS?$AAu?$AAb0?V0?m0?C0?$KPQ?$IF0g0o0?H0?i0?C0?$KPc?$AH?$FL?$JK0o0g0M0?$HO@
$L110280:
  00d34	8b c6		 mov	 eax, esi
  00d36	e8 00 00 00 00	 call	 ?Warning@MMLfile@@QAEXQBG@Z ; MMLfile::Warning

; 416  : 				} else {

  00d3b	eb 81		 jmp	 SHORT $L24218
$L24231:

; 417  : 					TrackProc(MML);

  00d3d	56		 push	 esi
  00d3e	8b c3		 mov	 eax, ebx
  00d40	e8 00 00 00 00	 call	 ?TrackProc@TrackSet@@QAEXPAVMMLfile@@@Z ; TrackSet::TrackProc

; 418  : 				}
; 419  : 				break;

  00d45	e9 74 ff ff ff	 jmp	 $L24218
$L24234:

; 420  : 
; 421  : 			case(mml_Scale):
; 422  : 				nowTrack->SetScale(MML);

  00d4a	8b 4b 50	 mov	 ecx, DWORD PTR [ebx+80]
  00d4d	8b c6		 mov	 eax, esi
  00d4f	e8 00 00 00 00	 call	 ?SetScale@MusicTrack@@QAEXPAVMMLfile@@@Z ; MusicTrack::SetScale

; 423  : 				break;

  00d54	e9 65 ff ff ff	 jmp	 $L24218
$L24235:

; 424  : 
; 425  : 			case(mml_Major):
; 426  : 				nowTrack->SetMajor();

  00d59	8b 43 50	 mov	 eax, DWORD PTR [ebx+80]
  00d5c	e8 00 00 00 00	 call	 ?SetMajor@MusicTrack@@QAEXXZ ; MusicTrack::SetMajor

; 427  : 				break;

  00d61	e9 58 ff ff ff	 jmp	 $L24218
$L24236:

; 428  : 
; 429  : 			case(mml_Minor):
; 430  : 				nowTrack->SetMinor();

  00d66	8b 43 50	 mov	 eax, DWORD PTR [ebx+80]
  00d69	e8 00 00 00 00	 call	 ?SetMinor@MusicTrack@@QAEXXZ ; MusicTrack::SetMinor

; 431  : 				break;

  00d6e	e9 4b ff ff ff	 jmp	 $L24218
$L24237:

; 432  : 
; 433  : 			case(mml_HMinor):
; 434  : 				nowTrack->SetHMinor(MML);

  00d73	8b 5b 50	 mov	 ebx, DWORD PTR [ebx+80]
  00d76	8b c6		 mov	 eax, esi
  00d78	e8 00 00 00 00	 call	 ?SetHMinor@MusicTrack@@QAEXPAVMMLfile@@@Z ; MusicTrack::SetHMinor
$L110278:

; 435  : 				break;

  00d7d	8b 5d 08	 mov	 ebx, DWORD PTR _this$[ebp]
  00d80	e9 39 ff ff ff	 jmp	 $L24218
$L24238:

; 436  : 
; 437  : 			case(mml_MMinor):
; 438  : 				nowTrack->SetMMinor(MML);

  00d85	8b 5b 50	 mov	 ebx, DWORD PTR [ebx+80]
  00d88	8b c6		 mov	 eax, esi
  00d8a	e8 00 00 00 00	 call	 ?SetMMinor@MusicTrack@@QAEXPAVMMLfile@@@Z ; MusicTrack::SetMMinor

; 439  : 				break;

  00d8f	eb ec		 jmp	 SHORT $L110278
$L24239:

; 440  : 
; 441  : 			case(mml_KeySignature):
; 442  : 				nowTrack->SetKeySignature(MML);

  00d91	ff 73 50	 push	 DWORD PTR [ebx+80]
  00d94	8b c6		 mov	 eax, esi
  00d96	e8 00 00 00 00	 call	 ?SetKeySignature@MusicTrack@@QAEXPAVMMLfile@@@Z ; MusicTrack::SetKeySignature

; 443  : 				break;

  00d9b	e9 1e ff ff ff	 jmp	 $L24218
$L24240:

; 444  : 
; 445  : 			case(mml_Macro):
; 446  : 				MML->CallMacro();

  00da0	8b ce		 mov	 ecx, esi
  00da2	e8 00 00 00 00	 call	 ?CallMacro@MMLfile@@QAEXXZ ; MMLfile::CallMacro

; 447  : 				break;

  00da7	e9 12 ff ff ff	 jmp	 $L24218
$L24241:

; 448  : 
; 449  : 			case(mml_MacroSet):
; 450  : 				MML->SetMacro(1);

  00dac	6a 01		 push	 1
  00dae	8b ce		 mov	 ecx, esi
  00db0	e8 00 00 00 00	 call	 ?SetMacro@MMLfile@@QAEXH@Z ; MMLfile::SetMacro

; 451  : 				break;

  00db5	e9 04 ff ff ff	 jmp	 $L24218
$L24242:

; 452  : 
; 453  : 			case(mml_CallSE):
; 454  : 				nowTrack->SetSE(MML);

  00dba	8b 4b 50	 mov	 ecx, DWORD PTR [ebx+80]
  00dbd	56		 push	 esi
  00dbe	e8 00 00 00 00	 call	 ?SetSE@MusicTrack@@QAEXPAVMMLfile@@@Z ; MusicTrack::SetSE

; 455  : 				break;

  00dc3	e9 f6 fe ff ff	 jmp	 $L24218
$L24243:

; 456  : 
; 457  : 			case(mml_Subroutine):
; 458  : 				nowTrack->SetSubroutine(MML->GetInt());

  00dc8	8b c6		 mov	 eax, esi
  00dca	e8 00 00 00 00	 call	 ?GetInt@MMLfile@@QAEHXZ	; MMLfile::GetInt
  00dcf	8b 7b 50	 mov	 edi, DWORD PTR [ebx+80]
  00dd2	50		 push	 eax
  00dd3	e8 00 00 00 00	 call	 ?SetSubroutine@MusicTrack@@QAEXI@Z ; MusicTrack::SetSubroutine

; 459  : 				break;

  00dd8	e9 e1 fe ff ff	 jmp	 $L24218
$L24244:

; 460  : 
; 461  : 			case(mml_Loop):
; 462  : 				if(fSub == true){

  00ddd	80 7b 5c 01	 cmp	 BYTE PTR [ebx+92], 1
  00de1	75 0a		 jne	 SHORT $L24245

; 463  : 					MML->Warning(_T("SububN[vBB"));

  00de3	68 00 00 00 00	 push	 OFFSET FLAT:??_C@_1DK@GCJGKPID@?$AAS?$AAu?$AAb0?V0?m0?C0?$KPQ?$IF0g0oq?$CB?$JGP0?k0?$PM0?W0o0g0M0?$HO0?$FL@

; 464  : 				} else {

  00de8	e9 47 ff ff ff	 jmp	 $L110280
$L24245:

; 465  : 					nowTrack->SetLoop();

  00ded	8b 43 50	 mov	 eax, DWORD PTR [ebx+80]
  00df0	e8 00 00 00 00	 call	 ?SetLoop@MusicTrack@@QAEXXZ ; MusicTrack::SetLoop

; 466  : 				}
; 467  : 				break;

  00df5	e9 c4 fe ff ff	 jmp	 $L24218
$L24248:

; 468  : 
; 469  : 			case(mml_Repeat_B_Start):
; 470  : 				nowTrack->SetRepeat_B_Start();

  00dfa	8b 73 50	 mov	 esi, DWORD PTR [ebx+80]
  00dfd	e8 00 00 00 00	 call	 ?SetRepeat_B_Start@MusicTrack@@QAEXXZ ; MusicTrack::SetRepeat_B_Start

; 471  : 				break;

  00e02	e9 b7 fe ff ff	 jmp	 $L24218
$L24249:

; 472  : 
; 473  : 			case(mml_Repeat_B_Branch):
; 474  : 				nowTrack->SetRepeat_B_Branch(MML);

  00e07	8b 4b 50	 mov	 ecx, DWORD PTR [ebx+80]
  00e0a	56		 push	 esi
  00e0b	e8 00 00 00 00	 call	 ?SetRepeat_B_Branch@MusicTrack@@QAEXPAVMMLfile@@@Z ; MusicTrack::SetRepeat_B_Branch

; 475  : 				break;

  00e10	e9 a9 fe ff ff	 jmp	 $L24218
$L24250:

; 476  : 
; 477  : 			case(mml_Repeat_B_End):
; 478  : 				nowTrack->SetRepeat_B_End(MML);

  00e15	8b 4b 50	 mov	 ecx, DWORD PTR [ebx+80]
  00e18	56		 push	 esi
  00e19	e8 00 00 00 00	 call	 ?SetRepeat_B_End@MusicTrack@@QAEXPAVMMLfile@@@Z ; MusicTrack::SetRepeat_B_End

; 479  : 				break;

  00e1e	e9 9b fe ff ff	 jmp	 $L24218
$L24251:

; 480  : 
; 481  : 			case(mml_Repeat_A_Branch):
; 482  : 				nowTrack->SetRepeat_Branch(MML);

  00e23	8b 45 08	 mov	 eax, DWORD PTR _this$[ebp]
  00e26	8b 48 50	 mov	 ecx, DWORD PTR [eax+80]
  00e29	8b de		 mov	 ebx, esi
  00e2b	e8 00 00 00 00	 call	 ?SetRepeat_Branch@MusicTrack@@QAEXPAVMMLfile@@@Z ; MusicTrack::SetRepeat_Branch

; 483  : 				break;

  00e30	e9 48 ff ff ff	 jmp	 $L110278
$L24252:

; 484  : 
; 485  : 			case(mml_Repeat_A_Start):
; 486  : 				if((MML->iRepeatMode == 0) && (fSub == false)){

  00e35	8b 86 88 00 00
	00		 mov	 eax, DWORD PTR [esi+136]
  00e3b	85 c0		 test	 eax, eax
  00e3d	75 14		 jne	 SHORT $L24253
  00e3f	38 43 5c	 cmp	 BYTE PTR [ebx+92], al
  00e42	75 0f		 jne	 SHORT $L24253

; 487  : 					nowTrack->SetRepeat_Start(MML);		//0 && main

  00e44	8b 43 50	 mov	 eax, DWORD PTR [ebx+80]
  00e47	8b ce		 mov	 ecx, esi
  00e49	e8 00 00 00 00	 call	 ?SetRepeat_Start@MusicTrack@@QAEXPAVMMLfile@@@Z ; MusicTrack::SetRepeat_Start

; 488  : 				} else if(MML->iRepeatMode == 1){

  00e4e	e9 6b fe ff ff	 jmp	 $L24218
$L24253:
  00e53	83 f8 01	 cmp	 eax, 1
  00e56	75 55		 jne	 SHORT $L24263
$L24264:

; 489  : 					nowTrack->SetRepeat_A_Start(MML);	//1

  00e58	8b 5b 50	 mov	 ebx, DWORD PTR [ebx+80]
  00e5b	8b ce		 mov	 ecx, esi
  00e5d	e8 00 00 00 00	 call	 ?SetRepeat_A_Start@MusicTrack@@QAEXPAVMMLfile@@@Z ; MusicTrack::SetRepeat_A_Start

; 490  : 				} else {

  00e62	e9 16 ff ff ff	 jmp	 $L110278
$L24257:

; 491  : 					nowTrack->SetRepeat_C_Start(MML);	//2 || (0 && sub)
; 492  : 				}
; 493  : 				break;
; 494  : 
; 495  : 			case(mml_Repeat_A_End):
; 496  : 				if((MML->iRepeatMode == 0) && (fSub == false)){

  00e67	8b 86 88 00 00
	00		 mov	 eax, DWORD PTR [esi+136]
  00e6d	85 c0		 test	 eax, eax
  00e6f	75 14		 jne	 SHORT $L24258
  00e71	38 43 5c	 cmp	 BYTE PTR [ebx+92], al
  00e74	75 0f		 jne	 SHORT $L24258

; 497  : 					nowTrack->SetRepeat_End(MML);		//0 && main

  00e76	8b 53 50	 mov	 edx, DWORD PTR [ebx+80]
  00e79	8b ce		 mov	 ecx, esi
  00e7b	e8 00 00 00 00	 call	 ?SetRepeat_End@MusicTrack@@QAEXPAVMMLfile@@@Z ; MusicTrack::SetRepeat_End

; 498  : 				} else if(MML->iRepeatMode == 1){

  00e80	e9 39 fe ff ff	 jmp	 $L24218
$L24258:
  00e85	83 f8 01	 cmp	 eax, 1

; 499  : 					nowTrack->SetRepeat_A_End(MML);	//1
; 500  : 				} else {

  00e88	74 46		 je	 SHORT $L24268
$L24260:

; 501  : 					nowTrack->SetRepeat_C_End(MML);	//2 || (0 && sub)

  00e8a	8b 4b 50	 mov	 ecx, DWORD PTR [ebx+80]
  00e8d	56		 push	 esi
  00e8e	e8 00 00 00 00	 call	 ?SetRepeat_C_End@MusicTrack@@QAEXPAVMMLfile@@@Z ; MusicTrack::SetRepeat_C_End

; 502  : 				}
; 503  : 				break;

  00e93	e9 26 fe ff ff	 jmp	 $L24218
$L24262:

; 504  : 
; 505  : 			case(mml_Repeat_C_Start):
; 506  : 				if((MML->iRepeatMode == 2) || ((MML->iRepeatMode == 0) && (fSub == true))){

  00e98	8b 86 88 00 00
	00		 mov	 eax, DWORD PTR [esi+136]
  00e9e	83 f8 02	 cmp	 eax, 2
  00ea1	74 b5		 je	 SHORT $L24264
  00ea3	85 c0		 test	 eax, eax
  00ea5	75 06		 jne	 SHORT $L24263
  00ea7	80 7b 5c 01	 cmp	 BYTE PTR [ebx+92], 1
  00eab	74 ab		 je	 SHORT $L24264
$L24263:

; 507  : 					nowTrack->SetRepeat_A_Start(MML);	//2 || (0 && sub)
; 508  : 				} else {
; 509  : 					nowTrack->SetRepeat_C_Start(MML);	//1 || (0 && main)

  00ead	8b 5b 50	 mov	 ebx, DWORD PTR [ebx+80]
  00eb0	56		 push	 esi
  00eb1	e8 00 00 00 00	 call	 ?SetRepeat_C_Start@MusicTrack@@QAEXPAVMMLfile@@@Z ; MusicTrack::SetRepeat_C_Start
  00eb6	e9 c2 fe ff ff	 jmp	 $L110278
$L24266:

; 510  : 				}
; 511  : 				break;
; 512  : 
; 513  : 			case(mml_Repeat_C_End):
; 514  : 				if((MML->iRepeatMode == 2) || ((MML->iRepeatMode == 0) && (fSub == true))){

  00ebb	8b 86 88 00 00
	00		 mov	 eax, DWORD PTR [esi+136]
  00ec1	83 f8 02	 cmp	 eax, 2
  00ec4	74 0a		 je	 SHORT $L24268
  00ec6	85 c0		 test	 eax, eax
  00ec8	75 c0		 jne	 SHORT $L24260
  00eca	80 7b 5c 01	 cmp	 BYTE PTR [ebx+92], 1

; 516  : 				} else {
; 517  : 					nowTrack->SetRepeat_C_End(MML);

  00ece	75 ba		 jne	 SHORT $L24260
$L24268:

; 515  : 					nowTrack->SetRepeat_A_End(MML);

  00ed0	8b 53 50	 mov	 edx, DWORD PTR [ebx+80]
  00ed3	8b ce		 mov	 ecx, esi
  00ed5	e8 00 00 00 00	 call	 ?SetRepeat_A_End@MusicTrack@@QAEXPAVMMLfile@@@Z ; MusicTrack::SetRepeat_A_End

; 518  : 				}
; 519  : 				break;

  00eda	e9 df fd ff ff	 jmp	 $L24218
$L24270:

; 520  : 
; 521  : 		//	case(mml_Repeat_C_Branch):
; 522  : 		//		nowTrack->SetRepeat_C_Branch(MML);
; 523  : 		//		break;
; 524  : 
; 525  : 			case(mml_Tempo):
; 526  : 				SetTempo(MML);

  00edf	8b 7d 0c	 mov	 edi, DWORD PTR _MML$[ebp]
  00ee2	8b f3		 mov	 esi, ebx
  00ee4	e8 00 00 00 00	 call	 ?SetTempo@TrackSet@@QAEXPAVMMLfile@@@Z ; TrackSet::SetTempo

; 527  : 				break;

  00ee9	e9 d0 fd ff ff	 jmp	 $L24218
$L24271:

; 528  : 
; 529  : 			case(mml_Tempo_Relative):
; 530  : 				SetRelativeTempo(MML);

  00eee	ff 75 0c	 push	 DWORD PTR _MML$[ebp]
  00ef1	8b f3		 mov	 esi, ebx
  00ef3	e8 00 00 00 00	 call	 ?SetRelativeTempo@TrackSet@@QAEXPAVMMLfile@@@Z ; TrackSet::SetRelativeTempo

; 531  : 				break;

  00ef8	e9 c1 fd ff ff	 jmp	 $L24218
$L24272:

; 532  : 
; 533  : 			case(mml_Tempo_Up):
; 534  : 				TempoUp();

  00efd	8b f3		 mov	 esi, ebx
  00eff	e8 00 00 00 00	 call	 ?TempoUp@TrackSet@@QAEXXZ ; TrackSet::TempoUp

; 535  : 				break;

  00f04	e9 b5 fd ff ff	 jmp	 $L24218
$L24273:

; 536  : 
; 537  : 			case(mml_Tempo_Down):
; 538  : 				TempoDown();

  00f09	8b f3		 mov	 esi, ebx
  00f0b	e8 00 00 00 00	 call	 ?TempoDown@TrackSet@@QAEXXZ ; TrackSet::TempoDown

; 539  : 				break;

  00f10	e9 a9 fd ff ff	 jmp	 $L24218
$L24274:

; 540  : 
; 541  : 			case(mml_La):
; 542  : 				nowTrack->SetNote(MML, 5);

  00f15	6a 05		 push	 5

; 543  : 				break;

  00f17	eb 17		 jmp	 SHORT $L110282
$L24275:

; 544  : 
; 545  : 			case(mml_Si):
; 546  : 				nowTrack->SetNote(MML, 6);

  00f19	6a 06		 push	 6

; 547  : 				break;

  00f1b	eb 13		 jmp	 SHORT $L110282
$L24276:

; 548  : 
; 549  : 			case(mml_Do):
; 550  : 				nowTrack->SetNote(MML, 0);

  00f1d	33 c0		 xor	 eax, eax

; 551  : 				break;

  00f1f	eb 10		 jmp	 SHORT $L110283
$L24277:

; 552  : 
; 553  : 			case(mml_Re):
; 554  : 				nowTrack->SetNote(MML, 1);

  00f21	33 c0		 xor	 eax, eax
  00f23	40		 inc	 eax

; 555  : 				break;

  00f24	eb 0b		 jmp	 SHORT $L110283
$L24278:

; 556  : 
; 557  : 			case(mml_Mi):
; 558  : 				nowTrack->SetNote(MML, 2);

  00f26	6a 02		 push	 2

; 559  : 				break;

  00f28	eb 06		 jmp	 SHORT $L110282
$L24279:

; 560  : 
; 561  : 			case(mml_Fa):
; 562  : 				nowTrack->SetNote(MML, 3);

  00f2a	6a 03		 push	 3

; 563  : 				break;

  00f2c	eb 02		 jmp	 SHORT $L110282
$L24280:

; 564  : 
; 565  : 			case(mml_Sol):
; 566  : 				nowTrack->SetNote(MML, 4);

  00f2e	6a 04		 push	 4
$L110282:
  00f30	58		 pop	 eax
$L110283:
  00f31	8b 4d 08	 mov	 ecx, DWORD PTR _this$[ebp]
  00f34	8b 79 50	 mov	 edi, DWORD PTR [ecx+80]
  00f37	8b de		 mov	 ebx, esi
  00f39	e8 00 00 00 00	 call	 ?SetNote@MusicTrack@@QAEXPAVMMLfile@@H@Z ; MusicTrack::SetNote

; 567  : 				break;

  00f3e	e9 3a fe ff ff	 jmp	 $L110278
$L24281:

; 568  : 
; 569  : 			case(mml_Rest):
; 570  : 				nowTrack->SetRest(MML, MML->rest);

  00f43	ff b6 98 00 00
	00		 push	 DWORD PTR [esi+152]
$L110279:
  00f49	8b 4b 50	 mov	 ecx, DWORD PTR [ebx+80]
  00f4c	56		 push	 esi
  00f4d	e8 00 00 00 00	 call	 ?SetRest@MusicTrack@@QAEXPAVMMLfile@@H@Z ; MusicTrack::SetRest

; 571  : 				break;

  00f52	e9 67 fd ff ff	 jmp	 $L24218
$L24282:

; 572  : 
; 573  : 			case(mml_Wait):
; 574  : 				nowTrack->SetRest(MML, MML->wait | 0x80);

  00f57	8b 86 9c 00 00
	00		 mov	 eax, DWORD PTR [esi+156]
  00f5d	0d 80 00 00 00	 or	 eax, 128		; 00000080H
  00f62	50		 push	 eax

; 575  : 				break;

  00f63	eb e4		 jmp	 SHORT $L110279
$L24283:

; 576  : 
; 577  : 			case(mml_Tai):
; 578  : 				nowTrack->SetTai(MML);

  00f65	8b 4b 50	 mov	 ecx, DWORD PTR [ebx+80]
  00f68	56		 push	 esi
  00f69	e8 00 00 00 00	 call	 ?SetTai@MusicTrack@@QAEXPAVMMLfile@@@Z ; MusicTrack::SetTai

; 579  : 				break;

  00f6e	e9 4b fd ff ff	 jmp	 $L24218
$L24284:

; 580  : 
; 581  : 			case(mml_Length):
; 582  : 				nowTrack->SetLength(MML);

  00f73	8b 5b 50	 mov	 ebx, DWORD PTR [ebx+80]
  00f76	56		 push	 esi
  00f77	e8 00 00 00 00	 call	 ?SetLength@MusicTrack@@QAEXPAVMMLfile@@@Z ; MusicTrack::SetLength

; 583  : 				break;

  00f7c	e9 fc fd ff ff	 jmp	 $L110278
$L24285:

; 584  : 
; 585  : 			case(mml_Gate_Q):
; 586  : 				if(MML->q_reverse == true){

  00f81	80 be 95 00 00
	00 01		 cmp	 BYTE PTR [esi+149], 1

; 587  : 					nowTrack->SetGatetime(MML);
; 588  : 				} else {

  00f88	74 17		 je	 SHORT $L24289
$L24286:

; 589  : 					nowTrack->SetGatetime_Q(MML);

  00f8a	8b 43 50	 mov	 eax, DWORD PTR [ebx+80]
  00f8d	56		 push	 esi
  00f8e	e8 00 00 00 00	 call	 ?SetGatetime_Q@MusicTrack@@QAEXPAVMMLfile@@@Z ; MusicTrack::SetGatetime_Q

; 590  : 				}
; 591  : 				break;

  00f93	e9 26 fd ff ff	 jmp	 $L24218
$L24288:

; 592  : 
; 593  : 			case(mml_Gate_q):
; 594  : 				if(MML->q_reverse == true){

  00f98	80 be 95 00 00
	00 01		 cmp	 BYTE PTR [esi+149], 1

; 595  : 					nowTrack->SetGatetime_Q(MML);
; 596  : 				} else {

  00f9f	74 e9		 je	 SHORT $L24286
$L24289:

; 597  : 					nowTrack->SetGatetime(MML);

  00fa1	8b 43 50	 mov	 eax, DWORD PTR [ebx+80]
  00fa4	56		 push	 esi
  00fa5	e8 00 00 00 00	 call	 ?SetGatetime@MusicTrack@@QAEXPAVMMLfile@@@Z ; MusicTrack::SetGatetime

; 598  : 				}
; 599  : 				break;

  00faa	e9 0f fd ff ff	 jmp	 $L24218
$L24291:

; 600  : 
; 601  : 			case(mml_Gate_u):
; 602  : 				nowTrack->SetGatetime_u(MML);

  00faf	ff 73 50	 push	 DWORD PTR [ebx+80]
  00fb2	8b c6		 mov	 eax, esi
  00fb4	e8 00 00 00 00	 call	 ?SetGatetime_u@MusicTrack@@QAEXPAVMMLfile@@@Z ; MusicTrack::SetGatetime_u

; 603  : 				break;

  00fb9	e9 00 fd ff ff	 jmp	 $L24218
$L24292:

; 604  : 
; 605  : 			case(mml_Echo_C):
; 606  : 				nowTrack->SetEchoBuffer(MML, 0);

  00fbe	33 c0		 xor	 eax, eax

; 607  : 				break;

  00fc0	eb 1d		 jmp	 SHORT $L110281
$L24293:

; 608  : 
; 609  : 			case(mml_Echo_D):
; 610  : 				nowTrack->SetEchoBuffer(MML, 1);

  00fc2	33 c0		 xor	 eax, eax
  00fc4	40		 inc	 eax

; 611  : 				break;

  00fc5	eb 18		 jmp	 SHORT $L110281
$L24294:

; 612  : 
; 613  : 			case(mml_Echo_E):
; 614  : 				nowTrack->SetEchoBuffer(MML, 2);

  00fc7	6a 02		 push	 2
$L110284:
  00fc9	58		 pop	 eax

; 615  : 				break;

  00fca	eb 13		 jmp	 SHORT $L110281
$L24295:

; 616  : 
; 617  : 			case(mml_Echo_F):
; 618  : 				nowTrack->SetEchoBuffer(MML, 3);

  00fcc	6a 03		 push	 3

; 619  : 				break;

  00fce	eb f9		 jmp	 SHORT $L110284
$L24296:

; 620  : 
; 621  : 			case(mml_Echo_G):
; 622  : 				nowTrack->SetEchoBuffer(MML, 4);

  00fd0	6a 04		 push	 4

; 623  : 				break;

  00fd2	eb f5		 jmp	 SHORT $L110284
$L24297:

; 624  : 
; 625  : 			case(mml_Echo_A):
; 626  : 				nowTrack->SetEchoBuffer(MML, 5);

  00fd4	6a 05		 push	 5

; 627  : 				break;

  00fd6	eb f1		 jmp	 SHORT $L110284
$L24298:

; 628  : 
; 629  : 			case(mml_Echo_B):
; 630  : 				nowTrack->SetEchoBuffer(MML, 6);

  00fd8	6a 06		 push	 6

; 631  : 				break;

  00fda	eb ed		 jmp	 SHORT $L110284
$L24299:

; 632  : 
; 633  : 			case(mml_Echo_R):
; 634  : 				nowTrack->SetEchoBuffer(MML, -1);

  00fdc	83 c8 ff	 or	 eax, -1
$L110281:
  00fdf	8b 5b 50	 mov	 ebx, DWORD PTR [ebx+80]
  00fe2	8b ce		 mov	 ecx, esi
  00fe4	e8 00 00 00 00	 call	 ?SetEchoBuffer@MusicTrack@@QAEXPAVMMLfile@@H@Z ; MusicTrack::SetEchoBuffer

; 635  : 				break;

  00fe9	e9 8f fd ff ff	 jmp	 $L110278
$L24300:

; 636  : 
; 637  : 			case(mml_Echo_Reset):
; 638  : 				nowTrack->ResetEcho();

  00fee	8b 53 50	 mov	 edx, DWORD PTR [ebx+80]
  00ff1	e8 00 00 00 00	 call	 ?ResetEcho@MusicTrack@@QAEXXZ ; MusicTrack::ResetEcho

; 639  : 				break;

  00ff6	e9 c3 fc ff ff	 jmp	 $L24218
$L24301:

; 640  : 
; 641  : 			case(mml_Echo_Off):
; 642  : 				nowTrack->SetEcho();

  00ffb	8b 43 50	 mov	 eax, DWORD PTR [ebx+80]
  00ffe	e8 00 00 00 00	 call	 ?SetEcho@MusicTrack@@QAEXXZ ; MusicTrack::SetEcho

; 643  : 				break;

  01003	e9 b6 fc ff ff	 jmp	 $L24218
$L24302:

; 644  : 
; 645  : 			case(mml_Echo):
; 646  : 				nowTrack->SetEcho(MML);

  01008	8b 4b 50	 mov	 ecx, DWORD PTR [ebx+80]
  0100b	8b c6		 mov	 eax, esi
  0100d	e8 00 00 00 00	 call	 ?SetEcho@MusicTrack@@QAEXPAVMMLfile@@@Z ; MusicTrack::SetEcho

; 647  : 				break;

  01012	e9 a7 fc ff ff	 jmp	 $L24218
$L24303:

; 648  : 
; 649  : 			case(mml_Jump):
; 650  : 				nowTrack->SetJump(MML);

  01017	ff 75 0c	 push	 DWORD PTR _MML$[ebp]
  0101a	8b 73 50	 mov	 esi, DWORD PTR [ebx+80]
  0101d	e8 00 00 00 00	 call	 ?SetJump@MusicTrack@@QAEXPAVMMLfile@@@Z ; MusicTrack::SetJump

; 651  : 				break;

  01022	e9 97 fc ff ff	 jmp	 $L24218
$L24304:

; 652  : 
; 653  : 			case(mml_Jump_drv):
; 654  : 				SetJumpDrv(MML);

  01027	56		 push	 esi
  01028	8b fb		 mov	 edi, ebx
  0102a	e8 00 00 00 00	 call	 ?SetJumpDrv@TrackSet@@QAEXPAVMMLfile@@@Z ; TrackSet::SetJumpDrv

; 655  : 				break;

  0102f	e9 8a fc ff ff	 jmp	 $L24218
$L24305:

; 656  : 
; 657  : 			case(mml_Envelop_Voice):
; 658  : 				nowTrack->SetEnvelop_Evoi(MML->GetInt() + MML->offset_Ei);

  01034	8b c6		 mov	 eax, esi
  01036	e8 00 00 00 00	 call	 ?GetInt@MMLfile@@QAEHXZ	; MMLfile::GetInt
  0103b	8b 4b 50	 mov	 ecx, DWORD PTR [ebx+80]
  0103e	8b f8		 mov	 edi, eax
  01040	03 7e 74	 add	 edi, DWORD PTR [esi+116]
  01043	e8 00 00 00 00	 call	 ?SetEnvelop_Evoi@MusicTrack@@QAEXI@Z ; MusicTrack::SetEnvelop_Evoi

; 659  : 			//	nowTrack->SetEnvelop(nsd_Envelop_Voice, MML, MML->offset_Ei);
; 660  : 				break;

  01048	e9 71 fc ff ff	 jmp	 $L24218
$L24306:

; 661  : 
; 662  : 			case(mml_Envelop_Volume):
; 663  : 				nowTrack->SetEnvelop_Evol(MML->GetInt() + MML->offset_Ev);

  0104d	8b c6		 mov	 eax, esi
  0104f	e8 00 00 00 00	 call	 ?GetInt@MMLfile@@QAEHXZ	; MMLfile::GetInt
  01054	8b 4b 50	 mov	 ecx, DWORD PTR [ebx+80]
  01057	8b f8		 mov	 edi, eax
  01059	03 7e 78	 add	 edi, DWORD PTR [esi+120]
  0105c	e8 00 00 00 00	 call	 ?SetEnvelop_Evol@MusicTrack@@QAEXI@Z ; MusicTrack::SetEnvelop_Evol

; 664  : 			//	nowTrack->SetEnvelop(nsd_Envelop_Volume, MML, MML->offset_Ev);
; 665  : 				break;

  01061	e9 58 fc ff ff	 jmp	 $L24218
$L24307:

; 666  : 
; 667  : 			case(mml_Envelop_Frequency):
; 668  : 				nowTrack->SetEnvelop_Em(MML->GetInt() + MML->offset_Em);

  01066	8b c6		 mov	 eax, esi
  01068	e8 00 00 00 00	 call	 ?GetInt@MMLfile@@QAEHXZ	; MMLfile::GetInt
  0106d	8b 4b 50	 mov	 ecx, DWORD PTR [ebx+80]
  01070	8b f8		 mov	 edi, eax
  01072	03 be 80 00 00
	00		 add	 edi, DWORD PTR [esi+128]
  01078	e8 00 00 00 00	 call	 ?SetEnvelop_Em@MusicTrack@@QAEXI@Z ; MusicTrack::SetEnvelop_Em

; 669  : 			//	nowTrack->SetEnvelop(nsd_Envelop_Frequency, MML, MML->offset_Em);
; 670  : 				break;

  0107d	e9 3c fc ff ff	 jmp	 $L24218
$L24308:

; 671  : 
; 672  : 			case(mml_Envelop_Note):
; 673  : 				nowTrack->SetEnvelop_En(MML->GetInt() + MML->offset_En);

  01082	8b c6		 mov	 eax, esi
  01084	e8 00 00 00 00	 call	 ?GetInt@MMLfile@@QAEHXZ	; MMLfile::GetInt
  01089	8b 4b 50	 mov	 ecx, DWORD PTR [ebx+80]
  0108c	8b f8		 mov	 edi, eax
  0108e	03 7e 7c	 add	 edi, DWORD PTR [esi+124]
  01091	e8 00 00 00 00	 call	 ?SetEnvelop_En@MusicTrack@@QAEXI@Z ; MusicTrack::SetEnvelop_En

; 674  : 			//	nowTrack->SetEnvelop(nsd_Envelop_Note, MML, MML->offset_En);
; 675  : 				break;

  01096	e9 23 fc ff ff	 jmp	 $L24218
$L24311:

; 679  : 				break;
; 680  : 
; 681  : 			case(mml_Envelop_Off_Volume):
; 682  : 				nowTrack->SetEnvelop_Evol();

  0109b	8b 73 50	 mov	 esi, DWORD PTR [ebx+80]
  0109e	e8 00 00 00 00	 call	 ?SetEnvelop_Evol@MusicTrack@@QAEXXZ ; MusicTrack::SetEnvelop_Evol

; 683  : 			//	SetEvent(new mml_Address(nsd_Envelop_Volume));
; 684  : 				break;

  010a3	e9 16 fc ff ff	 jmp	 $L24218
$L24312:

; 685  : 
; 686  : 			case(mml_Envelop_Off_Frequency):
; 687  : 				nowTrack->SetEnvelop_Em();

  010a8	8b 73 50	 mov	 esi, DWORD PTR [ebx+80]
  010ab	e8 00 00 00 00	 call	 ?SetEnvelop_Em@MusicTrack@@QAEXXZ ; MusicTrack::SetEnvelop_Em

; 688  : 			//	SetEvent(new mml_Address(nsd_Envelop_Frequency));
; 689  : 				break;

  010b0	e9 09 fc ff ff	 jmp	 $L24218
$L24313:

; 690  : 
; 691  : 			case(mml_Envelop_Off_Note):
; 692  : 				nowTrack->SetEnvelop_En();

  010b5	8b 73 50	 mov	 esi, DWORD PTR [ebx+80]
  010b8	e8 00 00 00 00	 call	 ?SetEnvelop_En@MusicTrack@@QAEXXZ ; MusicTrack::SetEnvelop_En

; 693  : 			//	SetEvent(new mml_Address(nsd_Envelop_Note));
; 694  : 				break;

  010bd	e9 fc fb ff ff	 jmp	 $L24218
$L24314:

; 695  : 
; 696  : 			case(mml_Patch):
; 697  : 				nowTrack->SetPatch(MML);

  010c2	ff 75 0c	 push	 DWORD PTR _MML$[ebp]
  010c5	8b 73 50	 mov	 esi, DWORD PTR [ebx+80]
  010c8	e8 00 00 00 00	 call	 ?SetPatch@MusicTrack@@QAEXPAVMMLfile@@@Z ; MusicTrack::SetPatch

; 698  : 				break;

  010cd	e9 ec fb ff ff	 jmp	 $L24218
$L24315:

; 699  : 
; 700  : 			case(mml_Patch_Off):
; 701  : 				nowTrack->SetPatch();

  010d2	8b 43 50	 mov	 eax, DWORD PTR [ebx+80]
  010d5	c6 80 e3 01 00
	00 00		 mov	 BYTE PTR [eax+483], 0

; 702  : 				break;

  010dc	e9 dd fb ff ff	 jmp	 $L24218
$L24316:

; 703  : 
; 704  : 			case(mml_Release_mdoe):
; 705  : 				nowTrack->SetReleaseMode(MML);

  010e1	56		 push	 esi
  010e2	ff 73 50	 push	 DWORD PTR [ebx+80]
  010e5	e8 00 00 00 00	 call	 ?SetReleaseMode@MusicTrack@@QAEXPAVMMLfile@@@Z ; MusicTrack::SetReleaseMode

; 706  : 				break;

  010ea	e9 cf fb ff ff	 jmp	 $L24218
$L24317:

; 707  : 
; 708  : 			case(mml_Release_Voice):
; 709  : 				nowTrack->SetReleaseVoice(MML);

  010ef	56		 push	 esi
  010f0	ff 73 50	 push	 DWORD PTR [ebx+80]
  010f3	e8 00 00 00 00	 call	 ?SetReleaseVoice@MusicTrack@@QAEXPAVMMLfile@@@Z ; MusicTrack::SetReleaseVoice

; 710  : 				break;

  010f8	e9 c1 fb ff ff	 jmp	 $L24218
$L24318:

; 711  : 
; 712  : 			case(mml_Release_Volume):
; 713  : 				nowTrack->SetReleaseVolume(MML);

  010fd	56		 push	 esi
  010fe	ff 73 50	 push	 DWORD PTR [ebx+80]
  01101	e8 00 00 00 00	 call	 ?SetReleaseVolume@MusicTrack@@QAEXPAVMMLfile@@@Z ; MusicTrack::SetReleaseVolume

; 714  : 				break;

  01106	e9 b3 fb ff ff	 jmp	 $L24218
$L24319:

; 715  : 
; 716  : 			case(mml_Voice):
; 717  : 				nowTrack->SetVoice(MML->GetInt());

  0110b	8b 45 0c	 mov	 eax, DWORD PTR _MML$[ebp]
  0110e	e8 00 00 00 00	 call	 ?GetInt@MMLfile@@QAEHXZ	; MMLfile::GetInt
  01113	8b 73 50	 mov	 esi, DWORD PTR [ebx+80]
  01116	8b f8		 mov	 edi, eax
  01118	e8 00 00 00 00	 call	 ?SetVoice@MusicTrack@@QAEXI@Z ; MusicTrack::SetVoice

; 718  : 			//	SetEvent(new mml_general(nsd_Voice, MML, _T("Voice")));
; 719  : 				break;

  0111d	e9 9c fb ff ff	 jmp	 $L24218
$L24320:

; 720  : 
; 721  : 			case(mml_FDSC):
; 722  : 				nowTrack->SetFDSC(MML);

  01122	8b 7b 50	 mov	 edi, DWORD PTR [ebx+80]
  01125	56		 push	 esi
  01126	e8 00 00 00 00	 call	 ?SetFDSC@MusicTrack@@QAEXPAVMMLfile@@@Z ; MusicTrack::SetFDSC

; 723  : 				break;

  0112b	e9 8e fb ff ff	 jmp	 $L24218
$L24321:

; 724  : 
; 725  : 			case(mml_FDSM):
; 726  : 				nowTrack->SetFDSM(MML);

  01130	8b 7b 50	 mov	 edi, DWORD PTR [ebx+80]
  01133	56		 push	 esi
  01134	e8 00 00 00 00	 call	 ?SetFDSM@MusicTrack@@QAEXPAVMMLfile@@@Z ; MusicTrack::SetFDSM

; 727  : 				break;

  01139	e9 80 fb ff ff	 jmp	 $L24218
$L24322:

; 728  : 
; 729  : 			case(mml_FDSF):
; 730  : 				Set_FDS_Frequency(MML);

  0113e	56		 push	 esi
  0113f	53		 push	 ebx
  01140	e8 00 00 00 00	 call	 ?Set_FDS_Frequency@TrackSet@@QAEXPAVMMLfile@@@Z ; TrackSet::Set_FDS_Frequency

; 731  : 				break;

  01145	e9 74 fb ff ff	 jmp	 $L24218
$L24323:

; 732  : 
; 733  : 			case(mml_FDSV):
; 734  : 				Set_FDS_Volume(MML);

  0114a	56		 push	 esi
  0114b	53		 push	 ebx
  0114c	e8 00 00 00 00	 call	 ?Set_FDS_Volume@TrackSet@@QAEXPAVMMLfile@@@Z ; TrackSet::Set_FDS_Volume

; 735  : 				break;

  01151	e9 68 fb ff ff	 jmp	 $L24218
$L24324:

; 736  : 
; 737  : 			case(mml_VRC7):
; 738  : 				nowTrack->SetVRC7(MML);

  01156	8b 7b 50	 mov	 edi, DWORD PTR [ebx+80]
  01159	56		 push	 esi
  0115a	e8 00 00 00 00	 call	 ?SetVRC7@MusicTrack@@QAEXPAVMMLfile@@@Z ; MusicTrack::SetVRC7

; 739  : 				break;

  0115f	e9 5a fb ff ff	 jmp	 $L24218
$L24325:

; 740  : 
; 741  : 			case(mml_N163):
; 742  : 				nowTrack->SetN163(MML);

  01164	8b 5b 50	 mov	 ebx, DWORD PTR [ebx+80]
  01167	8b ce		 mov	 ecx, esi
  01169	e8 00 00 00 00	 call	 ?SetN163@MusicTrack@@QAEXPAVMMLfile@@@Z ; MusicTrack::SetN163

; 743  : 				break;

  0116e	e9 0a fc ff ff	 jmp	 $L110278
$L24326:

; 744  : 
; 745  : 			case(mml_N163_Set):
; 746  : 				nowTrack->SetN163_Set(MML);

  01173	8b 4b 50	 mov	 ecx, DWORD PTR [ebx+80]
  01176	8b c6		 mov	 eax, esi
  01178	e8 00 00 00 00	 call	 ?SetN163_Set@MusicTrack@@QAEXPAVMMLfile@@@Z ; MusicTrack::SetN163_Set

; 747  : 				break;

  0117d	e9 3c fb ff ff	 jmp	 $L24218
$L24327:

; 748  : 
; 749  : 			case(mml_N163_Load):
; 750  : 				nowTrack->SetN163_Load(MML);

  01182	8b 5b 50	 mov	 ebx, DWORD PTR [ebx+80]
  01185	8b ce		 mov	 ecx, esi
  01187	e8 00 00 00 00	 call	 ?SetN163_Load@MusicTrack@@QAEXPAVMMLfile@@@Z ; MusicTrack::SetN163_Load

; 751  : 				break;

  0118c	e9 ec fb ff ff	 jmp	 $L110278
$L24328:

; 752  : 
; 753  : 			case(mml_N163_Channel):
; 754  : 				Set_N163_Channel(MML);

  01191	56		 push	 esi
  01192	53		 push	 ebx
  01193	e8 00 00 00 00	 call	 ?Set_N163_Channel@TrackSet@@QAEXPAVMMLfile@@@Z ; TrackSet::Set_N163_Channel

; 755  : 				break;

  01198	e9 21 fb ff ff	 jmp	 $L24218
$L24329:

; 756  : 
; 757  : 			case(mml_FME7_frequency):
; 758  : 				Set_FME7_Frequency(MML);

  0119d	56		 push	 esi
  0119e	53		 push	 ebx
  0119f	e8 00 00 00 00	 call	 ?Set_FME7_Frequency@TrackSet@@QAEXPAVMMLfile@@@Z ; TrackSet::Set_FME7_Frequency

; 759  : 				break;

  011a4	e9 15 fb ff ff	 jmp	 $L24218
$L24330:

; 760  : 
; 761  : 			case(mml_Octave):
; 762  : 				nowTrack->SetOctave(MML);

  011a9	ff 75 0c	 push	 DWORD PTR _MML$[ebp]
  011ac	8b 73 50	 mov	 esi, DWORD PTR [ebx+80]
  011af	e8 00 00 00 00	 call	 ?SetOctave@MusicTrack@@QAEXPAVMMLfile@@@Z ; MusicTrack::SetOctave

; 763  : 				break;

  011b4	e9 05 fb ff ff	 jmp	 $L24218
$L24331:

; 764  : 
; 765  : 			case(mml_Octave_Up):
; 766  : 				if(MML->octave_reverse == true){

  011b9	80 be 94 00 00
	00 01		 cmp	 BYTE PTR [esi+148], 1

; 767  : 					nowTrack->SetOctaveDec();
; 768  : 				} else {

  011c0	74 16		 je	 SHORT $L24335
$L24332:

; 769  : 					nowTrack->SetOctaveInc();

  011c2	8b 73 50	 mov	 esi, DWORD PTR [ebx+80]
  011c5	e8 00 00 00 00	 call	 ?SetOctaveInc@MusicTrack@@QAEXXZ ; MusicTrack::SetOctaveInc

; 770  : 				}
; 771  : 				break;

  011ca	e9 ef fa ff ff	 jmp	 $L24218
$L24334:

; 772  : 
; 773  : 			case(mml_Octave_Down):
; 774  : 				if(MML->octave_reverse == true){

  011cf	80 be 94 00 00
	00 01		 cmp	 BYTE PTR [esi+148], 1

; 775  : 					nowTrack->SetOctaveInc();
; 776  : 				} else {

  011d6	74 ea		 je	 SHORT $L24332
$L24335:

; 777  : 					nowTrack->SetOctaveDec();

  011d8	8b 73 50	 mov	 esi, DWORD PTR [ebx+80]
  011db	e8 00 00 00 00	 call	 ?SetOctaveDec@MusicTrack@@QAEXXZ ; MusicTrack::SetOctaveDec

; 778  : 				}
; 779  : 				break;

  011e0	e9 d9 fa ff ff	 jmp	 $L24218
$L24337:

; 780  : 
; 781  : 			case(mml_Octave_Up1):
; 782  : 				nowTrack->SetOctaveOne_Inc();

  011e5	8b 73 50	 mov	 esi, DWORD PTR [ebx+80]
  011e8	e8 00 00 00 00	 call	 ?SetOctaveOne_Inc@MusicTrack@@QAEXXZ ; MusicTrack::SetOctaveOne_Inc

; 783  : 				break;

  011ed	e9 cc fa ff ff	 jmp	 $L24218
$L24338:

; 784  : 
; 785  : 			case(mml_Octave_Down1):
; 786  : 				nowTrack->SetOctaveOne_Dec();

  011f2	8b 73 50	 mov	 esi, DWORD PTR [ebx+80]
  011f5	e8 00 00 00 00	 call	 ?SetOctaveOne_Dec@MusicTrack@@QAEXXZ ; MusicTrack::SetOctaveOne_Dec

; 787  : 				break;

  011fa	e9 bf fa ff ff	 jmp	 $L24218
$L24339:

; 788  : 
; 789  : 			case(mml_Detune_Cent):
; 790  : 				SetEvent(new mml_general(nsd_Detune_Cent, MML, _T("Detune Cent")));

  011ff	6a 3c		 push	 60			; 0000003cH
  01201	e8 00 00 00 00	 call	 ??2@YAPAXI@Z		; operator new
  01206	59		 pop	 ecx
  01207	89 45 10	 mov	 DWORD PTR $T109952[ebp], eax
  0120a	85 c0		 test	 eax, eax
  0120c	c6 45 fc 02	 mov	 BYTE PTR __$EHRec$[ebp+8], 2
  01210	74 0a		 je	 SHORT $L109953
  01212	68 00 00 00 00	 push	 OFFSET FLAT:??_C@_1BI@IEKIFIDC@?$AAD?$AAe?$AAt?$AAu?$AAn?$AAe?$AA?5?$AAC?$AAe?$AAn?$AAt?$AA?$AA@
  01217	56		 push	 esi
  01218	6a 14		 push	 20			; 00000014H
  0121a	eb 2f		 jmp	 SHORT $L110286
$L109953:
  0121c	33 c0		 xor	 eax, eax
$L109954:
  0121e	c6 45 fc 01	 mov	 BYTE PTR __$EHRec$[ebp+8], 1
  01222	50		 push	 eax
  01223	8b 43 50	 mov	 eax, DWORD PTR [ebx+80]
  01226	e8 00 00 00 00	 call	 ?SetEvent@MusicTrack@@QAEXPAVMusicItem@@@Z ; MusicTrack::SetEvent

; 791  : 				break;

  0122b	e9 8e fa ff ff	 jmp	 $L24218
$L24345:

; 792  : 
; 793  : 			case(mml_Detune_Register):
; 794  : 				SetEvent(new mml_general(nsd_Derune_Register, MML, _T("Derune Register")));

  01230	6a 3c		 push	 60			; 0000003cH
  01232	e8 00 00 00 00	 call	 ??2@YAPAXI@Z		; operator new
  01237	59		 pop	 ecx
  01238	89 45 10	 mov	 DWORD PTR $T109956[ebp], eax
  0123b	85 c0		 test	 eax, eax
  0123d	c6 45 fc 03	 mov	 BYTE PTR __$EHRec$[ebp+8], 3
  01241	74 d9		 je	 SHORT $L109953
  01243	68 00 00 00 00	 push	 OFFSET FLAT:??_C@_1CA@DCDMNGOL@?$AAD?$AAe?$AAr?$AAu?$AAn?$AAe?$AA?5?$AAR?$AAe?$AAg?$AAi?$AAs?$AAt?$AAe?$AAr?$AA?$AA@
  01248	56		 push	 esi
  01249	6a 15		 push	 21			; 00000015H
$L110286:
  0124b	50		 push	 eax
  0124c	e8 00 00 00 00	 call	 ??0mml_general@@QAE@EPAVMMLfile@@QBG@Z ; mml_general::mml_general
  01251	eb cb		 jmp	 SHORT $L109954
$L24351:

; 795  : 				break;
; 796  : 
; 797  : 			case(mml_Detune_Cent_Relative):
; 798  : 				SetEvent(new mml_general(nsd_SubCommand, (const char)nsd_sub_Detune_Cent, (char)MML->GetInt(), _T("Relative Detune Cent")));

  01253	6a 3c		 push	 60			; 0000003cH
  01255	e8 00 00 00 00	 call	 ??2@YAPAXI@Z		; operator new
  0125a	59		 pop	 ecx
  0125b	89 45 10	 mov	 DWORD PTR $T109960[ebp], eax
  0125e	85 c0		 test	 eax, eax
  01260	c6 45 fc 04	 mov	 BYTE PTR __$EHRec$[ebp+8], 4
  01264	74 b6		 je	 SHORT $L109953
  01266	68 00 00 00 00	 push	 OFFSET FLAT:??_C@_1CK@JBMEODCM@?$AAR?$AAe?$AAl?$AAa?$AAt?$AAi?$AAv?$AAe?$AA?5?$AAD?$AAe?$AAt?$AAu?$AAn?$AAe?$AA?5?$AAC?$AAe?$AAn?$AAt@
  0126b	8b c6		 mov	 eax, esi
  0126d	e8 00 00 00 00	 call	 ?GetInt@MMLfile@@QAEHXZ	; MMLfile::GetInt
  01272	50		 push	 eax
  01273	6a 02		 push	 2
  01275	eb 22		 jmp	 SHORT $L110285
$L24359:

; 799  : 				break;
; 800  : 
; 801  : 			case(mml_Detune_Register_Relative):
; 802  : 				SetEvent(new mml_general(nsd_SubCommand, (const char)nsd_sub_Derune_Register, (char)MML->GetInt(), _T("Relative Detune Register")));

  01277	6a 3c		 push	 60			; 0000003cH
  01279	e8 00 00 00 00	 call	 ??2@YAPAXI@Z		; operator new
  0127e	59		 pop	 ecx
  0127f	89 45 10	 mov	 DWORD PTR $T109964[ebp], eax
  01282	85 c0		 test	 eax, eax
  01284	c6 45 fc 05	 mov	 BYTE PTR __$EHRec$[ebp+8], 5
  01288	74 92		 je	 SHORT $L109953
  0128a	68 00 00 00 00	 push	 OFFSET FLAT:??_C@_1DC@KLPFDHDF@?$AAR?$AAe?$AAl?$AAa?$AAt?$AAi?$AAv?$AAe?$AA?5?$AAD?$AAe?$AAt?$AAu?$AAn?$AAe?$AA?5?$AAR?$AAe?$AAg?$AAi@
  0128f	8b c6		 mov	 eax, esi
  01291	e8 00 00 00 00	 call	 ?GetInt@MMLfile@@QAEHXZ	; MMLfile::GetInt
  01296	50		 push	 eax
  01297	6a 03		 push	 3
$L110285:
  01299	6a 2f		 push	 47			; 0000002fH
  0129b	ff 75 10	 push	 DWORD PTR $T109964[ebp]
  0129e	e8 00 00 00 00	 call	 ??0mml_general@@QAE@EDDQBG@Z ; mml_general::mml_general
  012a3	e9 76 ff ff ff	 jmp	 $L109954
$L24367:

; 803  : 				break;
; 804  : 	
; 805  : 			case(mml_Transpose):
; 806  : 				i = MML->GetInt();

  012a8	8b c6		 mov	 eax, esi
  012aa	e8 00 00 00 00	 call	 ?GetInt@MMLfile@@QAEHXZ	; MMLfile::GetInt

; 807  : 				if( (i < -128) || (i > 127) ){

  012af	83 f8 80	 cmp	 eax, -128		; ffffff80H
  012b2	0f 8c 09 02 00
	00		 jl	 $L110265
  012b8	83 f8 7f	 cmp	 eax, 127		; 0000007fH
  012bb	0f 8f 00 02 00
	00		 jg	 $L110265

; 809  : 				}
; 810  : 				nowTrack->SetTranspose(i);

  012c1	8b 73 50	 mov	 esi, DWORD PTR [ebx+80]
  012c4	50		 push	 eax
  012c5	e8 00 00 00 00	 call	 ?SetTranspose@MusicTrack@@QAEXH@Z ; MusicTrack::SetTranspose

; 811  : 				//SetEvent(new mml_general(nsd_Transpose, MML, _T("Transpose")));
; 812  : 				break;

  012ca	e9 ef f9 ff ff	 jmp	 $L24218
$L24371:

; 813  : 
; 814  : 			case(mml_Transpose_Relative):
; 815  : 				nowTrack->SetTranspose_Relative(MML->GetInt());

  012cf	8b 45 0c	 mov	 eax, DWORD PTR _MML$[ebp]
  012d2	e8 00 00 00 00	 call	 ?GetInt@MMLfile@@QAEHXZ	; MMLfile::GetInt
  012d7	8b 73 50	 mov	 esi, DWORD PTR [ebx+80]
  012da	8b f8		 mov	 edi, eax
  012dc	e8 00 00 00 00	 call	 ?SetTranspose_Relative@MusicTrack@@QAEXH@Z ; MusicTrack::SetTranspose_Relative

; 816  : 				//SetEvent(new mml_general(nsd_Relative_Transpose, MML, _T("Relative Transpose")));
; 817  : 				break;

  012e1	e9 d8 f9 ff ff	 jmp	 $L24218
$L24372:

; 818  : 
; 819  : 			case(mml_KeyShift):
; 820  : 				nowTrack->SetKeyShift(MML);

  012e6	56		 push	 esi
  012e7	ff 73 50	 push	 DWORD PTR [ebx+80]
  012ea	e8 00 00 00 00	 call	 ?SetKeyShift@MusicTrack@@QAEXPAVMMLfile@@@Z ; MusicTrack::SetKeyShift

; 821  : 				break;

  012ef	e9 ca f9 ff ff	 jmp	 $L24218
$L24373:

; 822  : 
; 823  : 			case(mml_KeyShift_Relative):
; 824  : 				nowTrack->SetKeyShift_Relative(MML);

  012f4	8b 43 50	 mov	 eax, DWORD PTR [ebx+80]
  012f7	56		 push	 esi
  012f8	e8 00 00 00 00	 call	 ?SetKeyShift_Relative@MusicTrack@@QAEXPAVMMLfile@@@Z ; MusicTrack::SetKeyShift_Relative

; 825  : 				break;

  012fd	e9 bc f9 ff ff	 jmp	 $L24218
$L24374:

; 826  : 
; 827  : 			case(mml_Protament):
; 828  : 				nowTrack->SetProtament(MML);

  01302	ff 73 50	 push	 DWORD PTR [ebx+80]
  01305	8b ce		 mov	 ecx, esi
  01307	e8 00 00 00 00	 call	 ?SetProtament@MusicTrack@@QAEXPAVMMLfile@@@Z ; MusicTrack::SetProtament

; 829  : 				break;

  0130c	e9 ad f9 ff ff	 jmp	 $L24218
$L24375:

; 830  : 
; 831  : 			case(mml_Protament2):
; 832  : 				nowTrack->SetProtament(MML, (unsigned char)iTempo);

  01311	33 c0		 xor	 eax, eax
  01313	8a 43 40	 mov	 al, BYTE PTR [ebx+64]
  01316	8b 5b 50	 mov	 ebx, DWORD PTR [ebx+80]
  01319	50		 push	 eax
  0131a	56		 push	 esi
  0131b	e8 00 00 00 00	 call	 ?SetProtament@MusicTrack@@QAEXPAVMMLfile@@E@Z ; MusicTrack::SetProtament

; 833  : 				break;

  01320	e9 58 fa ff ff	 jmp	 $L110278
$L24377:

; 834  : 
; 835  : 			case(mml_Sweep):
; 836  : 				nowTrack->SetSweep(MML);

  01325	8b 4b 50	 mov	 ecx, DWORD PTR [ebx+80]
  01328	8b c6		 mov	 eax, esi
  0132a	e8 00 00 00 00	 call	 ?SetSweep@MusicTrack@@QAEXPAVMMLfile@@@Z ; MusicTrack::SetSweep

; 837  : 				break;

  0132f	e9 8a f9 ff ff	 jmp	 $L24218
$L24378:

; 838  : 
; 839  : 			case(mml_Volume):
; 840  : 				nowTrack->SetVolume(MML);

  01334	ff 75 0c	 push	 DWORD PTR _MML$[ebp]
  01337	8b 73 50	 mov	 esi, DWORD PTR [ebx+80]
  0133a	e8 00 00 00 00	 call	 ?SetVolume@MusicTrack@@QAEXPAVMMLfile@@@Z ; MusicTrack::SetVolume

; 841  : 				break;

  0133f	e9 7a f9 ff ff	 jmp	 $L24218
$L24379:

; 842  : 
; 843  : 			case(mml_Volume_Up):
; 844  : 				nowTrack->SetVolumeInc(MML);

  01344	8b 53 50	 mov	 edx, DWORD PTR [ebx+80]
  01347	8b ce		 mov	 ecx, esi
  01349	e8 00 00 00 00	 call	 ?SetVolumeInc@MusicTrack@@QAEXPAVMMLfile@@@Z ; MusicTrack::SetVolumeInc

; 845  : 				break;

  0134e	e9 6b f9 ff ff	 jmp	 $L24218
$L24380:

; 846  : 
; 847  : 			case(mml_Volume_Down):
; 848  : 				nowTrack->SetVolumeDec(MML);

  01353	8b 53 50	 mov	 edx, DWORD PTR [ebx+80]
  01356	8b ce		 mov	 ecx, esi
  01358	e8 00 00 00 00	 call	 ?SetVolumeDec@MusicTrack@@QAEXPAVMMLfile@@@Z ; MusicTrack::SetVolumeDec

; 849  : 				break;

  0135d	e9 5c f9 ff ff	 jmp	 $L24218
$L24381:

; 850  : 
; 851  : 			case(mml_VRC7_Write):
; 852  : 				Set_VRC7_Write(MML);

  01362	53		 push	 ebx
  01363	8b ce		 mov	 ecx, esi
  01365	e8 00 00 00 00	 call	 ?Set_VRC7_Write@TrackSet@@QAEXPAVMMLfile@@@Z ; TrackSet::Set_VRC7_Write

; 853  : 				break;

  0136a	e9 4f f9 ff ff	 jmp	 $L24218
$L24382:

; 854  : 
; 855  : 			case(mml_Memory_Write):
; 856  : 				Set_Poke(MML);

  0136f	53		 push	 ebx
  01370	8b ce		 mov	 ecx, esi
  01372	e8 00 00 00 00	 call	 ?Set_Poke@TrackSet@@QAEXPAVMMLfile@@@Z ; TrackSet::Set_Poke

; 857  : 				break;

  01377	e9 42 f9 ff ff	 jmp	 $L24218
$L24383:

; 858  : 
; 859  : 			case(mml_Priority):
; 860  : 				Set_Priority(MML);

  0137c	ff 75 0c	 push	 DWORD PTR _MML$[ebp]
  0137f	8b f3		 mov	 esi, ebx
  01381	e8 00 00 00 00	 call	 ?Set_Priority@TrackSet@@QAEXPAVMMLfile@@@Z ; TrackSet::Set_Priority

; 869  : 				break;
; 870  : 		}
; 871  : 	}

  01386	e9 33 f9 ff ff	 jmp	 $L24218
$L110263:

; 872  : 
; 873  : 	//Local Macro
; 874  : 	MML->DeleteMacro(1);

  0138b	8b 75 0c	 mov	 esi, DWORD PTR _MML$[ebp]
  0138e	6a 01		 push	 1
  01390	e8 00 00 00 00	 call	 ?DeleteMacro@MMLfile@@QAEXH@Z ; MMLfile::DeleteMacro

; 875  : 
; 876  : 	if(fSub == true){

  01395	80 7f 5c 01	 cmp	 BYTE PTR [edi+92], 1

; 877  : 		//Tu[`ubN
; 878  : 		code.resize(0);

  01399	6a 00		 push	 0
  0139b	75 2a		 jne	 SHORT $L24387
  0139d	8b 4d 08	 mov	 ecx, DWORD PTR _this$[ebp]
  013a0	83 c1 14	 add	 ecx, 20			; 00000014H
  013a3	33 c0		 xor	 eax, eax
  013a5	e8 00 00 00 00	 call	 ?resize@?$basic_string@DU?$char_traits@D@std@@V?$allocator@D@2@@std@@QAEXID@Z ; std::basic_string<char,std::char_traits<char>,std::allocator<char> >::resize

; 879  : 		i = (int)ptcTrack[iTrack]->SetEnd(MML);

  013aa	8b 75 14	 mov	 esi, DWORD PTR tv938[ebp]
  013ad	8b 7d 18	 mov	 edi, DWORD PTR tv933[ebp]
  013b0	e8 00 00 00 00	 call	 ??A?$map@HPAVMusicTrack@@U?$less@H@std@@V?$allocator@U?$pair@$$CBHPAVMusicTrack@@@std@@@3@@std@@QAEAAPAVMusicTrack@@ABH@Z ; std::map<int,MusicTrack *,std::less<int>,std::allocator<std::pair<int const ,MusicTrack *> > >::operator[]
  013b5	ff 75 0c	 push	 DWORD PTR _MML$[ebp]
  013b8	8b 08		 mov	 ecx, DWORD PTR [eax]
  013ba	e8 00 00 00 00	 call	 ?SetEnd@MusicTrack@@QAEIPAVMMLfile@@@Z ; MusicTrack::SetEnd
  013bf	89 45 10	 mov	 DWORD PTR _i$[ebp], eax

; 880  : 
; 881  : 	} else {

  013c2	e9 d2 00 00 00	 jmp	 $L110271
$L24387:

; 882  : 		//O
; 883  : 		i = 2 + ((maxTrack + 1) * 2);		//gbNwb_[TCYvZB

  013c7	8b 47 58	 mov	 eax, DWORD PTR [edi+88]
  013ca	8d 44 00 04	 lea	 eax, DWORD PTR [eax+eax+4]

; 884  : 		code.resize(i);						//wb_pR[hTCYm

  013ce	8d 5f 14	 lea	 ebx, DWORD PTR [edi+20]
  013d1	8b cb		 mov	 ecx, ebx
  013d3	89 45 10	 mov	 DWORD PTR _i$[ebp], eax
  013d6	e8 00 00 00 00	 call	 ?resize@?$basic_string@DU?$char_traits@D@std@@V?$allocator@D@2@@std@@QAEXID@Z ; std::basic_string<char,std::char_traits<char>,std::allocator<char> >::resize

; 885  : 
; 886  : 		code[0] = (unsigned char)maxTrack + 1;				//gbN

  013db	83 7b 18 10	 cmp	 DWORD PTR [ebx+24], 16	; 00000010H
  013df	72 05		 jb	 SHORT $L110176
  013e1	8b 43 04	 mov	 eax, DWORD PTR [ebx+4]
  013e4	eb 03		 jmp	 SHORT $L110177
$L110176:
  013e6	8d 43 04	 lea	 eax, DWORD PTR [ebx+4]
$L110177:
  013e9	8a 4f 58	 mov	 cl, BYTE PTR [edi+88]
  013ec	fe c1		 inc	 cl
  013ee	88 08		 mov	 BYTE PTR [eax], cl

; 887  : 		code[1] = Priority;									//etO

  013f0	83 7b 18 10	 cmp	 DWORD PTR [ebx+24], 16	; 00000010H
  013f4	72 05		 jb	 SHORT $L110192
  013f6	8b 43 04	 mov	 eax, DWORD PTR [ebx+4]
  013f9	eb 03		 jmp	 SHORT $L110193
$L110192:
  013fb	8d 43 04	 lea	 eax, DWORD PTR [ebx+4]
$L110193:
  013fe	8a 4f 68	 mov	 cl, BYTE PTR [edi+104]

; 888  : 
; 889  : 		//egbNI[Af[^AhX
; 890  : 		iTrack = 0;

  01401	8b 75 14	 mov	 esi, DWORD PTR tv938[ebp]
  01404	88 48 01	 mov	 BYTE PTR [eax+1], cl
  01407	83 26 00	 and	 DWORD PTR [esi], 0

; 891  : 		while(iTrack <= maxTrack){

  0140a	83 7f 58 00	 cmp	 DWORD PTR [edi+88], 0
  0140e	0f 8c 85 00 00
	00		 jl	 $L110271
$L24392:

; 892  : 			unsigned	int	n	= (int)ptcTrack[iTrack]->SetEnd(MML);

  01414	8b 7d 18	 mov	 edi, DWORD PTR tv933[ebp]
  01417	e8 00 00 00 00	 call	 ??A?$map@HPAVMusicTrack@@U?$less@H@std@@V?$allocator@U?$pair@$$CBHPAVMusicTrack@@@std@@@3@@std@@QAEAAPAVMusicTrack@@ABH@Z ; std::map<int,MusicTrack *,std::less<int>,std::allocator<std::pair<int const ,MusicTrack *> > >::operator[]
  0141c	ff 75 0c	 push	 DWORD PTR _MML$[ebp]
  0141f	8b 08		 mov	 ecx, DWORD PTR [eax]
  01421	e8 00 00 00 00	 call	 ?SetEnd@MusicTrack@@QAEIPAVMMLfile@@@Z ; MusicTrack::SetEnd
  01426	8b f8		 mov	 edi, eax

; 893  : 			if(n==0){

  01428	85 ff		 test	 edi, edi
  0142a	75 2c		 jne	 SHORT $L24396

; 894  : 				code[iTrack *2 + 2]	= 0;

  0142c	83 7b 18 10	 cmp	 DWORD PTR [ebx+24], 16	; 00000010H
  01430	72 05		 jb	 SHORT $L110208
  01432	8b 4b 04	 mov	 ecx, DWORD PTR [ebx+4]
  01435	eb 03		 jmp	 SHORT $L110209
$L110208:
  01437	8d 4b 04	 lea	 ecx, DWORD PTR [ebx+4]
$L110209:
  0143a	8b 06		 mov	 eax, DWORD PTR [esi]
  0143c	c6 44 41 02 00	 mov	 BYTE PTR [ecx+eax*2+2], 0

; 895  : 				code[iTrack *2 + 3]	= 0;

  01441	83 7b 18 10	 cmp	 DWORD PTR [ebx+24], 16	; 00000010H
  01445	72 05		 jb	 SHORT $L110223
  01447	8b 4b 04	 mov	 ecx, DWORD PTR [ebx+4]
  0144a	eb 03		 jmp	 SHORT $L110224
$L110223:
  0144c	8d 4b 04	 lea	 ecx, DWORD PTR [ebx+4]
$L110224:
  0144f	8b 06		 mov	 eax, DWORD PTR [esi]
  01451	c6 44 41 03 00	 mov	 BYTE PTR [ecx+eax*2+3], 0

; 896  : 			} else {

  01456	eb 2e		 jmp	 SHORT $L24397
$L24396:

; 897  : 				code[iTrack *2 + 2]	= (unsigned char)((i   ) & 0xFF);

  01458	83 7b 18 10	 cmp	 DWORD PTR [ebx+24], 16	; 00000010H
  0145c	72 05		 jb	 SHORT $L110238
  0145e	8b 4b 04	 mov	 ecx, DWORD PTR [ebx+4]
  01461	eb 03		 jmp	 SHORT $L110239
$L110238:
  01463	8d 4b 04	 lea	 ecx, DWORD PTR [ebx+4]
$L110239:
  01466	8b 16		 mov	 edx, DWORD PTR [esi]
  01468	8b 45 10	 mov	 eax, DWORD PTR _i$[ebp]
  0146b	88 44 51 02	 mov	 BYTE PTR [ecx+edx*2+2], al

; 898  : 				code[iTrack *2 + 3]	= (unsigned char)((i>>8) & 0xFF);

  0146f	83 7b 18 10	 cmp	 DWORD PTR [ebx+24], 16	; 00000010H
  01473	72 05		 jb	 SHORT $L110253
  01475	8b 4b 04	 mov	 ecx, DWORD PTR [ebx+4]
  01478	eb 03		 jmp	 SHORT $L110254
$L110253:
  0147a	8d 4b 04	 lea	 ecx, DWORD PTR [ebx+4]
$L110254:
  0147d	8b 16		 mov	 edx, DWORD PTR [esi]
  0147f	c1 f8 08	 sar	 eax, 8
  01482	88 44 51 03	 mov	 BYTE PTR [ecx+edx*2+3], al
$L24397:

; 899  : 			}
; 900  : 			i += n;

  01486	01 7d 10	 add	 DWORD PTR _i$[ebp], edi

; 901  : 			iTrack++;

  01489	ff 06		 inc	 DWORD PTR [esi]
  0148b	8b 06		 mov	 eax, DWORD PTR [esi]
  0148d	8b 4d 08	 mov	 ecx, DWORD PTR _this$[ebp]
  01490	3b 41 58	 cmp	 eax, DWORD PTR [ecx+88]
  01493	0f 8e 7b ff ff
	ff		 jle	 $L24392
$L110271:

; 902  : 		}
; 903  : 	}
; 904  : 	iSize = i;

  01499	8b 4d 10	 mov	 ecx, DWORD PTR _i$[ebp]
  0149c	8b 45 08	 mov	 eax, DWORD PTR _this$[ebp]
  0149f	5f		 pop	 edi
  014a0	89 48 30	 mov	 DWORD PTR [eax+48], ecx

; 905  : 
; 906  : }

  014a3	8b 4d f4	 mov	 ecx, DWORD PTR __$EHRec$[ebp]
  014a6	5e		 pop	 esi
  014a7	5b		 pop	 ebx
  014a8	64 89 0d 00 00
	00 00		 mov	 DWORD PTR fs:__except_list, ecx
  014af	c9		 leave
  014b0	c2 14 00	 ret	 20			; 00000014H
$L110264:

; 403  : 				MML->Err(_T("ubNI[`}'B"));

  014b3	68 00 00 00 00	 push	 OFFSET FLAT:??_C@_1CK@NIHEMDFE@0?V0?m0?C0?$KP0n?$HNBz?o0?$JCy?30Y?$AA?$GA?$AA?$HN?$AA?80L0B0?$IK0?$HO0?$FL0?$JD0?$AC@
  014b8	eb 15		 jmp	 SHORT $L110288
$L24309:

; 676  : 
; 677  : 			case(mml_Envelop_Off_Voice):
; 678  : 				MML->Err(_T("FGx[vA@R}hB"));

  014ba	68 00 00 00 00	 push	 OFFSET FLAT:??_C@_1DC@GHMDBEFP@?$JH?s?$ICr0?$KI0?s0?Y0?m0?$PM0?W0o0?$AB?$AA?$EA0?$LD0?$NO0?s0?I0gq?$CBR?$LJ0k0g@
  014bf	eb 0c		 jmp	 SHORT $L110287
$L110265:

; 808  : 					MML->Err(_T("-127`128wB"));

  014c1	68 00 00 00 00	 push	 OFFSET FLAT:??_C@_1DC@NPMHHGKK@y?$PL?$IK?$LP0o?$AA?9?$AA1?$AA2?$AA7?$PP?$FO?$AA1?$AA2?$AA80n?$HL?DV?r0gc?$AH?$FL?$JK0W0f0O@
  014c6	eb 05		 jmp	 SHORT $L110287
$L24385:

; 861  : 				break;
; 862  : 
; 863  : 			case(mml_Bar):
; 864  : 				break;
; 865  : 
; 866  : 			//unknown command
; 867  : 			default:
; 868  : 				MML->Err(_T("unknown command"));

  014c8	68 00 00 00 00	 push	 OFFSET FLAT:??_C@_1CA@BFMKMMBP@?$AAu?$AAn?$AAk?$AAn?$AAo?$AAw?$AAn?$AA?5?$AAc?$AAo?$AAm?$AAm?$AAa?$AAn?$AAd?$AA?$AA@
$L110287:
  014cd	8b c6		 mov	 eax, esi
$L110288:
  014cf	e8 00 00 00 00	 call	 ?Err@MMLfile@@QAEXQBG@Z	; MMLfile::Err
$L110291:
$L110275:
$L110289:

; 905  : 
; 906  : }

  014d4	00 00 00 00	 DD	 $L24230
  014d8	00 00 00 00	 DD	 $L24234
  014dc	00 00 00 00	 DD	 $L24235
  014e0	00 00 00 00	 DD	 $L24236
  014e4	00 00 00 00	 DD	 $L24237
  014e8	00 00 00 00	 DD	 $L24238
  014ec	00 00 00 00	 DD	 $L24239
  014f0	00 00 00 00	 DD	 $L24240
  014f4	00 00 00 00	 DD	 $L24241
  014f8	00 00 00 00	 DD	 $L24242
  014fc	00 00 00 00	 DD	 $L24243
  01500	00 00 00 00	 DD	 $L24244
  01504	00 00 00 00	 DD	 $L24252
  01508	00 00 00 00	 DD	 $L24251
  0150c	00 00 00 00	 DD	 $L24257
  01510	00 00 00 00	 DD	 $L24248
  01514	00 00 00 00	 DD	 $L24249
  01518	00 00 00 00	 DD	 $L24250
  0151c	00 00 00 00	 DD	 $L24262
  01520	00 00 00 00	 DD	 $L24266
  01524	00 00 00 00	 DD	 $L24270
  01528	00 00 00 00	 DD	 $L24271
  0152c	00 00 00 00	 DD	 $L24272
  01530	00 00 00 00	 DD	 $L24273
  01534	00 00 00 00	 DD	 $L24274
  01538	00 00 00 00	 DD	 $L24275
  0153c	00 00 00 00	 DD	 $L24276
  01540	00 00 00 00	 DD	 $L24277
  01544	00 00 00 00	 DD	 $L24278
  01548	00 00 00 00	 DD	 $L24279
  0154c	00 00 00 00	 DD	 $L24280
  01550	00 00 00 00	 DD	 $L24281
  01554	00 00 00 00	 DD	 $L24282
  01558	00 00 00 00	 DD	 $L24283
  0155c	00 00 00 00	 DD	 $L24284
  01560	00 00 00 00	 DD	 $L24285
  01564	00 00 00 00	 DD	 $L24288
  01568	00 00 00 00	 DD	 $L24291
  0156c	00 00 00 00	 DD	 $L24302
  01570	00 00 00 00	 DD	 $L24301
  01574	00 00 00 00	 DD	 $L24300
  01578	00 00 00 00	 DD	 $L24292
  0157c	00 00 00 00	 DD	 $L24293
  01580	00 00 00 00	 DD	 $L24294
  01584	00 00 00 00	 DD	 $L24295
  01588	00 00 00 00	 DD	 $L24296
  0158c	00 00 00 00	 DD	 $L24297
  01590	00 00 00 00	 DD	 $L24298
  01594	00 00 00 00	 DD	 $L24299
  01598	00 00 00 00	 DD	 $L24303
  0159c	00 00 00 00	 DD	 $L24304
  015a0	00 00 00 00	 DD	 $L24305
  015a4	00 00 00 00	 DD	 $L24306
  015a8	00 00 00 00	 DD	 $L24307
  015ac	00 00 00 00	 DD	 $L24308
  015b0	00 00 00 00	 DD	 $L24309
  015b4	00 00 00 00	 DD	 $L24311
  015b8	00 00 00 00	 DD	 $L24312
  015bc	00 00 00 00	 DD	 $L24313
  015c0	00 00 00 00	 DD	 $L24314
  015c4	00 00 00 00	 DD	 $L24315
  015c8	00 00 00 00	 DD	 $L24316
  015cc	00 00 00 00	 DD	 $L24317
  015d0	00 00 00 00	 DD	 $L24318
  015d4	00 00 00 00	 DD	 $L24319
  015d8	00 00 00 00	 DD	 $L24320
  015dc	00 00 00 00	 DD	 $L24321
  015e0	00 00 00 00	 DD	 $L24322
  015e4	00 00 00 00	 DD	 $L24323
  015e8	00 00 00 00	 DD	 $L24324
  015ec	00 00 00 00	 DD	 $L24325
  015f0	00 00 00 00	 DD	 $L24326
  015f4	00 00 00 00	 DD	 $L24327
  015f8	00 00 00 00	 DD	 $L24328
  015fc	00 00 00 00	 DD	 $L24329
  01600	00 00 00 00	 DD	 $L24330
  01604	00 00 00 00	 DD	 $L24331
  01608	00 00 00 00	 DD	 $L24334
  0160c	00 00 00 00	 DD	 $L24337
  01610	00 00 00 00	 DD	 $L24338
  01614	00 00 00 00	 DD	 $L24339
  01618	00 00 00 00	 DD	 $L24351
  0161c	00 00 00 00	 DD	 $L24345
  01620	00 00 00 00	 DD	 $L24359
  01624	00 00 00 00	 DD	 $L24367
  01628	00 00 00 00	 DD	 $L24371
  0162c	00 00 00 00	 DD	 $L24372
  01630	00 00 00 00	 DD	 $L24373
  01634	00 00 00 00	 DD	 $L24374
  01638	00 00 00 00	 DD	 $L24375
  0163c	00 00 00 00	 DD	 $L24377
  01640	00 00 00 00	 DD	 $L24378
  01644	00 00 00 00	 DD	 $L24379
  01648	00 00 00 00	 DD	 $L24380
  0164c	00 00 00 00	 DD	 $L24381
  01650	00 00 00 00	 DD	 $L24382
  01654	00 00 00 00	 DD	 $L24383
  01658	00 00 00 00	 DD	 $L24218
$L109967:
  00da5	8b 4d 08	 mov	 ecx, DWORD PTR _this$[ebp]
  00da8	e9 00 00 00 00	 jmp	 ??1MusicItem@@QAE@XZ	; MusicItem::~MusicItem
$L109968:
  00dad	8b 75 08	 mov	 esi, DWORD PTR _this$[ebp]
  00db0	83 c6 44	 add	 esi, 68			; 00000044H
  00db3	e9 00 00 00 00	 jmp	 ??1?$map@HPAVMusicTrack@@U?$less@H@std@@V?$allocator@U?$pair@$$CBHPAVMusicTrack@@@std@@@3@@std@@QAE@XZ
$L109969:
  00db8	ff 75 10	 push	 DWORD PTR $T109952[ebp]
  00dbb	e8 00 00 00 00	 call	 ??3@YAXPAX@Z		; operator delete
  00dc0	59		 pop	 ecx
  00dc1	c3		 ret	 0
$L109970:
  00dc2	ff 75 10	 push	 DWORD PTR $T109956[ebp]
  00dc5	e8 00 00 00 00	 call	 ??3@YAXPAX@Z		; operator delete
  00dca	59		 pop	 ecx
  00dcb	c3		 ret	 0
$L109971:
  00dcc	ff 75 10	 push	 DWORD PTR $T109960[ebp]
  00dcf	e8 00 00 00 00	 call	 ??3@YAXPAX@Z		; operator delete
  00dd4	59		 pop	 ecx
  00dd5	c3		 ret	 0
$L109972:
  00dd6	ff 75 10	 push	 DWORD PTR $T109964[ebp]
  00dd9	e8 00 00 00 00	 call	 ??3@YAXPAX@Z		; operator delete
  00dde	59		 pop	 ecx
  00ddf	c3		 ret	 0
__ehhandler$??0TrackSet@@QAE@PAVMMLfile@@I_N1QBG@Z:
  00de0	b8 00 00 00 00	 mov	 eax, OFFSET FLAT:$T110258
  00de5	e9 00 00 00 00	 jmp	 ___CxxFrameHandler
??0TrackSet@@QAE@PAVMMLfile@@I_N1QBG@Z ENDP		; TrackSet::TrackSet
; Function compile flags: /Ogsy
; File c:\program files (x86)\microsoft visual studio .net 2003\vc7\include\xlocnum
;	COMDAT _$E3
text$yc	SEGMENT
_$E3	PROC NEAR					; COMDAT

; 806  : 		{	// initialize from _Locinfo object

  00000	83 25 00 00 00
	00 00		 and	 DWORD PTR ?id@?$num_put@DV?$ostreambuf_iterator@DU?$char_traits@D@std@@@std@@@std@@2V0locale@2@A, 0 ; std::num_put<char,std::ostreambuf_iterator<char,std::char_traits<char> > >::id
  00007	c3		 ret	 0
_$E3	ENDP
END
