PUBLIC	??1?$map@HPAVMusicTrack@@U?$less@H@std@@V?$allocator@U?$pair@$$CBHPAVMusicTrack@@@std@@@3@@std@@QAE@XZ ; std::map<int,MusicTrack *,std::less<int>,std::allocator<std::pair<int const ,MusicTrack *> > >::~map<int,MusicTrack *,std::less<int>,std::allocator<std::pair<int const ,MusicTrack *> > >
PUBLIC	??0?$map@HPAVMusicTrack@@U?$less@H@std@@V?$allocator@U?$pair@$$CBHPAVMusicTrack@@@std@@@3@@std@@QAE@XZ ; std::map<int,MusicTrack *,std::less<int>,std::allocator<std::pair<int const ,MusicTrack *> > >::map<int,MusicTrack *,std::less<int>,std::allocator<std::pair<int const ,MusicTrack *> > >
PUBLIC	??1?$_Tree@V?$_Tmap_traits@HPAVMusicTrack@@U?$less@H@std@@V?$allocator@U?$pair@$$CBHPAVMusicTrack@@@std@@@3@$0A@@std@@@std@@QAE@XZ ; std::_Tree<std::_Tmap_traits<int,MusicTrack *,std::less<int>,std::allocator<std::pair<int const ,MusicTrack *> >,0> >::~_Tree<std::_Tmap_traits<int,MusicTrack *,std::less<int>,std::allocator<std::pair<int const ,MusicTrack *> >,0> >
PUBLIC	?count@?$_Tree@V?$_Tmap_traits@HPAVMusicTrack@@U?$less@H@std@@V?$allocator@U?$pair@$$CBHPAVMusicTrack@@@std@@@3@$0A@@std@@@std@@QBEIABH@Z ; std::_Tree<std::_Tmap_traits<int,MusicTrack *,std::less<int>,std::allocator<std::pair<int const ,MusicTrack *> >,0> >::count
PUBLIC	??0?$_Tree@V?$_Tmap_traits@HPAVMusicTrack@@U?$less@H@std@@V?$allocator@U?$pair@$$CBHPAVMusicTrack@@@std@@@3@$0A@@std@@@std@@QAE@ABU?$less@H@1@ABV?$allocator@U?$pair@$$CBHPAVMusicTrack@@@std@@@1@@Z ; std::_Tree<std::_Tmap_traits<int,MusicTrack *,std::less<int>,std::allocator<std::pair<int const ,MusicTrack *> >,0> >::_Tree<std::_Tmap_traits<int,MusicTrack *,std::less<int>,std::allocator<std::pair<int const ,MusicTrack *> >,0> >
PUBLIC	?equal_range@?$_Tree@V?$_Tmap_traits@HPAVMusicTrack@@U?$less@H@std@@V?$allocator@U?$pair@$$CBHPAVMusicTrack@@@std@@@3@$0A@@std@@@std@@QBE?AU?$pair@Vconst_iterator@?$_Tree@V?$_Tmap_traits@HPAVMusicTrack@@U?$less@H@std@@V?$allocator@U?$pair@$$CBHPAVMusicTrack@@@std@@@3@$0A@@std@@@std@@V123@@2@ABH@Z ; std::_Tree<std::_Tmap_traits<int,MusicTrack *,std::less<int>,std::allocator<std::pair<int const ,MusicTrack *> >,0> >::equal_range
PUBLIC	?_Tidy@?$_Tree@V?$_Tmap_traits@HPAVMusicTrack@@U?$less@H@std@@V?$allocator@U?$pair@$$CBHPAVMusicTrack@@@std@@@3@$0A@@std@@@std@@IAEXXZ ; std::_Tree<std::_Tmap_traits<int,MusicTrack *,std::less<int>,std::allocator<std::pair<int const ,MusicTrack *> >,0> >::_Tidy
PUBLIC	??0?$allocator@U?$pair@$$CBHPAVMusicTrack@@@std@@@std@@QAE@XZ ; std::allocator<std::pair<int const ,MusicTrack *> >::allocator<std::pair<int const ,MusicTrack *> >
PUBLIC	?erase@?$_Tree@V?$_Tmap_traits@HPAVMusicTrack@@U?$less@H@std@@V?$allocator@U?$pair@$$CBHPAVMusicTrack@@@std@@@3@$0A@@std@@@std@@QAE?AViterator@12@V312@0@Z ; std::_Tree<std::_Tmap_traits<int,MusicTrack *,std::less<int>,std::allocator<std::pair<int const ,MusicTrack *> >,0> >::erase
PUBLIC	?lower_bound@?$_Tree@V?$_Tmap_traits@HPAVMusicTrack@@U?$less@H@std@@V?$allocator@U?$pair@$$CBHPAVMusicTrack@@@std@@@3@$0A@@std@@@std@@QBE?AVconst_iterator@12@ABH@Z ; std::_Tree<std::_Tmap_traits<int,MusicTrack *,std::less<int>,std::allocator<std::pair<int const ,MusicTrack *> >,0> >::lower_bound
PUBLIC	?upper_bound@?$_Tree@V?$_Tmap_traits@HPAVMusicTrack@@U?$less@H@std@@V?$allocator@U?$pair@$$CBHPAVMusicTrack@@@std@@@3@$0A@@std@@@std@@QBE?AVconst_iterator@12@ABH@Z ; std::_Tree<std::_Tmap_traits<int,MusicTrack *,std::less<int>,std::allocator<std::pair<int const ,MusicTrack *> >,0> >::upper_bound
PUBLIC	?_Init@?$_Tree@V?$_Tmap_traits@HPAVMusicTrack@@U?$less@H@std@@V?$allocator@U?$pair@$$CBHPAVMusicTrack@@@std@@@3@$0A@@std@@@std@@IAEXXZ ; std::_Tree<std::_Tmap_traits<int,MusicTrack *,std::less<int>,std::allocator<std::pair<int const ,MusicTrack *> >,0> >::_Init
PUBLIC	??0?$_Tree_val@V?$_Tmap_traits@HPAVMusicTrack@@U?$less@H@std@@V?$allocator@U?$pair@$$CBHPAVMusicTrack@@@std@@@3@$0A@@std@@@std@@IAE@ABU?$less@H@1@V?$allocator@U?$pair@$$CBHPAVMusicTrack@@@std@@@1@@Z ; std::_Tree_val<std::_Tmap_traits<int,MusicTrack *,std::less<int>,std::allocator<std::pair<int const ,MusicTrack *> >,0> >::_Tree_val<std::_Tmap_traits<int,MusicTrack *,std::less<int>,std::allocator<std::pair<int const ,MusicTrack *> >,0> >
PUBLIC	??0?$allocator@U?$pair@$$CBHPAVMusicTrack@@@std@@@std@@QAE@ABV01@@Z ; std::allocator<std::pair<int const ,MusicTrack *> >::allocator<std::pair<int const ,MusicTrack *> >
PUBLIC	?destroy@?$allocator@PAU_Node@?$_Tree_nod@V?$_Tmap_traits@HPAVMusicTrack@@U?$less@H@std@@V?$allocator@U?$pair@$$CBHPAVMusicTrack@@@std@@@3@$0A@@std@@@std@@@std@@QAEXPAPAU_Node@?$_Tree_nod@V?$_Tmap_traits@HPAVMusicTrack@@U?$less@H@std@@V?$allocator@U?$pair@$$CBHPAVMusicTrack@@@std@@@3@$0A@@std@@@2@@Z ; std::allocator<std::_Tree_nod<std::_Tmap_traits<int,MusicTrack *,std::less<int>,std::allocator<std::pair<int const ,MusicTrack *> >,0> >::_Node *>::destroy
PUBLIC	??0?$pair@Vconst_iterator@?$_Tree@V?$_Tmap_traits@HPAVMusicTrack@@U?$less@H@std@@V?$allocator@U?$pair@$$CBHPAVMusicTrack@@@std@@@3@$0A@@std@@@std@@V123@@std@@QAE@ABVconst_iterator@?$_Tree@V?$_Tmap_traits@HPAVMusicTrack@@U?$less@H@std@@V?$allocator@U?$pair@$$CBHPAVMusicTrack@@@std@@@3@$0A@@std@@@1@0@Z ; std::pair<std::_Tree<std::_Tmap_traits<int,MusicTrack *,std::less<int>,std::allocator<std::pair<int const ,MusicTrack *> >,0> >::const_iterator,std::_Tree<std::_Tmap_traits<int,MusicTrack *,std::less<int>,std::allocator<std::pair<int const ,MusicTrack *> >,0> >::const_iterator>::pair<std::_Tree<std::_Tmap_traits<int,MusicTrack *,std::less<int>,std::allocator<std::pair<int const ,MusicTrack *> >,0> >::const_iterator,std::_Tree<std::_Tmap_traits<int,MusicTrack *,std::less<int>,std::allocator<std::pair<int const ,MusicTrack *> >,0> >::const_iterator>
PUBLIC	?erase@?$_Tree@V?$_Tmap_traits@HPAVMusicTrack@@U?$less@H@std@@V?$allocator@U?$pair@$$CBHPAVMusicTrack@@@std@@@3@$0A@@std@@@std@@QAE?AViterator@12@V312@@Z ; std::_Tree<std::_Tmap_traits<int,MusicTrack *,std::less<int>,std::allocator<std::pair<int const ,MusicTrack *> >,0> >::erase
PUBLIC	?clear@?$_Tree@V?$_Tmap_traits@HPAVMusicTrack@@U?$less@H@std@@V?$allocator@U?$pair@$$CBHPAVMusicTrack@@@std@@@3@$0A@@std@@@std@@QAEXXZ ; std::_Tree<std::_Tmap_traits<int,MusicTrack *,std::less<int>,std::allocator<std::pair<int const ,MusicTrack *> >,0> >::clear
PUBLIC	?_Ubound@?$_Tree@V?$_Tmap_traits@HPAVMusicTrack@@U?$less@H@std@@V?$allocator@U?$pair@$$CBHPAVMusicTrack@@@std@@@3@$0A@@std@@@std@@IBEPAU_Node@?$_Tree_nod@V?$_Tmap_traits@HPAVMusicTrack@@U?$less@H@std@@V?$allocator@U?$pair@$$CBHPAVMusicTrack@@@std@@@3@$0A@@std@@@2@ABH@Z ; std::_Tree<std::_Tmap_traits<int,MusicTrack *,std::less<int>,std::allocator<std::pair<int const ,MusicTrack *> >,0> >::_Ubound
PUBLIC	?_Buynode@?$_Tree@V?$_Tmap_traits@HPAVMusicTrack@@U?$less@H@std@@V?$allocator@U?$pair@$$CBHPAVMusicTrack@@@std@@@3@$0A@@std@@@std@@IAEPAU_Node@?$_Tree_nod@V?$_Tmap_traits@HPAVMusicTrack@@U?$less@H@std@@V?$allocator@U?$pair@$$CBHPAVMusicTrack@@@std@@@3@$0A@@std@@@2@XZ ; std::_Tree<std::_Tmap_traits<int,MusicTrack *,std::less<int>,std::allocator<std::pair<int const ,MusicTrack *> >,0> >::_Buynode
PUBLIC	??0?$_Tree_ptr@V?$_Tmap_traits@HPAVMusicTrack@@U?$less@H@std@@V?$allocator@U?$pair@$$CBHPAVMusicTrack@@@std@@@3@$0A@@std@@@std@@IAE@ABU?$less@H@1@V?$allocator@U?$pair@$$CBHPAVMusicTrack@@@std@@@1@@Z ; std::_Tree_ptr<std::_Tmap_traits<int,MusicTrack *,std::less<int>,std::allocator<std::pair<int const ,MusicTrack *> >,0> >::_Tree_ptr<std::_Tmap_traits<int,MusicTrack *,std::less<int>,std::allocator<std::pair<int const ,MusicTrack *> >,0> >
PUBLIC	??Eiterator@?$_Tree@V?$_Tmap_traits@HPAVMusicTrack@@U?$less@H@std@@V?$allocator@U?$pair@$$CBHPAVMusicTrack@@@std@@@3@$0A@@std@@@std@@QAE?AV012@H@Z ; std::_Tree<std::_Tmap_traits<int,MusicTrack *,std::less<int>,std::allocator<std::pair<int const ,MusicTrack *> >,0> >::iterator::operator++
PUBLIC	??9const_iterator@?$_Tree@V?$_Tmap_traits@HPAVMusicTrack@@U?$less@H@std@@V?$allocator@U?$pair@$$CBHPAVMusicTrack@@@std@@@3@$0A@@std@@@std@@QBE_NABV012@@Z ; std::_Tree<std::_Tmap_traits<int,MusicTrack *,std::less<int>,std::allocator<std::pair<int const ,MusicTrack *> >,0> >::const_iterator::operator!=
PUBLIC	?_Erase@?$_Tree@V?$_Tmap_traits@HPAVMusicTrack@@U?$less@H@std@@V?$allocator@U?$pair@$$CBHPAVMusicTrack@@@std@@@3@$0A@@std@@@std@@IAEXPAU_Node@?$_Tree_nod@V?$_Tmap_traits@HPAVMusicTrack@@U?$less@H@std@@V?$allocator@U?$pair@$$CBHPAVMusicTrack@@@std@@@3@$0A@@std@@@2@@Z ; std::_Tree<std::_Tmap_traits<int,MusicTrack *,std::less<int>,std::allocator<std::pair<int const ,MusicTrack *> >,0> >::_Erase
PUBLIC	??0?$_Tree_nod@V?$_Tmap_traits@HPAVMusicTrack@@U?$less@H@std@@V?$allocator@U?$pair@$$CBHPAVMusicTrack@@@std@@@3@$0A@@std@@@std@@IAE@ABU?$less@H@1@V?$allocator@U?$pair@$$CBHPAVMusicTrack@@@std@@@1@@Z ; std::_Tree_nod<std::_Tmap_traits<int,MusicTrack *,std::less<int>,std::allocator<std::pair<int const ,MusicTrack *> >,0> >::_Tree_nod<std::_Tmap_traits<int,MusicTrack *,std::less<int>,std::allocator<std::pair<int const ,MusicTrack *> >,0> >
PUBLIC	?destroy@?$allocator@U_Node@?$_Tree_nod@V?$_Tmap_traits@HPAVMusicTrack@@U?$less@H@std@@V?$allocator@U?$pair@$$CBHPAVMusicTrack@@@std@@@3@$0A@@std@@@std@@@std@@QAEXPAU_Node@?$_Tree_nod@V?$_Tmap_traits@HPAVMusicTrack@@U?$less@H@std@@V?$allocator@U?$pair@$$CBHPAVMusicTrack@@@std@@@3@$0A@@std@@@2@@Z ; std::allocator<std::_Tree_nod<std::_Tmap_traits<int,MusicTrack *,std::less<int>,std::allocator<std::pair<int const ,MusicTrack *> >,0> >::_Node>::destroy
PUBLIC	?construct@?$allocator@PAU_Node@?$_Tree_nod@V?$_Tmap_traits@HPAVMusicTrack@@U?$less@H@std@@V?$allocator@U?$pair@$$CBHPAVMusicTrack@@@std@@@3@$0A@@std@@@std@@@std@@QAEXPAPAU_Node@?$_Tree_nod@V?$_Tmap_traits@HPAVMusicTrack@@U?$less@H@std@@V?$allocator@U?$pair@$$CBHPAVMusicTrack@@@std@@@3@$0A@@std@@@2@ABQAU342@@Z ; std::allocator<std::_Tree_nod<std::_Tmap_traits<int,MusicTrack *,std::less<int>,std::allocator<std::pair<int const ,MusicTrack *> >,0> >::_Node *>::construct
PUBLIC	??0?$_Tmap_traits@HPAVMusicTrack@@U?$less@H@std@@V?$allocator@U?$pair@$$CBHPAVMusicTrack@@@std@@@3@$0A@@std@@QAE@U?$less@H@1@@Z ; std::_Tmap_traits<int,MusicTrack *,std::less<int>,std::allocator<std::pair<int const ,MusicTrack *> >,0>::_Tmap_traits<int,MusicTrack *,std::less<int>,std::allocator<std::pair<int const ,MusicTrack *> >,0>
PUBLIC	??$_Distance@Vconst_iterator@?$_Tree@V?$_Tmap_traits@HPAVMusicTrack@@U?$less@H@std@@V?$allocator@U?$pair@$$CBHPAVMusicTrack@@@std@@@3@$0A@@std@@@std@@I@std@@YAXVconst_iterator@?$_Tree@V?$_Tmap_traits@HPAVMusicTrack@@U?$less@H@std@@V?$allocator@U?$pair@$$CBHPAVMusicTrack@@@std@@@3@$0A@@std@@@0@0AAI@Z ; std::_Distance<std::_Tree<std::_Tmap_traits<int,MusicTrack *,std::less<int>,std::allocator<std::pair<int const ,MusicTrack *> >,0> >::const_iterator,unsigned int>
PUBLIC	??$_Destroy@PAU_Node@?$_Tree_nod@V?$_Tmap_traits@HPAVMusicTrack@@U?$less@H@std@@V?$allocator@U?$pair@$$CBHPAVMusicTrack@@@std@@@3@$0A@@std@@@std@@@std@@YAXPAPAU_Node@?$_Tree_nod@V?$_Tmap_traits@HPAVMusicTrack@@U?$less@H@std@@V?$allocator@U?$pair@$$CBHPAVMusicTrack@@@std@@@3@$0A@@std@@@0@@Z ; std::_Destroy<std::_Tree_nod<std::_Tmap_traits<int,MusicTrack *,std::less<int>,std::allocator<std::pair<int const ,MusicTrack *> >,0> >::_Node *>
PUBLIC	??$?0U?$pair@$$CBHPAVMusicTrack@@@std@@@?$allocator@PAU_Node@?$_Tree_nod@V?$_Tmap_traits@HPAVMusicTrack@@U?$less@H@std@@V?$allocator@U?$pair@$$CBHPAVMusicTrack@@@std@@@3@$0A@@std@@@std@@@std@@QAE@ABV?$allocator@U?$pair@$$CBHPAVMusicTrack@@@std@@@1@@Z ; std::allocator<std::_Tree_nod<std::_Tmap_traits<int,MusicTrack *,std::less<int>,std::allocator<std::pair<int const ,MusicTrack *> >,0> >::_Node *>::allocator<std::_Tree_nod<std::_Tmap_traits<int,MusicTrack *,std::less<int>,std::allocator<std::pair<int const ,MusicTrack *> >,0> >::_Node *><std::pair<int const ,MusicTrack *> >
PUBLIC	??$?0U?$pair@$$CBHPAVMusicTrack@@@std@@@?$allocator@U_Node@?$_Tree_nod@V?$_Tmap_traits@HPAVMusicTrack@@U?$less@H@std@@V?$allocator@U?$pair@$$CBHPAVMusicTrack@@@std@@@3@$0A@@std@@@std@@@std@@QAE@ABV?$allocator@U?$pair@$$CBHPAVMusicTrack@@@std@@@1@@Z ; std::allocator<std::_Tree_nod<std::_Tmap_traits<int,MusicTrack *,std::less<int>,std::allocator<std::pair<int const ,MusicTrack *> >,0> >::_Node>::allocator<std::_Tree_nod<std::_Tmap_traits<int,MusicTrack *,std::less<int>,std::allocator<std::pair<int const ,MusicTrack *> >,0> >::_Node><std::pair<int const ,MusicTrack *> >
PUBLIC	??$_Destroy@U_Node@?$_Tree_nod@V?$_Tmap_traits@HPAVMusicTrack@@U?$less@H@std@@V?$allocator@U?$pair@$$CBHPAVMusicTrack@@@std@@@3@$0A@@std@@@std@@@std@@YAXPAU_Node@?$_Tree_nod@V?$_Tmap_traits@HPAVMusicTrack@@U?$less@H@std@@V?$allocator@U?$pair@$$CBHPAVMusicTrack@@@std@@@3@$0A@@std@@@0@@Z ; std::_Destroy<std::_Tree_nod<std::_Tmap_traits<int,MusicTrack *,std::less<int>,std::allocator<std::pair<int const ,MusicTrack *> >,0> >::_Node>
PUBLIC	??$_Construct@PAU_Node@?$_Tree_nod@V?$_Tmap_traits@HPAVMusicTrack@@U?$less@H@std@@V?$allocator@U?$pair@$$CBHPAVMusicTrack@@@std@@@3@$0A@@std@@@std@@PAU123@@std@@YAXPAPAU_Node@?$_Tree_nod@V?$_Tmap_traits@HPAVMusicTrack@@U?$less@H@std@@V?$allocator@U?$pair@$$CBHPAVMusicTrack@@@std@@@3@$0A@@std@@@0@ABQAU120@@Z ; std::_Construct<std::_Tree_nod<std::_Tmap_traits<int,MusicTrack *,std::less<int>,std::allocator<std::pair<int const ,MusicTrack *> >,0> >::_Node *,std::_Tree_nod<std::_Tmap_traits<int,MusicTrack *,std::less<int>,std::allocator<std::pair<int const ,MusicTrack *> >,0> >::_Node *>
PUBLIC	??$_Iter_cat@Vconst_iterator@?$_Tree@V?$_Tmap_traits@HPAVMusicTrack@@U?$less@H@std@@V?$allocator@U?$pair@$$CBHPAVMusicTrack@@@std@@@3@$0A@@std@@@std@@@std@@YA?AUbidirectional_iterator_tag@0@ABVconst_iterator@?$_Tree@V?$_Tmap_traits@HPAVMusicTrack@@U?$less@H@std@@V?$allocator@U?$pair@$$CBHPAVMusicTrack@@@std@@@3@$0A@@std@@@0@@Z ; std::_Iter_cat<std::_Tree<std::_Tmap_traits<int,MusicTrack *,std::less<int>,std::allocator<std::pair<int const ,MusicTrack *> >,0> >::const_iterator>
PUBLIC	??$_Distance2@Vconst_iterator@?$_Tree@V?$_Tmap_traits@HPAVMusicTrack@@U?$less@H@std@@V?$allocator@U?$pair@$$CBHPAVMusicTrack@@@std@@@3@$0A@@std@@@std@@I@std@@YAXVconst_iterator@?$_Tree@V?$_Tmap_traits@HPAVMusicTrack@@U?$less@H@std@@V?$allocator@U?$pair@$$CBHPAVMusicTrack@@@std@@@3@$0A@@std@@@0@0AAIUbidirectional_iterator_tag@0@@Z ; std::_Distance2<std::_Tree<std::_Tmap_traits<int,MusicTrack *,std::less<int>,std::allocator<std::pair<int const ,MusicTrack *> >,0> >::const_iterator,unsigned int>
PUBLIC	?GetLine@MMLfile@@QAEIXZ			; MMLfile::GetLine
PUBLIC	?GetLine@FileInput@@QAEIXZ			; FileInput::GetLine
PUBLIC	?SetLine@MMLfile@@QAEXI@Z			; MMLfile::SetLine
PUBLIC	?SetLine@FileInput@@QAEXI@Z			; FileInput::SetLine
PUBLIC	?GetCompileFlag@MusicTrack@@QAE_NXZ		; MusicTrack::GetCompileFlag
PUBLIC	?GetMacroNest@MMLfile@@QAEHXZ			; MMLfile::GetMacroNest
PUBLIC	?GetTickTotal@MusicTrack@@QAEIXZ		; MusicTrack::GetTickTotal
PUBLIC	?GetTickLoop@MusicTrack@@QAEIXZ			; MusicTrack::GetTickLoop
PUBLIC	?SetCompileFlag@MusicTrack@@QAEX_N@Z		; MusicTrack::SetCompileFlag
; Listing generated by Microsoft (R) Optimizing Compiler Version 13.10.3077 

	TITLE	.\TrackSet.cpp
	.386P
include listing.inc
if @Version gt 510
.model FLAT
else
;	COMDAT ??_C@_02ODIGJPFH@TR?$AA@
CONST	SEGMENT DWORD USE32 PUBLIC 'CONST'
CONST	ENDS
;	COMDAT ??_C@_08PGKBPJJO@?$IDg?$ID?$IJ?$IDb?$IDN?$AA@
CONST	SEGMENT DWORD USE32 PUBLIC 'CONST'
CONST	ENDS
;	COMDAT ??_C@_05MAGIBEFI@Scale?$AA@
CONST	SEGMENT DWORD USE32 PUBLIC 'CONST'
CONST	ENDS
;	COMDAT ??_C@_05MHMEBBGO@scale?$AA@
CONST	SEGMENT DWORD USE32 PUBLIC 'CONST'
CONST	ENDS
;	COMDAT ??_C@_04KNKPIPFB@Mode?$AA@
CONST	SEGMENT DWORD USE32 PUBLIC 'CONST'
CONST	ENDS
;	COMDAT ??_C@_04GMGOKAFF@mode?$AA@
CONST	SEGMENT DWORD USE32 PUBLIC 'CONST'
CONST	ENDS
;	COMDAT ??_C@_05FDLAJJBN@Major?$AA@
CONST	SEGMENT DWORD USE32 PUBLIC 'CONST'
CONST	ENDS
;	COMDAT ??_C@_05FEBMJMCL@major?$AA@
CONST	SEGMENT DWORD USE32 PUBLIC 'CONST'
CONST	ENDS
;	COMDAT ??_C@_05OMKCEFIL@Minor?$AA@
CONST	SEGMENT DWORD USE32 PUBLIC 'CONST'
CONST	ENDS
;	COMDAT ??_C@_05OLAOEALN@minor?$AA@
CONST	SEGMENT DWORD USE32 PUBLIC 'CONST'
CONST	ENDS
;	COMDAT ??_C@_06LHOIAAEI@HMinor?$AA@
CONST	SEGMENT DWORD USE32 PUBLIC 'CONST'
CONST	ENDS
;	COMDAT ??_C@_06HPPJDMOC@hminor?$AA@
CONST	SEGMENT DWORD USE32 PUBLIC 'CONST'
CONST	ENDS
;	COMDAT ??_C@_06OFNACPOP@MMinor?$AA@
CONST	SEGMENT DWORD USE32 PUBLIC 'CONST'
CONST	ENDS
;	COMDAT ??_C@_06CNMBBDEF@mminor?$AA@
CONST	SEGMENT DWORD USE32 PUBLIC 'CONST'
CONST	ENDS
;	COMDAT ??_C@_01KNKLHLMO@K?$AA@
CONST	SEGMENT DWORD USE32 PUBLIC 'CONST'
CONST	ENDS
;	COMDAT ??_C@_02CINKIGEJ@?$JC?$LC?$AA@
CONST	SEGMENT DWORD USE32 PUBLIC 'CONST'
CONST	ENDS
;	COMDAT ??_C@_02EFPODJMF@?$FL?3?$AA@
CONST	SEGMENT DWORD USE32 PUBLIC 'CONST'
CONST	ENDS
;	COMDAT ??_C@_02CGFHGFLC@?3?$FN?$AA@
CONST	SEGMENT DWORD USE32 PUBLIC 'CONST'
CONST	ENDS
;	COMDAT ??_C@_02HIPMGJKA@?$HM?3?$AA@
CONST	SEGMENT DWORD USE32 PUBLIC 'CONST'
CONST	ENDS
;	COMDAT ??_C@_02KKMIHAFB@?3?$HM?$AA@
CONST	SEGMENT DWORD USE32 PUBLIC 'CONST'
CONST	ENDS
;	COMDAT ??_C@_01OHGJGJJP@?$FL?$AA@
CONST	SEGMENT DWORD USE32 PUBLIC 'CONST'
CONST	ENDS
;	COMDAT ??_C@_01LBDDMOBJ@?$FN?$AA@
CONST	SEGMENT DWORD USE32 PUBLIC 'CONST'
CONST	ENDS
;	COMDAT ??_C@_02JEILFJNG@?$IB?$IH?$AA@
CONST	SEGMENT DWORD USE32 PUBLIC 'CONST'
CONST	ENDS
;	COMDAT ??_C@_04GCKADHHM@?$IBb?$IBF?$AA@
CONST	SEGMENT DWORD USE32 PUBLIC 'CONST'
CONST	ENDS
;	COMDAT ??_C@_02FMFCNDNO@?$IB?$IP?$AA@
CONST	SEGMENT DWORD USE32 PUBLIC 'CONST'
CONST	ENDS
;	COMDAT ??_C@_02NNGKBGMB@?$IB_?$AA@
CONST	SEGMENT DWORD USE32 PUBLIC 'CONST'
CONST	ENDS
;	COMDAT ??_C@_04LMBIOOLD@?$IBF?$IBb?$AA@
CONST	SEGMENT DWORD USE32 PUBLIC 'CONST'
CONST	ENDS
;	COMDAT ??_C@_02BOLEJFOF@?$IBy?$AA@
CONST	SEGMENT DWORD USE32 PUBLIC 'CONST'
CONST	ENDS
;	COMDAT ??_C@_02EGGKLPNJ@?$IBF?$AA@
CONST	SEGMENT DWORD USE32 PUBLIC 'CONST'
CONST	ENDS
;	COMDAT ??_C@_02DFJJMGCG@?$IBz?$AA@
CONST	SEGMENT DWORD USE32 PUBLIC 'CONST'
CONST	ENDS
;	COMDAT ??_C@_02GOGFKHPK@t_?$AA@
CONST	SEGMENT DWORD USE32 PUBLIC 'CONST'
CONST	ENDS
;	COMDAT ??_C@_01PFHFFBPC@t?$AA@
CONST	SEGMENT DWORD USE32 PUBLIC 'CONST'
CONST	ENDS
;	COMDAT ??_C@_06LKBOFJCM@?$IDe?$ID?$JD?$ID?$HM?$AA@
CONST	SEGMENT DWORD USE32 PUBLIC 'CONST'
CONST	ENDS
;	COMDAT ??_C@_02IGJHGBLL@?$IB?$KI?$AA@
CONST	SEGMENT DWORD USE32 PUBLIC 'CONST'
CONST	ENDS
;	COMDAT ??_C@_02JPIMFAPK@?$IB?$KJ?$AA@
CONST	SEGMENT DWORD USE32 PUBLIC 'CONST'
CONST	ENDS
;	COMDAT ??_C@_01NOFIACDB@w?$AA@
CONST	SEGMENT DWORD USE32 PUBLIC 'CONST'
CONST	ENDS
;	COMDAT ??_C@_01JKBOJNNK@?$FO?$AA@
CONST	SEGMENT DWORD USE32 PUBLIC 'CONST'
CONST	ENDS
;	COMDAT ??_C@_02LJAGNDMF@?$IB?$FL?$AA@
CONST	SEGMENT DWORD USE32 PUBLIC 'CONST'
CONST	ENDS
;	COMDAT ??_C@_04EBGGPMEF@?$IJ?$LJ?$JF?$IE?$AA@
CONST	SEGMENT DWORD USE32 PUBLIC 'CONST'
CONST	ENDS
;	COMDAT ??_C@_01BNIGIBBF@Q?$AA@
CONST	SEGMENT DWORD USE32 PUBLIC 'CONST'
CONST	ENDS
;	COMDAT ??_C@_06EFPKECIE@?$IDQ?$IB?$FL?$IDg?$AA@
CONST	SEGMENT DWORD USE32 PUBLIC 'CONST'
CONST	ENDS
;	COMDAT ??_C@_03EOHNIDBB@ECc?$AA@
CONST	SEGMENT DWORD USE32 PUBLIC 'CONST'
CONST	ENDS
;	COMDAT ??_C@_03BDMBFNG@ECd?$AA@
CONST	SEGMENT DWORD USE32 PUBLIC 'CONST'
CONST	ENDS
;	COMDAT ??_C@_03BICHCEJH@ECe?$AA@
CONST	SEGMENT DWORD USE32 PUBLIC 'CONST'
CONST	ENDS
;	COMDAT ??_C@_03DDAKHHFE@ECf?$AA@
CONST	SEGMENT DWORD USE32 PUBLIC 'CONST'
CONST	ENDS
;	COMDAT ??_C@_03CKBBEGBF@ECg?$AA@
CONST	SEGMENT DWORD USE32 PUBLIC 'CONST'
CONST	ENDS
;	COMDAT ??_C@_03HMELOBJD@ECa?$AA@
CONST	SEGMENT DWORD USE32 PUBLIC 'CONST'
CONST	ENDS
;	COMDAT ??_C@_03FHGGLCFA@ECb?$AA@
CONST	SEGMENT DWORD USE32 PUBLIC 'CONST'
CONST	ENDS
;	COMDAT ??_C@_03BNKEKAAB@ECr?$AA@
CONST	SEGMENT DWORD USE32 PUBLIC 'CONST'
CONST	ENDS
;	COMDAT ??_C@_03CAIHOBJK@EC?9?$AA@
CONST	SEGMENT DWORD USE32 PUBLIC 'CONST'
CONST	ENDS
;	COMDAT ??_C@_03GPMGHHFN@EC?$CK?$AA@
CONST	SEGMENT DWORD USE32 PUBLIC 'CONST'
CONST	ENDS
;	COMDAT ??_C@_02KNLLHFAA@EC?$AA@
CONST	SEGMENT DWORD USE32 PUBLIC 'CONST'
CONST	ENDS
;	COMDAT ??_C@_0L@LOJEBEMJ@?$IDG?$IDR?$IB?$FL?$IDI?$IDt?$AA@
CONST	SEGMENT DWORD USE32 PUBLIC 'CONST'
CONST	ENDS
;	COMDAT ??_C@_06OHMKBCHJ@?$IDG?$IDR?$IB?$FL?$AA@
CONST	SEGMENT DWORD USE32 PUBLIC 'CONST'
CONST	ENDS
;	COMDAT ??_C@_01LELAEKIP@J?$AA@
CONST	SEGMENT DWORD USE32 PUBLIC 'CONST'
CONST	ENDS
;	COMDAT ??_C@_01CBDEGOCN@j?$AA@
CONST	SEGMENT DWORD USE32 PUBLIC 'CONST'
CONST	ENDS
;	COMDAT ??_C@_0BB@KNFILCDL@?$IDG?$ID?$JD?$IDx?$ID?$IN?$IB?$FL?$IDv?$IDI?$IDt?$AA@
CONST	SEGMENT DWORD USE32 PUBLIC 'CONST'
CONST	ENDS
;	COMDAT ??_C@_0P@EEJKCPJF@?$IDr?$IDu?$ID?$IJ?$IB?$FL?$IDg?$IDI?$IDt?$AA@
CONST	SEGMENT DWORD USE32 PUBLIC 'CONST'
CONST	ENDS
;	COMDAT ??_C@_02LPNFMJNJ@Rm?$AA@
CONST	SEGMENT DWORD USE32 PUBLIC 'CONST'
CONST	ENDS
;	COMDAT ??_C@_02JPPPJDDG@R?$EA?$AA@
CONST	SEGMENT DWORD USE32 PUBLIC 'CONST'
CONST	ENDS
;	COMDAT ??_C@_02BGODACED@Rv?$AA@
CONST	SEGMENT DWORD USE32 PUBLIC 'CONST'
CONST	ENDS
;	COMDAT ??_C@_03EGHIJKEG@?$EAP?$CK?$AA@
CONST	SEGMENT DWORD USE32 PUBLIC 'CONST'
CONST	ENDS
;	COMDAT ??_C@_02MKJPPGHJ@?$EAP?$AA@
CONST	SEGMENT DWORD USE32 PUBLIC 'CONST'
CONST	ENDS
;	COMDAT ??_C@_03OKOMJFGK@?$EAFC?$AA@
CONST	SEGMENT DWORD USE32 PUBLIC 'CONST'
CONST	ENDS
;	COMDAT ??_C@_03JHJLGBCP@?$EAFF?$AA@
CONST	SEGMENT DWORD USE32 PUBLIC 'CONST'
CONST	ENDS
;	COMDAT ??_C@_03NNFJHDHO@?$EAFV?$AA@
CONST	SEGMENT DWORD USE32 PUBLIC 'CONST'
CONST	ENDS
;	COMDAT ??_C@_02JMMFFBPP@?$EAV?$AA@
CONST	SEGMENT DWORD USE32 PUBLIC 'CONST'
CONST	ENDS
;	COMDAT ??_C@_03GDGHNIBN@?$EANL?$AA@
CONST	SEGMENT DWORD USE32 PUBLIC 'CONST'
CONST	ENDS
;	COMDAT ??_C@_04LOGBILGC@?$IJ?$LJ?$JAF?$AA@
CONST	SEGMENT DWORD USE32 PUBLIC 'CONST'
CONST	ENDS
;	COMDAT ??_C@_02KBOOJKOB@NC?$AA@
CONST	SEGMENT DWORD USE32 PUBLIC 'CONST'
CONST	ENDS
;	COMDAT ??_C@_01BIAFAFID@F?$AA@
CONST	SEGMENT DWORD USE32 PUBLIC 'CONST'
CONST	ENDS
;	COMDAT ??_C@_01FMEDJKGI@o?$AA@
CONST	SEGMENT DWORD USE32 PUBLIC 'CONST'
CONST	ENDS
;	COMDAT ??_C@_04BKHONDIJ@?$IJ?$LJ?$IKK?$AA@
CONST	SEGMENT DWORD USE32 PUBLIC 'CONST'
CONST	ENDS
;	COMDAT ??_C@_01PPODPGHN@?$DO?$AA@
CONST	SEGMENT DWORD USE32 PUBLIC 'CONST'
CONST	ENDS
;	COMDAT ??_C@_02JPIENKHP@?$IP?c?$AA@
CONST	SEGMENT DWORD USE32 PUBLIC 'CONST'
CONST	ENDS
;	COMDAT ??_C@_02LEKBADDJ@?$IB?$KK?$AA@
CONST	SEGMENT DWORD USE32 PUBLIC 'CONST'
CONST	ENDS
;	COMDAT ??_C@_01MNNFJEPP@?$DM?$AA@
CONST	SEGMENT DWORD USE32 PUBLIC 'CONST'
CONST	ENDS
;	COMDAT ??_C@_02PAHAEANA@?$IJ?$LK?$AA@
CONST	SEGMENT DWORD USE32 PUBLIC 'CONST'
CONST	ENDS
;	COMDAT ??_C@_02KNLKDCHI@?$IB?$KL?$AA@
CONST	SEGMENT DWORD USE32 PUBLIC 'CONST'
CONST	ENDS
;	COMDAT ??_C@_01NLNLIGKH@?$GA?$AA@
CONST	SEGMENT DWORD USE32 PUBLIC 'CONST'
CONST	ENDS
;	COMDAT ??_C@_02PIMDMILI@?$IBe?$AA@
CONST	SEGMENT DWORD USE32 PUBLIC 'CONST'
CONST	ENDS
;	COMDAT ??_C@_01BJJEKLCA@?$CC?$AA@
CONST	SEGMENT DWORD USE32 PUBLIC 'CONST'
CONST	ENDS
;	COMDAT ??_C@_02ENGNLGPF@?$IBh?$AA@
CONST	SEGMENT DWORD USE32 PUBLIC 'CONST'
CONST	ENDS
;	COMDAT ??_C@_03MJGICKBJ@D?$CF_?$AA@
CONST	SEGMENT DWORD USE32 PUBLIC 'CONST'
CONST	ENDS
;	COMDAT ??_C@_02JPNONDBG@D?$CF?$AA@
CONST	SEGMENT DWORD USE32 PUBLIC 'CONST'
CONST	ENDS
;	COMDAT ??_C@_02EKAOECGK@D_?$AA@
CONST	SEGMENT DWORD USE32 PUBLIC 'CONST'
CONST	ENDS
;	COMDAT ??_C@_0N@PCNDJPL@?$IDf?$IDB?$ID?$GA?$ID?$IF?$IB?$FL?$ID?$JD?$AA@
CONST	SEGMENT DWORD USE32 PUBLIC 'CONST'
CONST	ENDS
;	COMDAT ??_C@_02FKHNAOPL@__?$AA@
CONST	SEGMENT DWORD USE32 PUBLIC 'CONST'
CONST	ENDS
;	COMDAT ??_C@_02HJBPEDLH@k_?$AA@
CONST	SEGMENT DWORD USE32 PUBLIC 'CONST'
CONST	ENDS
;	COMDAT ??_C@_01DICPFPGM@k?$AA@
CONST	SEGMENT DWORD USE32 PUBLIC 'CONST'
CONST	ENDS
;	COMDAT ??_C@_08GJIKAFHH@TrackKey?$AA@
CONST	SEGMENT DWORD USE32 PUBLIC 'CONST'
CONST	ENDS
;	COMDAT ??_C@_0N@NPJHKLGE@?$ID?$HM?$ID?$IL?$ID?$FO?$ID?$IB?$ID?$JD?$IDg?$AA@
CONST	SEGMENT DWORD USE32 PUBLIC 'CONST'
CONST	ENDS
;	COMDAT ??_C@_01MHEDDDHA@v?$AA@
CONST	SEGMENT DWORD USE32 PUBLIC 'CONST'
CONST	ENDS
;	COMDAT ??_C@_04CMBIEKKA@?$IJ?$LJ?$JH?J?$AA@
CONST	SEGMENT DWORD USE32 PUBLIC 'CONST'
CONST	ENDS
;	COMDAT ??_C@_01PKGAHCOL@?$CJ?$AA@
CONST	SEGMENT DWORD USE32 PUBLIC 'CONST'
CONST	ENDS
;	COMDAT ??_C@_06MFPBKHIE@?$JB?e?$IC?$KL?$IC?$KN?$AA@
CONST	SEGMENT DWORD USE32 PUBLIC 'CONST'
CONST	ENDS
;	COMDAT ??_C@_02NPGGPDID@?$JB?e?$AA@
CONST	SEGMENT DWORD USE32 PUBLIC 'CONST'
CONST	ENDS
;	COMDAT ??_C@_06EPOKGEMD@?$IP?$KM?$IC?$LD?$IC?$KN?$AA@
CONST	SEGMENT DWORD USE32 PUBLIC 'CONST'
CONST	ENDS
;	COMDAT ??_C@_02OIGFIJLF@?$IP?$KM?$AA@
CONST	SEGMENT DWORD USE32 PUBLIC 'CONST'
CONST	ENDS
;	COMDAT ??_C@_02LHHPIPOA@yV?$AA@
CONST	SEGMENT DWORD USE32 PUBLIC 'CONST'
CONST	ENDS
;	COMDAT ??_C@_01EANLCPLP@y?$AA@
CONST	SEGMENT DWORD USE32 PUBLIC 'CONST'
CONST	ENDS
;	COMDAT ??_C@_1DM@LBEIIGCG@?$AAS?$AAu?$AAb0?V0?m0?C0?$KPQ?$IF0g0o0?H0?i0?C0?$KPc?$AH?$FL?$JK0o0g0M0?$HO@
CONST	SEGMENT DWORD USE32 PUBLIC 'CONST'
CONST	ENDS
;	COMDAT ??_C@_1DK@GCJGKPID@?$AAS?$AAu?$AAb0?V0?m0?C0?$KPQ?$IF0g0oq?$CB?$JGP0?k0?$PM0?W0o0g0M0?$HO0?$FL@
CONST	SEGMENT DWORD USE32 PUBLIC 'CONST'
CONST	ENDS
;	COMDAT ??_C@_1BI@IEKIFIDC@?$AAD?$AAe?$AAt?$AAu?$AAn?$AAe?$AA?5?$AAC?$AAe?$AAn?$AAt?$AA?$AA@
CONST	SEGMENT DWORD USE32 PUBLIC 'CONST'
CONST	ENDS
;	COMDAT ??_C@_1CA@DCDMNGOL@?$AAD?$AAe?$AAr?$AAu?$AAn?$AAe?$AA?5?$AAR?$AAe?$AAg?$AAi?$AAs?$AAt?$AAe?$AAr?$AA?$AA@
CONST	SEGMENT DWORD USE32 PUBLIC 'CONST'
CONST	ENDS
;	COMDAT ??_C@_1CK@JBMEODCM@?$AAR?$AAe?$AAl?$AAa?$AAt?$AAi?$AAv?$AAe?$AA?5?$AAD?$AAe?$AAt?$AAu?$AAn?$AAe?$AA?5?$AAC?$AAe?$AAn?$AAt@
CONST	SEGMENT DWORD USE32 PUBLIC 'CONST'
CONST	ENDS
;	COMDAT ??_C@_1DC@KLPFDHDF@?$AAR?$AAe?$AAl?$AAa?$AAt?$AAi?$AAv?$AAe?$AA?5?$AAD?$AAe?$AAt?$AAu?$AAn?$AAe?$AA?5?$AAR?$AAe?$AAg?$AAi@
CONST	SEGMENT DWORD USE32 PUBLIC 'CONST'
CONST	ENDS
;	COMDAT ??_C@_1DC@NPMHHGKK@y?$PL?$IK?$LP0o?$AA?9?$AA1?$AA2?$AA7?$PP?$FO?$AA1?$AA2?$AA80n?$HL?DV?r0gc?$AH?$FL?$JK0W0f0O@
CONST	SEGMENT DWORD USE32 PUBLIC 'CONST'
CONST	ENDS
;	COMDAT ??_C@_03PNPKJHCD@?0?5$?$AA@
CONST	SEGMENT DWORD USE32 PUBLIC 'CONST'
CONST	ENDS
;	COMDAT ??_C@_08EAKLHHJG@?7?4word?7$?$AA@
CONST	SEGMENT DWORD USE32 PUBLIC 'CONST'
CONST	ENDS
;	COMDAT ??_C@_06KPCEEHJM@Track?5?$AA@
CONST	SEGMENT DWORD USE32 PUBLIC 'CONST'
CONST	ENDS
;	COMDAT ??_C@_02KCKGHPCA@?$CJ?5?$AA@
CONST	SEGMENT DWORD USE32 PUBLIC 'CONST'
CONST	ENDS
;	COMDAT ??_C@_05IFBGHAGD@?$HM?5TR?$CI?$AA@
CONST	SEGMENT DWORD USE32 PUBLIC 'CONST'
CONST	ENDS
;	COMDAT ??_C@_06MFAOKAEB@Loop?5?5?$AA@
CONST	SEGMENT DWORD USE32 PUBLIC 'CONST'
CONST	ENDS
;	COMDAT ??_C@_09CCGPGAKD@?$HM?5no?9loop?$AA@
CONST	SEGMENT DWORD USE32 PUBLIC 'CONST'
CONST	ENDS
;	COMDAT ??_C@_06BHCKJACF@Total?5?$AA@
CONST	SEGMENT DWORD USE32 PUBLIC 'CONST'
CONST	ENDS
;	COMDAT ??_C@_1CI@FKLPJOID@0?$NO0?$KP0?mN?90g0?H0?i0?C0?$KP0nc?$AH?$FL?$JK0o0g0M0?$HO0?$FL0?$JD0?$AC?$AA?$AA@
CONST	SEGMENT DWORD USE32 PUBLIC 'CONST'
CONST	ENDS
;	COMDAT ??_C@_1CO@IBJONDON@0?H0?i0?C0?$KPujS?w0gc?$AH?$FL?$JK0g0M0?$IL?$HL?DV?r0?$JC?$IN?$IF0H0f0D0?$HO@
CONST	SEGMENT DWORD USE32 PUBLIC 'CONST'
CONST	ENDS
;	COMDAT ??_C@_1DC@ODCBAGNM@?$AA?$DN?$AA?$DN?$AA?$DN?$AA?$DN?$AA?5?$AA?$FL?$AA?5?$AAM?$AAu?$AAs?$AAi?$AAc?$AA?5?$AAT?$AAr?$AAa?$AAc?$AAk?$AA?5?$AA?$FN@
CONST	SEGMENT DWORD USE32 PUBLIC 'CONST'
CONST	ENDS
;	COMDAT ??_C@_1FO@HMLHKAGM@?$AAM?$AAu?$AAs?$AAi?$AAc?$AAT?$AAr?$AAa?$AAc?$AAk?$AA?$CK?$AA?5?$AAT?$AAr?$AAa?$AAc?$AAk?$AAS?$AAe?$AAt@
CONST	SEGMENT DWORD USE32 PUBLIC 'CONST'
CONST	ENDS
;	COMDAT ??_C@_1DK@DNENJNME@?$AAS?$AAE0?V0?m0?C0?$KPN?eY?$BG0g0oQ?$CKQH?$FO?$KGc?$AH?$FL?$JK0o0g0M0?$HO0?$FL@
CONST	SEGMENT DWORD USE32 PUBLIC 'CONST'
CONST	ENDS
;	COMDAT ??_C@_1DE@GKCFHPBH@R?$LJg?$JM?$JH?s0nQ?$CKQH?$FO?$KG0o0?$AB0o?$AA0?$PP?$FO?$AA30n?$HL?DV?r0gc?$AH?$FL?$JK0W@
CONST	SEGMENT DWORD USE32 PUBLIC 'CONST'
CONST	ENDS
;	COMDAT ??_C@_1BC@PFLOACNN@?$AAJ?$AAu?$AAm?$AAp?$AA?5?$AAO?$AAf?$AAf?$AA?$AA@
CONST	SEGMENT DWORD USE32 PUBLIC 'CONST'
CONST	ENDS
;	COMDAT ??_C@_1BA@DLHAJHPF@?$AAJ?$AAu?$AAm?$AAp?$AA?5?$AAO?$AAn?$AA?$AA@
CONST	SEGMENT DWORD USE32 PUBLIC 'CONST'
CONST	ENDS
;	COMDAT ??_C@_1CK@GFGAOJII@?$AAj0?$LD0?$NO0?s0?I0Lc?$AH?$FL?$JKS?o?$IA?$PN0j?$HL?DV?r0?$JC?$IN?$IF0H0?$HO0W0_0?$AC@
CONST	SEGMENT DWORD USE32 PUBLIC 'CONST'
CONST	ENDS
;	COMDAT ??_C@_1CG@CEHFAHAL@0?F0?s0?$NN0Lc?$AH?$FL?$JKS?o?$IA?$PN0j?$HL?DV?r0?$JC?$IN?$IF0H0?$HO0W0_0?$AC?$AA?$AA@
CONST	SEGMENT DWORD USE32 PUBLIC 'CONST'
CONST	ENDS
;	COMDAT ??_C@_1M@KPBAMICJ@?$AAT?$AAe?$AAm?$AAp?$AAo?$AA?$AA@
CONST	SEGMENT DWORD USE32 PUBLIC 'CONST'
CONST	ENDS
;	COMDAT ??_C@_1BO@NMEFKJBB@?$AAR?$AAe?$AAl?$AAa?$AAt?$AAi?$AAv?$AAe?$AA?5?$AAT?$AAe?$AAm?$AAp?$AAo?$AA?$AA@
CONST	SEGMENT DWORD USE32 PUBLIC 'CONST'
CONST	ENDS
;	COMDAT ??_C@_1EG@KMDFAJLP@?$AAy0?$LD0?$NO0?s0?I0n0?$KC0?I0?l0?$LJ0o?$AA$?$AA0?$AA0?$AA0?$AA0?$PP?$FO?$AA$?$AAF?$AAF@
CONST	SEGMENT DWORD USE32 PUBLIC 'CONST'
CONST	ENDS
;	COMDAT ??_C@_1DM@CBEKDAPN@?$AAy0?$LD0?$NO0?s0?I0n0?Q0?i0?a0?$PM0?$LP0L?$IN?$LD0?$IK0?$HO0?$FL0?$JD0?$AC?$PP?$BC0d@
CONST	SEGMENT DWORD USE32 PUBLIC 'CONST'
CONST	ENDS
;	COMDAT ??_C@_1DM@CNINMOFB@?$AAy0?$LD0?$NO0?s0?I0n0?G0?$PM0?$LP0o?$AA$?$AA0?$AA0?$PP?$FO?$AA$?$AAF?$AAF0n?$HL?DV?r@
CONST	SEGMENT DWORD USE32 PUBLIC 'CONST'
CONST	ENDS
;	COMDAT ??_C@_19MCGBFLHO@?$AAP?$AAo?$AAk?$AAe?$AA?$AA@
CONST	SEGMENT DWORD USE32 PUBLIC 'CONST'
CONST	ENDS
;	COMDAT ??_C@_1CK@JOCIMFBO@?$AAF?$AAD?$AAS?$AA?5?$AAc?$AAa?$AAr?$AAe?$AAe?$AAr?$AA?5?$AAf?$AAr?$AAe?$AAq?$AAu?$AAe?$AAn?$AAc?$AAy@
CONST	SEGMENT DWORD USE32 PUBLIC 'CONST'
CONST	ENDS
;	COMDAT ??_C@_1DO@NCLODOIG@?$AAF?$AAD?$AAS0n0?$KN0?c0?j0?$KCThl?bep0o?$AA0?$PP?$FO?$AA4?$AA0?$AA9?$AA50n?$HL?D@
CONST	SEGMENT DWORD USE32 PUBLIC 'CONST'
CONST	ENDS
;	COMDAT ??_C@_1CE@KIIDBKFM@?$AAF?$AAD?$AAS?$AA?5?$AAM?$AAa?$AAs?$AAt?$AAe?$AAr?$AA?5?$AAv?$AAo?$AAl?$AAu?$AAm?$AAe?$AA?$AA@
CONST	SEGMENT DWORD USE32 PUBLIC 'CONST'
CONST	ENDS
;	COMDAT ??_C@_1DG@FINIAKBK@?$AAF?$AAD?$AAS0n0?$NO0?$LJ0?$LP0?$PM?$JH?s?$JB?O0o?$AA0?$PP?$FO?$AA30n?$HL?DV?r0gc?$AH?$FL?$JK@
CONST	SEGMENT DWORD USE32 PUBLIC 'CONST'
CONST	ENDS
;	COMDAT ??_C@_1EK@HBBIFNHP@?$AAV?$AAR?$AAC?$AA70?l0?$LI0?$LJ0?$LPd?MO?20n?$HL?0?$AA10?Q0?i0?a0?$PM0?$LP0o?$AA0@
CONST	SEGMENT DWORD USE32 PUBLIC 'CONST'
CONST	ENDS
;	COMDAT ??_C@_1EA@HBBIMBFO@?$AAy?$AAV?$AA?50?$LD0?$NO0?s0?I0n0?Q0?i0?a0?$PM0?$LP0L?$IN?$LD0?$IK0?$HO0?$FL0?$JD0?$AC@
CONST	SEGMENT DWORD USE32 PUBLIC 'CONST'
CONST	ENDS
;	COMDAT ??_C@_1EM@NIHECGCK@?$AAV?$AAR?$AAC?$AA70?l0?$LI0?$LJ0?$LPd?MO?20n?$HL?0?$AA20?Q0?i0?a0?$PM0?$LP0o?$AA0@
CONST	SEGMENT DWORD USE32 PUBLIC 'CONST'
CONST	ENDS
;	COMDAT ??_C@_1CI@JIGLHAON@?$AAV?$AAR?$AAC?$AA7?$AA?5?$AAR?$AAe?$AAg?$AAi?$AAs?$AAt?$AAe?$AAr?$AA?5?$AAW?$AAr?$AAi?$AAt?$AAe?$AA?$AA@
CONST	SEGMENT DWORD USE32 PUBLIC 'CONST'
CONST	ENDS
;	COMDAT ??_C@_1BK@BFEDNGPB@?$AAn?$AA1?$AA6?$AA3?$AA?5?$AAc?$AAh?$AAa?$AAn?$AAn?$AAe?$AAl?$AA?$AA@
CONST	SEGMENT DWORD USE32 PUBLIC 'CONST'
CONST	ENDS
;	COMDAT ??_C@_1DK@MLMMPBFK@?$AAn?$AA1?$AA6?$AA30n0?A0?c0?s0?M0?kep0o?$AA1?$PP?$FO?$AA80n?$HL?DV?r0gc?$AH@
CONST	SEGMENT DWORD USE32 PUBLIC 'CONST'
CONST	ENDS
;	COMDAT ??_C@_1CO@GINJDICH@?$AAF?$AAM?$AAE?$AA7?$AA?5?$AAe?$AAn?$AAv?$AAe?$AAl?$AAo?$AAp?$AA?5?$AAf?$AAr?$AAe?$AAq?$AAu?$AAe?$AAn@
CONST	SEGMENT DWORD USE32 PUBLIC 'CONST'
CONST	ENDS
;	COMDAT ??_C@_1FO@MPIPMFBJ@?$AAS?$AAU?$AAN?$AAS?$AAO?$AAF?$AAT?$AA?5?$AA5?$AAb0n0?O0?$PM0?I0?$KG0?$KH0?$KC0?$KI0?s0?Y@
CONST	SEGMENT DWORD USE32 PUBLIC 'CONST'
CONST	ENDS
text$yc	SEGMENT PARA USE32 PUBLIC 'CODE'
text$yc	ENDS
;	COMDAT ??1?$map@HPAVMusicTrack@@U?$less@H@std@@V?$allocator@U?$pair@$$CBHPAVMusicTrack@@@std@@@3@@std@@QAE@XZ
_TEXT	SEGMENT PARA USE32 PUBLIC 'CODE'
_TEXT	ENDS
;	COMDAT ??0?$map@HPAVMusicTrack@@U?$less@H@std@@V?$allocator@U?$pair@$$CBHPAVMusicTrack@@@std@@@3@@std@@QAE@XZ
_TEXT	SEGMENT PARA USE32 PUBLIC 'CODE'
_TEXT	ENDS
;	COMDAT ??1?$_Tree@V?$_Tmap_traits@HPAVMusicTrack@@U?$less@H@std@@V?$allocator@U?$pair@$$CBHPAVMusicTrack@@@std@@@3@$0A@@std@@@std@@QAE@XZ
_TEXT	SEGMENT PARA USE32 PUBLIC 'CODE'
_TEXT	ENDS
;	COMDAT ?count@?$_Tree@V?$_Tmap_traits@HPAVMusicTrack@@U?$less@H@std@@V?$allocator@U?$pair@$$CBHPAVMusicTrack@@@std@@@3@$0A@@std@@@std@@QBEIABH@Z
_TEXT	SEGMENT PARA USE32 PUBLIC 'CODE'
_TEXT	ENDS
;	COMDAT ??0?$_Tree@V?$_Tmap_traits@HPAVMusicTrack@@U?$less@H@std@@V?$allocator@U?$pair@$$CBHPAVMusicTrack@@@std@@@3@$0A@@std@@@std@@QAE@ABU?$less@H@1@ABV?$allocator@U?$pair@$$CBHPAVMusicTrack@@@std@@@1@@Z
_TEXT	SEGMENT PARA USE32 PUBLIC 'CODE'
_TEXT	ENDS
;	COMDAT ?equal_range@?$_Tree@V?$_Tmap_traits@HPAVMusicTrack@@U?$less@H@std@@V?$allocator@U?$pair@$$CBHPAVMusicTrack@@@std@@@3@$0A@@std@@@std@@QBE?AU?$pair@Vconst_iterator@?$_Tree@V?$_Tmap_traits@HPAVMusicTrack@@U?$less@H@std@@V?$allocator@U?$pair@$$CBHPAVMusicTrack@@@std@@@3@$0A@@std@@@std@@V123@@2@ABH@Z
_TEXT	SEGMENT PARA USE32 PUBLIC 'CODE'
_TEXT	ENDS
;	COMDAT ?_Tidy@?$_Tree@V?$_Tmap_traits@HPAVMusicTrack@@U?$less@H@std@@V?$allocator@U?$pair@$$CBHPAVMusicTrack@@@std@@@3@$0A@@std@@@std@@IAEXXZ
_TEXT	SEGMENT PARA USE32 PUBLIC 'CODE'
_TEXT	ENDS
;	COMDAT ??0?$allocator@U?$pair@$$CBHPAVMusicTrack@@@std@@@std@@QAE@XZ
_TEXT	SEGMENT PARA USE32 PUBLIC 'CODE'
_TEXT	ENDS
;	COMDAT ?erase@?$_Tree@V?$_Tmap_traits@HPAVMusicTrack@@U?$less@H@std@@V?$allocator@U?$pair@$$CBHPAVMusicTrack@@@std@@@3@$0A@@std@@@std@@QAE?AViterator@12@V312@0@Z
_TEXT	SEGMENT PARA USE32 PUBLIC 'CODE'
_TEXT	ENDS
;	COMDAT ?lower_bound@?$_Tree@V?$_Tmap_traits@HPAVMusicTrack@@U?$less@H@std@@V?$allocator@U?$pair@$$CBHPAVMusicTrack@@@std@@@3@$0A@@std@@@std@@QBE?AVconst_iterator@12@ABH@Z
_TEXT	SEGMENT PARA USE32 PUBLIC 'CODE'
_TEXT	ENDS
;	COMDAT ?upper_bound@?$_Tree@V?$_Tmap_traits@HPAVMusicTrack@@U?$less@H@std@@V?$allocator@U?$pair@$$CBHPAVMusicTrack@@@std@@@3@$0A@@std@@@std@@QBE?AVconst_iterator@12@ABH@Z
_TEXT	SEGMENT PARA USE32 PUBLIC 'CODE'
_TEXT	ENDS
;	COMDAT ?_Init@?$_Tree@V?$_Tmap_traits@HPAVMusicTrack@@U?$less@H@std@@V?$allocator@U?$pair@$$CBHPAVMusicTrack@@@std@@@3@$0A@@std@@@std@@IAEXXZ
_TEXT	SEGMENT PARA USE32 PUBLIC 'CODE'
_TEXT	ENDS
;	COMDAT ??0?$_Tree_val@V?$_Tmap_traits@HPAVMusicTrack@@U?$less@H@std@@V?$allocator@U?$pair@$$CBHPAVMusicTrack@@@std@@@3@$0A@@std@@@std@@IAE@ABU?$less@H@1@V?$allocator@U?$pair@$$CBHPAVMusicTrack@@@std@@@1@@Z
_TEXT	SEGMENT PARA USE32 PUBLIC 'CODE'
_TEXT	ENDS
;	COMDAT ??0?$allocator@U?$pair@$$CBHPAVMusicTrack@@@std@@@std@@QAE@ABV01@@Z
_TEXT	SEGMENT PARA USE32 PUBLIC 'CODE'
_TEXT	ENDS
;	COMDAT ?destroy@?$allocator@PAU_Node@?$_Tree_nod@V?$_Tmap_traits@HPAVMusicTrack@@U?$less@H@std@@V?$allocator@U?$pair@$$CBHPAVMusicTrack@@@std@@@3@$0A@@std@@@std@@@std@@QAEXPAPAU_Node@?$_Tree_nod@V?$_Tmap_traits@HPAVMusicTrack@@U?$less@H@std@@V?$allocator@U?$pair@$$CBHPAVMusicTrack@@@std@@@3@$0A@@std@@@2@@Z
_TEXT	SEGMENT PARA USE32 PUBLIC 'CODE'
_TEXT	ENDS
;	COMDAT ??0?$pair@Vconst_iterator@?$_Tree@V?$_Tmap_traits@HPAVMusicTrack@@U?$less@H@std@@V?$allocator@U?$pair@$$CBHPAVMusicTrack@@@std@@@3@$0A@@std@@@std@@V123@@std@@QAE@ABVconst_iterator@?$_Tree@V?$_Tmap_traits@HPAVMusicTrack@@U?$less@H@std@@V?$allocator@U?$pair@$$CBHPAVMusicTrack@@@std@@@3@$0A@@std@@@1@0@Z
_TEXT	SEGMENT PARA USE32 PUBLIC 'CODE'
_TEXT	ENDS
;	COMDAT ?erase@?$_Tree@V?$_Tmap_traits@HPAVMusicTrack@@U?$less@H@std@@V?$allocator@U?$pair@$$CBHPAVMusicTrack@@@std@@@3@$0A@@std@@@std@@QAE?AViterator@12@V312@@Z
_TEXT	SEGMENT PARA USE32 PUBLIC 'CODE'
_TEXT	ENDS
;	COMDAT ?clear@?$_Tree@V?$_Tmap_traits@HPAVMusicTrack@@U?$less@H@std@@V?$allocator@U?$pair@$$CBHPAVMusicTrack@@@std@@@3@$0A@@std@@@std@@QAEXXZ
_TEXT	SEGMENT PARA USE32 PUBLIC 'CODE'
_TEXT	ENDS
;	COMDAT ?_Ubound@?$_Tree@V?$_Tmap_traits@HPAVMusicTrack@@U?$less@H@std@@V?$allocator@U?$pair@$$CBHPAVMusicTrack@@@std@@@3@$0A@@std@@@std@@IBEPAU_Node@?$_Tree_nod@V?$_Tmap_traits@HPAVMusicTrack@@U?$less@H@std@@V?$allocator@U?$pair@$$CBHPAVMusicTrack@@@std@@@3@$0A@@std@@@2@ABH@Z
_TEXT	SEGMENT PARA USE32 PUBLIC 'CODE'
_TEXT	ENDS
;	COMDAT ?_Buynode@?$_Tree@V?$_Tmap_traits@HPAVMusicTrack@@U?$less@H@std@@V?$allocator@U?$pair@$$CBHPAVMusicTrack@@@std@@@3@$0A@@std@@@std@@IAEPAU_Node@?$_Tree_nod@V?$_Tmap_traits@HPAVMusicTrack@@U?$less@H@std@@V?$allocator@U?$pair@$$CBHPAVMusicTrack@@@std@@@3@$0A@@std@@@2@XZ
_TEXT	SEGMENT PARA USE32 PUBLIC 'CODE'
_TEXT	ENDS
;	COMDAT ??0?$_Tree_ptr@V?$_Tmap_traits@HPAVMusicTrack@@U?$less@H@std@@V?$allocator@U?$pair@$$CBHPAVMusicTrack@@@std@@@3@$0A@@std@@@std@@IAE@ABU?$less@H@1@V?$allocator@U?$pair@$$CBHPAVMusicTrack@@@std@@@1@@Z
_TEXT	SEGMENT PARA USE32 PUBLIC 'CODE'
_TEXT	ENDS
;	COMDAT ??Eiterator@?$_Tree@V?$_Tmap_traits@HPAVMusicTrack@@U?$less@H@std@@V?$allocator@U?$pair@$$CBHPAVMusicTrack@@@std@@@3@$0A@@std@@@std@@QAE?AV012@H@Z
_TEXT	SEGMENT PARA USE32 PUBLIC 'CODE'
_TEXT	ENDS
;	COMDAT ??9const_iterator@?$_Tree@V?$_Tmap_traits@HPAVMusicTrack@@U?$less@H@std@@V?$allocator@U?$pair@$$CBHPAVMusicTrack@@@std@@@3@$0A@@std@@@std@@QBE_NABV012@@Z
_TEXT	SEGMENT PARA USE32 PUBLIC 'CODE'
_TEXT	ENDS
;	COMDAT ?_Erase@?$_Tree@V?$_Tmap_traits@HPAVMusicTrack@@U?$less@H@std@@V?$allocator@U?$pair@$$CBHPAVMusicTrack@@@std@@@3@$0A@@std@@@std@@IAEXPAU_Node@?$_Tree_nod@V?$_Tmap_traits@HPAVMusicTrack@@U?$less@H@std@@V?$allocator@U?$pair@$$CBHPAVMusicTrack@@@std@@@3@$0A@@std@@@2@@Z
_TEXT	SEGMENT PARA USE32 PUBLIC 'CODE'
_TEXT	ENDS
;	COMDAT ??0?$_Tree_nod@V?$_Tmap_traits@HPAVMusicTrack@@U?$less@H@std@@V?$allocator@U?$pair@$$CBHPAVMusicTrack@@@std@@@3@$0A@@std@@@std@@IAE@ABU?$less@H@1@V?$allocator@U?$pair@$$CBHPAVMusicTrack@@@std@@@1@@Z
_TEXT	SEGMENT PARA USE32 PUBLIC 'CODE'
_TEXT	ENDS
;	COMDAT ?destroy@?$allocator@U_Node@?$_Tree_nod@V?$_Tmap_traits@HPAVMusicTrack@@U?$less@H@std@@V?$allocator@U?$pair@$$CBHPAVMusicTrack@@@std@@@3@$0A@@std@@@std@@@std@@QAEXPAU_Node@?$_Tree_nod@V?$_Tmap_traits@HPAVMusicTrack@@U?$less@H@std@@V?$allocator@U?$pair@$$CBHPAVMusicTrack@@@std@@@3@$0A@@std@@@2@@Z
_TEXT	SEGMENT PARA USE32 PUBLIC 'CODE'
_TEXT	ENDS
;	COMDAT ?construct@?$allocator@PAU_Node@?$_Tree_nod@V?$_Tmap_traits@HPAVMusicTrack@@U?$less@H@std@@V?$allocator@U?$pair@$$CBHPAVMusicTrack@@@std@@@3@$0A@@std@@@std@@@std@@QAEXPAPAU_Node@?$_Tree_nod@V?$_Tmap_traits@HPAVMusicTrack@@U?$less@H@std@@V?$allocator@U?$pair@$$CBHPAVMusicTrack@@@std@@@3@$0A@@std@@@2@ABQAU342@@Z
_TEXT	SEGMENT PARA USE32 PUBLIC 'CODE'
_TEXT	ENDS
;	COMDAT ??0?$_Tmap_traits@HPAVMusicTrack@@U?$less@H@std@@V?$allocator@U?$pair@$$CBHPAVMusicTrack@@@std@@@3@$0A@@std@@QAE@U?$less@H@1@@Z
_TEXT	SEGMENT PARA USE32 PUBLIC 'CODE'
_TEXT	ENDS
;	COMDAT _$E1
text$yc	SEGMENT PARA USE32 PUBLIC 'CODE'
text$yc	ENDS
;	COMDAT ??$_Distance@Vconst_iterator@?$_Tree@V?$_Tmap_traits@HPAVMusicTrack@@U?$less@H@std@@V?$allocator@U?$pair@$$CBHPAVMusicTrack@@@std@@@3@$0A@@std@@@std@@I@std@@YAXVconst_iterator@?$_Tree@V?$_Tmap_traits@HPAVMusicTrack@@U?$less@H@std@@V?$allocator@U?$pair@$$CBHPAVMusicTrack@@@std@@@3@$0A@@std@@@0@0AAI@Z
_TEXT	SEGMENT PARA USE32 PUBLIC 'CODE'
_TEXT	ENDS
;	COMDAT ??$_Destroy@PAU_Node@?$_Tree_nod@V?$_Tmap_traits@HPAVMusicTrack@@U?$less@H@std@@V?$allocator@U?$pair@$$CBHPAVMusicTrack@@@std@@@3@$0A@@std@@@std@@@std@@YAXPAPAU_Node@?$_Tree_nod@V?$_Tmap_traits@HPAVMusicTrack@@U?$less@H@std@@V?$allocator@U?$pair@$$CBHPAVMusicTrack@@@std@@@3@$0A@@std@@@0@@Z
_TEXT	SEGMENT PARA USE32 PUBLIC 'CODE'
_TEXT	ENDS
;	COMDAT ??$?0U?$pair@$$CBHPAVMusicTrack@@@std@@@?$allocator@PAU_Node@?$_Tree_nod@V?$_Tmap_traits@HPAVMusicTrack@@U?$less@H@std@@V?$allocator@U?$pair@$$CBHPAVMusicTrack@@@std@@@3@$0A@@std@@@std@@@std@@QAE@ABV?$allocator@U?$pair@$$CBHPAVMusicTrack@@@std@@@1@@Z
_TEXT	SEGMENT PARA USE32 PUBLIC 'CODE'
_TEXT	ENDS
;	COMDAT ??$?0U?$pair@$$CBHPAVMusicTrack@@@std@@@?$allocator@U_Node@?$_Tree_nod@V?$_Tmap_traits@HPAVMusicTrack@@U?$less@H@std@@V?$allocator@U?$pair@$$CBHPAVMusicTrack@@@std@@@3@$0A@@std@@@std@@@std@@QAE@ABV?$allocator@U?$pair@$$CBHPAVMusicTrack@@@std@@@1@@Z
_TEXT	SEGMENT PARA USE32 PUBLIC 'CODE'
_TEXT	ENDS
;	COMDAT ??$_Destroy@U_Node@?$_Tree_nod@V?$_Tmap_traits@HPAVMusicTrack@@U?$less@H@std@@V?$allocator@U?$pair@$$CBHPAVMusicTrack@@@std@@@3@$0A@@std@@@std@@@std@@YAXPAU_Node@?$_Tree_nod@V?$_Tmap_traits@HPAVMusicTrack@@U?$less@H@std@@V?$allocator@U?$pair@$$CBHPAVMusicTrack@@@std@@@3@$0A@@std@@@0@@Z
_TEXT	SEGMENT PARA USE32 PUBLIC 'CODE'
_TEXT	ENDS
;	COMDAT ??$_Construct@PAU_Node@?$_Tree_nod@V?$_Tmap_traits@HPAVMusicTrack@@U?$less@H@std@@V?$allocator@U?$pair@$$CBHPAVMusicTrack@@@std@@@3@$0A@@std@@@std@@PAU123@@std@@YAXPAPAU_Node@?$_Tree_nod@V?$_Tmap_traits@HPAVMusicTrack@@U?$less@H@std@@V?$allocator@U?$pair@$$CBHPAVMusicTrack@@@std@@@3@$0A@@std@@@0@ABQAU120@@Z
_TEXT	SEGMENT PARA USE32 PUBLIC 'CODE'
_TEXT	ENDS
;	COMDAT _$E3
text$yc	SEGMENT PARA USE32 PUBLIC 'CODE'
text$yc	ENDS
;	COMDAT ??$_Iter_cat@Vconst_iterator@?$_Tree@V?$_Tmap_traits@HPAVMusicTrack@@U?$less@H@std@@V?$allocator@U?$pair@$$CBHPAVMusicTrack@@@std@@@3@$0A@@std@@@std@@@std@@YA?AUbidirectional_iterator_tag@0@ABVconst_iterator@?$_Tree@V?$_Tmap_traits@HPAVMusicTrack@@U?$less@H@std@@V?$allocator@U?$pair@$$CBHPAVMusicTrack@@@std@@@3@$0A@@std@@@0@@Z
_TEXT	SEGMENT PARA USE32 PUBLIC 'CODE'
_TEXT	ENDS
;	COMDAT ??$_Distance2@Vconst_iterator@?$_Tree@V?$_Tmap_traits@HPAVMusicTrack@@U?$less@H@std@@V?$allocator@U?$pair@$$CBHPAVMusicTrack@@@std@@@3@$0A@@std@@@std@@I@std@@YAXVconst_iterator@?$_Tree@V?$_Tmap_traits@HPAVMusicTrack@@U?$less@H@std@@V?$allocator@U?$pair@$$CBHPAVMusicTrack@@@std@@@3@$0A@@std@@@0@0AAIUbidirectional_iterator_tag@0@@Z
_TEXT	SEGMENT PARA USE32 PUBLIC 'CODE'
_TEXT	ENDS
;	COMDAT _$E5
text$yc	SEGMENT PARA USE32 PUBLIC 'CODE'
text$yc	ENDS
;	COMDAT ?GetLine@MMLfile@@QAEIXZ
_TEXT	SEGMENT PARA USE32 PUBLIC 'CODE'
_TEXT	ENDS
;	COMDAT ?GetLine@FileInput@@QAEIXZ
_TEXT	SEGMENT PARA USE32 PUBLIC 'CODE'
_TEXT	ENDS
;	COMDAT ?SetLine@MMLfile@@QAEXI@Z
_TEXT	SEGMENT PARA USE32 PUBLIC 'CODE'
_TEXT	ENDS
;	COMDAT ?SetLine@FileInput@@QAEXI@Z
_TEXT	SEGMENT PARA USE32 PUBLIC 'CODE'
_TEXT	ENDS
;	COMDAT ?GetCompileFlag@MusicTrack@@QAE_NXZ
_TEXT	SEGMENT PARA USE32 PUBLIC 'CODE'
_TEXT	ENDS
;	COMDAT ?GetMacroNest@MMLfile@@QAEHXZ
_TEXT	SEGMENT PARA USE32 PUBLIC 'CODE'
_TEXT	ENDS
;	COMDAT ?GetTickTotal@MusicTrack@@QAEIXZ
_TEXT	SEGMENT PARA USE32 PUBLIC 'CODE'
_TEXT	ENDS
;	COMDAT ?GetTickLoop@MusicTrack@@QAEIXZ
_TEXT	SEGMENT PARA USE32 PUBLIC 'CODE'
_TEXT	ENDS
;	COMDAT ?Command@?1???0TrackSet@@QAE@PAVMMLfile@@I_N1QBG@Z@4QBUCommand_Info@@B
CONST	SEGMENT DWORD USE32 PUBLIC 'CONST'
CONST	ENDS
;	COMDAT ?SetCompileFlag@MusicTrack@@QAEX_N@Z
_TEXT	SEGMENT PARA USE32 PUBLIC 'CODE'
_TEXT	ENDS
;	COMDAT ?Yen_UTF8W@?1???0TrackSet@@QAE@PAVMMLfile@@I_N1QBG@Z@4QBEB
CONST	SEGMENT DWORD USE32 PUBLIC 'CONST'
CONST	ENDS
;	COMDAT ?RS_UTF8W@?1???0TrackSet@@QAE@PAVMMLfile@@I_N1QBG@Z@4QBEB
CONST	SEGMENT DWORD USE32 PUBLIC 'CONST'
CONST	ENDS
;	COMDAT ?Yen_UTF8@?1???0TrackSet@@QAE@PAVMMLfile@@I_N1QBG@Z@4QBEB
CONST	SEGMENT DWORD USE32 PUBLIC 'CONST'
CONST	ENDS
;	COMDAT ?RS_UTF8@?1???0TrackSet@@QAE@PAVMMLfile@@I_N1QBG@Z@4QBEB
CONST	SEGMENT DWORD USE32 PUBLIC 'CONST'
CONST	ENDS
;	COMDAT ??_7TrackSet@@6B@
CONST	SEGMENT DWORD USE32 PUBLIC 'CONST'
CONST	ENDS
FLAT	GROUP _DATA, CONST, _BSS
	ASSUME	CS: FLAT, DS: FLAT, SS: FLAT
endif

INCLUDELIB LIBCMT
INCLUDELIB OLDNAMES

PUBLIC	?getAsm@TrackSet@@UAEXPAVMusicFile@@@Z		; TrackSet::getAsm
PUBLIC	??_C@_02ODIGJPFH@TR?$AA@			; `string'
PUBLIC	??_C@_08PGKBPJJO@?$IDg?$ID?$IJ?$IDb?$IDN?$AA@	; `string'
PUBLIC	??_C@_05MAGIBEFI@Scale?$AA@			; `string'
PUBLIC	??_C@_05MHMEBBGO@scale?$AA@			; `string'
PUBLIC	??_C@_04KNKPIPFB@Mode?$AA@			; `string'
PUBLIC	??_C@_04GMGOKAFF@mode?$AA@			; `string'
PUBLIC	??_C@_05FDLAJJBN@Major?$AA@			; `string'
PUBLIC	??_C@_05FEBMJMCL@major?$AA@			; `string'
PUBLIC	??_C@_05OMKCEFIL@Minor?$AA@			; `string'
PUBLIC	??_C@_05OLAOEALN@minor?$AA@			; `string'
PUBLIC	??_C@_06LHOIAAEI@HMinor?$AA@			; `string'
PUBLIC	??_C@_06HPPJDMOC@hminor?$AA@			; `string'
PUBLIC	??_C@_06OFNACPOP@MMinor?$AA@			; `string'
PUBLIC	??_C@_06CNMBBDEF@mminor?$AA@			; `string'
PUBLIC	??_C@_01KNKLHLMO@K?$AA@				; `string'
PUBLIC	??_C@_02CINKIGEJ@?$JC?$LC?$AA@			; `string'
PUBLIC	??_C@_02EFPODJMF@?$FL?3?$AA@			; `string'
PUBLIC	??_C@_02CGFHGFLC@?3?$FN?$AA@			; `string'
PUBLIC	??_C@_02HIPMGJKA@?$HM?3?$AA@			; `string'
PUBLIC	??_C@_02KKMIHAFB@?3?$HM?$AA@			; `string'
PUBLIC	??_C@_01OHGJGJJP@?$FL?$AA@			; `string'
PUBLIC	??_C@_01LBDDMOBJ@?$FN?$AA@			; `string'
PUBLIC	??_C@_02JEILFJNG@?$IB?$IH?$AA@			; `string'
PUBLIC	??_C@_04GCKADHHM@?$IBb?$IBF?$AA@		; `string'
PUBLIC	??_C@_02FMFCNDNO@?$IB?$IP?$AA@			; `string'
PUBLIC	??_C@_02NNGKBGMB@?$IB_?$AA@			; `string'
PUBLIC	??_C@_04LMBIOOLD@?$IBF?$IBb?$AA@		; `string'
PUBLIC	??_C@_02BOLEJFOF@?$IBy?$AA@			; `string'
PUBLIC	??_C@_02EGGKLPNJ@?$IBF?$AA@			; `string'
PUBLIC	??_C@_02DFJJMGCG@?$IBz?$AA@			; `string'
PUBLIC	??_C@_02GOGFKHPK@t_?$AA@			; `string'
PUBLIC	??_C@_01PFHFFBPC@t?$AA@				; `string'
PUBLIC	??_C@_06LKBOFJCM@?$IDe?$ID?$JD?$ID?$HM?$AA@	; `string'
PUBLIC	??_C@_02IGJHGBLL@?$IB?$KI?$AA@			; `string'
PUBLIC	??_C@_02JPIMFAPK@?$IB?$KJ?$AA@			; `string'
PUBLIC	??_C@_01NOFIACDB@w?$AA@				; `string'
PUBLIC	??_C@_01JKBOJNNK@?$FO?$AA@			; `string'
PUBLIC	??_C@_02LJAGNDMF@?$IB?$FL?$AA@			; `string'
PUBLIC	??_C@_04EBGGPMEF@?$IJ?$LJ?$JF?$IE?$AA@		; `string'
PUBLIC	??_C@_01BNIGIBBF@Q?$AA@				; `string'
PUBLIC	??_C@_06EFPKECIE@?$IDQ?$IB?$FL?$IDg?$AA@	; `string'
PUBLIC	??_C@_03EOHNIDBB@ECc?$AA@			; `string'
PUBLIC	??_C@_03BDMBFNG@ECd?$AA@			; `string'
PUBLIC	??_C@_03BICHCEJH@ECe?$AA@			; `string'
PUBLIC	??_C@_03DDAKHHFE@ECf?$AA@			; `string'
PUBLIC	??_C@_03CKBBEGBF@ECg?$AA@			; `string'
PUBLIC	??_C@_03HMELOBJD@ECa?$AA@			; `string'
PUBLIC	??_C@_03FHGGLCFA@ECb?$AA@			; `string'
PUBLIC	??_C@_03BNKEKAAB@ECr?$AA@			; `string'
PUBLIC	??_C@_03CAIHOBJK@EC?9?$AA@			; `string'
PUBLIC	??_C@_03GPMGHHFN@EC?$CK?$AA@			; `string'
PUBLIC	??_C@_02KNLLHFAA@EC?$AA@			; `string'
PUBLIC	??_C@_0L@LOJEBEMJ@?$IDG?$IDR?$IB?$FL?$IDI?$IDt?$AA@ ; `string'
PUBLIC	??_C@_06OHMKBCHJ@?$IDG?$IDR?$IB?$FL?$AA@	; `string'
PUBLIC	??_C@_01LELAEKIP@J?$AA@				; `string'
PUBLIC	??_C@_01CBDEGOCN@j?$AA@				; `string'
PUBLIC	??_C@_0BB@KNFILCDL@?$IDG?$ID?$JD?$IDx?$ID?$IN?$IB?$FL?$IDv?$IDI?$IDt?$AA@ ; `string'
PUBLIC	??_C@_0P@EEJKCPJF@?$IDr?$IDu?$ID?$IJ?$IB?$FL?$IDg?$IDI?$IDt?$AA@ ; `string'
PUBLIC	??_C@_02LPNFMJNJ@Rm?$AA@			; `string'
PUBLIC	??_C@_02JPPPJDDG@R?$EA?$AA@			; `string'
PUBLIC	??_C@_02BGODACED@Rv?$AA@			; `string'
PUBLIC	??_C@_03EGHIJKEG@?$EAP?$CK?$AA@			; `string'
PUBLIC	??_C@_02MKJPPGHJ@?$EAP?$AA@			; `string'
PUBLIC	??_C@_03OKOMJFGK@?$EAFC?$AA@			; `string'
PUBLIC	??_C@_03JHJLGBCP@?$EAFF?$AA@			; `string'
PUBLIC	??_C@_03NNFJHDHO@?$EAFV?$AA@			; `string'
PUBLIC	??_C@_02JMMFFBPP@?$EAV?$AA@			; `string'
PUBLIC	??_C@_03GDGHNIBN@?$EANL?$AA@			; `string'
PUBLIC	??_C@_04LOGBILGC@?$IJ?$LJ?$JAF?$AA@		; `string'
PUBLIC	??_C@_02KBOOJKOB@NC?$AA@			; `string'
PUBLIC	??_C@_01BIAFAFID@F?$AA@				; `string'
PUBLIC	??_C@_01FMEDJKGI@o?$AA@				; `string'
PUBLIC	??_C@_04BKHONDIJ@?$IJ?$LJ?$IKK?$AA@		; `string'
PUBLIC	??_C@_01PPODPGHN@?$DO?$AA@			; `string'
PUBLIC	??_C@_02JPIENKHP@?$IP?c?$AA@			; `string'
PUBLIC	??_C@_02LEKBADDJ@?$IB?$KK?$AA@			; `string'
PUBLIC	??_C@_01MNNFJEPP@?$DM?$AA@			; `string'
PUBLIC	??_C@_02PAHAEANA@?$IJ?$LK?$AA@			; `string'
PUBLIC	??_C@_02KNLKDCHI@?$IB?$KL?$AA@			; `string'
PUBLIC	??_C@_01NLNLIGKH@?$GA?$AA@			; `string'
PUBLIC	??_C@_02PIMDMILI@?$IBe?$AA@			; `string'
PUBLIC	??_C@_01BJJEKLCA@?$CC?$AA@			; `string'
PUBLIC	??_C@_02ENGNLGPF@?$IBh?$AA@			; `string'
PUBLIC	??_C@_03MJGICKBJ@D?$CF_?$AA@			; `string'
PUBLIC	??_C@_02JPNONDBG@D?$CF?$AA@			; `string'
PUBLIC	??_C@_02EKAOECGK@D_?$AA@			; `string'
PUBLIC	??_C@_0N@PCNDJPL@?$IDf?$IDB?$ID?$GA?$ID?$IF?$IB?$FL?$ID?$JD?$AA@ ; `string'
PUBLIC	??_C@_02FKHNAOPL@__?$AA@			; `string'
PUBLIC	??_C@_02HJBPEDLH@k_?$AA@			; `string'
PUBLIC	??_C@_01DICPFPGM@k?$AA@				; `string'
PUBLIC	??_C@_08GJIKAFHH@TrackKey?$AA@			; `string'
PUBLIC	??_C@_0N@NPJHKLGE@?$ID?$HM?$ID?$IL?$ID?$FO?$ID?$IB?$ID?$JD?$IDg?$AA@ ; `string'
PUBLIC	??_C@_01MHEDDDHA@v?$AA@				; `string'
PUBLIC	??_C@_04CMBIEKKA@?$IJ?$LJ?$JH?J?$AA@		; `string'
PUBLIC	??_C@_01PKGAHCOL@?$CJ?$AA@			; `string'
PUBLIC	??_C@_06MFPBKHIE@?$JB?e?$IC?$KL?$IC?$KN?$AA@	; `string'
PUBLIC	??_C@_02NPGGPDID@?$JB?e?$AA@			; `string'
PUBLIC	??_C@_06EPOKGEMD@?$IP?$KM?$IC?$LD?$IC?$KN?$AA@	; `string'
PUBLIC	??_C@_02OIGFIJLF@?$IP?$KM?$AA@			; `string'
PUBLIC	??_C@_02LHHPIPOA@yV?$AA@			; `string'
PUBLIC	??_C@_01EANLCPLP@y?$AA@				; `string'
PUBLIC	??_C@_1DM@LBEIIGCG@?$AAS?$AAu?$AAb0?V0?m0?C0?$KPQ?$IF0g0o0?H0?i0?C0?$KPc?$AH?$FL?$JK0o0g0M0?$HO@ ; `string'
PUBLIC	??_C@_1DK@GCJGKPID@?$AAS?$AAu?$AAb0?V0?m0?C0?$KPQ?$IF0g0oq?$CB?$JGP0?k0?$PM0?W0o0g0M0?$HO0?$FL@ ; `string'
PUBLIC	??_C@_1BI@IEKIFIDC@?$AAD?$AAe?$AAt?$AAu?$AAn?$AAe?$AA?5?$AAC?$AAe?$AAn?$AAt?$AA?$AA@ ; `string'
PUBLIC	??_C@_1CA@DCDMNGOL@?$AAD?$AAe?$AAr?$AAu?$AAn?$AAe?$AA?5?$AAR?$AAe?$AAg?$AAi?$AAs?$AAt?$AAe?$AAr?$AA?$AA@ ; `string'
PUBLIC	??_C@_1CK@JBMEODCM@?$AAR?$AAe?$AAl?$AAa?$AAt?$AAi?$AAv?$AAe?$AA?5?$AAD?$AAe?$AAt?$AAu?$AAn?$AAe?$AA?5?$AAC?$AAe?$AAn?$AAt@ ; `string'
PUBLIC	??_C@_1DC@KLPFDHDF@?$AAR?$AAe?$AAl?$AAa?$AAt?$AAi?$AAv?$AAe?$AA?5?$AAD?$AAe?$AAt?$AAu?$AAn?$AAe?$AA?5?$AAR?$AAe?$AAg?$AAi@ ; `string'
PUBLIC	??_C@_1DC@NPMHHGKK@y?$PL?$IK?$LP0o?$AA?9?$AA1?$AA2?$AA7?$PP?$FO?$AA1?$AA2?$AA80n?$HL?DV?r0gc?$AH?$FL?$JK0W0f0O@ ; `string'
PUBLIC	??_C@_03PNPKJHCD@?0?5$?$AA@			; `string'
PUBLIC	??_C@_08EAKLHHJG@?7?4word?7$?$AA@		; `string'
PUBLIC	??_C@_06KPCEEHJM@Track?5?$AA@			; `string'
PUBLIC	??_C@_02KCKGHPCA@?$CJ?5?$AA@			; `string'
PUBLIC	??_C@_05IFBGHAGD@?$HM?5TR?$CI?$AA@		; `string'
PUBLIC	??_C@_06MFAOKAEB@Loop?5?5?$AA@			; `string'
PUBLIC	??_C@_09CCGPGAKD@?$HM?5no?9loop?$AA@		; `string'
PUBLIC	??_C@_06BHCKJACF@Total?5?$AA@			; `string'
PUBLIC	??_C@_1CI@FKLPJOID@0?$NO0?$KP0?mN?90g0?H0?i0?C0?$KP0nc?$AH?$FL?$JK0o0g0M0?$HO0?$FL0?$JD0?$AC?$AA?$AA@ ; `string'
PUBLIC	??_C@_1CO@IBJONDON@0?H0?i0?C0?$KPujS?w0gc?$AH?$FL?$JK0g0M0?$IL?$HL?DV?r0?$JC?$IN?$IF0H0f0D0?$HO@ ; `string'
PUBLIC	??_C@_1DC@ODCBAGNM@?$AA?$DN?$AA?$DN?$AA?$DN?$AA?$DN?$AA?5?$AA?$FL?$AA?5?$AAM?$AAu?$AAs?$AAi?$AAc?$AA?5?$AAT?$AAr?$AAa?$AAc?$AAk?$AA?5?$AA?$FN@ ; `string'
PUBLIC	??_C@_1FO@HMLHKAGM@?$AAM?$AAu?$AAs?$AAi?$AAc?$AAT?$AAr?$AAa?$AAc?$AAk?$AA?$CK?$AA?5?$AAT?$AAr?$AAa?$AAc?$AAk?$AAS?$AAe?$AAt@ ; `string'
PUBLIC	??_C@_1DK@DNENJNME@?$AAS?$AAE0?V0?m0?C0?$KPN?eY?$BG0g0oQ?$CKQH?$FO?$KGc?$AH?$FL?$JK0o0g0M0?$HO0?$FL@ ; `string'
PUBLIC	??_C@_1DE@GKCFHPBH@R?$LJg?$JM?$JH?s0nQ?$CKQH?$FO?$KG0o0?$AB0o?$AA0?$PP?$FO?$AA30n?$HL?DV?r0gc?$AH?$FL?$JK0W@ ; `string'
PUBLIC	??_C@_1BC@PFLOACNN@?$AAJ?$AAu?$AAm?$AAp?$AA?5?$AAO?$AAf?$AAf?$AA?$AA@ ; `string'
PUBLIC	??_C@_1BA@DLHAJHPF@?$AAJ?$AAu?$AAm?$AAp?$AA?5?$AAO?$AAn?$AA?$AA@ ; `string'
PUBLIC	??_C@_1CK@GFGAOJII@?$AAj0?$LD0?$NO0?s0?I0Lc?$AH?$FL?$JKS?o?$IA?$PN0j?$HL?DV?r0?$JC?$IN?$IF0H0?$HO0W0_0?$AC@ ; `string'
PUBLIC	??_C@_1CG@CEHFAHAL@0?F0?s0?$NN0Lc?$AH?$FL?$JKS?o?$IA?$PN0j?$HL?DV?r0?$JC?$IN?$IF0H0?$HO0W0_0?$AC?$AA?$AA@ ; `string'
PUBLIC	??_C@_1M@KPBAMICJ@?$AAT?$AAe?$AAm?$AAp?$AAo?$AA?$AA@ ; `string'
PUBLIC	??_C@_1BO@NMEFKJBB@?$AAR?$AAe?$AAl?$AAa?$AAt?$AAi?$AAv?$AAe?$AA?5?$AAT?$AAe?$AAm?$AAp?$AAo?$AA?$AA@ ; `string'
PUBLIC	??_C@_1EG@KMDFAJLP@?$AAy0?$LD0?$NO0?s0?I0n0?$KC0?I0?l0?$LJ0o?$AA$?$AA0?$AA0?$AA0?$AA0?$PP?$FO?$AA$?$AAF?$AAF@ ; `string'
PUBLIC	??_C@_1DM@CBEKDAPN@?$AAy0?$LD0?$NO0?s0?I0n0?Q0?i0?a0?$PM0?$LP0L?$IN?$LD0?$IK0?$HO0?$FL0?$JD0?$AC?$PP?$BC0d@ ; `string'
PUBLIC	??_C@_1DM@CNINMOFB@?$AAy0?$LD0?$NO0?s0?I0n0?G0?$PM0?$LP0o?$AA$?$AA0?$AA0?$PP?$FO?$AA$?$AAF?$AAF0n?$HL?DV?r@ ; `string'
PUBLIC	??_C@_19MCGBFLHO@?$AAP?$AAo?$AAk?$AAe?$AA?$AA@	; `string'
PUBLIC	??_C@_1CK@JOCIMFBO@?$AAF?$AAD?$AAS?$AA?5?$AAc?$AAa?$AAr?$AAe?$AAe?$AAr?$AA?5?$AAf?$AAr?$AAe?$AAq?$AAu?$AAe?$AAn?$AAc?$AAy@ ; `string'
PUBLIC	??_C@_1DO@NCLODOIG@?$AAF?$AAD?$AAS0n0?$KN0?c0?j0?$KCThl?bep0o?$AA0?$PP?$FO?$AA4?$AA0?$AA9?$AA50n?$HL?D@ ; `string'
PUBLIC	??_C@_1CE@KIIDBKFM@?$AAF?$AAD?$AAS?$AA?5?$AAM?$AAa?$AAs?$AAt?$AAe?$AAr?$AA?5?$AAv?$AAo?$AAl?$AAu?$AAm?$AAe?$AA?$AA@ ; `string'
PUBLIC	??_C@_1DG@FINIAKBK@?$AAF?$AAD?$AAS0n0?$NO0?$LJ0?$LP0?$PM?$JH?s?$JB?O0o?$AA0?$PP?$FO?$AA30n?$HL?DV?r0gc?$AH?$FL?$JK@ ; `string'
PUBLIC	??_C@_1EK@HBBIFNHP@?$AAV?$AAR?$AAC?$AA70?l0?$LI0?$LJ0?$LPd?MO?20n?$HL?0?$AA10?Q0?i0?a0?$PM0?$LP0o?$AA0@ ; `string'
PUBLIC	??_C@_1EA@HBBIMBFO@?$AAy?$AAV?$AA?50?$LD0?$NO0?s0?I0n0?Q0?i0?a0?$PM0?$LP0L?$IN?$LD0?$IK0?$HO0?$FL0?$JD0?$AC@ ; `string'
PUBLIC	??_C@_1EM@NIHECGCK@?$AAV?$AAR?$AAC?$AA70?l0?$LI0?$LJ0?$LPd?MO?20n?$HL?0?$AA20?Q0?i0?a0?$PM0?$LP0o?$AA0@ ; `string'
PUBLIC	??_C@_1CI@JIGLHAON@?$AAV?$AAR?$AAC?$AA7?$AA?5?$AAR?$AAe?$AAg?$AAi?$AAs?$AAt?$AAe?$AAr?$AA?5?$AAW?$AAr?$AAi?$AAt?$AAe?$AA?$AA@ ; `string'
PUBLIC	??_C@_1BK@BFEDNGPB@?$AAn?$AA1?$AA6?$AA3?$AA?5?$AAc?$AAh?$AAa?$AAn?$AAn?$AAe?$AAl?$AA?$AA@ ; `string'
PUBLIC	??_C@_1DK@MLMMPBFK@?$AAn?$AA1?$AA6?$AA30n0?A0?c0?s0?M0?kep0o?$AA1?$PP?$FO?$AA80n?$HL?DV?r0gc?$AH@ ; `string'
PUBLIC	??_C@_1CO@GINJDICH@?$AAF?$AAM?$AAE?$AA7?$AA?5?$AAe?$AAn?$AAv?$AAe?$AAl?$AAo?$AAp?$AA?5?$AAf?$AAr?$AAe?$AAq?$AAu?$AAe?$AAn@ ; `string'
PUBLIC	??_C@_1FO@MPIPMFBJ@?$AAS?$AAU?$AAN?$AAS?$AAO?$AAF?$AAT?$AA?5?$AA5?$AAb0n0?O0?$PM0?I0?$KG0?$KH0?$KC0?$KI0?s0?Y@ ; `string'
PUBLIC	??_7TrackSet@@6B@				; TrackSet::`vftable'
;	COMDAT ?RS_UTF8@?1???0TrackSet@@QAE@PAVMMLfile@@I_N1QBG@Z@4QBEB
CONST	SEGMENT
?RS_UTF8@?1???0TrackSet@@QAE@PAVMMLfile@@I_N1QBG@Z@4QBEB DB 05cH ; `TrackSet::TrackSet'::`2'::RS_UTF8
	DB	00H
CONST	ENDS
;	COMDAT ?RS_UTF8W@?1???0TrackSet@@QAE@PAVMMLfile@@I_N1QBG@Z@4QBEB
CONST	SEGMENT
?RS_UTF8W@?1???0TrackSet@@QAE@PAVMMLfile@@I_N1QBG@Z@4QBEB DB 0efH ; `TrackSet::TrackSet'::`2'::RS_UTF8W
	DB	0bcH
	DB	0bcH
	DB	00H
CONST	ENDS
;	COMDAT ?Yen_UTF8@?1???0TrackSet@@QAE@PAVMMLfile@@I_N1QBG@Z@4QBEB
CONST	SEGMENT
?Yen_UTF8@?1???0TrackSet@@QAE@PAVMMLfile@@I_N1QBG@Z@4QBEB DB 0c2H ; `TrackSet::TrackSet'::`2'::Yen_UTF8
	DB	0a5H
	DB	00H
CONST	ENDS
;	COMDAT ?Yen_UTF8W@?1???0TrackSet@@QAE@PAVMMLfile@@I_N1QBG@Z@4QBEB
CONST	SEGMENT
?Yen_UTF8W@?1???0TrackSet@@QAE@PAVMMLfile@@I_N1QBG@Z@4QBEB DB 0efH ; `TrackSet::TrackSet'::`2'::Yen_UTF8W
	DB	0bfH
	DB	0a5H
	DB	00H
CONST	ENDS
;	COMDAT ??_C@_02ODIGJPFH@TR?$AA@
CONST	SEGMENT
??_C@_02ODIGJPFH@TR?$AA@ DB 'TR', 00H			; `string'
CONST	ENDS
;	COMDAT ??_C@_08PGKBPJJO@?$IDg?$ID?$IJ?$IDb?$IDN?$AA@
CONST	SEGMENT
??_C@_08PGKBPJJO@?$IDg?$ID?$IJ?$IDb?$IDN?$AA@ DB 083H, 'g', 083H, 089H, 083H
	DB	'b', 083H, 'N', 00H				; `string'
CONST	ENDS
;	COMDAT ??_C@_05MAGIBEFI@Scale?$AA@
CONST	SEGMENT
??_C@_05MAGIBEFI@Scale?$AA@ DB 'Scale', 00H		; `string'
CONST	ENDS
;	COMDAT ??_C@_05MHMEBBGO@scale?$AA@
CONST	SEGMENT
??_C@_05MHMEBBGO@scale?$AA@ DB 'scale', 00H		; `string'
CONST	ENDS
;	COMDAT ??_C@_04KNKPIPFB@Mode?$AA@
CONST	SEGMENT
??_C@_04KNKPIPFB@Mode?$AA@ DB 'Mode', 00H		; `string'
CONST	ENDS
;	COMDAT ??_C@_04GMGOKAFF@mode?$AA@
CONST	SEGMENT
??_C@_04GMGOKAFF@mode?$AA@ DB 'mode', 00H		; `string'
CONST	ENDS
;	COMDAT ??_C@_05FDLAJJBN@Major?$AA@
CONST	SEGMENT
??_C@_05FDLAJJBN@Major?$AA@ DB 'Major', 00H		; `string'
CONST	ENDS
;	COMDAT ??_C@_05FEBMJMCL@major?$AA@
CONST	SEGMENT
??_C@_05FEBMJMCL@major?$AA@ DB 'major', 00H		; `string'
CONST	ENDS
;	COMDAT ??_C@_05OMKCEFIL@Minor?$AA@
CONST	SEGMENT
??_C@_05OMKCEFIL@Minor?$AA@ DB 'Minor', 00H		; `string'
CONST	ENDS
;	COMDAT ??_C@_05OLAOEALN@minor?$AA@
CONST	SEGMENT
??_C@_05OLAOEALN@minor?$AA@ DB 'minor', 00H		; `string'
CONST	ENDS
;	COMDAT ??_C@_06LHOIAAEI@HMinor?$AA@
CONST	SEGMENT
??_C@_06LHOIAAEI@HMinor?$AA@ DB 'HMinor', 00H		; `string'
CONST	ENDS
;	COMDAT ??_C@_06HPPJDMOC@hminor?$AA@
CONST	SEGMENT
??_C@_06HPPJDMOC@hminor?$AA@ DB 'hminor', 00H		; `string'
CONST	ENDS
;	COMDAT ??_C@_06OFNACPOP@MMinor?$AA@
CONST	SEGMENT
??_C@_06OFNACPOP@MMinor?$AA@ DB 'MMinor', 00H		; `string'
CONST	ENDS
;	COMDAT ??_C@_06CNMBBDEF@mminor?$AA@
CONST	SEGMENT
??_C@_06CNMBBDEF@mminor?$AA@ DB 'mminor', 00H		; `string'
CONST	ENDS
;	COMDAT ??_C@_01KNKLHLMO@K?$AA@
CONST	SEGMENT
??_C@_01KNKLHLMO@K?$AA@ DB 'K', 00H			; `string'
CONST	ENDS
;	COMDAT ??_C@_02CINKIGEJ@?$JC?$LC?$AA@
CONST	SEGMENT
??_C@_02CINKIGEJ@?$JC?$LC?$AA@ DB 092H, 0b2H, 00H	; `string'
CONST	ENDS
;	COMDAT ??_C@_02EFPODJMF@?$FL?3?$AA@
CONST	SEGMENT
??_C@_02EFPODJMF@?$FL?3?$AA@ DB '[:', 00H		; `string'
CONST	ENDS
;	COMDAT ??_C@_02CGFHGFLC@?3?$FN?$AA@
CONST	SEGMENT
??_C@_02CGFHGFLC@?3?$FN?$AA@ DB ':]', 00H		; `string'
CONST	ENDS
;	COMDAT ??_C@_02HIPMGJKA@?$HM?3?$AA@
CONST	SEGMENT
??_C@_02HIPMGJKA@?$HM?3?$AA@ DB '|:', 00H		; `string'
CONST	ENDS
;	COMDAT ??_C@_02KKMIHAFB@?3?$HM?$AA@
CONST	SEGMENT
??_C@_02KKMIHAFB@?3?$HM?$AA@ DB ':|', 00H		; `string'
CONST	ENDS
;	COMDAT ??_C@_01OHGJGJJP@?$FL?$AA@
CONST	SEGMENT
??_C@_01OHGJGJJP@?$FL?$AA@ DB '[', 00H			; `string'
CONST	ENDS
;	COMDAT ??_C@_01LBDDMOBJ@?$FN?$AA@
CONST	SEGMENT
??_C@_01LBDDMOBJ@?$FN?$AA@ DB ']', 00H			; `string'
CONST	ENDS
;	COMDAT ??_C@_02JEILFJNG@?$IB?$IH?$AA@
CONST	SEGMENT
??_C@_02JEILFJNG@?$IB?$IH?$AA@ DB 081H, 087H, 00H	; `string'
CONST	ENDS
;	COMDAT ??_C@_04GCKADHHM@?$IBb?$IBF?$AA@
CONST	SEGMENT
??_C@_04GCKADHHM@?$IBb?$IBF?$AA@ DB 081H, 'b', 081H, 'F', 00H ; `string'
CONST	ENDS
;	COMDAT ??_C@_02FMFCNDNO@?$IB?$IP?$AA@
CONST	SEGMENT
??_C@_02FMFCNDNO@?$IB?$IP?$AA@ DB 081H, 08fH, 00H	; `string'
CONST	ENDS
;	COMDAT ??_C@_02NNGKBGMB@?$IB_?$AA@
CONST	SEGMENT
??_C@_02NNGKBGMB@?$IB_?$AA@ DB 081H, '_', 00H		; `string'
CONST	ENDS
;	COMDAT ??_C@_04LMBIOOLD@?$IBF?$IBb?$AA@
CONST	SEGMENT
??_C@_04LMBIOOLD@?$IBF?$IBb?$AA@ DB 081H, 'F', 081H, 'b', 00H ; `string'
CONST	ENDS
;	COMDAT ??_C@_02BOLEJFOF@?$IBy?$AA@
CONST	SEGMENT
??_C@_02BOLEJFOF@?$IBy?$AA@ DB 081H, 'y', 00H		; `string'
CONST	ENDS
;	COMDAT ??_C@_02EGGKLPNJ@?$IBF?$AA@
CONST	SEGMENT
??_C@_02EGGKLPNJ@?$IBF?$AA@ DB 081H, 'F', 00H		; `string'
CONST	ENDS
;	COMDAT ??_C@_02DFJJMGCG@?$IBz?$AA@
CONST	SEGMENT
??_C@_02DFJJMGCG@?$IBz?$AA@ DB 081H, 'z', 00H		; `string'
CONST	ENDS
;	COMDAT ??_C@_02GOGFKHPK@t_?$AA@
CONST	SEGMENT
??_C@_02GOGFKHPK@t_?$AA@ DB 't_', 00H			; `string'
CONST	ENDS
;	COMDAT ??_C@_01PFHFFBPC@t?$AA@
CONST	SEGMENT
??_C@_01PFHFFBPC@t?$AA@ DB 't', 00H			; `string'
CONST	ENDS
;	COMDAT ??_C@_06LKBOFJCM@?$IDe?$ID?$JD?$ID?$HM?$AA@
CONST	SEGMENT
??_C@_06LKBOFJCM@?$IDe?$ID?$JD?$ID?$HM?$AA@ DB 083H, 'e', 083H, 093H, 083H
	DB	'|', 00H					; `string'
CONST	ENDS
;	COMDAT ??_C@_02IGJHGBLL@?$IB?$KI?$AA@
CONST	SEGMENT
??_C@_02IGJHGBLL@?$IB?$KI?$AA@ DB 081H, 0a8H, 00H	; `string'
CONST	ENDS
;	COMDAT ??_C@_02JPIMFAPK@?$IB?$KJ?$AA@
CONST	SEGMENT
??_C@_02JPIMFAPK@?$IB?$KJ?$AA@ DB 081H, 0a9H, 00H	; `string'
CONST	ENDS
;	COMDAT ??_C@_01NOFIACDB@w?$AA@
CONST	SEGMENT
??_C@_01NOFIACDB@w?$AA@ DB 'w', 00H			; `string'
CONST	ENDS
;	COMDAT ??_C@_01JKBOJNNK@?$FO?$AA@
CONST	SEGMENT
??_C@_01JKBOJNNK@?$FO?$AA@ DB '^', 00H			; `string'
CONST	ENDS
;	COMDAT ??_C@_02LJAGNDMF@?$IB?$FL?$AA@
CONST	SEGMENT
??_C@_02LJAGNDMF@?$IB?$FL?$AA@ DB 081H, '[', 00H	; `string'
CONST	ENDS
;	COMDAT ??_C@_04EBGGPMEF@?$IJ?$LJ?$JF?$IE?$AA@
CONST	SEGMENT
??_C@_04EBGGPMEF@?$IJ?$LJ?$JF?$IE?$AA@ DB 089H, 0b9H, 095H, 084H, 00H ; `string'
CONST	ENDS
;	COMDAT ??_C@_01BNIGIBBF@Q?$AA@
CONST	SEGMENT
??_C@_01BNIGIBBF@Q?$AA@ DB 'Q', 00H			; `string'
CONST	ENDS
;	COMDAT ??_C@_06EFPKECIE@?$IDQ?$IB?$FL?$IDg?$AA@
CONST	SEGMENT
??_C@_06EFPKECIE@?$IDQ?$IB?$FL?$IDg?$AA@ DB 083H, 'Q', 081H, '[', 083H, 'g'
	DB	00H						; `string'
CONST	ENDS
;	COMDAT ??_C@_03EOHNIDBB@ECc?$AA@
CONST	SEGMENT
??_C@_03EOHNIDBB@ECc?$AA@ DB 'ECc', 00H			; `string'
CONST	ENDS
;	COMDAT ??_C@_03BDMBFNG@ECd?$AA@
CONST	SEGMENT
??_C@_03BDMBFNG@ECd?$AA@ DB 'ECd', 00H			; `string'
CONST	ENDS
;	COMDAT ??_C@_03BICHCEJH@ECe?$AA@
CONST	SEGMENT
??_C@_03BICHCEJH@ECe?$AA@ DB 'ECe', 00H			; `string'
CONST	ENDS
;	COMDAT ??_C@_03DDAKHHFE@ECf?$AA@
CONST	SEGMENT
??_C@_03DDAKHHFE@ECf?$AA@ DB 'ECf', 00H			; `string'
CONST	ENDS
;	COMDAT ??_C@_03CKBBEGBF@ECg?$AA@
CONST	SEGMENT
??_C@_03CKBBEGBF@ECg?$AA@ DB 'ECg', 00H			; `string'
CONST	ENDS
;	COMDAT ??_C@_03HMELOBJD@ECa?$AA@
CONST	SEGMENT
??_C@_03HMELOBJD@ECa?$AA@ DB 'ECa', 00H			; `string'
CONST	ENDS
;	COMDAT ??_C@_03FHGGLCFA@ECb?$AA@
CONST	SEGMENT
??_C@_03FHGGLCFA@ECb?$AA@ DB 'ECb', 00H			; `string'
CONST	ENDS
;	COMDAT ??_C@_03BNKEKAAB@ECr?$AA@
CONST	SEGMENT
??_C@_03BNKEKAAB@ECr?$AA@ DB 'ECr', 00H			; `string'
CONST	ENDS
;	COMDAT ??_C@_03CAIHOBJK@EC?9?$AA@
CONST	SEGMENT
??_C@_03CAIHOBJK@EC?9?$AA@ DB 'EC-', 00H		; `string'
CONST	ENDS
;	COMDAT ??_C@_03GPMGHHFN@EC?$CK?$AA@
CONST	SEGMENT
??_C@_03GPMGHHFN@EC?$CK?$AA@ DB 'EC*', 00H		; `string'
CONST	ENDS
;	COMDAT ??_C@_02KNLLHFAA@EC?$AA@
CONST	SEGMENT
??_C@_02KNLLHFAA@EC?$AA@ DB 'EC', 00H			; `string'
CONST	ENDS
;	COMDAT ??_C@_0L@LOJEBEMJ@?$IDG?$IDR?$IB?$FL?$IDI?$IDt?$AA@
CONST	SEGMENT
??_C@_0L@LOJEBEMJ@?$IDG?$IDR?$IB?$FL?$IDI?$IDt?$AA@ DB 083H, 'G', 083H, 'R'
	DB	081H, '[', 083H, 'I', 083H, 't', 00H		; `string'
CONST	ENDS
;	COMDAT ??_C@_06OHMKBCHJ@?$IDG?$IDR?$IB?$FL?$AA@
CONST	SEGMENT
??_C@_06OHMKBCHJ@?$IDG?$IDR?$IB?$FL?$AA@ DB 083H, 'G', 083H, 'R', 081H, '['
	DB	00H						; `string'
CONST	ENDS
;	COMDAT ??_C@_01LELAEKIP@J?$AA@
CONST	SEGMENT
??_C@_01LELAEKIP@J?$AA@ DB 'J', 00H			; `string'
CONST	ENDS
;	COMDAT ??_C@_01CBDEGOCN@j?$AA@
CONST	SEGMENT
??_C@_01CBDEGOCN@j?$AA@ DB 'j', 00H			; `string'
CONST	ENDS
;	COMDAT ??_C@_0BB@KNFILCDL@?$IDG?$ID?$JD?$IDx?$ID?$IN?$IB?$FL?$IDv?$IDI?$IDt?$AA@
CONST	SEGMENT
??_C@_0BB@KNFILCDL@?$IDG?$ID?$JD?$IDx?$ID?$IN?$IB?$FL?$IDv?$IDI?$IDt?$AA@ DB 083H
	DB	'G', 083H, 093H, 083H, 'x', 083H, 08dH, 081H, '[', 083H, 'v', 083H
	DB	'I', 083H, 't', 00H				; `string'
CONST	ENDS
;	COMDAT ??_C@_0P@EEJKCPJF@?$IDr?$IDu?$ID?$IJ?$IB?$FL?$IDg?$IDI?$IDt?$AA@
CONST	SEGMENT
??_C@_0P@EEJKCPJF@?$IDr?$IDu?$ID?$IJ?$IB?$FL?$IDg?$IDI?$IDt?$AA@ DB 083H, 'r'
	DB	083H, 'u', 083H, 089H, 081H, '[', 083H, 'g', 083H, 'I', 083H, 't'
	DB	00H						; `string'
CONST	ENDS
;	COMDAT ??_C@_02LPNFMJNJ@Rm?$AA@
CONST	SEGMENT
??_C@_02LPNFMJNJ@Rm?$AA@ DB 'Rm', 00H			; `string'
CONST	ENDS
;	COMDAT ??_C@_02JPPPJDDG@R?$EA?$AA@
CONST	SEGMENT
??_C@_02JPPPJDDG@R?$EA?$AA@ DB 'R@', 00H		; `string'
CONST	ENDS
;	COMDAT ??_C@_02BGODACED@Rv?$AA@
CONST	SEGMENT
??_C@_02BGODACED@Rv?$AA@ DB 'Rv', 00H			; `string'
CONST	ENDS
;	COMDAT ??_C@_03EGHIJKEG@?$EAP?$CK?$AA@
CONST	SEGMENT
??_C@_03EGHIJKEG@?$EAP?$CK?$AA@ DB '@P*', 00H		; `string'
CONST	ENDS
;	COMDAT ??_C@_02MKJPPGHJ@?$EAP?$AA@
CONST	SEGMENT
??_C@_02MKJPPGHJ@?$EAP?$AA@ DB '@P', 00H		; `string'
CONST	ENDS
;	COMDAT ??_C@_03OKOMJFGK@?$EAFC?$AA@
CONST	SEGMENT
??_C@_03OKOMJFGK@?$EAFC?$AA@ DB '@FC', 00H		; `string'
CONST	ENDS
;	COMDAT ??_C@_03JHJLGBCP@?$EAFF?$AA@
CONST	SEGMENT
??_C@_03JHJLGBCP@?$EAFF?$AA@ DB '@FF', 00H		; `string'
CONST	ENDS
;	COMDAT ??_C@_03NNFJHDHO@?$EAFV?$AA@
CONST	SEGMENT
??_C@_03NNFJHDHO@?$EAFV?$AA@ DB '@FV', 00H		; `string'
CONST	ENDS
;	COMDAT ??_C@_02JMMFFBPP@?$EAV?$AA@
CONST	SEGMENT
??_C@_02JMMFFBPP@?$EAV?$AA@ DB '@V', 00H		; `string'
CONST	ENDS
;	COMDAT ??_C@_03GDGHNIBN@?$EANL?$AA@
CONST	SEGMENT
??_C@_03GDGHNIBN@?$EANL?$AA@ DB '@NL', 00H		; `string'
CONST	ENDS
;	COMDAT ??_C@_04LOGBILGC@?$IJ?$LJ?$JAF?$AA@
CONST	SEGMENT
??_C@_04LOGBILGC@?$IJ?$LJ?$JAF?$AA@ DB 089H, 0b9H, 090H, 'F', 00H ; `string'
CONST	ENDS
;	COMDAT ??_C@_02KBOOJKOB@NC?$AA@
CONST	SEGMENT
??_C@_02KBOOJKOB@NC?$AA@ DB 'NC', 00H			; `string'
CONST	ENDS
;	COMDAT ??_C@_01BIAFAFID@F?$AA@
CONST	SEGMENT
??_C@_01BIAFAFID@F?$AA@ DB 'F', 00H			; `string'
CONST	ENDS
;	COMDAT ??_C@_01FMEDJKGI@o?$AA@
CONST	SEGMENT
??_C@_01FMEDJKGI@o?$AA@ DB 'o', 00H			; `string'
CONST	ENDS
;	COMDAT ??_C@_04BKHONDIJ@?$IJ?$LJ?$IKK?$AA@
CONST	SEGMENT
??_C@_04BKHONDIJ@?$IJ?$LJ?$IKK?$AA@ DB 089H, 0b9H, 08aH, 'K', 00H ; `string'
CONST	ENDS
;	COMDAT ??_C@_01PPODPGHN@?$DO?$AA@
CONST	SEGMENT
??_C@_01PPODPGHN@?$DO?$AA@ DB '>', 00H			; `string'
CONST	ENDS
;	COMDAT ??_C@_02JPIENKHP@?$IP?c?$AA@
CONST	SEGMENT
??_C@_02JPIENKHP@?$IP?c?$AA@ DB 08fH, 0e3H, 00H		; `string'
CONST	ENDS
;	COMDAT ??_C@_02LEKBADDJ@?$IB?$KK?$AA@
CONST	SEGMENT
??_C@_02LEKBADDJ@?$IB?$KK?$AA@ DB 081H, 0aaH, 00H	; `string'
CONST	ENDS
;	COMDAT ??_C@_01MNNFJEPP@?$DM?$AA@
CONST	SEGMENT
??_C@_01MNNFJEPP@?$DM?$AA@ DB '<', 00H			; `string'
CONST	ENDS
;	COMDAT ??_C@_02PAHAEANA@?$IJ?$LK?$AA@
CONST	SEGMENT
??_C@_02PAHAEANA@?$IJ?$LK?$AA@ DB 089H, 0baH, 00H	; `string'
CONST	ENDS
;	COMDAT ??_C@_02KNLKDCHI@?$IB?$KL?$AA@
CONST	SEGMENT
??_C@_02KNLKDCHI@?$IB?$KL?$AA@ DB 081H, 0abH, 00H	; `string'
CONST	ENDS
;	COMDAT ??_C@_01NLNLIGKH@?$GA?$AA@
CONST	SEGMENT
??_C@_01NLNLIGKH@?$GA?$AA@ DB '`', 00H			; `string'
CONST	ENDS
;	COMDAT ??_C@_02PIMDMILI@?$IBe?$AA@
CONST	SEGMENT
??_C@_02PIMDMILI@?$IBe?$AA@ DB 081H, 'e', 00H		; `string'
CONST	ENDS
;	COMDAT ??_C@_01BJJEKLCA@?$CC?$AA@
CONST	SEGMENT
??_C@_01BJJEKLCA@?$CC?$AA@ DB '"', 00H			; `string'
CONST	ENDS
;	COMDAT ??_C@_02ENGNLGPF@?$IBh?$AA@
CONST	SEGMENT
??_C@_02ENGNLGPF@?$IBh?$AA@ DB 081H, 'h', 00H		; `string'
CONST	ENDS
;	COMDAT ??_C@_03MJGICKBJ@D?$CF_?$AA@
CONST	SEGMENT
??_C@_03MJGICKBJ@D?$CF_?$AA@ DB 'D%_', 00H		; `string'
CONST	ENDS
;	COMDAT ??_C@_02JPNONDBG@D?$CF?$AA@
CONST	SEGMENT
??_C@_02JPNONDBG@D?$CF?$AA@ DB 'D%', 00H		; `string'
CONST	ENDS
;	COMDAT ??_C@_02EKAOECGK@D_?$AA@
CONST	SEGMENT
??_C@_02EKAOECGK@D_?$AA@ DB 'D_', 00H			; `string'
CONST	ENDS
;	COMDAT ??_C@_0N@PCNDJPL@?$IDf?$IDB?$ID?$GA?$ID?$IF?$IB?$FL?$ID?$JD?$AA@
CONST	SEGMENT
??_C@_0N@PCNDJPL@?$IDf?$IDB?$ID?$GA?$ID?$IF?$IB?$FL?$ID?$JD?$AA@ DB 083H, 'f'
	DB	083H, 'B', 083H, '`', 083H, 085H, 081H, '[', 083H, 093H, 00H ; `string'
CONST	ENDS
;	COMDAT ??_C@_02FKHNAOPL@__?$AA@
CONST	SEGMENT
??_C@_02FKHNAOPL@__?$AA@ DB '__', 00H			; `string'
CONST	ENDS
;	COMDAT ??_C@_02HJBPEDLH@k_?$AA@
CONST	SEGMENT
??_C@_02HJBPEDLH@k_?$AA@ DB 'k_', 00H			; `string'
CONST	ENDS
;	COMDAT ??_C@_01DICPFPGM@k?$AA@
CONST	SEGMENT
??_C@_01DICPFPGM@k?$AA@ DB 'k', 00H			; `string'
CONST	ENDS
;	COMDAT ??_C@_08GJIKAFHH@TrackKey?$AA@
CONST	SEGMENT
??_C@_08GJIKAFHH@TrackKey?$AA@ DB 'TrackKey', 00H	; `string'
CONST	ENDS
;	COMDAT ??_C@_0N@NPJHKLGE@?$ID?$HM?$ID?$IL?$ID?$FO?$ID?$IB?$ID?$JD?$IDg?$AA@
CONST	SEGMENT
??_C@_0N@NPJHKLGE@?$ID?$HM?$ID?$IL?$ID?$FO?$ID?$IB?$ID?$JD?$IDg?$AA@ DB 083H
	DB	'|', 083H, 08bH, 083H, '^', 083H, 081H, 083H, 093H, 083H, 'g', 00H ; `string'
CONST	ENDS
;	COMDAT ??_C@_01MHEDDDHA@v?$AA@
CONST	SEGMENT
??_C@_01MHEDDDHA@v?$AA@ DB 'v', 00H			; `string'
CONST	ENDS
;	COMDAT ??_C@_04CMBIEKKA@?$IJ?$LJ?$JH?J?$AA@
CONST	SEGMENT
??_C@_04CMBIEKKA@?$IJ?$LJ?$JH?J?$AA@ DB 089H, 0b9H, 097H, 0caH, 00H ; `string'
CONST	ENDS
;	COMDAT ??_C@_01PKGAHCOL@?$CJ?$AA@
CONST	SEGMENT
??_C@_01PKGAHCOL@?$CJ?$AA@ DB ')', 00H			; `string'
CONST	ENDS
;	COMDAT ??_C@_06MFPBKHIE@?$JB?e?$IC?$KL?$IC?$KN?$AA@
CONST	SEGMENT
??_C@_06MFPBKHIE@?$JB?e?$IC?$KL?$IC?$KN?$AA@ DB 091H, 0e5H, 082H, 0abH, 082H
	DB	0adH, 00H					; `string'
CONST	ENDS
;	COMDAT ??_C@_02NPGGPDID@?$JB?e?$AA@
CONST	SEGMENT
??_C@_02NPGGPDID@?$JB?e?$AA@ DB 091H, 0e5H, 00H		; `string'
CONST	ENDS
;	COMDAT ??_C@_06EPOKGEMD@?$IP?$KM?$IC?$LD?$IC?$KN?$AA@
CONST	SEGMENT
??_C@_06EPOKGEMD@?$IP?$KM?$IC?$LD?$IC?$KN?$AA@ DB 08fH, 0acH, 082H, 0b3H, 082H
	DB	0adH, 00H					; `string'
CONST	ENDS
;	COMDAT ??_C@_02OIGFIJLF@?$IP?$KM?$AA@
CONST	SEGMENT
??_C@_02OIGFIJLF@?$IP?$KM?$AA@ DB 08fH, 0acH, 00H	; `string'
CONST	ENDS
;	COMDAT ??_C@_02LHHPIPOA@yV?$AA@
CONST	SEGMENT
??_C@_02LHHPIPOA@yV?$AA@ DB 'yV', 00H			; `string'
CONST	ENDS
;	COMDAT ??_C@_01EANLCPLP@y?$AA@
CONST	SEGMENT
??_C@_01EANLCPLP@y?$AA@ DB 'y', 00H			; `string'
CONST	ENDS
;	COMDAT ?Command@?1???0TrackSet@@QAE@PAVMMLfile@@I_N1QBG@Z@4QBUCommand_Info@@B
CONST	SEGMENT
?Command@?1???0TrackSet@@QAE@PAVMMLfile@@I_N1QBG@Z@4QBUCommand_Info@@B DD FLAT:??_C@_02ODIGJPFH@TR?$AA@ ; `TrackSet::TrackSet'::`2'::Command
	DD	00H
	DD	FLAT:??_C@_08PGKBPJJO@?$IDg?$ID?$IJ?$IDb?$IDN?$AA@
	DD	00H
	DD	FLAT:??_C@_05MAGIBEFI@Scale?$AA@
	DD	01H
	DD	FLAT:??_C@_05MHMEBBGO@scale?$AA@
	DD	01H
	DD	FLAT:??_C@_04KNKPIPFB@Mode?$AA@
	DD	01H
	DD	FLAT:??_C@_04GMGOKAFF@mode?$AA@
	DD	01H
	DD	FLAT:??_C@_05FDLAJJBN@Major?$AA@
	DD	02H
	DD	FLAT:??_C@_05FEBMJMCL@major?$AA@
	DD	02H
	DD	FLAT:??_C@_05OMKCEFIL@Minor?$AA@
	DD	03H
	DD	FLAT:??_C@_05OLAOEALN@minor?$AA@
	DD	03H
	DD	FLAT:??_C@_06LHOIAAEI@HMinor?$AA@
	DD	04H
	DD	FLAT:??_C@_06HPPJDMOC@hminor?$AA@
	DD	04H
	DD	FLAT:??_C@_06OFNACPOP@MMinor?$AA@
	DD	05H
	DD	FLAT:??_C@_06CNMBBDEF@mminor?$AA@
	DD	05H
	DD	FLAT:??_C@_01KNKLHLMO@K?$AA@
	DD	06H
	DD	FLAT:??_C@_02CINKIGEJ@?$JC?$LC?$AA@
	DD	06H
	DD	FLAT:??_C@_02ODEKANEE@SE?$AA@
	DD	09H
	DD	FLAT:??_C@_01CPLAODJH@S?$AA@
	DD	0aH
	DD	FLAT:??_C@_02MOBCCJHH@$$?$AA@
	DD	08H
	DD	FLAT:??_C@_01EPMOAMKG@$?$AA@
	DD	07H
	DD	FLAT:??_C@_01OCOKONAJ@L?$AA@
	DD	0bH
	DD	FLAT:??_C@_02EFPODJMF@?$FL?3?$AA@
	DD	012H
	DD	FLAT:??_C@_02CGFHGFLC@?3?$FN?$AA@
	DD	013H
	DD	FLAT:??_C@_02HIPMGJKA@?$HM?3?$AA@
	DD	0fH
	DD	FLAT:?RS_UTF8@?1???0TrackSet@@QAE@PAVMMLfile@@I_N1QBG@Z@4QBEB
	DD	010H
	DD	FLAT:?Yen_UTF8@?1???0TrackSet@@QAE@PAVMMLfile@@I_N1QBG@Z@4QBEB
	DD	010H
	DD	FLAT:?RS_UTF8W@?1???0TrackSet@@QAE@PAVMMLfile@@I_N1QBG@Z@4QBEB
	DD	010H
	DD	FLAT:?Yen_UTF8W@?1???0TrackSet@@QAE@PAVMMLfile@@I_N1QBG@Z@4QBEB
	DD	010H
	DD	FLAT:??_C@_02KKMIHAFB@?3?$HM?$AA@
	DD	011H
	DD	FLAT:??_C@_01OHGJGJJP@?$FL?$AA@
	DD	0cH
	DD	FLAT:??_C@_01JLIPDDHJ@?3?$AA@
	DD	0dH
	DD	FLAT:??_C@_01LBDDMOBJ@?$FN?$AA@
	DD	0eH
	DD	FLAT:??_C@_02JEILFJNG@?$IB?$IH?$AA@
	DD	0bH
	DD	FLAT:??_C@_04GCKADHHM@?$IBb?$IBF?$AA@
	DD	0fH
	DD	FLAT:??_C@_02FMFCNDNO@?$IB?$IP?$AA@
	DD	010H
	DD	FLAT:??_C@_02NNGKBGMB@?$IB_?$AA@
	DD	010H
	DD	FLAT:??_C@_04LMBIOOLD@?$IBF?$IBb?$AA@
	DD	011H
	DD	FLAT:??_C@_02BOLEJFOF@?$IBy?$AA@
	DD	0cH
	DD	FLAT:??_C@_02EGGKLPNJ@?$IBF?$AA@
	DD	0dH
	DD	FLAT:??_C@_02DFJJMGCG@?$IBz?$AA@
	DD	0eH
	DD	FLAT:??_C@_02GOGFKHPK@t_?$AA@
	DD	015H
	DD	FLAT:??_C@_01PFHFFBPC@t?$AA@
	DD	014H
	DD	FLAT:??_C@_06LKBOFJCM@?$IDe?$ID?$JD?$ID?$HM?$AA@
	DD	014H
	DD	FLAT:??_C@_02IGJHGBLL@?$IB?$KI?$AA@
	DD	016H
	DD	FLAT:??_C@_02JPIMFAPK@?$IB?$KJ?$AA@
	DD	017H
	DD	FLAT:??_C@_01MCMALHOG@a?$AA@
	DD	018H
	DD	FLAT:??_C@_01OJONOECF@b?$AA@
	DD	019H
	DD	FLAT:??_C@_01PAPGNFGE@c?$AA@
	DD	01aH
	DD	FLAT:??_C@_01LPLHEDKD@d?$AA@
	DD	01bH
	DD	FLAT:??_C@_01KGKMHCOC@e?$AA@
	DD	01cH
	DD	FLAT:??_C@_01INIBCBCB@f?$AA@
	DD	01dH
	DD	FLAT:??_C@_01JEJKBAGA@g?$AA@
	DD	01eH
	DD	FLAT:??_C@_01KDCPPGHE@r?$AA@
	DD	01fH
	DD	FLAT:??_C@_01NOFIACDB@w?$AA@
	DD	020H
	DD	FLAT:??_C@_01JKBOJNNK@?$FO?$AA@
	DD	021H
	DD	FLAT:??_C@_02PDDAIMCI@?$IC?g?$AA@
	DD	018H
	DD	FLAT:??_C@_02HLLNLDPO@?$IC?$LF?$AA@
	DD	019H
	DD	FLAT:??_C@_02GGLEKIIK@?$IC?G?$AA@
	DD	01aH
	DD	FLAT:??_C@_02EGJOPCGF@?$IC?j?$AA@
	DD	01bH
	DD	FLAT:??_C@_02NGJJFCFB@?$IC?$NN?$AA@
	DD	01cH
	DD	FLAT:??_C@_04NCHCKEFM@?$IC?S?$IC?$JP?$AA@
	DD	01dH
	DD	FLAT:??_C@_02EIBKHPNP@?$IC?S?$AA@
	DD	01dH
	DD	FLAT:??_C@_02OFDOJOHA@?$IC?$LL?$AA@
	DD	01eH
	DD	FLAT:??_C@_02OPKIDJPP@?$IC?q?$AA@
	DD	01fH
	DD	FLAT:??_C@_02DAOOAPAM@?$IC?A?$AA@
	DD	01fH
	DD	FLAT:??_C@_02LJAGNDMF@?$IB?$FL?$AA@
	DD	021H
	DD	FLAT:??_C@_02JIMKADG@?$ID?$IJ?$AA@
	DD	018H
	DD	FLAT:??_C@_02PCMHJOG@?$IDV?$AA@
	DD	019H
	DD	FLAT:??_C@_02EOOJGCJL@?$IDh?$AA@
	DD	01aH
	DD	FLAT:??_C@_02HEPLFEHD@?$ID?$IM?$AA@
	DD	01bH
	DD	FLAT:??_C@_02FCHBNHEM@?$ID?$HO?$AA@
	DD	01cH
	DD	FLAT:??_C@_04DIMMBPLH@?$IDt?$ID?$EA?$AA@
	DD	01dH
	DD	FLAT:??_C@_02KIJODPMG@?$IDt?$AA@
	DD	01dH
	DD	FLAT:??_C@_02PFMDJBGM@?$ID?2?$AA@
	DD	01eH
	DD	FLAT:??_C@_02LJKBFKON@?$ID?$JD?$AA@
	DD	01fH
	DD	FLAT:??_C@_02LEAGIKBB@?$IDb?$AA@
	DD	01fH
	DD	FLAT:??_C@_02GDMDGBKA@?$IB?$HM?$AA@
	DD	021H
	DD	FLAT:??_C@_02DIJJJPPC@?$IDC?$AA@
	DD	018H
	DD	FLAT:??_C@_02GNOAGFDC@?$ID?$IN?$AA@
	DD	019H
	DD	FLAT:??_C@_02BILDMFBN@?$IDn?$AA@
	DD	01aH
	DD	FLAT:??_C@_02HMNPAABJ@?$IDj?$AA@
	DD	01bH
	DD	FLAT:??_C@_02DGBNBCEI@?$IDz?$AA@
	DD	01cH
	DD	FLAT:??_C@_02IDLDGMAF@?$IDw?$AA@
	DD	01dH
	DD	FLAT:??_C@_02MJHBHOFE@?$IDg?$AA@
	DD	01eH
	DD	FLAT:??_C@_01HHGOMJKL@l?$AA@
	DD	022H
	DD	FLAT:??_C@_04EBGGPMEF@?$IJ?$LJ?$JF?$IE?$AA@
	DD	022H
	DD	FLAT:??_C@_01BNIGIBBF@Q?$AA@
	DD	023H
	DD	FLAT:??_C@_01IIACKFLH@q?$AA@
	DD	024H
	DD	FLAT:??_C@_06EFPKECIE@?$IDQ?$IB?$FL?$IDg?$AA@
	DD	024H
	DD	FLAT:??_C@_01OMGOGALD@u?$AA@
	DD	025H
	DD	FLAT:??_C@_03EOHNIDBB@ECc?$AA@
	DD	029H
	DD	FLAT:??_C@_03BDMBFNG@ECd?$AA@
	DD	02aH
	DD	FLAT:??_C@_03BICHCEJH@ECe?$AA@
	DD	02bH
	DD	FLAT:??_C@_03DDAKHHFE@ECf?$AA@
	DD	02cH
	DD	FLAT:??_C@_03CKBBEGBF@ECg?$AA@
	DD	02dH
	DD	FLAT:??_C@_03HMELOBJD@ECa?$AA@
	DD	02eH
	DD	FLAT:??_C@_03FHGGLCFA@ECb?$AA@
	DD	02fH
	DD	FLAT:??_C@_03BNKEKAAB@ECr?$AA@
	DD	030H
	DD	FLAT:??_C@_03CAIHOBJK@EC?9?$AA@
	DD	028H
	DD	FLAT:??_C@_03GPMGHHFN@EC?$CK?$AA@
	DD	027H
	DD	FLAT:??_C@_02KNLLHFAA@EC?$AA@
	DD	026H
	DD	FLAT:??_C@_0L@LOJEBEMJ@?$IDG?$IDR?$IB?$FL?$IDI?$IDt?$AA@
	DD	027H
	DD	FLAT:??_C@_06OHMKBCHJ@?$IDG?$IDR?$IB?$FL?$AA@
	DD	026H
	DD	FLAT:??_C@_01LELAEKIP@J?$AA@
	DD	031H
	DD	FLAT:??_C@_01CBDEGOCN@j?$AA@
	DD	032H
	DD	FLAT:??_C@_03GNIAMJAE@E?$EA?$CK?$AA@
	DD	037H
	DD	FLAT:??_C@_03ENGGFACG@Ev?$CK?$AA@
	DD	038H
	DD	FLAT:??_C@_03FNBFBMLH@Em?$CK?$AA@
	DD	039H
	DD	FLAT:??_C@_03FPFDKCOO@En?$CK?$AA@
	DD	03aH
	DD	FLAT:??_C@_02IGJGCGMD@E?$EA?$AA@
	DD	033H
	DD	FLAT:??_C@_02PIKLHLG@Ev?$AA@
	DD	034H
	DD	FLAT:??_C@_02KGLMHMCM@Em?$AA@
	DD	035H
	DD	FLAT:??_C@_02INJBCPOP@En?$AA@
	DD	036H
	DD	FLAT:??_C@_0BB@KNFILCDL@?$IDG?$ID?$JD?$IDx?$ID?$IN?$IB?$FL?$IDv?$IDI?$IDt?$AA@
	DD	038H
	DD	FLAT:??_C@_0N@FMGOOFEB@?$IDG?$ID?$JD?$IDx?$ID?$IN?$IB?$FL?$IDv?$AA@
	DD	034H
	DD	FLAT:??_C@_0P@EEJKCPJF@?$IDr?$IDu?$ID?$IJ?$IB?$FL?$IDg?$IDI?$IDt?$AA@
	DD	039H
	DD	FLAT:??_C@_0L@OKKLBHBB@?$IDr?$IDu?$ID?$IJ?$IB?$FL?$IDg?$AA@
	DD	035H
	DD	FLAT:??_C@_02LPNFMJNJ@Rm?$AA@
	DD	03dH
	DD	FLAT:??_C@_02JPPPJDDG@R?$EA?$AA@
	DD	03eH
	DD	FLAT:??_C@_02BGODACED@Rv?$AA@
	DD	03fH
	DD	FLAT:??_C@_03EGHIJKEG@?$EAP?$CK?$AA@
	DD	03cH
	DD	FLAT:??_C@_02MKJPPGHJ@?$EAP?$AA@
	DD	03bH
	DD	FLAT:??_C@_03OKOMJFGK@?$EAFC?$AA@
	DD	041H
	DD	FLAT:??_C@_03HEGPLIOE@?$EAFM?$AA@
	DD	042H
	DD	FLAT:??_C@_03JHJLGBCP@?$EAFF?$AA@
	DD	043H
	DD	FLAT:??_C@_03NNFJHDHO@?$EAFV?$AA@
	DD	044H
	DD	FLAT:??_C@_02JMMFFBPP@?$EAV?$AA@
	DD	045H
	DD	FLAT:??_C@_03KODNNGID@?$EANS?$AA@
	DD	047H
	DD	FLAT:??_C@_03GDGHNIBN@?$EANL?$AA@
	DD	048H
	DD	FLAT:??_C@_02BONOMJKG@?$EAN?$AA@
	DD	046H
	DD	FLAT:??_C@_01EOFPKCAF@?$EA?$AA@
	DD	040H
	DD	FLAT:??_C@_04LOGBILGC@?$IJ?$LJ?$JAF?$AA@
	DD	040H
	DD	FLAT:??_C@_02KBOOJKOB@NC?$AA@
	DD	049H
	DD	FLAT:??_C@_01BIAFAFID@F?$AA@
	DD	04aH
	DD	FLAT:??_C@_01FMEDJKGI@o?$AA@
	DD	04bH
	DD	FLAT:??_C@_04BKHONDIJ@?$IJ?$LJ?$IKK?$AA@
	DD	04bH
	DD	FLAT:??_C@_01PPODPGHN@?$DO?$AA@
	DD	04cH
	DD	FLAT:??_C@_02JPIENKHP@?$IP?c?$AA@
	DD	04cH
	DD	FLAT:??_C@_02LEKBADDJ@?$IB?$KK?$AA@
	DD	04cH
	DD	FLAT:??_C@_01MNNFJEPP@?$DM?$AA@
	DD	04dH
	DD	FLAT:??_C@_02PAHAEANA@?$IJ?$LK?$AA@
	DD	04dH
	DD	FLAT:??_C@_02KNLKDCHI@?$IB?$KL?$AA@
	DD	04dH
	DD	FLAT:??_C@_01NLNLIGKH@?$GA?$AA@
	DD	04eH
	DD	FLAT:??_C@_02PIMDMILI@?$IBe?$AA@
	DD	04eH
	DD	FLAT:??_C@_01BJJEKLCA@?$CC?$AA@
	DD	04fH
	DD	FLAT:??_C@_02ENGNLGPF@?$IBh?$AA@
	DD	04fH
	DD	FLAT:??_C@_03MJGICKBJ@D?$CF_?$AA@
	DD	053H
	DD	FLAT:??_C@_02JPNONDBG@D?$CF?$AA@
	DD	052H
	DD	FLAT:??_C@_02EKAOECGK@D_?$AA@
	DD	051H
	DD	FLAT:??_C@_01CKDDGHAB@D?$AA@
	DD	050H
	DD	FLAT:??_C@_0N@PCNDJPL@?$IDf?$IDB?$ID?$GA?$ID?$IF?$IB?$FL?$ID?$JD?$AA@
	DD	050H
	DD	FLAT:??_C@_02FKHNAOPL@__?$AA@
	DD	055H
	DD	FLAT:??_C@_01IDAFKMJL@_?$AA@
	DD	054H
	DD	FLAT:??_C@_02HJBPEDLH@k_?$AA@
	DD	057H
	DD	FLAT:??_C@_01DICPFPGM@k?$AA@
	DD	056H
	DD	FLAT:??_C@_08GJIKAFHH@TrackKey?$AA@
	DD	054H
	DD	FLAT:??_C@_01EJNLAFE@P?$AA@
	DD	058H
	DD	FLAT:??_C@_0N@NPJHKLGE@?$ID?$HM?$ID?$IL?$ID?$FO?$ID?$IB?$ID?$JD?$IDg?$AA@
	DD	058H
	DD	FLAT:??_C@_01HCONENDN@?$HL?$AA@
	DD	059H
	DD	FLAT:??_C@_01LKDEMHDF@s?$AA@
	DD	05aH
	DD	FLAT:??_C@_01MHEDDDHA@v?$AA@
	DD	05bH
	DD	FLAT:??_C@_04CMBIEKKA@?$IJ?$LJ?$JH?J?$AA@
	DD	05bH
	DD	FLAT:??_C@_01PKGAHCOL@?$CJ?$AA@
	DD	05cH
	DD	FLAT:??_C@_06MFPBKHIE@?$JB?e?$IC?$KL?$IC?$KN?$AA@
	DD	05cH
	DD	FLAT:??_C@_02NPGGPDID@?$JB?e?$AA@
	DD	05cH
	DD	FLAT:??_C@_01ODHLEDKK@?$CI?$AA@
	DD	05dH
	DD	FLAT:??_C@_06EPOKGEMD@?$IP?$KM?$IC?$LD?$IC?$KN?$AA@
	DD	05dH
	DD	FLAT:??_C@_02OIGFIJLF@?$IP?$KM?$AA@
	DD	05dH
	DD	FLAT:??_C@_02LHHPIPOA@yV?$AA@
	DD	05eH
	DD	FLAT:??_C@_01EANLCPLP@y?$AA@
	DD	05fH
	DD	FLAT:??_C@_09KLINEFGN@?$CDPriority?$AA@
	DD	060H
	DD	FLAT:??_C@_09CJHMMHMO@?$CDpriority?$AA@
	DD	060H
	DD	FLAT:??_C@_02BADABIFP@?$IB?$EA?$AA@
	DD	061H
	DD	FLAT:??_C@_01DNKMNLPK@?$HM?$AA@
	DD	061H
	DD	FLAT:??_C@_02LHICFOHP@?$IBb?$AA@
	DD	061H
CONST	ENDS
;	COMDAT ??_C@_1DM@LBEIIGCG@?$AAS?$AAu?$AAb0?V0?m0?C0?$KPQ?$IF0g0o0?H0?i0?C0?$KPc?$AH?$FL?$JK0o0g0M0?$HO@
CONST	SEGMENT
??_C@_1DM@LBEIIGCG@?$AAS?$AAu?$AAb0?V0?m0?C0?$KPQ?$IF0g0o0?H0?i0?C0?$KPc?$AH?$FL?$JK0o0g0M0?$HO@ DB 'S'
	DB	00H, 'u', 00H, 'b', 00H, 0d6H, '0', 0edH, '0', 0c3H, '0', 0afH
	DB	'0', 085H, 'Qg0o0', 0c8H, '0', 0e9H, '0', 0c3H, '0', 0afH, '0', 07H
	DB	'c', 09aH, '[o0g0M0~0[0', 093H, '0', 02H, '0!q', 096H, 089H, 'W'
	DB	'0~0Y0', 02H, '0', 00H, 00H			; `string'
CONST	ENDS
;	COMDAT ??_C@_1DK@GCJGKPID@?$AAS?$AAu?$AAb0?V0?m0?C0?$KPQ?$IF0g0oq?$CB?$JGP0?k0?$PM0?W0o0g0M0?$HO0?$FL@
CONST	SEGMENT
??_C@_1DK@GCJGKPID@?$AAS?$AAu?$AAb0?V0?m0?C0?$KPQ?$IF0g0oq?$CB?$JGP0?k0?$PM0?W0o0g0M0?$HO0?$FL@ DB 'S'
	DB	00H, 'u', 00H, 'b', 00H, 0d6H, '0', 0edH, '0', 0c3H, '0', 0afH
	DB	'0', 085H, 'Qg0o0!qP', 096H, 0ebH, '0', 0fcH, '0', 0d7H, '0o0g'
	DB	'0M0~0[0', 093H, '0', 02H, '0!q', 096H, 089H, 'W0~0Y0', 02H, '0'
	DB	00H, 00H					; `string'
CONST	ENDS
;	COMDAT ??_C@_1BI@IEKIFIDC@?$AAD?$AAe?$AAt?$AAu?$AAn?$AAe?$AA?5?$AAC?$AAe?$AAn?$AAt?$AA?$AA@
CONST	SEGMENT
??_C@_1BI@IEKIFIDC@?$AAD?$AAe?$AAt?$AAu?$AAn?$AAe?$AA?5?$AAC?$AAe?$AAn?$AAt?$AA?$AA@ DB 'D'
	DB	00H, 'e', 00H, 't', 00H, 'u', 00H, 'n', 00H, 'e', 00H, ' ', 00H
	DB	'C', 00H, 'e', 00H, 'n', 00H, 't', 00H, 00H, 00H ; `string'
CONST	ENDS
;	COMDAT ??_C@_1CA@DCDMNGOL@?$AAD?$AAe?$AAr?$AAu?$AAn?$AAe?$AA?5?$AAR?$AAe?$AAg?$AAi?$AAs?$AAt?$AAe?$AAr?$AA?$AA@
CONST	SEGMENT
??_C@_1CA@DCDMNGOL@?$AAD?$AAe?$AAr?$AAu?$AAn?$AAe?$AA?5?$AAR?$AAe?$AAg?$AAi?$AAs?$AAt?$AAe?$AAr?$AA?$AA@ DB 'D'
	DB	00H, 'e', 00H, 'r', 00H, 'u', 00H, 'n', 00H, 'e', 00H, ' ', 00H
	DB	'R', 00H, 'e', 00H, 'g', 00H, 'i', 00H, 's', 00H, 't', 00H, 'e'
	DB	00H, 'r', 00H, 00H, 00H			; `string'
CONST	ENDS
;	COMDAT ??_C@_1CK@JBMEODCM@?$AAR?$AAe?$AAl?$AAa?$AAt?$AAi?$AAv?$AAe?$AA?5?$AAD?$AAe?$AAt?$AAu?$AAn?$AAe?$AA?5?$AAC?$AAe?$AAn?$AAt@
CONST	SEGMENT
??_C@_1CK@JBMEODCM@?$AAR?$AAe?$AAl?$AAa?$AAt?$AAi?$AAv?$AAe?$AA?5?$AAD?$AAe?$AAt?$AAu?$AAn?$AAe?$AA?5?$AAC?$AAe?$AAn?$AAt@ DB 'R'
	DB	00H, 'e', 00H, 'l', 00H, 'a', 00H, 't', 00H, 'i', 00H, 'v', 00H
	DB	'e', 00H, ' ', 00H, 'D', 00H, 'e', 00H, 't', 00H, 'u', 00H, 'n'
	DB	00H, 'e', 00H, ' ', 00H, 'C', 00H, 'e', 00H, 'n', 00H, 't', 00H
	DB	00H, 00H					; `string'
CONST	ENDS
;	COMDAT ??_C@_1DC@KLPFDHDF@?$AAR?$AAe?$AAl?$AAa?$AAt?$AAi?$AAv?$AAe?$AA?5?$AAD?$AAe?$AAt?$AAu?$AAn?$AAe?$AA?5?$AAR?$AAe?$AAg?$AAi@
CONST	SEGMENT
??_C@_1DC@KLPFDHDF@?$AAR?$AAe?$AAl?$AAa?$AAt?$AAi?$AAv?$AAe?$AA?5?$AAD?$AAe?$AAt?$AAu?$AAn?$AAe?$AA?5?$AAR?$AAe?$AAg?$AAi@ DB 'R'
	DB	00H, 'e', 00H, 'l', 00H, 'a', 00H, 't', 00H, 'i', 00H, 'v', 00H
	DB	'e', 00H, ' ', 00H, 'D', 00H, 'e', 00H, 't', 00H, 'u', 00H, 'n'
	DB	00H, 'e', 00H, ' ', 00H, 'R', 00H, 'e', 00H, 'g', 00H, 'i', 00H
	DB	's', 00H, 't', 00H, 'e', 00H, 'r', 00H, 00H, 00H ; `string'
CONST	ENDS
;	COMDAT ??_C@_1DC@NPMHHGKK@y?$PL?$IK?$LP0o?$AA?9?$AA1?$AA2?$AA7?$PP?$FO?$AA1?$AA2?$AA80n?$HL?DV?r0gc?$AH?$FL?$JK0W0f0O@
CONST	SEGMENT
??_C@_1DC@NPMHHGKK@y?$PL?$IK?$LP0o?$AA?9?$AA1?$AA2?$AA7?$PP?$FO?$AA1?$AA2?$AA80n?$HL?DV?r0gc?$AH?$FL?$JK0W0f0O@ DB 0fbH
	DB	'y', 0bfH, 08aH, 'o0-', 00H, '1', 00H, '2', 00H, '7', 00H, '^', 0ffH
	DB	'1', 00H, '2', 00H, '8', 00H, 'n0', 0c4H, '{', 0f2H, 'Vg0', 07H
	DB	'c', 09aH, '[W0f0O0`0U0D0', 02H, '0', 00H, 00H ; `string'
CONST	ENDS
;	COMDAT ??_C@_03PNPKJHCD@?0?5$?$AA@
CONST	SEGMENT
??_C@_03PNPKJHCD@?0?5$?$AA@ DB ', $', 00H		; `string'
CONST	ENDS
;	COMDAT ??_C@_08EAKLHHJG@?7?4word?7$?$AA@
CONST	SEGMENT
??_C@_08EAKLHHJG@?7?4word?7$?$AA@ DB 09H, '.word', 09H, '$', 00H ; `string'
CONST	ENDS
;	COMDAT ??_C@_06KPCEEHJM@Track?5?$AA@
CONST	SEGMENT
??_C@_06KPCEEHJM@Track?5?$AA@ DB 'Track ', 00H		; `string'
CONST	ENDS
;	COMDAT ??_C@_02KCKGHPCA@?$CJ?5?$AA@
CONST	SEGMENT
??_C@_02KCKGHPCA@?$CJ?5?$AA@ DB ') ', 00H		; `string'
CONST	ENDS
;	COMDAT ??_C@_05IFBGHAGD@?$HM?5TR?$CI?$AA@
CONST	SEGMENT
??_C@_05IFBGHAGD@?$HM?5TR?$CI?$AA@ DB '| TR(', 00H	; `string'
CONST	ENDS
;	COMDAT ??_C@_06MFAOKAEB@Loop?5?5?$AA@
CONST	SEGMENT
??_C@_06MFAOKAEB@Loop?5?5?$AA@ DB 'Loop  ', 00H		; `string'
CONST	ENDS
;	COMDAT ??_C@_09CCGPGAKD@?$HM?5no?9loop?$AA@
CONST	SEGMENT
??_C@_09CCGPGAKD@?$HM?5no?9loop?$AA@ DB '| no-loop', 00H ; `string'
CONST	ENDS
;	COMDAT ??_C@_06BHCKJACF@Total?5?$AA@
CONST	SEGMENT
??_C@_06BHCKJACF@Total?5?$AA@ DB 'Total ', 00H		; `string'
CONST	ENDS
;	COMDAT ??_C@_1CI@FKLPJOID@0?$NO0?$KP0?mN?90g0?H0?i0?C0?$KP0nc?$AH?$FL?$JK0o0g0M0?$HO0?$FL0?$JD0?$AC?$AA?$AA@
CONST	SEGMENT
??_C@_1CI@FKLPJOID@0?$NO0?$KP0?mN?90g0?H0?i0?C0?$KP0nc?$AH?$FL?$JK0o0g0M0?$HO0?$FL0?$JD0?$AC?$AA?$AA@ DB 0deH
	DB	'0', 0afH, '0', 0edH, '0-Ng0', 0c8H, '0', 0e9H, '0', 0c3H, '0', 0afH
	DB	'0n0', 07H, 'c', 09aH, '[o0g0M0~0[0', 093H, '0', 02H, '0', 00H
	DB	00H						; `string'
CONST	ENDS
;	COMDAT ??_C@_1CO@IBJONDON@0?H0?i0?C0?$KPujS?w0gc?$AH?$FL?$JK0g0M0?$IL?$HL?DV?r0?$JC?$IN?$IF0H0f0D0?$HO@
CONST	SEGMENT
??_C@_1CO@IBJONDON@0?H0?i0?C0?$KPujS?w0gc?$AH?$FL?$JK0g0M0?$IL?$HL?DV?r0?$JC?$IN?$IF0H0f0D0?$HO@ DB 0c8H
	DB	'0', 0e9H, '0', 0c3H, '0', 0afH, '0ju', 0f7H, 'Sg0', 07H, 'c', 09aH
	DB	'[g0M0', 08bH, '0', 0c4H, '{', 0f2H, 'V', 092H, '0', 085H, 08dH
	DB	'H0f0D0~0Y0', 02H, '0', 00H, 00H		; `string'
CONST	ENDS
;	COMDAT ??_C@_1DC@ODCBAGNM@?$AA?$DN?$AA?$DN?$AA?$DN?$AA?$DN?$AA?5?$AA?$FL?$AA?5?$AAM?$AAu?$AAs?$AAi?$AAc?$AA?5?$AAT?$AAr?$AAa?$AAc?$AAk?$AA?5?$AA?$FN@
CONST	SEGMENT
??_C@_1DC@ODCBAGNM@?$AA?$DN?$AA?$DN?$AA?$DN?$AA?$DN?$AA?5?$AA?$FL?$AA?5?$AAM?$AAu?$AAs?$AAi?$AAc?$AA?5?$AAT?$AAr?$AAa?$AAc?$AAk?$AA?5?$AA?$FN@ DB '='
	DB	00H, '=', 00H, '=', 00H, '=', 00H, ' ', 00H, '[', 00H, ' ', 00H
	DB	'M', 00H, 'u', 00H, 's', 00H, 'i', 00H, 'c', 00H, ' ', 00H, 'T'
	DB	00H, 'r', 00H, 'a', 00H, 'c', 00H, 'k', 00H, ' ', 00H, ']', 00H
	DB	'=', 00H, '=', 00H, '=', 00H, '=', 00H, 00H, 00H ; `string'
CONST	ENDS
;	COMDAT ??_C@_1FO@HMLHKAGM@?$AAM?$AAu?$AAs?$AAi?$AAc?$AAT?$AAr?$AAa?$AAc?$AAk?$AA?$CK?$AA?5?$AAT?$AAr?$AAa?$AAc?$AAk?$AAS?$AAe?$AAt@
CONST	SEGMENT
??_C@_1FO@HMLHKAGM@?$AAM?$AAu?$AAs?$AAi?$AAc?$AAT?$AAr?$AAa?$AAc?$AAk?$AA?$CK?$AA?5?$AAT?$AAr?$AAa?$AAc?$AAk?$AAS?$AAe?$AAt@ DB 'M'
	DB	00H, 'u', 00H, 's', 00H, 'i', 00H, 'c', 00H, 'T', 00H, 'r', 00H
	DB	'a', 00H, 'c', 00H, 'k', 00H, '*', 00H, ' ', 00H, 'T', 00H, 'r'
	DB	00H, 'a', 00H, 'c', 00H, 'k', 00H, 'S', 00H, 'e', 00H, 't', 00H
	DB	':', 00H, ':', 00H, 'g', 00H, 'e', 00H, 't', 00H, 'T', 00H, 'r'
	DB	00H, 'a', 00H, 'c', 00H, 'k', 00H, '(', 00H, ')', 00H, 0a2H, 095H
	DB	'peg0', 0a8H, '0', 0e9H, '0', 0fcH, '0L0zv', 01fH, 'uW0~0W0_0', 02H
	DB	'0', 00H, 00H				; `string'
CONST	ENDS
;	COMDAT ??_C@_1DK@DNENJNME@?$AAS?$AAE0?V0?m0?C0?$KPN?eY?$BG0g0oQ?$CKQH?$FO?$KGc?$AH?$FL?$JK0o0g0M0?$HO0?$FL@
CONST	SEGMENT
??_C@_1DK@DNENJNME@?$AAS?$AAE0?V0?m0?C0?$KPN?eY?$BG0g0oQ?$CKQH?$FO?$KGc?$AH?$FL?$JK0o0g0M0?$HO0?$FL@ DB 'S'
	DB	00H, 'E', 00H, 0d6H, '0', 0edH, '0', 0c3H, '0', 0afH, '0', 0e5H
	DB	'N', 016H, 'Yg0o0*QHQ', 0a6H, '^', 07H, 'c', 09aH, '[o0g0M0~0['
	DB	'0', 093H, '0', 02H, '0!q', 096H, 089H, 'W0~0Y0', 02H, '0', 00H
	DB	00H						; `string'
CONST	ENDS
;	COMDAT ??_C@_1DE@GKCFHPBH@R?$LJg?$JM?$JH?s0nQ?$CKQH?$FO?$KG0o0?$AB0o?$AA0?$PP?$FO?$AA30n?$HL?DV?r0gc?$AH?$FL?$JK0W@
CONST	SEGMENT
??_C@_1DE@GKCFHPBH@R?$LJg?$JM?$JH?s0nQ?$CKQH?$FO?$KG0o0?$AB0o?$AA0?$PP?$FO?$AA30n?$HL?DV?r0gc?$AH?$FL?$JK0W@ DB 0b9H
	DB	'R', 09cH, 'g', 0f3H, 097H, 'n0*QHQ', 0a6H, '^o0', 01H, '0o00', 00H
	DB	'^', 0ffH, '3', 00H, 'n0', 0c4H, '{', 0f2H, 'Vg0', 07H, 'c', 09aH
	DB	'[W0f0', 0bH, 'NU0D0', 02H, '0', 00H, 00H	; `string'
CONST	ENDS
;	COMDAT ??_C@_1BC@PFLOACNN@?$AAJ?$AAu?$AAm?$AAp?$AA?5?$AAO?$AAf?$AAf?$AA?$AA@
CONST	SEGMENT
??_C@_1BC@PFLOACNN@?$AAJ?$AAu?$AAm?$AAp?$AA?5?$AAO?$AAf?$AAf?$AA?$AA@ DB 'J'
	DB	00H, 'u', 00H, 'm', 00H, 'p', 00H, ' ', 00H, 'O', 00H, 'f', 00H
	DB	'f', 00H, 00H, 00H				; `string'
CONST	ENDS
;	COMDAT ??_C@_1BA@DLHAJHPF@?$AAJ?$AAu?$AAm?$AAp?$AA?5?$AAO?$AAn?$AA?$AA@
CONST	SEGMENT
??_C@_1BA@DLHAJHPF@?$AAJ?$AAu?$AAm?$AAp?$AA?5?$AAO?$AAn?$AA?$AA@ DB 'J', 00H
	DB	'u', 00H, 'm', 00H, 'p', 00H, ' ', 00H, 'O', 00H, 'n', 00H, 00H
	DB	00H						; `string'
CONST	ENDS
;	COMDAT ??_C@_1CK@GFGAOJII@?$AAj0?$LD0?$NO0?s0?I0Lc?$AH?$FL?$JKS?o?$IA?$PN0j?$HL?DV?r0?$JC?$IN?$IF0H0?$HO0W0_0?$AC@
CONST	SEGMENT
??_C@_1CK@GFGAOJII@?$AAj0?$LD0?$NO0?s0?I0Lc?$AH?$FL?$JKS?o?$IA?$PN0j?$HL?DV?r0?$JC?$IN?$IF0H0?$HO0W0_0?$AC@ DB 'j'
	DB	00H, 0b3H, '0', 0deH, '0', 0f3H, '0', 0c9H, '0L0', 07H, 'c', 09aH
	DB	'[', 0efH, 'S', 0fdH, 080H, 'j0', 0c4H, '{', 0f2H, 'V', 092H, '0'
	DB	085H, 08dH, 'H0~0W0_0', 02H, '0', 00H, 00H	; `string'
CONST	ENDS
;	COMDAT ??_C@_1CG@CEHFAHAL@0?F0?s0?$NN0Lc?$AH?$FL?$JKS?o?$IA?$PN0j?$HL?DV?r0?$JC?$IN?$IF0H0?$HO0W0_0?$AC?$AA?$AA@
CONST	SEGMENT
??_C@_1CG@CEHFAHAL@0?F0?s0?$NN0Lc?$AH?$FL?$JKS?o?$IA?$PN0j?$HL?DV?r0?$JC?$IN?$IF0H0?$HO0W0_0?$AC?$AA?$AA@ DB 0c6H
	DB	'0', 0f3H, '0', 0ddH, '0L0', 07H, 'c', 09aH, '[', 0efH, 'S', 0fdH
	DB	080H, 'j0', 0c4H, '{', 0f2H, 'V', 092H, '0', 085H, 08dH, 'H0~0'
	DB	'W0_0', 02H, '0', 00H, 00H			; `string'
CONST	ENDS
;	COMDAT ??_C@_1M@KPBAMICJ@?$AAT?$AAe?$AAm?$AAp?$AAo?$AA?$AA@
CONST	SEGMENT
??_C@_1M@KPBAMICJ@?$AAT?$AAe?$AAm?$AAp?$AAo?$AA?$AA@ DB 'T', 00H, 'e', 00H
	DB	'm', 00H, 'p', 00H, 'o', 00H, 00H, 00H	; `string'
CONST	ENDS
;	COMDAT ??_C@_1BO@NMEFKJBB@?$AAR?$AAe?$AAl?$AAa?$AAt?$AAi?$AAv?$AAe?$AA?5?$AAT?$AAe?$AAm?$AAp?$AAo?$AA?$AA@
CONST	SEGMENT
??_C@_1BO@NMEFKJBB@?$AAR?$AAe?$AAl?$AAa?$AAt?$AAi?$AAv?$AAe?$AA?5?$AAT?$AAe?$AAm?$AAp?$AAo?$AA?$AA@ DB 'R'
	DB	00H, 'e', 00H, 'l', 00H, 'a', 00H, 't', 00H, 'i', 00H, 'v', 00H
	DB	'e', 00H, ' ', 00H, 'T', 00H, 'e', 00H, 'm', 00H, 'p', 00H, 'o'
	DB	00H, 00H, 00H				; `string'
CONST	ENDS
;	COMDAT ??_C@_1EG@KMDFAJLP@?$AAy0?$LD0?$NO0?s0?I0n0?$KC0?I0?l0?$LJ0o?$AA$?$AA0?$AA0?$AA0?$AA0?$PP?$FO?$AA$?$AAF?$AAF@
CONST	SEGMENT
??_C@_1EG@KMDFAJLP@?$AAy0?$LD0?$NO0?s0?I0n0?$KC0?I0?l0?$LJ0o?$AA$?$AA0?$AA0?$AA0?$AA0?$PP?$FO?$AA$?$AAF?$AAF@ DB 'y'
	DB	00H, 0b3H, '0', 0deH, '0', 0f3H, '0', 0c9H, '0n0', 0a2H, '0', 0c9H
	DB	'0', 0ecH, '0', 0b9H, '0o0$', 00H, '0', 00H, '0', 00H, '0', 00H
	DB	'0', 00H, '^', 0ffH, '$', 00H, 'F', 00H, 'F', 00H, 'F', 00H, 'F'
	DB	00H, 'n0', 0c4H, '{', 0f2H, 'Vg0', 07H, 'c', 09aH, '[W0f0', 0bH
	DB	'NU0D0', 02H, '0', 00H, 00H			; `string'
CONST	ENDS
;	COMDAT ??_C@_1DM@CBEKDAPN@?$AAy0?$LD0?$NO0?s0?I0n0?Q0?i0?a0?$PM0?$LP0L?$IN?$LD0?$IK0?$HO0?$FL0?$JD0?$AC?$PP?$BC0d@
CONST	SEGMENT
??_C@_1DM@CBEKDAPN@?$AAy0?$LD0?$NO0?s0?I0n0?Q0?i0?a0?$PM0?$LP0L?$IN?$LD0?$IK0?$HO0?$FL0?$JD0?$AC?$PP?$BC0d@ DB 'y'
	DB	00H, 0b3H, '0', 0deH, '0', 0f3H, '0', 0c9H, '0n0', 0d1H, '0', 0e9H
	DB	'0', 0e1H, '0', 0fcH, '0', 0bfH, '0L0', 0b3H, 08dH, 08aH, '0~0'
	DB	'[0', 093H, '0', 02H, '0', 012H, 0ffH, 'd0', 07H, 'c', 09aH, '['
	DB	'W0f0O0`0U0D0', 02H, '0', 00H, 00H		; `string'
CONST	ENDS
;	COMDAT ??_C@_1DM@CNINMOFB@?$AAy0?$LD0?$NO0?s0?I0n0?G0?$PM0?$LP0o?$AA$?$AA0?$AA0?$PP?$FO?$AA$?$AAF?$AAF0n?$HL?DV?r@
CONST	SEGMENT
??_C@_1DM@CNINMOFB@?$AAy0?$LD0?$NO0?s0?I0n0?G0?$PM0?$LP0o?$AA$?$AA0?$AA0?$PP?$FO?$AA$?$AAF?$AAF0n?$HL?DV?r@ DB 'y'
	DB	00H, 0b3H, '0', 0deH, '0', 0f3H, '0', 0c9H, '0n0', 0c7H, '0', 0fcH
	DB	'0', 0bfH, '0o0$', 00H, '0', 00H, '0', 00H, '^', 0ffH, '$', 00H
	DB	'F', 00H, 'F', 00H, 'n0', 0c4H, '{', 0f2H, 'Vg0', 07H, 'c', 09aH
	DB	'[W0f0', 0bH, 'NU0D0', 02H, '0', 00H, 00H	; `string'
CONST	ENDS
;	COMDAT ??_C@_19MCGBFLHO@?$AAP?$AAo?$AAk?$AAe?$AA?$AA@
CONST	SEGMENT
??_C@_19MCGBFLHO@?$AAP?$AAo?$AAk?$AAe?$AA?$AA@ DB 'P', 00H, 'o', 00H, 'k', 00H
	DB	'e', 00H, 00H, 00H				; `string'
CONST	ENDS
;	COMDAT ??_C@_1CK@JOCIMFBO@?$AAF?$AAD?$AAS?$AA?5?$AAc?$AAa?$AAr?$AAe?$AAe?$AAr?$AA?5?$AAf?$AAr?$AAe?$AAq?$AAu?$AAe?$AAn?$AAc?$AAy@
CONST	SEGMENT
??_C@_1CK@JOCIMFBO@?$AAF?$AAD?$AAS?$AA?5?$AAc?$AAa?$AAr?$AAe?$AAe?$AAr?$AA?5?$AAf?$AAr?$AAe?$AAq?$AAu?$AAe?$AAn?$AAc?$AAy@ DB 'F'
	DB	00H, 'D', 00H, 'S', 00H, ' ', 00H, 'c', 00H, 'a', 00H, 'r', 00H
	DB	'e', 00H, 'e', 00H, 'r', 00H, ' ', 00H, 'f', 00H, 'r', 00H, 'e'
	DB	00H, 'q', 00H, 'u', 00H, 'e', 00H, 'n', 00H, 'c', 00H, 'y', 00H
	DB	00H, 00H					; `string'
CONST	ENDS
;	COMDAT ??_C@_1DO@NCLODOIG@?$AAF?$AAD?$AAS0n0?$KN0?c0?j0?$KCThl?bep0o?$AA0?$PP?$FO?$AA4?$AA0?$AA9?$AA50n?$HL?D@
CONST	SEGMENT
??_C@_1DO@NCLODOIG@?$AAF?$AAD?$AAS0n0?$KN0?c0?j0?$KCThl?bep0o?$AA0?$PP?$FO?$AA4?$AA0?$AA9?$AA50n?$HL?D@ DB 'F'
	DB	00H, 'D', 00H, 'S', 00H, 'n0', 0adH, '0', 0e3H, '0', 0eaH, '0', 0a2H
	DB	'0hT', 0e2H, 'lpeo00', 00H, '^', 0ffH, '4', 00H, '0', 00H, '9', 00H
	DB	'5', 00H, 'n0', 0c4H, '{', 0f2H, 'Vg0', 07H, 'c', 09aH, '[W0f0'
	DB	0bH, 'NU0D0', 02H, '0', 00H, 00H		; `string'
CONST	ENDS
;	COMDAT ??_C@_1CE@KIIDBKFM@?$AAF?$AAD?$AAS?$AA?5?$AAM?$AAa?$AAs?$AAt?$AAe?$AAr?$AA?5?$AAv?$AAo?$AAl?$AAu?$AAm?$AAe?$AA?$AA@
CONST	SEGMENT
??_C@_1CE@KIIDBKFM@?$AAF?$AAD?$AAS?$AA?5?$AAM?$AAa?$AAs?$AAt?$AAe?$AAr?$AA?5?$AAv?$AAo?$AAl?$AAu?$AAm?$AAe?$AA?$AA@ DB 'F'
	DB	00H, 'D', 00H, 'S', 00H, ' ', 00H, 'M', 00H, 'a', 00H, 's', 00H
	DB	't', 00H, 'e', 00H, 'r', 00H, ' ', 00H, 'v', 00H, 'o', 00H, 'l'
	DB	00H, 'u', 00H, 'm', 00H, 'e', 00H, 00H, 00H	; `string'
CONST	ENDS
;	COMDAT ??_C@_1DG@FINIAKBK@?$AAF?$AAD?$AAS0n0?$NO0?$LJ0?$LP0?$PM?$JH?s?$JB?O0o?$AA0?$PP?$FO?$AA30n?$HL?DV?r0gc?$AH?$FL?$JK@
CONST	SEGMENT
??_C@_1DG@FINIAKBK@?$AAF?$AAD?$AAS0n0?$NO0?$LJ0?$LP0?$PM?$JH?s?$JB?O0o?$AA0?$PP?$FO?$AA30n?$HL?DV?r0gc?$AH?$FL?$JK@ DB 'F'
	DB	00H, 'D', 00H, 'S', 00H, 'n0', 0deH, '0', 0b9H, '0', 0bfH, '0', 0fcH
	DB	'0', 0f3H, 097H, 0cfH, 091H, 'o00', 00H, '^', 0ffH, '3', 00H, 'n'
	DB	'0', 0c4H, '{', 0f2H, 'Vg0', 07H, 'c', 09aH, '[W0f0', 0bH, 'NU'
	DB	'0D0', 02H, '0', 00H, 00H			; `string'
CONST	ENDS
;	COMDAT ??_C@_1EK@HBBIFNHP@?$AAV?$AAR?$AAC?$AA70?l0?$LI0?$LJ0?$LPd?MO?20n?$HL?0?$AA10?Q0?i0?a0?$PM0?$LP0o?$AA0@
CONST	SEGMENT
??_C@_1EK@HBBIFNHP@?$AAV?$AAR?$AAC?$AA70?l0?$LI0?$LJ0?$LPd?MO?20n?$HL?0?$AA10?Q0?i0?a0?$PM0?$LP0o?$AA0@ DB 'V'
	DB	00H, 'R', 00H, 'C', 00H, '7', 00H, 0ecH, '0', 0b8H, '0', 0b9H, '0'
	DB	0bfH, '0', 0cdH, 'd\On0,{1', 00H, 0d1H, '0', 0e9H, '0', 0e1H, '0'
	DB	0fcH, '0', 0bfH, '0o00', 00H, '^', 0ffH, '6', 00H, '3', 00H, 'n'
	DB	'0', 0c4H, '{', 0f2H, 'Vg0', 07H, 'c', 09aH, '[W0f0O0`0U0D0', 02H
	DB	'0', 00H, 00H				; `string'
CONST	ENDS
;	COMDAT ??_C@_1EA@HBBIMBFO@?$AAy?$AAV?$AA?50?$LD0?$NO0?s0?I0n0?Q0?i0?a0?$PM0?$LP0L?$IN?$LD0?$IK0?$HO0?$FL0?$JD0?$AC@
CONST	SEGMENT
??_C@_1EA@HBBIMBFO@?$AAy?$AAV?$AA?50?$LD0?$NO0?s0?I0n0?Q0?i0?a0?$PM0?$LP0L?$IN?$LD0?$IK0?$HO0?$FL0?$JD0?$AC@ DB 'y'
	DB	00H, 'V', 00H, ' ', 00H, 0b3H, '0', 0deH, '0', 0f3H, '0', 0c9H
	DB	'0n0', 0d1H, '0', 0e9H, '0', 0e1H, '0', 0fcH, '0', 0bfH, '0L0', 0b3H
	DB	08dH, 08aH, '0~0[0', 093H, '0', 02H, '0', 012H, 0ffH, 'd0', 07H
	DB	'c', 09aH, '[W0f0O0`0U0D0', 02H, '0', 00H, 00H ; `string'
CONST	ENDS
;	COMDAT ??_C@_1EM@NIHECGCK@?$AAV?$AAR?$AAC?$AA70?l0?$LI0?$LJ0?$LPd?MO?20n?$HL?0?$AA20?Q0?i0?a0?$PM0?$LP0o?$AA0@
CONST	SEGMENT
??_C@_1EM@NIHECGCK@?$AAV?$AAR?$AAC?$AA70?l0?$LI0?$LJ0?$LPd?MO?20n?$HL?0?$AA20?Q0?i0?a0?$PM0?$LP0o?$AA0@ DB 'V'
	DB	00H, 'R', 00H, 'C', 00H, '7', 00H, 0ecH, '0', 0b8H, '0', 0b9H, '0'
	DB	0bfH, '0', 0cdH, 'd\On0,{2', 00H, 0d1H, '0', 0e9H, '0', 0e1H, '0'
	DB	0fcH, '0', 0bfH, '0o00', 00H, '^', 0ffH, '2', 00H, '5', 00H, '5'
	DB	00H, 'n0', 0c4H, '{', 0f2H, 'Vg0', 07H, 'c', 09aH, '[W0f0O0`0U'
	DB	'0D0', 02H, '0', 00H, 00H			; `string'
CONST	ENDS
;	COMDAT ??_C@_1CI@JIGLHAON@?$AAV?$AAR?$AAC?$AA7?$AA?5?$AAR?$AAe?$AAg?$AAi?$AAs?$AAt?$AAe?$AAr?$AA?5?$AAW?$AAr?$AAi?$AAt?$AAe?$AA?$AA@
CONST	SEGMENT
??_C@_1CI@JIGLHAON@?$AAV?$AAR?$AAC?$AA7?$AA?5?$AAR?$AAe?$AAg?$AAi?$AAs?$AAt?$AAe?$AAr?$AA?5?$AAW?$AAr?$AAi?$AAt?$AAe?$AA?$AA@ DB 'V'
	DB	00H, 'R', 00H, 'C', 00H, '7', 00H, ' ', 00H, 'R', 00H, 'e', 00H
	DB	'g', 00H, 'i', 00H, 's', 00H, 't', 00H, 'e', 00H, 'r', 00H, ' '
	DB	00H, 'W', 00H, 'r', 00H, 'i', 00H, 't', 00H, 'e', 00H, 00H, 00H ; `string'
CONST	ENDS
;	COMDAT ??_C@_1BK@BFEDNGPB@?$AAn?$AA1?$AA6?$AA3?$AA?5?$AAc?$AAh?$AAa?$AAn?$AAn?$AAe?$AAl?$AA?$AA@
CONST	SEGMENT
??_C@_1BK@BFEDNGPB@?$AAn?$AA1?$AA6?$AA3?$AA?5?$AAc?$AAh?$AAa?$AAn?$AAn?$AAe?$AAl?$AA?$AA@ DB 'n'
	DB	00H, '1', 00H, '6', 00H, '3', 00H, ' ', 00H, 'c', 00H, 'h', 00H
	DB	'a', 00H, 'n', 00H, 'n', 00H, 'e', 00H, 'l', 00H, 00H, 00H ; `string'
CONST	ENDS
;	COMDAT ??_C@_1DK@MLMMPBFK@?$AAn?$AA1?$AA6?$AA30n0?A0?c0?s0?M0?kep0o?$AA1?$PP?$FO?$AA80n?$HL?DV?r0gc?$AH@
CONST	SEGMENT
??_C@_1DK@MLMMPBFK@?$AAn?$AA1?$AA6?$AA30n0?A0?c0?s0?M0?kep0o?$AA1?$PP?$FO?$AA80n?$HL?DV?r0gc?$AH@ DB 'n'
	DB	00H, '1', 00H, '6', 00H, '3', 00H, 'n0', 0c1H, '0', 0e3H, '0', 0f3H
	DB	'0', 0cdH, '0', 0ebH, '0peo01', 00H, '^', 0ffH, '8', 00H, 'n0', 0c4H
	DB	'{', 0f2H, 'Vg0', 07H, 'c', 09aH, '[W0f0O0`0U0D0', 02H, '0', 00H
	DB	00H						; `string'
CONST	ENDS
;	COMDAT ??_C@_1CO@GINJDICH@?$AAF?$AAM?$AAE?$AA7?$AA?5?$AAe?$AAn?$AAv?$AAe?$AAl?$AAo?$AAp?$AA?5?$AAf?$AAr?$AAe?$AAq?$AAu?$AAe?$AAn@
CONST	SEGMENT
??_C@_1CO@GINJDICH@?$AAF?$AAM?$AAE?$AA7?$AA?5?$AAe?$AAn?$AAv?$AAe?$AAl?$AAo?$AAp?$AA?5?$AAf?$AAr?$AAe?$AAq?$AAu?$AAe?$AAn@ DB 'F'
	DB	00H, 'M', 00H, 'E', 00H, '7', 00H, ' ', 00H, 'e', 00H, 'n', 00H
	DB	'v', 00H, 'e', 00H, 'l', 00H, 'o', 00H, 'p', 00H, ' ', 00H, 'f'
	DB	00H, 'r', 00H, 'e', 00H, 'q', 00H, 'u', 00H, 'e', 00H, 'n', 00H
	DB	'c', 00H, 'y', 00H, 00H, 00H			; `string'
CONST	ENDS
;	COMDAT ??_C@_1FO@MPIPMFBJ@?$AAS?$AAU?$AAN?$AAS?$AAO?$AAF?$AAT?$AA?5?$AA5?$AAb0n0?O0?$PM0?I0?$KG0?$KH0?$KC0?$KI0?s0?Y@
CONST	SEGMENT
??_C@_1FO@MPIPMFBJ@?$AAS?$AAU?$AAN?$AAS?$AAO?$AAF?$AAT?$AA?5?$AA5?$AAb0n0?O0?$PM0?I0?$KG0?$KH0?$KC0?$KI0?s0?Y@ DB 'S'
	DB	00H, 'U', 00H, 'N', 00H, 'S', 00H, 'O', 00H, 'F', 00H, 'T', 00H
	DB	' ', 00H, '5', 00H, 'b', 00H, 'n0', 0cfH, '0', 0fcH, '0', 0c9H
	DB	'0', 0a6H, '0', 0a7H, '0', 0a2H, '0', 0a8H, '0', 0f3H, '0', 0d9H
	DB	'0', 0edH, '0', 0fcH, '0', 0d7H, '0hT', 0e2H, 'lpeo00', 00H, '^'
	DB	0ffH, '6', 00H, '5', 00H, '5', 00H, '3', 00H, '5', 00H, 'n0', 0c4H
	DB	'{', 0f2H, 'Vg0', 07H, 'c', 09aH, '[W0f0', 0bH, 'NU0D0', 02H, '0'
	DB	00H, 00H					; `string'
CONST	ENDS
;	COMDAT ??_7TrackSet@@6B@
CONST	SEGMENT
??_7TrackSet@@6B@ DD FLAT:?getCode@MusicItem@@UAEXPAV?$basic_string@DU?$char_traits@D@std@@V?$allocator@D@2@@std@@@Z ; TrackSet::`vftable'
	DD	FLAT:?setCode@MusicItem@@UAEXPAV?$basic_string@DU?$char_traits@D@std@@V?$allocator@D@2@@std@@@Z
	DD	FLAT:?getAsm@TrackSet@@UAEXPAVMusicFile@@@Z
; Function compile flags: /Ogsy
; File f:\nes\nsdl\src\nsc\musictrack.h
;	COMDAT ?SetCompileFlag@MusicTrack@@QAEX_N@Z
_TEXT	SEGMENT
?SetCompileFlag@MusicTrack@@QAEX_N@Z PROC NEAR		; MusicTrack::SetCompileFlag, COMDAT
; _this$ = eax
; __flag$ = ecx

; 277  : 				void	SetCompileFlag(bool _flag){compile_flag = _flag;};

  00000	88 88 a0 00 00
	00		 mov	 BYTE PTR [eax+160], cl
  00006	c3		 ret	 0
?SetCompileFlag@MusicTrack@@QAEX_N@Z ENDP		; MusicTrack::SetCompileFlag
; Function compile flags: /Ogsy
_TEXT	ENDS
;	COMDAT ?GetTickLoop@MusicTrack@@QAEIXZ
_TEXT	SEGMENT
?GetTickLoop@MusicTrack@@QAEIXZ PROC NEAR		; MusicTrack::GetTickLoop, COMDAT
; _this$ = eax

; 269  : 	unsigned	int		GetTickLoop(void){	return(iTickLoop);};

  00000	8b 80 98 00 00
	00		 mov	 eax, DWORD PTR [eax+152]
  00006	c3		 ret	 0
?GetTickLoop@MusicTrack@@QAEIXZ ENDP			; MusicTrack::GetTickLoop
; Function compile flags: /Ogsy
_TEXT	ENDS
;	COMDAT ?GetTickTotal@MusicTrack@@QAEIXZ
_TEXT	SEGMENT
?GetTickTotal@MusicTrack@@QAEIXZ PROC NEAR		; MusicTrack::GetTickTotal, COMDAT
; _this$ = eax

; 268  : 	unsigned	int		GetTickTotal(void){	return(iTickTotal);};

  00000	8b 80 94 00 00
	00		 mov	 eax, DWORD PTR [eax+148]
  00006	c3		 ret	 0
?GetTickTotal@MusicTrack@@QAEIXZ ENDP			; MusicTrack::GetTickTotal
; Function compile flags: /Ogsy
; File f:\nes\nsdl\src\nsc\mmlfile.h
_TEXT	ENDS
;	COMDAT ?GetMacroNest@MMLfile@@QAEHXZ
_TEXT	SEGMENT
?GetMacroNest@MMLfile@@QAEHXZ PROC NEAR			; MMLfile::GetMacroNest, COMDAT
; _this$ = eax

; 76   : 				int		GetMacroNest(void){return(p_macro);};

  00000	8b 40 60	 mov	 eax, DWORD PTR [eax+96]
  00003	c3		 ret	 0
?GetMacroNest@MMLfile@@QAEHXZ ENDP			; MMLfile::GetMacroNest
; Function compile flags: /Ogsy
; File f:\nes\nsdl\src\nsc\musictrack.h
_TEXT	ENDS
;	COMDAT ?GetCompileFlag@MusicTrack@@QAE_NXZ
_TEXT	SEGMENT
?GetCompileFlag@MusicTrack@@QAE_NXZ PROC NEAR		; MusicTrack::GetCompileFlag, COMDAT
; _this$ = eax

; 276  : 				bool	GetCompileFlag(void){return(compile_flag);};

  00000	8a 80 a0 00 00
	00		 mov	 al, BYTE PTR [eax+160]
  00006	c3		 ret	 0
?GetCompileFlag@MusicTrack@@QAE_NXZ ENDP		; MusicTrack::GetCompileFlag
; Function compile flags: /Ogsy
; File f:\nes\nsdl\src\nsc\fileinput.h
_TEXT	ENDS
;	COMDAT ?SetLine@FileInput@@QAEXI@Z
_TEXT	SEGMENT
?SetLine@FileInput@@QAEXI@Z PROC NEAR			; FileInput::SetLine, COMDAT
; _this$ = eax
; _i$ = ecx

; 34   : 			void	SetLine(unsigned int i){iLine = i;};

  00000	89 88 80 00 00
	00		 mov	 DWORD PTR [eax+128], ecx
  00006	c3		 ret	 0
?SetLine@FileInput@@QAEXI@Z ENDP			; FileInput::SetLine
; Function compile flags: /Ogsy
; File f:\nes\nsdl\src\nsc\mmlfile.h
_TEXT	ENDS
;	COMDAT ?SetLine@MMLfile@@QAEXI@Z
_TEXT	SEGMENT
?SetLine@MMLfile@@QAEXI@Z PROC NEAR			; MMLfile::SetLine, COMDAT
; _this$ = eax
; _i$ = ecx

; 98   : 				void	SetLine(unsigned int i){nowFile->SetLine(i);};

  00000	8b 40 10	 mov	 eax, DWORD PTR [eax+16]
  00003	89 88 80 00 00
	00		 mov	 DWORD PTR [eax+128], ecx
  00009	c3		 ret	 0
?SetLine@MMLfile@@QAEXI@Z ENDP				; MMLfile::SetLine
; Function compile flags: /Ogsy
; File f:\nes\nsdl\src\nsc\fileinput.h
_TEXT	ENDS
;	COMDAT ?GetLine@FileInput@@QAEIXZ
_TEXT	SEGMENT
?GetLine@FileInput@@QAEIXZ PROC NEAR			; FileInput::GetLine, COMDAT
; _this$ = eax

; 33   : unsigned	int		GetLine(void){return(iLine);};

  00000	8b 80 80 00 00
	00		 mov	 eax, DWORD PTR [eax+128]
  00006	c3		 ret	 0
?GetLine@FileInput@@QAEIXZ ENDP				; FileInput::GetLine
; Function compile flags: /Ogsy
; File f:\nes\nsdl\src\nsc\mmlfile.h
_TEXT	ENDS
;	COMDAT ?GetLine@MMLfile@@QAEIXZ
_TEXT	SEGMENT
?GetLine@MMLfile@@QAEIXZ PROC NEAR			; MMLfile::GetLine, COMDAT
; _this$ = eax

; 97   : 	unsigned	int		GetLine(void){return(nowFile->GetLine());};

  00000	8b 40 10	 mov	 eax, DWORD PTR [eax+16]
  00003	8b 80 80 00 00
	00		 mov	 eax, DWORD PTR [eax+128]
  00009	c3		 ret	 0
?GetLine@MMLfile@@QAEIXZ ENDP				; MMLfile::GetLine
; Function compile flags: /Ogsy
; File c:\program files (x86)\microsoft visual studio .net 2003\vc7\include\xutility
_TEXT	ENDS
;	COMDAT ??$_Iter_cat@Vconst_iterator@?$_Tree@V?$_Tmap_traits@HPAVMusicTrack@@U?$less@H@std@@V?$allocator@U?$pair@$$CBHPAVMusicTrack@@@std@@@3@$0A@@std@@@std@@@std@@YA?AUbidirectional_iterator_tag@0@ABVconst_iterator@?$_Tree@V?$_Tmap_traits@HPAVMusicTrack@@U?$less@H@std@@V?$allocator@U?$pair@$$CBHPAVMusicTrack@@@std@@@3@$0A@@std@@@0@@Z
_TEXT	SEGMENT
??$_Iter_cat@Vconst_iterator@?$_Tree@V?$_Tmap_traits@HPAVMusicTrack@@U?$less@H@std@@V?$allocator@U?$pair@$$CBHPAVMusicTrack@@@std@@@3@$0A@@std@@@std@@@std@@YA?AUbidirectional_iterator_tag@0@ABVconst_iterator@?$_Tree@V?$_Tmap_traits@HPAVMusicTrack@@U?$less@H@std@@V?$allocator@U?$pair@$$CBHPAVMusicTrack@@@std@@@3@$0A@@std@@@0@@Z PROC NEAR ; std::_Iter_cat<std::_Tree<std::_Tmap_traits<int,MusicTrack *,std::less<int>,std::allocator<std::pair<int const ,MusicTrack *> >,0> >::const_iterator>, COMDAT
; ___$ReturnUdt$ = eax

; 202  : 	typename iterator_traits<_Iter>::iterator_category _Cat;
; 203  : 	return (_Cat);
; 204  : 	}

  00000	c3		 ret	 0
??$_Iter_cat@Vconst_iterator@?$_Tree@V?$_Tmap_traits@HPAVMusicTrack@@U?$less@H@std@@V?$allocator@U?$pair@$$CBHPAVMusicTrack@@@std@@@3@$0A@@std@@@std@@@std@@YA?AUbidirectional_iterator_tag@0@ABVconst_iterator@?$_Tree@V?$_Tmap_traits@HPAVMusicTrack@@U?$less@H@std@@V?$allocator@U?$pair@$$CBHPAVMusicTrack@@@std@@@3@$0A@@std@@@0@@Z ENDP ; std::_Iter_cat<std::_Tree<std::_Tmap_traits<int,MusicTrack *,std::less<int>,std::allocator<std::pair<int const ,MusicTrack *> >,0> >::const_iterator>
; Function compile flags: /Ogsy
; File c:\program files (x86)\microsoft visual studio .net 2003\vc7\include\xmemory
_TEXT	ENDS
;	COMDAT ??$_Destroy@U_Node@?$_Tree_nod@V?$_Tmap_traits@HPAVMusicTrack@@U?$less@H@std@@V?$allocator@U?$pair@$$CBHPAVMusicTrack@@@std@@@3@$0A@@std@@@std@@@std@@YAXPAU_Node@?$_Tree_nod@V?$_Tmap_traits@HPAVMusicTrack@@U?$less@H@std@@V?$allocator@U?$pair@$$CBHPAVMusicTrack@@@std@@@3@$0A@@std@@@0@@Z
_TEXT	SEGMENT
??$_Destroy@U_Node@?$_Tree_nod@V?$_Tmap_traits@HPAVMusicTrack@@U?$less@H@std@@V?$allocator@U?$pair@$$CBHPAVMusicTrack@@@std@@@3@$0A@@std@@@std@@@std@@YAXPAU_Node@?$_Tree_nod@V?$_Tmap_traits@HPAVMusicTrack@@U?$less@H@std@@V?$allocator@U?$pair@$$CBHPAVMusicTrack@@@std@@@3@$0A@@std@@@0@@Z PROC NEAR ; std::_Destroy<std::_Tree_nod<std::_Tmap_traits<int,MusicTrack *,std::less<int>,std::allocator<std::pair<int const ,MusicTrack *> >,0> >::_Node>, COMDAT

; 49   : 	_DESTRUCTOR(_Ty, _Ptr);
; 50   : 	}

  00000	c3		 ret	 0
??$_Destroy@U_Node@?$_Tree_nod@V?$_Tmap_traits@HPAVMusicTrack@@U?$less@H@std@@V?$allocator@U?$pair@$$CBHPAVMusicTrack@@@std@@@3@$0A@@std@@@std@@@std@@YAXPAU_Node@?$_Tree_nod@V?$_Tmap_traits@HPAVMusicTrack@@U?$less@H@std@@V?$allocator@U?$pair@$$CBHPAVMusicTrack@@@std@@@3@$0A@@std@@@0@@Z ENDP ; std::_Destroy<std::_Tree_nod<std::_Tmap_traits<int,MusicTrack *,std::less<int>,std::allocator<std::pair<int const ,MusicTrack *> >,0> >::_Node>
; Function compile flags: /Ogsy
_TEXT	ENDS
;	COMDAT ??$?0U?$pair@$$CBHPAVMusicTrack@@@std@@@?$allocator@U_Node@?$_Tree_nod@V?$_Tmap_traits@HPAVMusicTrack@@U?$less@H@std@@V?$allocator@U?$pair@$$CBHPAVMusicTrack@@@std@@@3@$0A@@std@@@std@@@std@@QAE@ABV?$allocator@U?$pair@$$CBHPAVMusicTrack@@@std@@@1@@Z
_TEXT	SEGMENT
??$?0U?$pair@$$CBHPAVMusicTrack@@@std@@@?$allocator@U_Node@?$_Tree_nod@V?$_Tmap_traits@HPAVMusicTrack@@U?$less@H@std@@V?$allocator@U?$pair@$$CBHPAVMusicTrack@@@std@@@3@$0A@@std@@@std@@@std@@QAE@ABV?$allocator@U?$pair@$$CBHPAVMusicTrack@@@std@@@1@@Z PROC NEAR ; std::allocator<std::_Tree_nod<std::_Tmap_traits<int,MusicTrack *,std::less<int>,std::allocator<std::pair<int const ,MusicTrack *> >,0> >::_Node>::allocator<std::_Tree_nod<std::_Tmap_traits<int,MusicTrack *,std::less<int>,std::allocator<std::pair<int const ,MusicTrack *> >,0> >::_Node><std::pair<int const ,MusicTrack *> >, COMDAT
; _this$ = eax

; 121  : 		{	// construct from a related allocator (do nothing)
; 122  : 		}

  00000	c3		 ret	 0
??$?0U?$pair@$$CBHPAVMusicTrack@@@std@@@?$allocator@U_Node@?$_Tree_nod@V?$_Tmap_traits@HPAVMusicTrack@@U?$less@H@std@@V?$allocator@U?$pair@$$CBHPAVMusicTrack@@@std@@@3@$0A@@std@@@std@@@std@@QAE@ABV?$allocator@U?$pair@$$CBHPAVMusicTrack@@@std@@@1@@Z ENDP ; std::allocator<std::_Tree_nod<std::_Tmap_traits<int,MusicTrack *,std::less<int>,std::allocator<std::pair<int const ,MusicTrack *> >,0> >::_Node>::allocator<std::_Tree_nod<std::_Tmap_traits<int,MusicTrack *,std::less<int>,std::allocator<std::pair<int const ,MusicTrack *> >,0> >::_Node><std::pair<int const ,MusicTrack *> >
; Function compile flags: /Ogsy
_TEXT	ENDS
;	COMDAT ??$?0U?$pair@$$CBHPAVMusicTrack@@@std@@@?$allocator@PAU_Node@?$_Tree_nod@V?$_Tmap_traits@HPAVMusicTrack@@U?$less@H@std@@V?$allocator@U?$pair@$$CBHPAVMusicTrack@@@std@@@3@$0A@@std@@@std@@@std@@QAE@ABV?$allocator@U?$pair@$$CBHPAVMusicTrack@@@std@@@1@@Z
_TEXT	SEGMENT
??$?0U?$pair@$$CBHPAVMusicTrack@@@std@@@?$allocator@PAU_Node@?$_Tree_nod@V?$_Tmap_traits@HPAVMusicTrack@@U?$less@H@std@@V?$allocator@U?$pair@$$CBHPAVMusicTrack@@@std@@@3@$0A@@std@@@std@@@std@@QAE@ABV?$allocator@U?$pair@$$CBHPAVMusicTrack@@@std@@@1@@Z PROC NEAR ; std::allocator<std::_Tree_nod<std::_Tmap_traits<int,MusicTrack *,std::less<int>,std::allocator<std::pair<int const ,MusicTrack *> >,0> >::_Node *>::allocator<std::_Tree_nod<std::_Tmap_traits<int,MusicTrack *,std::less<int>,std::allocator<std::pair<int const ,MusicTrack *> >,0> >::_Node *><std::pair<int const ,MusicTrack *> >, COMDAT
; _this$ = eax

; 121  : 		{	// construct from a related allocator (do nothing)
; 122  : 		}

  00000	c3		 ret	 0
??$?0U?$pair@$$CBHPAVMusicTrack@@@std@@@?$allocator@PAU_Node@?$_Tree_nod@V?$_Tmap_traits@HPAVMusicTrack@@U?$less@H@std@@V?$allocator@U?$pair@$$CBHPAVMusicTrack@@@std@@@3@$0A@@std@@@std@@@std@@QAE@ABV?$allocator@U?$pair@$$CBHPAVMusicTrack@@@std@@@1@@Z ENDP ; std::allocator<std::_Tree_nod<std::_Tmap_traits<int,MusicTrack *,std::less<int>,std::allocator<std::pair<int const ,MusicTrack *> >,0> >::_Node *>::allocator<std::_Tree_nod<std::_Tmap_traits<int,MusicTrack *,std::less<int>,std::allocator<std::pair<int const ,MusicTrack *> >,0> >::_Node *><std::pair<int const ,MusicTrack *> >
; Function compile flags: /Ogsy
_TEXT	ENDS
;	COMDAT ??$_Destroy@PAU_Node@?$_Tree_nod@V?$_Tmap_traits@HPAVMusicTrack@@U?$less@H@std@@V?$allocator@U?$pair@$$CBHPAVMusicTrack@@@std@@@3@$0A@@std@@@std@@@std@@YAXPAPAU_Node@?$_Tree_nod@V?$_Tmap_traits@HPAVMusicTrack@@U?$less@H@std@@V?$allocator@U?$pair@$$CBHPAVMusicTrack@@@std@@@3@$0A@@std@@@0@@Z
_TEXT	SEGMENT
??$_Destroy@PAU_Node@?$_Tree_nod@V?$_Tmap_traits@HPAVMusicTrack@@U?$less@H@std@@V?$allocator@U?$pair@$$CBHPAVMusicTrack@@@std@@@3@$0A@@std@@@std@@@std@@YAXPAPAU_Node@?$_Tree_nod@V?$_Tmap_traits@HPAVMusicTrack@@U?$less@H@std@@V?$allocator@U?$pair@$$CBHPAVMusicTrack@@@std@@@3@$0A@@std@@@0@@Z PROC NEAR ; std::_Destroy<std::_Tree_nod<std::_Tmap_traits<int,MusicTrack *,std::less<int>,std::allocator<std::pair<int const ,MusicTrack *> >,0> >::_Node *>, COMDAT

; 49   : 	_DESTRUCTOR(_Ty, _Ptr);
; 50   : 	}

  00000	c3		 ret	 0
??$_Destroy@PAU_Node@?$_Tree_nod@V?$_Tmap_traits@HPAVMusicTrack@@U?$less@H@std@@V?$allocator@U?$pair@$$CBHPAVMusicTrack@@@std@@@3@$0A@@std@@@std@@@std@@YAXPAPAU_Node@?$_Tree_nod@V?$_Tmap_traits@HPAVMusicTrack@@U?$less@H@std@@V?$allocator@U?$pair@$$CBHPAVMusicTrack@@@std@@@3@$0A@@std@@@0@@Z ENDP ; std::_Destroy<std::_Tree_nod<std::_Tmap_traits<int,MusicTrack *,std::less<int>,std::allocator<std::pair<int const ,MusicTrack *> >,0> >::_Node *>
; Function compile flags: /Ogsy
; File c:\program files (x86)\microsoft visual studio .net 2003\vc7\include\map
_TEXT	ENDS
;	COMDAT ??0?$_Tmap_traits@HPAVMusicTrack@@U?$less@H@std@@V?$allocator@U?$pair@$$CBHPAVMusicTrack@@@std@@@3@$0A@@std@@QAE@U?$less@H@1@@Z
_TEXT	SEGMENT
__Parg$ = 8						; size = 1
??0?$_Tmap_traits@HPAVMusicTrack@@U?$less@H@std@@V?$allocator@U?$pair@$$CBHPAVMusicTrack@@@std@@@3@$0A@@std@@QAE@U?$less@H@1@@Z PROC NEAR ; std::_Tmap_traits<int,MusicTrack *,std::less<int>,std::allocator<std::pair<int const ,MusicTrack *> >,0>::_Tmap_traits<int,MusicTrack *,std::less<int>,std::allocator<std::pair<int const ,MusicTrack *> >,0>, COMDAT
; _this$ = eax

; 39   : 		}

  00000	c2 04 00	 ret	 4
??0?$_Tmap_traits@HPAVMusicTrack@@U?$less@H@std@@V?$allocator@U?$pair@$$CBHPAVMusicTrack@@@std@@@3@$0A@@std@@QAE@U?$less@H@1@@Z ENDP ; std::_Tmap_traits<int,MusicTrack *,std::less<int>,std::allocator<std::pair<int const ,MusicTrack *> >,0>::_Tmap_traits<int,MusicTrack *,std::less<int>,std::allocator<std::pair<int const ,MusicTrack *> >,0>
; Function compile flags: /Ogsy
; File c:\program files (x86)\microsoft visual studio .net 2003\vc7\include\xmemory
_TEXT	ENDS
;	COMDAT ?destroy@?$allocator@U_Node@?$_Tree_nod@V?$_Tmap_traits@HPAVMusicTrack@@U?$less@H@std@@V?$allocator@U?$pair@$$CBHPAVMusicTrack@@@std@@@3@$0A@@std@@@std@@@std@@QAEXPAU_Node@?$_Tree_nod@V?$_Tmap_traits@HPAVMusicTrack@@U?$less@H@std@@V?$allocator@U?$pair@$$CBHPAVMusicTrack@@@std@@@3@$0A@@std@@@2@@Z
_TEXT	SEGMENT
?destroy@?$allocator@U_Node@?$_Tree_nod@V?$_Tmap_traits@HPAVMusicTrack@@U?$less@H@std@@V?$allocator@U?$pair@$$CBHPAVMusicTrack@@@std@@@3@$0A@@std@@@std@@@std@@QAEXPAU_Node@?$_Tree_nod@V?$_Tmap_traits@HPAVMusicTrack@@U?$less@H@std@@V?$allocator@U?$pair@$$CBHPAVMusicTrack@@@std@@@3@$0A@@std@@@2@@Z PROC NEAR ; std::allocator<std::_Tree_nod<std::_Tmap_traits<int,MusicTrack *,std::less<int>,std::allocator<std::pair<int const ,MusicTrack *> >,0> >::_Node>::destroy, COMDAT

; 152  : 		_Destroy(_Ptr);
; 153  : 		}

  00000	c3		 ret	 0
?destroy@?$allocator@U_Node@?$_Tree_nod@V?$_Tmap_traits@HPAVMusicTrack@@U?$less@H@std@@V?$allocator@U?$pair@$$CBHPAVMusicTrack@@@std@@@3@$0A@@std@@@std@@@std@@QAEXPAU_Node@?$_Tree_nod@V?$_Tmap_traits@HPAVMusicTrack@@U?$less@H@std@@V?$allocator@U?$pair@$$CBHPAVMusicTrack@@@std@@@3@$0A@@std@@@2@@Z ENDP ; std::allocator<std::_Tree_nod<std::_Tmap_traits<int,MusicTrack *,std::less<int>,std::allocator<std::pair<int const ,MusicTrack *> >,0> >::_Node>::destroy
; Function compile flags: /Ogsy
; File c:\program files (x86)\microsoft visual studio .net 2003\vc7\include\xtree
_TEXT	ENDS
;	COMDAT ??0?$_Tree_nod@V?$_Tmap_traits@HPAVMusicTrack@@U?$less@H@std@@V?$allocator@U?$pair@$$CBHPAVMusicTrack@@@std@@@3@$0A@@std@@@std@@IAE@ABU?$less@H@1@V?$allocator@U?$pair@$$CBHPAVMusicTrack@@@std@@@1@@Z
_TEXT	SEGMENT
__Al$ = 8						; size = 1
??0?$_Tree_nod@V?$_Tmap_traits@HPAVMusicTrack@@U?$less@H@std@@V?$allocator@U?$pair@$$CBHPAVMusicTrack@@@std@@@3@$0A@@std@@@std@@IAE@ABU?$less@H@1@V?$allocator@U?$pair@$$CBHPAVMusicTrack@@@std@@@1@@Z PROC NEAR ; std::_Tree_nod<std::_Tmap_traits<int,MusicTrack *,std::less<int>,std::allocator<std::pair<int const ,MusicTrack *> >,0> >::_Tree_nod<std::_Tmap_traits<int,MusicTrack *,std::less<int>,std::allocator<std::pair<int const ,MusicTrack *> >,0> >, COMDAT
; _this$ = eax

; 55   : 		}

  00000	c2 04 00	 ret	 4
??0?$_Tree_nod@V?$_Tmap_traits@HPAVMusicTrack@@U?$less@H@std@@V?$allocator@U?$pair@$$CBHPAVMusicTrack@@@std@@@3@$0A@@std@@@std@@IAE@ABU?$less@H@1@V?$allocator@U?$pair@$$CBHPAVMusicTrack@@@std@@@1@@Z ENDP ; std::_Tree_nod<std::_Tmap_traits<int,MusicTrack *,std::less<int>,std::allocator<std::pair<int const ,MusicTrack *> >,0> >::_Tree_nod<std::_Tmap_traits<int,MusicTrack *,std::less<int>,std::allocator<std::pair<int const ,MusicTrack *> >,0> >
; Function compile flags: /Ogsy
; File c:\program files (x86)\microsoft visual studio .net 2003\vc7\include\utility
_TEXT	ENDS
;	COMDAT ??0?$pair@Vconst_iterator@?$_Tree@V?$_Tmap_traits@HPAVMusicTrack@@U?$less@H@std@@V?$allocator@U?$pair@$$CBHPAVMusicTrack@@@std@@@3@$0A@@std@@@std@@V123@@std@@QAE@ABVconst_iterator@?$_Tree@V?$_Tmap_traits@HPAVMusicTrack@@U?$less@H@std@@V?$allocator@U?$pair@$$CBHPAVMusicTrack@@@std@@@3@$0A@@std@@@1@0@Z
_TEXT	SEGMENT
__Val2$ = 8						; size = 4
??0?$pair@Vconst_iterator@?$_Tree@V?$_Tmap_traits@HPAVMusicTrack@@U?$less@H@std@@V?$allocator@U?$pair@$$CBHPAVMusicTrack@@@std@@@3@$0A@@std@@@std@@V123@@std@@QAE@ABVconst_iterator@?$_Tree@V?$_Tmap_traits@HPAVMusicTrack@@U?$less@H@std@@V?$allocator@U?$pair@$$CBHPAVMusicTrack@@@std@@@3@$0A@@std@@@1@0@Z PROC NEAR ; std::pair<std::_Tree<std::_Tmap_traits<int,MusicTrack *,std::less<int>,std::allocator<std::pair<int const ,MusicTrack *> >,0> >::const_iterator,std::_Tree<std::_Tmap_traits<int,MusicTrack *,std::less<int>,std::allocator<std::pair<int const ,MusicTrack *> >,0> >::const_iterator>::pair<std::_Tree<std::_Tmap_traits<int,MusicTrack *,std::less<int>,std::allocator<std::pair<int const ,MusicTrack *> >,0> >::const_iterator,std::_Tree<std::_Tmap_traits<int,MusicTrack *,std::less<int>,std::allocator<std::pair<int const ,MusicTrack *> >,0> >::const_iterator>, COMDAT
; _this$ = eax
; __Val1$ = ecx

; 34   : 		{	// construct from specified values

  00000	8b 09		 mov	 ecx, DWORD PTR [ecx]
  00002	89 08		 mov	 DWORD PTR [eax], ecx
  00004	8b 4c 24 04	 mov	 ecx, DWORD PTR __Val2$[esp-4]
  00008	8b 09		 mov	 ecx, DWORD PTR [ecx]
  0000a	89 48 04	 mov	 DWORD PTR [eax+4], ecx

; 35   : 		}

  0000d	c2 04 00	 ret	 4
??0?$pair@Vconst_iterator@?$_Tree@V?$_Tmap_traits@HPAVMusicTrack@@U?$less@H@std@@V?$allocator@U?$pair@$$CBHPAVMusicTrack@@@std@@@3@$0A@@std@@@std@@V123@@std@@QAE@ABVconst_iterator@?$_Tree@V?$_Tmap_traits@HPAVMusicTrack@@U?$less@H@std@@V?$allocator@U?$pair@$$CBHPAVMusicTrack@@@std@@@3@$0A@@std@@@1@0@Z ENDP ; std::pair<std::_Tree<std::_Tmap_traits<int,MusicTrack *,std::less<int>,std::allocator<std::pair<int const ,MusicTrack *> >,0> >::const_iterator,std::_Tree<std::_Tmap_traits<int,MusicTrack *,std::less<int>,std::allocator<std::pair<int const ,MusicTrack *> >,0> >::const_iterator>::pair<std::_Tree<std::_Tmap_traits<int,MusicTrack *,std::less<int>,std::allocator<std::pair<int const ,MusicTrack *> >,0> >::const_iterator,std::_Tree<std::_Tmap_traits<int,MusicTrack *,std::less<int>,std::allocator<std::pair<int const ,MusicTrack *> >,0> >::const_iterator>
; Function compile flags: /Ogsy
; File c:\program files (x86)\microsoft visual studio .net 2003\vc7\include\xmemory
_TEXT	ENDS
;	COMDAT ?destroy@?$allocator@PAU_Node@?$_Tree_nod@V?$_Tmap_traits@HPAVMusicTrack@@U?$less@H@std@@V?$allocator@U?$pair@$$CBHPAVMusicTrack@@@std@@@3@$0A@@std@@@std@@@std@@QAEXPAPAU_Node@?$_Tree_nod@V?$_Tmap_traits@HPAVMusicTrack@@U?$less@H@std@@V?$allocator@U?$pair@$$CBHPAVMusicTrack@@@std@@@3@$0A@@std@@@2@@Z
_TEXT	SEGMENT
?destroy@?$allocator@PAU_Node@?$_Tree_nod@V?$_Tmap_traits@HPAVMusicTrack@@U?$less@H@std@@V?$allocator@U?$pair@$$CBHPAVMusicTrack@@@std@@@3@$0A@@std@@@std@@@std@@QAEXPAPAU_Node@?$_Tree_nod@V?$_Tmap_traits@HPAVMusicTrack@@U?$less@H@std@@V?$allocator@U?$pair@$$CBHPAVMusicTrack@@@std@@@3@$0A@@std@@@2@@Z PROC NEAR ; std::allocator<std::_Tree_nod<std::_Tmap_traits<int,MusicTrack *,std::less<int>,std::allocator<std::pair<int const ,MusicTrack *> >,0> >::_Node *>::destroy, COMDAT

; 152  : 		_Destroy(_Ptr);
; 153  : 		}

  00000	c3		 ret	 0
?destroy@?$allocator@PAU_Node@?$_Tree_nod@V?$_Tmap_traits@HPAVMusicTrack@@U?$less@H@std@@V?$allocator@U?$pair@$$CBHPAVMusicTrack@@@std@@@3@$0A@@std@@@std@@@std@@QAEXPAPAU_Node@?$_Tree_nod@V?$_Tmap_traits@HPAVMusicTrack@@U?$less@H@std@@V?$allocator@U?$pair@$$CBHPAVMusicTrack@@@std@@@3@$0A@@std@@@2@@Z ENDP ; std::allocator<std::_Tree_nod<std::_Tmap_traits<int,MusicTrack *,std::less<int>,std::allocator<std::pair<int const ,MusicTrack *> >,0> >::_Node *>::destroy
; Function compile flags: /Ogsy
_TEXT	ENDS
;	COMDAT ??0?$allocator@U?$pair@$$CBHPAVMusicTrack@@@std@@@std@@QAE@ABV01@@Z
_TEXT	SEGMENT
??0?$allocator@U?$pair@$$CBHPAVMusicTrack@@@std@@@std@@QAE@ABV01@@Z PROC NEAR ; std::allocator<std::pair<int const ,MusicTrack *> >::allocator<std::pair<int const ,MusicTrack *> >, COMDAT
; _this$ = eax

; 116  : 		{	// construct by copying (do nothing)
; 117  : 		}

  00000	c3		 ret	 0
??0?$allocator@U?$pair@$$CBHPAVMusicTrack@@@std@@@std@@QAE@ABV01@@Z ENDP ; std::allocator<std::pair<int const ,MusicTrack *> >::allocator<std::pair<int const ,MusicTrack *> >
; Function compile flags: /Ogsy
_TEXT	ENDS
;	COMDAT ??0?$allocator@U?$pair@$$CBHPAVMusicTrack@@@std@@@std@@QAE@XZ
_TEXT	SEGMENT
??0?$allocator@U?$pair@$$CBHPAVMusicTrack@@@std@@@std@@QAE@XZ PROC NEAR ; std::allocator<std::pair<int const ,MusicTrack *> >::allocator<std::pair<int const ,MusicTrack *> >, COMDAT
; _this$ = eax

; 112  : 		{	// construct default allocator (do nothing)
; 113  : 		}

  00000	c3		 ret	 0
??0?$allocator@U?$pair@$$CBHPAVMusicTrack@@@std@@@std@@QAE@XZ ENDP ; std::allocator<std::pair<int const ,MusicTrack *> >::allocator<std::pair<int const ,MusicTrack *> >
; Function compile flags: /Ogsy
;	COMDAT ??$_Construct@PAU_Node@?$_Tree_nod@V?$_Tmap_traits@HPAVMusicTrack@@U?$less@H@std@@V?$allocator@U?$pair@$$CBHPAVMusicTrack@@@std@@@3@$0A@@std@@@std@@PAU123@@std@@YAXPAPAU_Node@?$_Tree_nod@V?$_Tmap_traits@HPAVMusicTrack@@U?$less@H@std@@V?$allocator@U?$pair@$$CBHPAVMusicTrack@@@std@@@3@$0A@@std@@@0@ABQAU120@@Z
_TEXT	SEGMENT
??$_Construct@PAU_Node@?$_Tree_nod@V?$_Tmap_traits@HPAVMusicTrack@@U?$less@H@std@@V?$allocator@U?$pair@$$CBHPAVMusicTrack@@@std@@@3@$0A@@std@@@std@@PAU123@@std@@YAXPAPAU_Node@?$_Tree_nod@V?$_Tmap_traits@HPAVMusicTrack@@U?$less@H@std@@V?$allocator@U?$pair@$$CBHPAVMusicTrack@@@std@@@3@$0A@@std@@@0@ABQAU120@@Z PROC NEAR ; std::_Construct<std::_Tree_nod<std::_Tmap_traits<int,MusicTrack *,std::less<int>,std::allocator<std::pair<int const ,MusicTrack *> >,0> >::_Node *,std::_Tree_nod<std::_Tmap_traits<int,MusicTrack *,std::less<int>,std::allocator<std::pair<int const ,MusicTrack *> >,0> >::_Node *>, COMDAT
; __Ptr$ = eax
; __Val$ = ecx

; 42   : 	new ((void _FARQ *)_Ptr) _T1(_Val);

  00000	85 c0		 test	 eax, eax
  00002	74 04		 je	 SHORT $L43473
  00004	8b 09		 mov	 ecx, DWORD PTR [ecx]
  00006	89 08		 mov	 DWORD PTR [eax], ecx
$L43473:

; 43   : 	}

  00008	c3		 ret	 0
??$_Construct@PAU_Node@?$_Tree_nod@V?$_Tmap_traits@HPAVMusicTrack@@U?$less@H@std@@V?$allocator@U?$pair@$$CBHPAVMusicTrack@@@std@@@3@$0A@@std@@@std@@PAU123@@std@@YAXPAPAU_Node@?$_Tree_nod@V?$_Tmap_traits@HPAVMusicTrack@@U?$less@H@std@@V?$allocator@U?$pair@$$CBHPAVMusicTrack@@@std@@@3@$0A@@std@@@0@ABQAU120@@Z ENDP ; std::_Construct<std::_Tree_nod<std::_Tmap_traits<int,MusicTrack *,std::less<int>,std::allocator<std::pair<int const ,MusicTrack *> >,0> >::_Node *,std::_Tree_nod<std::_Tmap_traits<int,MusicTrack *,std::less<int>,std::allocator<std::pair<int const ,MusicTrack *> >,0> >::_Node *>
; Function compile flags: /Ogsy
_TEXT	ENDS
;	COMDAT ?construct@?$allocator@PAU_Node@?$_Tree_nod@V?$_Tmap_traits@HPAVMusicTrack@@U?$less@H@std@@V?$allocator@U?$pair@$$CBHPAVMusicTrack@@@std@@@3@$0A@@std@@@std@@@std@@QAEXPAPAU_Node@?$_Tree_nod@V?$_Tmap_traits@HPAVMusicTrack@@U?$less@H@std@@V?$allocator@U?$pair@$$CBHPAVMusicTrack@@@std@@@3@$0A@@std@@@2@ABQAU342@@Z
_TEXT	SEGMENT
?construct@?$allocator@PAU_Node@?$_Tree_nod@V?$_Tmap_traits@HPAVMusicTrack@@U?$less@H@std@@V?$allocator@U?$pair@$$CBHPAVMusicTrack@@@std@@@3@$0A@@std@@@std@@@std@@QAEXPAPAU_Node@?$_Tree_nod@V?$_Tmap_traits@HPAVMusicTrack@@U?$less@H@std@@V?$allocator@U?$pair@$$CBHPAVMusicTrack@@@std@@@3@$0A@@std@@@2@ABQAU342@@Z PROC NEAR ; std::allocator<std::_Tree_nod<std::_Tmap_traits<int,MusicTrack *,std::less<int>,std::allocator<std::pair<int const ,MusicTrack *> >,0> >::_Node *>::construct, COMDAT
; __Ptr$ = eax
; __Val$ = ecx

; 147  : 		_Construct(_Ptr, _Val);

  00000	85 c0		 test	 eax, eax
  00002	74 04		 je	 SHORT $L43491
  00004	8b 09		 mov	 ecx, DWORD PTR [ecx]
  00006	89 08		 mov	 DWORD PTR [eax], ecx
$L43491:

; 148  : 		}

  00008	c3		 ret	 0
?construct@?$allocator@PAU_Node@?$_Tree_nod@V?$_Tmap_traits@HPAVMusicTrack@@U?$less@H@std@@V?$allocator@U?$pair@$$CBHPAVMusicTrack@@@std@@@3@$0A@@std@@@std@@@std@@QAEXPAPAU_Node@?$_Tree_nod@V?$_Tmap_traits@HPAVMusicTrack@@U?$less@H@std@@V?$allocator@U?$pair@$$CBHPAVMusicTrack@@@std@@@3@$0A@@std@@@2@ABQAU342@@Z ENDP ; std::allocator<std::_Tree_nod<std::_Tmap_traits<int,MusicTrack *,std::less<int>,std::allocator<std::pair<int const ,MusicTrack *> >,0> >::_Node *>::construct
; Function compile flags: /Ogsy
; File c:\program files (x86)\microsoft visual studio .net 2003\vc7\include\xtree
_TEXT	ENDS
;	COMDAT ?_Erase@?$_Tree@V?$_Tmap_traits@HPAVMusicTrack@@U?$less@H@std@@V?$allocator@U?$pair@$$CBHPAVMusicTrack@@@std@@@3@$0A@@std@@@std@@IAEXPAU_Node@?$_Tree_nod@V?$_Tmap_traits@HPAVMusicTrack@@U?$less@H@std@@V?$allocator@U?$pair@$$CBHPAVMusicTrack@@@std@@@3@$0A@@std@@@2@@Z
_TEXT	SEGMENT
__Rootnode$ = 8						; size = 4
?_Erase@?$_Tree@V?$_Tmap_traits@HPAVMusicTrack@@U?$less@H@std@@V?$allocator@U?$pair@$$CBHPAVMusicTrack@@@std@@@3@$0A@@std@@@std@@IAEXPAU_Node@?$_Tree_nod@V?$_Tmap_traits@HPAVMusicTrack@@U?$less@H@std@@V?$allocator@U?$pair@$$CBHPAVMusicTrack@@@std@@@3@$0A@@std@@@2@@Z PROC NEAR ; std::_Tree<std::_Tmap_traits<int,MusicTrack *,std::less<int>,std::allocator<std::pair<int const ,MusicTrack *> >,0> >::_Erase, COMDAT
; _this$ = ecx

; 890  : 		{	// free entire subtree, recursively

  00000	53		 push	 ebx
  00001	56		 push	 esi
  00002	57		 push	 edi

; 891  : 		for (_Nodeptr _Pnode = _Rootnode; !_Isnil(_Pnode); _Rootnode = _Pnode)

  00003	8b 7c 24 10	 mov	 edi, DWORD PTR __Rootnode$[esp+8]
  00007	80 7f 15 00	 cmp	 BYTE PTR [edi+21], 0
  0000b	8b d9		 mov	 ebx, ecx
  0000d	8b f7		 mov	 esi, edi
  0000f	75 1b		 jne	 SHORT $L26427
$L26425:

; 892  : 			{	// free subtrees, then node
; 893  : 			_Erase(_Right(_Pnode));

  00011	ff 76 08	 push	 DWORD PTR [esi+8]
  00014	8b cb		 mov	 ecx, ebx
  00016	e8 00 00 00 00	 call	 ?_Erase@?$_Tree@V?$_Tmap_traits@HPAVMusicTrack@@U?$less@H@std@@V?$allocator@U?$pair@$$CBHPAVMusicTrack@@@std@@@3@$0A@@std@@@std@@IAEXPAU_Node@?$_Tree_nod@V?$_Tmap_traits@HPAVMusicTrack@@U?$less@H@std@@V?$allocator@U?$pair@$$CBHPAVMusicTrack@@@std@@@3@$0A@@std@@@2@@Z ; std::_Tree<std::_Tmap_traits<int,MusicTrack *,std::less<int>,std::allocator<std::pair<int const ,MusicTrack *> >,0> >::_Erase

; 894  : 			_Pnode = _Left(_Pnode);

  0001b	8b 36		 mov	 esi, DWORD PTR [esi]

; 895  : 			this->_Alnod.destroy(_Rootnode);	// destroy, free erased node
; 896  : 			this->_Alnod.deallocate(_Rootnode, 1);

  0001d	57		 push	 edi
  0001e	e8 00 00 00 00	 call	 ??3@YAXPAX@Z		; operator delete
  00023	80 7e 15 00	 cmp	 BYTE PTR [esi+21], 0
  00027	59		 pop	 ecx
  00028	8b fe		 mov	 edi, esi
  0002a	74 e5		 je	 SHORT $L26425
$L26427:
  0002c	5f		 pop	 edi
  0002d	5e		 pop	 esi
  0002e	5b		 pop	 ebx

; 897  : 			}
; 898  : 		}

  0002f	c2 04 00	 ret	 4
?_Erase@?$_Tree@V?$_Tmap_traits@HPAVMusicTrack@@U?$less@H@std@@V?$allocator@U?$pair@$$CBHPAVMusicTrack@@@std@@@3@$0A@@std@@@std@@IAEXPAU_Node@?$_Tree_nod@V?$_Tmap_traits@HPAVMusicTrack@@U?$less@H@std@@V?$allocator@U?$pair@$$CBHPAVMusicTrack@@@std@@@3@$0A@@std@@@2@@Z ENDP ; std::_Tree<std::_Tmap_traits<int,MusicTrack *,std::less<int>,std::allocator<std::pair<int const ,MusicTrack *> >,0> >::_Erase
; Function compile flags: /Ogsy
_TEXT	ENDS
;	COMDAT ??9const_iterator@?$_Tree@V?$_Tmap_traits@HPAVMusicTrack@@U?$less@H@std@@V?$allocator@U?$pair@$$CBHPAVMusicTrack@@@std@@@3@$0A@@std@@@std@@QBE_NABV012@@Z
_TEXT	SEGMENT
??9const_iterator@?$_Tree@V?$_Tmap_traits@HPAVMusicTrack@@U?$less@H@std@@V?$allocator@U?$pair@$$CBHPAVMusicTrack@@@std@@@3@$0A@@std@@@std@@QBE_NABV012@@Z PROC NEAR ; std::_Tree<std::_Tmap_traits<int,MusicTrack *,std::less<int>,std::allocator<std::pair<int const ,MusicTrack *> >,0> >::const_iterator::operator!=, COMDAT
; _this$ = eax
; __Right$ = edx

; 246  : 			return (!(*this == _Right));

  00000	8b 00		 mov	 eax, DWORD PTR [eax]
  00002	33 c9		 xor	 ecx, ecx
  00004	3b 02		 cmp	 eax, DWORD PTR [edx]
  00006	0f 95 c1	 setne	 cl
  00009	8a c1		 mov	 al, cl

; 247  : 			}

  0000b	c3		 ret	 0
??9const_iterator@?$_Tree@V?$_Tmap_traits@HPAVMusicTrack@@U?$less@H@std@@V?$allocator@U?$pair@$$CBHPAVMusicTrack@@@std@@@3@$0A@@std@@@std@@QBE_NABV012@@Z ENDP ; std::_Tree<std::_Tmap_traits<int,MusicTrack *,std::less<int>,std::allocator<std::pair<int const ,MusicTrack *> >,0> >::const_iterator::operator!=
; Function compile flags: /Ogsy
_TEXT	ENDS
;	COMDAT ??0?$_Tree_ptr@V?$_Tmap_traits@HPAVMusicTrack@@U?$less@H@std@@V?$allocator@U?$pair@$$CBHPAVMusicTrack@@@std@@@3@$0A@@std@@@std@@IAE@ABU?$less@H@1@V?$allocator@U?$pair@$$CBHPAVMusicTrack@@@std@@@1@@Z
_TEXT	SEGMENT
__Al$ = 8						; size = 1
??0?$_Tree_ptr@V?$_Tmap_traits@HPAVMusicTrack@@U?$less@H@std@@V?$allocator@U?$pair@$$CBHPAVMusicTrack@@@std@@@3@$0A@@std@@@std@@IAE@ABU?$less@H@1@V?$allocator@U?$pair@$$CBHPAVMusicTrack@@@std@@@1@@Z PROC NEAR ; std::_Tree_ptr<std::_Tmap_traits<int,MusicTrack *,std::less<int>,std::allocator<std::pair<int const ,MusicTrack *> >,0> >::_Tree_ptr<std::_Tmap_traits<int,MusicTrack *,std::less<int>,std::allocator<std::pair<int const ,MusicTrack *> >,0> >, COMDAT
; _this$ = eax

; 77   : 		}

  00000	c2 04 00	 ret	 4
??0?$_Tree_ptr@V?$_Tmap_traits@HPAVMusicTrack@@U?$less@H@std@@V?$allocator@U?$pair@$$CBHPAVMusicTrack@@@std@@@3@$0A@@std@@@std@@IAE@ABU?$less@H@1@V?$allocator@U?$pair@$$CBHPAVMusicTrack@@@std@@@1@@Z ENDP ; std::_Tree_ptr<std::_Tmap_traits<int,MusicTrack *,std::less<int>,std::allocator<std::pair<int const ,MusicTrack *> >,0> >::_Tree_ptr<std::_Tmap_traits<int,MusicTrack *,std::less<int>,std::allocator<std::pair<int const ,MusicTrack *> >,0> >
; Function compile flags: /Ogsy
_TEXT	ENDS
;	COMDAT ?_Buynode@?$_Tree@V?$_Tmap_traits@HPAVMusicTrack@@U?$less@H@std@@V?$allocator@U?$pair@$$CBHPAVMusicTrack@@@std@@@3@$0A@@std@@@std@@IAEPAU_Node@?$_Tree_nod@V?$_Tmap_traits@HPAVMusicTrack@@U?$less@H@std@@V?$allocator@U?$pair@$$CBHPAVMusicTrack@@@std@@@3@$0A@@std@@@2@XZ
_TEXT	SEGMENT
?_Buynode@?$_Tree@V?$_Tmap_traits@HPAVMusicTrack@@U?$less@H@std@@V?$allocator@U?$pair@$$CBHPAVMusicTrack@@@std@@@3@$0A@@std@@@std@@IAEPAU_Node@?$_Tree_nod@V?$_Tmap_traits@HPAVMusicTrack@@U?$less@H@std@@V?$allocator@U?$pair@$$CBHPAVMusicTrack@@@std@@@3@$0A@@std@@@2@XZ PROC NEAR ; std::_Tree<std::_Tmap_traits<int,MusicTrack *,std::less<int>,std::allocator<std::pair<int const ,MusicTrack *> >,0> >::_Buynode, COMDAT

; 1106 : 		_Nodeptr _Wherenode = this->_Alnod.allocate(1);

  00000	6a 18		 push	 24			; 00000018H
  00002	e8 00 00 00 00	 call	 ??2@YAPAXI@Z		; operator new

; 1107 : 		int _Linkcnt = 0;
; 1108 : 
; 1109 : 		_TRY_BEGIN
; 1110 : 		this->_Alptr.construct(&_Left(_Wherenode), 0);

  00007	33 d2		 xor	 edx, edx
  00009	3b c2		 cmp	 eax, edx
  0000b	59		 pop	 ecx
  0000c	74 02		 je	 SHORT $L43588
  0000e	89 10		 mov	 DWORD PTR [eax], edx
$L43588:

; 1111 : 		++_Linkcnt;
; 1112 : 		this->_Alptr.construct(&_Parent(_Wherenode), 0);

  00010	8d 48 04	 lea	 ecx, DWORD PTR [eax+4]
  00013	3b ca		 cmp	 ecx, edx
  00015	74 02		 je	 SHORT $L43615
  00017	89 11		 mov	 DWORD PTR [ecx], edx
$L43615:

; 1113 : 		++_Linkcnt;
; 1114 : 		this->_Alptr.construct(&_Right(_Wherenode), 0);

  00019	8d 48 08	 lea	 ecx, DWORD PTR [eax+8]
  0001c	3b ca		 cmp	 ecx, edx
  0001e	74 02		 je	 SHORT $L43642
  00020	89 11		 mov	 DWORD PTR [ecx], edx
$L43642:

; 1115 : 		_CATCH_ALL
; 1116 : 		if (1 < _Linkcnt)
; 1117 : 			this->_Alptr.destroy(&_Parent(_Wherenode));
; 1118 : 		if (0 < _Linkcnt)
; 1119 : 			this->_Alptr.destroy(&_Left(_Wherenode));
; 1120 : 		this->_Alnod.deallocate(_Wherenode, 1);
; 1121 : 		_RERAISE;
; 1122 : 		_CATCH_END
; 1123 : 		_Color(_Wherenode) = _Black;

  00022	c6 40 14 01	 mov	 BYTE PTR [eax+20], 1

; 1124 : 		_Isnil(_Wherenode) = false;

  00026	88 50 15	 mov	 BYTE PTR [eax+21], dl

; 1125 : 		return (_Wherenode);
; 1126 : 		}

  00029	c3		 ret	 0
?_Buynode@?$_Tree@V?$_Tmap_traits@HPAVMusicTrack@@U?$less@H@std@@V?$allocator@U?$pair@$$CBHPAVMusicTrack@@@std@@@3@$0A@@std@@@std@@IAEPAU_Node@?$_Tree_nod@V?$_Tmap_traits@HPAVMusicTrack@@U?$less@H@std@@V?$allocator@U?$pair@$$CBHPAVMusicTrack@@@std@@@3@$0A@@std@@@2@XZ ENDP ; std::_Tree<std::_Tmap_traits<int,MusicTrack *,std::less<int>,std::allocator<std::pair<int const ,MusicTrack *> >,0> >::_Buynode
; Function compile flags: /Ogsy
_TEXT	ENDS
;	COMDAT ??0?$_Tree_val@V?$_Tmap_traits@HPAVMusicTrack@@U?$less@H@std@@V?$allocator@U?$pair@$$CBHPAVMusicTrack@@@std@@@3@$0A@@std@@@std@@IAE@ABU?$less@H@1@V?$allocator@U?$pair@$$CBHPAVMusicTrack@@@std@@@1@@Z
_TEXT	SEGMENT
__Al$ = 8						; size = 1
??0?$_Tree_val@V?$_Tmap_traits@HPAVMusicTrack@@U?$less@H@std@@V?$allocator@U?$pair@$$CBHPAVMusicTrack@@@std@@@3@$0A@@std@@@std@@IAE@ABU?$less@H@1@V?$allocator@U?$pair@$$CBHPAVMusicTrack@@@std@@@1@@Z PROC NEAR ; std::_Tree_val<std::_Tmap_traits<int,MusicTrack *,std::less<int>,std::allocator<std::pair<int const ,MusicTrack *> >,0> >::_Tree_val<std::_Tmap_traits<int,MusicTrack *,std::less<int>,std::allocator<std::pair<int const ,MusicTrack *> >,0> >, COMDAT
; _this$ = eax

; 96   : 		}

  00000	c2 04 00	 ret	 4
??0?$_Tree_val@V?$_Tmap_traits@HPAVMusicTrack@@U?$less@H@std@@V?$allocator@U?$pair@$$CBHPAVMusicTrack@@@std@@@3@$0A@@std@@@std@@IAE@ABU?$less@H@1@V?$allocator@U?$pair@$$CBHPAVMusicTrack@@@std@@@1@@Z ENDP ; std::_Tree_val<std::_Tmap_traits<int,MusicTrack *,std::less<int>,std::allocator<std::pair<int const ,MusicTrack *> >,0> >::_Tree_val<std::_Tmap_traits<int,MusicTrack *,std::less<int>,std::allocator<std::pair<int const ,MusicTrack *> >,0> >
; Function compile flags: /Ogsy
; File c:\program files (x86)\microsoft visual studio .net 2003\vc7\include\xutility
;	COMDAT ??$_Distance2@Vconst_iterator@?$_Tree@V?$_Tmap_traits@HPAVMusicTrack@@U?$less@H@std@@V?$allocator@U?$pair@$$CBHPAVMusicTrack@@@std@@@3@$0A@@std@@@std@@I@std@@YAXVconst_iterator@?$_Tree@V?$_Tmap_traits@HPAVMusicTrack@@U?$less@H@std@@V?$allocator@U?$pair@$$CBHPAVMusicTrack@@@std@@@3@$0A@@std@@@0@0AAIUbidirectional_iterator_tag@0@@Z
_TEXT	SEGMENT
__First$ = 8						; size = 4
__Last$ = 12						; size = 4
___formal$ = 16						; size = 1
??$_Distance2@Vconst_iterator@?$_Tree@V?$_Tmap_traits@HPAVMusicTrack@@U?$less@H@std@@V?$allocator@U?$pair@$$CBHPAVMusicTrack@@@std@@@3@$0A@@std@@@std@@I@std@@YAXVconst_iterator@?$_Tree@V?$_Tmap_traits@HPAVMusicTrack@@U?$less@H@std@@V?$allocator@U?$pair@$$CBHPAVMusicTrack@@@std@@@3@$0A@@std@@@0@0AAIUbidirectional_iterator_tag@0@@Z PROC NEAR ; std::_Distance2<std::_Tree<std::_Tmap_traits<int,MusicTrack *,std::less<int>,std::allocator<std::pair<int const ,MusicTrack *> >,0> >::const_iterator,unsigned int>, COMDAT
; __Off$ = esi

; 469  : 	{	// add to _Off distance between bidirectional iterators (redundant)

  00000	57		 push	 edi

; 470  : 	for (; _First != _Last; ++_First)

  00001	8b 7c 24 0c	 mov	 edi, DWORD PTR __Last$[esp]
  00005	eb 0b		 jmp	 SHORT $L55379
$L55368:

; 471  : 		++_Off;

  00007	ff 06		 inc	 DWORD PTR [esi]
  00009	8d 54 24 08	 lea	 edx, DWORD PTR __First$[esp]
  0000d	e8 00 00 00 00	 call	 ?_Inc@const_iterator@?$_Tree@V?$_Tmap_traits@HPAVMusicTrack@@U?$less@H@std@@V?$allocator@U?$pair@$$CBHPAVMusicTrack@@@std@@@3@$0A@@std@@@std@@QAEXXZ ; std::_Tree<std::_Tmap_traits<int,MusicTrack *,std::less<int>,std::allocator<std::pair<int const ,MusicTrack *> >,0> >::const_iterator::_Inc
$L55379:

; 470  : 	for (; _First != _Last; ++_First)

  00012	39 7c 24 08	 cmp	 DWORD PTR __First$[esp], edi
  00016	75 ef		 jne	 SHORT $L55368
  00018	5f		 pop	 edi

; 472  : 	}

  00019	c3		 ret	 0
??$_Distance2@Vconst_iterator@?$_Tree@V?$_Tmap_traits@HPAVMusicTrack@@U?$less@H@std@@V?$allocator@U?$pair@$$CBHPAVMusicTrack@@@std@@@3@$0A@@std@@@std@@I@std@@YAXVconst_iterator@?$_Tree@V?$_Tmap_traits@HPAVMusicTrack@@U?$less@H@std@@V?$allocator@U?$pair@$$CBHPAVMusicTrack@@@std@@@3@$0A@@std@@@0@0AAIUbidirectional_iterator_tag@0@@Z ENDP ; std::_Distance2<std::_Tree<std::_Tmap_traits<int,MusicTrack *,std::less<int>,std::allocator<std::pair<int const ,MusicTrack *> >,0> >::const_iterator,unsigned int>
; Function compile flags: /Ogsy
_TEXT	ENDS
;	COMDAT ??$_Distance@Vconst_iterator@?$_Tree@V?$_Tmap_traits@HPAVMusicTrack@@U?$less@H@std@@V?$allocator@U?$pair@$$CBHPAVMusicTrack@@@std@@@3@$0A@@std@@@std@@I@std@@YAXVconst_iterator@?$_Tree@V?$_Tmap_traits@HPAVMusicTrack@@U?$less@H@std@@V?$allocator@U?$pair@$$CBHPAVMusicTrack@@@std@@@3@$0A@@std@@@0@0AAI@Z
_TEXT	SEGMENT
$T55383 = -4						; size = 1
__First$ = 8						; size = 4
__Last$ = 12						; size = 4
??$_Distance@Vconst_iterator@?$_Tree@V?$_Tmap_traits@HPAVMusicTrack@@U?$less@H@std@@V?$allocator@U?$pair@$$CBHPAVMusicTrack@@@std@@@3@$0A@@std@@@std@@I@std@@YAXVconst_iterator@?$_Tree@V?$_Tmap_traits@HPAVMusicTrack@@U?$less@H@std@@V?$allocator@U?$pair@$$CBHPAVMusicTrack@@@std@@@3@$0A@@std@@@0@0AAI@Z PROC NEAR ; std::_Distance<std::_Tree<std::_Tmap_traits<int,MusicTrack *,std::less<int>,std::allocator<std::pair<int const ,MusicTrack *> >,0> >::const_iterator,unsigned int>, COMDAT
; __Off$ = esi

; 497  : 	{	// add to _Off distance between iterators

  00000	55		 push	 ebp
  00001	8b ec		 mov	 ebp, esp
  00003	51		 push	 ecx

; 498  : 	_Distance2(_First, _Last, _Off, _Iter_cat(_First));

  00004	ff 75 fc	 push	 DWORD PTR $T55383[ebp]
  00007	ff 75 0c	 push	 DWORD PTR __Last$[ebp]
  0000a	ff 75 08	 push	 DWORD PTR __First$[ebp]
  0000d	e8 00 00 00 00	 call	 ??$_Distance2@Vconst_iterator@?$_Tree@V?$_Tmap_traits@HPAVMusicTrack@@U?$less@H@std@@V?$allocator@U?$pair@$$CBHPAVMusicTrack@@@std@@@3@$0A@@std@@@std@@I@std@@YAXVconst_iterator@?$_Tree@V?$_Tmap_traits@HPAVMusicTrack@@U?$less@H@std@@V?$allocator@U?$pair@$$CBHPAVMusicTrack@@@std@@@3@$0A@@std@@@0@0AAIUbidirectional_iterator_tag@0@@Z ; std::_Distance2<std::_Tree<std::_Tmap_traits<int,MusicTrack *,std::less<int>,std::allocator<std::pair<int const ,MusicTrack *> >,0> >::const_iterator,unsigned int>
  00012	83 c4 0c	 add	 esp, 12			; 0000000cH

; 499  : 	}

  00015	c9		 leave
  00016	c3		 ret	 0
??$_Distance@Vconst_iterator@?$_Tree@V?$_Tmap_traits@HPAVMusicTrack@@U?$less@H@std@@V?$allocator@U?$pair@$$CBHPAVMusicTrack@@@std@@@3@$0A@@std@@@std@@I@std@@YAXVconst_iterator@?$_Tree@V?$_Tmap_traits@HPAVMusicTrack@@U?$less@H@std@@V?$allocator@U?$pair@$$CBHPAVMusicTrack@@@std@@@3@$0A@@std@@@0@0AAI@Z ENDP ; std::_Distance<std::_Tree<std::_Tmap_traits<int,MusicTrack *,std::less<int>,std::allocator<std::pair<int const ,MusicTrack *> >,0> >::const_iterator,unsigned int>
; Function compile flags: /Ogsy
; File c:\program files (x86)\microsoft visual studio .net 2003\vc7\include\xtree
_TEXT	ENDS
;	COMDAT ??Eiterator@?$_Tree@V?$_Tmap_traits@HPAVMusicTrack@@U?$less@H@std@@V?$allocator@U?$pair@$$CBHPAVMusicTrack@@@std@@@3@$0A@@std@@@std@@QAE?AV012@H@Z
_TEXT	SEGMENT
??Eiterator@?$_Tree@V?$_Tmap_traits@HPAVMusicTrack@@U?$less@H@std@@V?$allocator@U?$pair@$$CBHPAVMusicTrack@@@std@@@3@$0A@@std@@@std@@QAE?AV012@H@Z PROC NEAR ; std::_Tree<std::_Tmap_traits<int,MusicTrack *,std::less<int>,std::allocator<std::pair<int const ,MusicTrack *> >,0> >::iterator::operator++, COMDAT
; _this$ = edx
; ___$ReturnUdt$ = edi

; 332  : 			{	// postincrement

  00000	56		 push	 esi

; 333  : 			iterator _Tmp = *this;

  00001	8b 32		 mov	 esi, DWORD PTR [edx]

; 334  : 			++*this;

  00003	e8 00 00 00 00	 call	 ?_Inc@const_iterator@?$_Tree@V?$_Tmap_traits@HPAVMusicTrack@@U?$less@H@std@@V?$allocator@U?$pair@$$CBHPAVMusicTrack@@@std@@@3@$0A@@std@@@std@@QAEXXZ ; std::_Tree<std::_Tmap_traits<int,MusicTrack *,std::less<int>,std::allocator<std::pair<int const ,MusicTrack *> >,0> >::const_iterator::_Inc

; 335  : 			return (_Tmp);

  00008	89 37		 mov	 DWORD PTR [edi], esi
  0000a	8b c7		 mov	 eax, edi
  0000c	5e		 pop	 esi

; 336  : 			}

  0000d	c3		 ret	 0
??Eiterator@?$_Tree@V?$_Tmap_traits@HPAVMusicTrack@@U?$less@H@std@@V?$allocator@U?$pair@$$CBHPAVMusicTrack@@@std@@@3@$0A@@std@@@std@@QAE?AV012@H@Z ENDP ; std::_Tree<std::_Tmap_traits<int,MusicTrack *,std::less<int>,std::allocator<std::pair<int const ,MusicTrack *> >,0> >::iterator::operator++
; Function compile flags: /Ogsy
_TEXT	ENDS
;	COMDAT ?_Ubound@?$_Tree@V?$_Tmap_traits@HPAVMusicTrack@@U?$less@H@std@@V?$allocator@U?$pair@$$CBHPAVMusicTrack@@@std@@@3@$0A@@std@@@std@@IBEPAU_Node@?$_Tree_nod@V?$_Tmap_traits@HPAVMusicTrack@@U?$less@H@std@@V?$allocator@U?$pair@$$CBHPAVMusicTrack@@@std@@@3@$0A@@std@@@2@ABH@Z
_TEXT	SEGMENT
?_Ubound@?$_Tree@V?$_Tmap_traits@HPAVMusicTrack@@U?$less@H@std@@V?$allocator@U?$pair@$$CBHPAVMusicTrack@@@std@@@3@$0A@@std@@@std@@IBEPAU_Node@?$_Tree_nod@V?$_Tmap_traits@HPAVMusicTrack@@U?$less@H@std@@V?$allocator@U?$pair@$$CBHPAVMusicTrack@@@std@@@3@$0A@@std@@@2@ABH@Z PROC NEAR ; std::_Tree<std::_Tmap_traits<int,MusicTrack *,std::less<int>,std::allocator<std::pair<int const ,MusicTrack *> >,0> >::_Ubound, COMDAT
; _this$ = eax
; __Keyval$ = edx

; 1089 : 		_Nodeptr _Pnode = _Root();

  00000	8b 40 04	 mov	 eax, DWORD PTR [eax+4]
  00003	8b 48 04	 mov	 ecx, DWORD PTR [eax+4]

; 1090 : 		_Nodeptr _Wherenode = _Myhead;	// end() if search fails
; 1091 : 
; 1092 : 		while (!_Isnil(_Pnode))

  00006	80 79 15 00	 cmp	 BYTE PTR [ecx+21], 0
  0000a	75 16		 jne	 SHORT $L26314
  0000c	8b 12		 mov	 edx, DWORD PTR [edx]
$L26313:

; 1093 : 			if (this->comp(_Keyval, _Key(_Pnode)))

  0000e	3b 51 0c	 cmp	 edx, DWORD PTR [ecx+12]
  00011	7d 06		 jge	 SHORT $L26315

; 1094 : 				{	// _Pnode greater than _Keyval, remember it
; 1095 : 				_Wherenode = _Pnode;

  00013	8b c1		 mov	 eax, ecx

; 1096 : 				_Pnode = _Left(_Pnode);	// descend left subtree

  00015	8b 09		 mov	 ecx, DWORD PTR [ecx]

; 1097 : 				}
; 1098 : 			else

  00017	eb 03		 jmp	 SHORT $L26316
$L26315:

; 1099 : 				_Pnode = _Right(_Pnode);	// descend right subtree

  00019	8b 49 08	 mov	 ecx, DWORD PTR [ecx+8]
$L26316:

; 1090 : 		_Nodeptr _Wherenode = _Myhead;	// end() if search fails
; 1091 : 
; 1092 : 		while (!_Isnil(_Pnode))

  0001c	80 79 15 00	 cmp	 BYTE PTR [ecx+21], 0
  00020	74 ec		 je	 SHORT $L26313
$L26314:

; 1100 : 
; 1101 : 		return (_Wherenode);	// return best remembered candidate
; 1102 : 		}

  00022	c3		 ret	 0
?_Ubound@?$_Tree@V?$_Tmap_traits@HPAVMusicTrack@@U?$less@H@std@@V?$allocator@U?$pair@$$CBHPAVMusicTrack@@@std@@@3@$0A@@std@@@std@@IBEPAU_Node@?$_Tree_nod@V?$_Tmap_traits@HPAVMusicTrack@@U?$less@H@std@@V?$allocator@U?$pair@$$CBHPAVMusicTrack@@@std@@@3@$0A@@std@@@2@ABH@Z ENDP ; std::_Tree<std::_Tmap_traits<int,MusicTrack *,std::less<int>,std::allocator<std::pair<int const ,MusicTrack *> >,0> >::_Ubound
; Function compile flags: /Ogsy
_TEXT	ENDS
;	COMDAT ?clear@?$_Tree@V?$_Tmap_traits@HPAVMusicTrack@@U?$less@H@std@@V?$allocator@U?$pair@$$CBHPAVMusicTrack@@@std@@@3@$0A@@std@@@std@@QAEXXZ
_TEXT	SEGMENT
?clear@?$_Tree@V?$_Tmap_traits@HPAVMusicTrack@@U?$less@H@std@@V?$allocator@U?$pair@$$CBHPAVMusicTrack@@@std@@@3@$0A@@std@@@std@@QAEXXZ PROC NEAR ; std::_Tree<std::_Tmap_traits<int,MusicTrack *,std::less<int>,std::allocator<std::pair<int const ,MusicTrack *> >,0> >::clear, COMDAT
; _this$ = edi

; 780  : 		{	// erase all

  00000	56		 push	 esi

; 781  : 		_Erase(_Root());

  00001	8d 77 04	 lea	 esi, DWORD PTR [edi+4]
  00004	8b 06		 mov	 eax, DWORD PTR [esi]
  00006	ff 70 04	 push	 DWORD PTR [eax+4]
  00009	8b cf		 mov	 ecx, edi
  0000b	e8 00 00 00 00	 call	 ?_Erase@?$_Tree@V?$_Tmap_traits@HPAVMusicTrack@@U?$less@H@std@@V?$allocator@U?$pair@$$CBHPAVMusicTrack@@@std@@@3@$0A@@std@@@std@@IAEXPAU_Node@?$_Tree_nod@V?$_Tmap_traits@HPAVMusicTrack@@U?$less@H@std@@V?$allocator@U?$pair@$$CBHPAVMusicTrack@@@std@@@3@$0A@@std@@@2@@Z ; std::_Tree<std::_Tmap_traits<int,MusicTrack *,std::less<int>,std::allocator<std::pair<int const ,MusicTrack *> >,0> >::_Erase

; 782  : 		_Root() = _Myhead, _Mysize = 0;

  00010	8b 06		 mov	 eax, DWORD PTR [esi]
  00012	89 40 04	 mov	 DWORD PTR [eax+4], eax

; 783  : 		_Lmost() = _Myhead, _Rmost() = _Myhead;

  00015	8b 06		 mov	 eax, DWORD PTR [esi]
  00017	83 67 08 00	 and	 DWORD PTR [edi+8], 0
  0001b	89 00		 mov	 DWORD PTR [eax], eax
  0001d	8b 36		 mov	 esi, DWORD PTR [esi]
  0001f	89 76 08	 mov	 DWORD PTR [esi+8], esi
  00022	5e		 pop	 esi

; 784  : 		}

  00023	c3		 ret	 0
?clear@?$_Tree@V?$_Tmap_traits@HPAVMusicTrack@@U?$less@H@std@@V?$allocator@U?$pair@$$CBHPAVMusicTrack@@@std@@@3@$0A@@std@@@std@@QAEXXZ ENDP ; std::_Tree<std::_Tmap_traits<int,MusicTrack *,std::less<int>,std::allocator<std::pair<int const ,MusicTrack *> >,0> >::clear
; Function compile flags: /Ogsy
_TEXT	ENDS
;	COMDAT ?_Init@?$_Tree@V?$_Tmap_traits@HPAVMusicTrack@@U?$less@H@std@@V?$allocator@U?$pair@$$CBHPAVMusicTrack@@@std@@@3@$0A@@std@@@std@@IAEXXZ
_TEXT	SEGMENT
?_Init@?$_Tree@V?$_Tmap_traits@HPAVMusicTrack@@U?$less@H@std@@V?$allocator@U?$pair@$$CBHPAVMusicTrack@@@std@@@3@$0A@@std@@@std@@IAEXXZ PROC NEAR ; std::_Tree<std::_Tmap_traits<int,MusicTrack *,std::less<int>,std::allocator<std::pair<int const ,MusicTrack *> >,0> >::_Init, COMDAT
; _this$ = esi

; 902  : 		_Myhead = _Buynode();

  00000	e8 00 00 00 00	 call	 ?_Buynode@?$_Tree@V?$_Tmap_traits@HPAVMusicTrack@@U?$less@H@std@@V?$allocator@U?$pair@$$CBHPAVMusicTrack@@@std@@@3@$0A@@std@@@std@@IAEPAU_Node@?$_Tree_nod@V?$_Tmap_traits@HPAVMusicTrack@@U?$less@H@std@@V?$allocator@U?$pair@$$CBHPAVMusicTrack@@@std@@@3@$0A@@std@@@2@XZ ; std::_Tree<std::_Tmap_traits<int,MusicTrack *,std::less<int>,std::allocator<std::pair<int const ,MusicTrack *> >,0> >::_Buynode
  00005	8d 4e 04	 lea	 ecx, DWORD PTR [esi+4]
  00008	89 01		 mov	 DWORD PTR [ecx], eax

; 903  : 		_Isnil(_Myhead) = true;

  0000a	c6 40 15 01	 mov	 BYTE PTR [eax+21], 1

; 904  : 		_Root() = _Myhead;

  0000e	8b 01		 mov	 eax, DWORD PTR [ecx]
  00010	89 40 04	 mov	 DWORD PTR [eax+4], eax

; 905  : 		_Lmost() = _Myhead, _Rmost() = _Myhead;

  00013	8b 01		 mov	 eax, DWORD PTR [ecx]
  00015	89 00		 mov	 DWORD PTR [eax], eax
  00017	8b 09		 mov	 ecx, DWORD PTR [ecx]
  00019	89 49 08	 mov	 DWORD PTR [ecx+8], ecx

; 906  : 		_Mysize = 0;

  0001c	83 66 08 00	 and	 DWORD PTR [esi+8], 0

; 907  : 		}

  00020	c3		 ret	 0
?_Init@?$_Tree@V?$_Tmap_traits@HPAVMusicTrack@@U?$less@H@std@@V?$allocator@U?$pair@$$CBHPAVMusicTrack@@@std@@@3@$0A@@std@@@std@@IAEXXZ ENDP ; std::_Tree<std::_Tmap_traits<int,MusicTrack *,std::less<int>,std::allocator<std::pair<int const ,MusicTrack *> >,0> >::_Init
; Function compile flags: /Ogsy
_TEXT	ENDS
;	COMDAT ?upper_bound@?$_Tree@V?$_Tmap_traits@HPAVMusicTrack@@U?$less@H@std@@V?$allocator@U?$pair@$$CBHPAVMusicTrack@@@std@@@3@$0A@@std@@@std@@QBE?AVconst_iterator@12@ABH@Z
_TEXT	SEGMENT
?upper_bound@?$_Tree@V?$_Tmap_traits@HPAVMusicTrack@@U?$less@H@std@@V?$allocator@U?$pair@$$CBHPAVMusicTrack@@@std@@@3@$0A@@std@@@std@@QBE?AVconst_iterator@12@ABH@Z PROC NEAR ; std::_Tree<std::_Tmap_traits<int,MusicTrack *,std::less<int>,std::allocator<std::pair<int const ,MusicTrack *> >,0> >::upper_bound, COMDAT
; _this$ = eax
; ___$ReturnUdt$ = esi
; __Keyval$ = edx

; 825  : 		return (_TREE_CONST_ITERATOR(_Ubound(_Keyval)));

  00000	e8 00 00 00 00	 call	 ?_Ubound@?$_Tree@V?$_Tmap_traits@HPAVMusicTrack@@U?$less@H@std@@V?$allocator@U?$pair@$$CBHPAVMusicTrack@@@std@@@3@$0A@@std@@@std@@IBEPAU_Node@?$_Tree_nod@V?$_Tmap_traits@HPAVMusicTrack@@U?$less@H@std@@V?$allocator@U?$pair@$$CBHPAVMusicTrack@@@std@@@3@$0A@@std@@@2@ABH@Z ; std::_Tree<std::_Tmap_traits<int,MusicTrack *,std::less<int>,std::allocator<std::pair<int const ,MusicTrack *> >,0> >::_Ubound
  00005	89 06		 mov	 DWORD PTR [esi], eax
  00007	8b c6		 mov	 eax, esi

; 826  : 		}

  00009	c3		 ret	 0
?upper_bound@?$_Tree@V?$_Tmap_traits@HPAVMusicTrack@@U?$less@H@std@@V?$allocator@U?$pair@$$CBHPAVMusicTrack@@@std@@@3@$0A@@std@@@std@@QBE?AVconst_iterator@12@ABH@Z ENDP ; std::_Tree<std::_Tmap_traits<int,MusicTrack *,std::less<int>,std::allocator<std::pair<int const ,MusicTrack *> >,0> >::upper_bound
; Function compile flags: /Ogsy
_TEXT	ENDS
;	COMDAT ?lower_bound@?$_Tree@V?$_Tmap_traits@HPAVMusicTrack@@U?$less@H@std@@V?$allocator@U?$pair@$$CBHPAVMusicTrack@@@std@@@3@$0A@@std@@@std@@QBE?AVconst_iterator@12@ABH@Z
_TEXT	SEGMENT
?lower_bound@?$_Tree@V?$_Tmap_traits@HPAVMusicTrack@@U?$less@H@std@@V?$allocator@U?$pair@$$CBHPAVMusicTrack@@@std@@@3@$0A@@std@@@std@@QBE?AVconst_iterator@12@ABH@Z PROC NEAR ; std::_Tree<std::_Tmap_traits<int,MusicTrack *,std::less<int>,std::allocator<std::pair<int const ,MusicTrack *> >,0> >::lower_bound, COMDAT
; _this$ = eax
; ___$ReturnUdt$ = esi
; __Keyval$ = edx

; 815  : 		return (_TREE_CONST_ITERATOR(_Lbound(_Keyval)));

  00000	e8 00 00 00 00	 call	 ?_Lbound@?$_Tree@V?$_Tmap_traits@HPAVMusicTrack@@U?$less@H@std@@V?$allocator@U?$pair@$$CBHPAVMusicTrack@@@std@@@3@$0A@@std@@@std@@IBEPAU_Node@?$_Tree_nod@V?$_Tmap_traits@HPAVMusicTrack@@U?$less@H@std@@V?$allocator@U?$pair@$$CBHPAVMusicTrack@@@std@@@3@$0A@@std@@@2@ABH@Z ; std::_Tree<std::_Tmap_traits<int,MusicTrack *,std::less<int>,std::allocator<std::pair<int const ,MusicTrack *> >,0> >::_Lbound
  00005	89 06		 mov	 DWORD PTR [esi], eax
  00007	8b c6		 mov	 eax, esi

; 816  : 		}

  00009	c3		 ret	 0
?lower_bound@?$_Tree@V?$_Tmap_traits@HPAVMusicTrack@@U?$less@H@std@@V?$allocator@U?$pair@$$CBHPAVMusicTrack@@@std@@@3@$0A@@std@@@std@@QBE?AVconst_iterator@12@ABH@Z ENDP ; std::_Tree<std::_Tmap_traits<int,MusicTrack *,std::less<int>,std::allocator<std::pair<int const ,MusicTrack *> >,0> >::lower_bound
; Function compile flags: /Ogsy
_TEXT	ENDS
;	COMDAT ?equal_range@?$_Tree@V?$_Tmap_traits@HPAVMusicTrack@@U?$less@H@std@@V?$allocator@U?$pair@$$CBHPAVMusicTrack@@@std@@@3@$0A@@std@@@std@@QBE?AU?$pair@Vconst_iterator@?$_Tree@V?$_Tmap_traits@HPAVMusicTrack@@U?$less@H@std@@V?$allocator@U?$pair@$$CBHPAVMusicTrack@@@std@@@3@$0A@@std@@@std@@V123@@2@ABH@Z
_TEXT	SEGMENT
_this$ = 8						; size = 4
__Keyval$ = 12						; size = 4
?equal_range@?$_Tree@V?$_Tmap_traits@HPAVMusicTrack@@U?$less@H@std@@V?$allocator@U?$pair@$$CBHPAVMusicTrack@@@std@@@3@$0A@@std@@@std@@QBE?AU?$pair@Vconst_iterator@?$_Tree@V?$_Tmap_traits@HPAVMusicTrack@@U?$less@H@std@@V?$allocator@U?$pair@$$CBHPAVMusicTrack@@@std@@@3@$0A@@std@@@std@@V123@@2@ABH@Z PROC NEAR ; std::_Tree<std::_Tmap_traits<int,MusicTrack *,std::less<int>,std::allocator<std::pair<int const ,MusicTrack *> >,0> >::equal_range, COMDAT
; ___$ReturnUdt$ = esi

; 835  : 		return (_Paircc(lower_bound(_Keyval), upper_bound(_Keyval)));

  00000	8b 54 24 08	 mov	 edx, DWORD PTR __Keyval$[esp-4]
  00004	8b 44 24 04	 mov	 eax, DWORD PTR _this$[esp-4]
  00008	57		 push	 edi
  00009	e8 00 00 00 00	 call	 ?_Ubound@?$_Tree@V?$_Tmap_traits@HPAVMusicTrack@@U?$less@H@std@@V?$allocator@U?$pair@$$CBHPAVMusicTrack@@@std@@@3@$0A@@std@@@std@@IBEPAU_Node@?$_Tree_nod@V?$_Tmap_traits@HPAVMusicTrack@@U?$less@H@std@@V?$allocator@U?$pair@$$CBHPAVMusicTrack@@@std@@@3@$0A@@std@@@2@ABH@Z ; std::_Tree<std::_Tmap_traits<int,MusicTrack *,std::less<int>,std::allocator<std::pair<int const ,MusicTrack *> >,0> >::_Ubound
  0000e	8b 54 24 0c	 mov	 edx, DWORD PTR __Keyval$[esp]
  00012	8b f8		 mov	 edi, eax
  00014	8b 44 24 08	 mov	 eax, DWORD PTR _this$[esp]
  00018	e8 00 00 00 00	 call	 ?_Lbound@?$_Tree@V?$_Tmap_traits@HPAVMusicTrack@@U?$less@H@std@@V?$allocator@U?$pair@$$CBHPAVMusicTrack@@@std@@@3@$0A@@std@@@std@@IBEPAU_Node@?$_Tree_nod@V?$_Tmap_traits@HPAVMusicTrack@@U?$less@H@std@@V?$allocator@U?$pair@$$CBHPAVMusicTrack@@@std@@@3@$0A@@std@@@2@ABH@Z ; std::_Tree<std::_Tmap_traits<int,MusicTrack *,std::less<int>,std::allocator<std::pair<int const ,MusicTrack *> >,0> >::_Lbound
  0001d	89 06		 mov	 DWORD PTR [esi], eax
  0001f	89 7e 04	 mov	 DWORD PTR [esi+4], edi
  00022	8b c6		 mov	 eax, esi
  00024	5f		 pop	 edi

; 836  : 		}

  00025	c2 08 00	 ret	 8
?equal_range@?$_Tree@V?$_Tmap_traits@HPAVMusicTrack@@U?$less@H@std@@V?$allocator@U?$pair@$$CBHPAVMusicTrack@@@std@@@3@$0A@@std@@@std@@QBE?AU?$pair@Vconst_iterator@?$_Tree@V?$_Tmap_traits@HPAVMusicTrack@@U?$less@H@std@@V?$allocator@U?$pair@$$CBHPAVMusicTrack@@@std@@@3@$0A@@std@@@std@@V123@@2@ABH@Z ENDP ; std::_Tree<std::_Tmap_traits<int,MusicTrack *,std::less<int>,std::allocator<std::pair<int const ,MusicTrack *> >,0> >::equal_range
; Function compile flags: /Ogsy
_TEXT	ENDS
;	COMDAT ??0?$_Tree@V?$_Tmap_traits@HPAVMusicTrack@@U?$less@H@std@@V?$allocator@U?$pair@$$CBHPAVMusicTrack@@@std@@@3@$0A@@std@@@std@@QAE@ABU?$less@H@1@ABV?$allocator@U?$pair@$$CBHPAVMusicTrack@@@std@@@1@@Z
_TEXT	SEGMENT
??0?$_Tree@V?$_Tmap_traits@HPAVMusicTrack@@U?$less@H@std@@V?$allocator@U?$pair@$$CBHPAVMusicTrack@@@std@@@3@$0A@@std@@@std@@QAE@ABU?$less@H@1@ABV?$allocator@U?$pair@$$CBHPAVMusicTrack@@@std@@@1@@Z PROC NEAR ; std::_Tree<std::_Tmap_traits<int,MusicTrack *,std::less<int>,std::allocator<std::pair<int const ,MusicTrack *> >,0> >::_Tree<std::_Tmap_traits<int,MusicTrack *,std::less<int>,std::allocator<std::pair<int const ,MusicTrack *> >,0> >, COMDAT
; _this$ = eax

; 361  : 		{	// construct empty tree

  00000	56		 push	 esi
  00001	8b f0		 mov	 esi, eax

; 362  : 		_Init();

  00003	e8 00 00 00 00	 call	 ?_Init@?$_Tree@V?$_Tmap_traits@HPAVMusicTrack@@U?$less@H@std@@V?$allocator@U?$pair@$$CBHPAVMusicTrack@@@std@@@3@$0A@@std@@@std@@IAEXXZ ; std::_Tree<std::_Tmap_traits<int,MusicTrack *,std::less<int>,std::allocator<std::pair<int const ,MusicTrack *> >,0> >::_Init

; 363  : 		}

  00008	8b c6		 mov	 eax, esi
  0000a	5e		 pop	 esi
  0000b	c3		 ret	 0
??0?$_Tree@V?$_Tmap_traits@HPAVMusicTrack@@U?$less@H@std@@V?$allocator@U?$pair@$$CBHPAVMusicTrack@@@std@@@3@$0A@@std@@@std@@QAE@ABU?$less@H@1@ABV?$allocator@U?$pair@$$CBHPAVMusicTrack@@@std@@@1@@Z ENDP ; std::_Tree<std::_Tmap_traits<int,MusicTrack *,std::less<int>,std::allocator<std::pair<int const ,MusicTrack *> >,0> >::_Tree<std::_Tmap_traits<int,MusicTrack *,std::less<int>,std::allocator<std::pair<int const ,MusicTrack *> >,0> >
; Function compile flags: /Ogsy
_TEXT	ENDS
;	COMDAT ?count@?$_Tree@V?$_Tmap_traits@HPAVMusicTrack@@U?$less@H@std@@V?$allocator@U?$pair@$$CBHPAVMusicTrack@@@std@@@3@$0A@@std@@@std@@QBEIABH@Z
_TEXT	SEGMENT
__Ans$ = -8						; size = 8
_this$ = 8						; size = 4
$T55648 = 12						; size = 4
__Keyval$ = 12						; size = 4
?count@?$_Tree@V?$_Tmap_traits@HPAVMusicTrack@@U?$less@H@std@@V?$allocator@U?$pair@$$CBHPAVMusicTrack@@@std@@@3@$0A@@std@@@std@@QBEIABH@Z PROC NEAR ; std::_Tree<std::_Tmap_traits<int,MusicTrack *,std::less<int>,std::allocator<std::pair<int const ,MusicTrack *> >,0> >::count, COMDAT

; 801  : 		{	// count all elements that match _Keyval

  00000	55		 push	 ebp
  00001	8b ec		 mov	 ebp, esp
  00003	51		 push	 ecx
  00004	51		 push	 ecx
  00005	56		 push	 esi
  00006	57		 push	 edi

; 802  : 		_Paircc _Ans = equal_range(_Keyval);

  00007	ff 75 0c	 push	 DWORD PTR __Keyval$[ebp]
  0000a	8d 75 f8	 lea	 esi, DWORD PTR __Ans$[ebp]
  0000d	ff 75 08	 push	 DWORD PTR _this$[ebp]
  00010	e8 00 00 00 00	 call	 ?equal_range@?$_Tree@V?$_Tmap_traits@HPAVMusicTrack@@U?$less@H@std@@V?$allocator@U?$pair@$$CBHPAVMusicTrack@@@std@@@3@$0A@@std@@@std@@QBE?AU?$pair@Vconst_iterator@?$_Tree@V?$_Tmap_traits@HPAVMusicTrack@@U?$less@H@std@@V?$allocator@U?$pair@$$CBHPAVMusicTrack@@@std@@@3@$0A@@std@@@std@@V123@@2@ABH@Z ; std::_Tree<std::_Tmap_traits<int,MusicTrack *,std::less<int>,std::allocator<std::pair<int const ,MusicTrack *> >,0> >::equal_range

; 803  : 		size_type _Num = 0;
; 804  : 		_Distance(_Ans.first, _Ans.second, _Num);

  00015	8b 45 f8	 mov	 eax, DWORD PTR __Ans$[ebp]
  00018	8b 75 fc	 mov	 esi, DWORD PTR __Ans$[ebp+4]
  0001b	33 ff		 xor	 edi, edi
  0001d	3b c6		 cmp	 eax, esi
  0001f	89 45 0c	 mov	 DWORD PTR $T55648[ebp], eax
  00022	74 0e		 je	 SHORT $L55657
$L55660:
  00024	8d 55 0c	 lea	 edx, DWORD PTR $T55648[ebp]
  00027	47		 inc	 edi
  00028	e8 00 00 00 00	 call	 ?_Inc@const_iterator@?$_Tree@V?$_Tmap_traits@HPAVMusicTrack@@U?$less@H@std@@V?$allocator@U?$pair@$$CBHPAVMusicTrack@@@std@@@3@$0A@@std@@@std@@QAEXXZ ; std::_Tree<std::_Tmap_traits<int,MusicTrack *,std::less<int>,std::allocator<std::pair<int const ,MusicTrack *> >,0> >::const_iterator::_Inc
  0002d	39 75 0c	 cmp	 DWORD PTR $T55648[ebp], esi
  00030	75 f2		 jne	 SHORT $L55660
$L55657:

; 805  : 		return (_Num);

  00032	8b c7		 mov	 eax, edi
  00034	5f		 pop	 edi
  00035	5e		 pop	 esi

; 806  : 		}

  00036	c9		 leave
  00037	c2 08 00	 ret	 8
?count@?$_Tree@V?$_Tmap_traits@HPAVMusicTrack@@U?$less@H@std@@V?$allocator@U?$pair@$$CBHPAVMusicTrack@@@std@@@3@$0A@@std@@@std@@QBEIABH@Z ENDP ; std::_Tree<std::_Tmap_traits<int,MusicTrack *,std::less<int>,std::allocator<std::pair<int const ,MusicTrack *> >,0> >::count
; Function compile flags: /Ogsy
; File f:\nes\nsdl\src\nsc\trackset.cpp
_TEXT	SEGMENT
$T64129 = -24						; size = 8
$T64127 = -24						; size = 8
tv464 = -16						; size = 4
tv462 = -16						; size = 4
tv258 = -12						; size = 4
tv245 = -12						; size = 4
tv251 = -8						; size = 4
tv238 = -8						; size = 4
_i$ = -4						; size = 4
_MUS$ = 8						; size = 4
?getAsm@TrackSet@@UAEXPAVMusicFile@@@Z PROC NEAR	; TrackSet::getAsm
; _this$ = ecx

; 943  : {

  00000	55		 push	 ebp
  00001	8b ec		 mov	 ebp, esp
  00003	83 ec 18	 sub	 esp, 24			; 00000018H

; 944  : 	//----------------------
; 945  : 	//Local
; 946  : 	int	i = 0;

  00006	83 65 fc 00	 and	 DWORD PTR _i$[ebp], 0
  0000a	56		 push	 esi
  0000b	57		 push	 edi
  0000c	8b f9		 mov	 edi, ecx

; 947  : 	list<	MusicItem*>::iterator	itItem;
; 948  : 
; 949  : 	if(fSub == false){

  0000e	80 7f 5c 00	 cmp	 BYTE PTR [edi+92], 0
  00012	0f 85 58 01 00
	00		 jne	 $L64251

; 950  : 		*MUS << "	.byte	$" << hex << setw(2) << setfill('0') << (int)(code[0] & 0xFF) << ", $" << (int)(code[1] & 0xFF) << endl;

  00018	83 7f 2c 10	 cmp	 DWORD PTR [edi+44], 16	; 00000010H
  0001c	72 05		 jb	 SHORT $L64152
  0001e	8b 47 18	 mov	 eax, DWORD PTR [edi+24]
  00021	eb 03		 jmp	 SHORT $L64346
$L64152:
  00023	8d 47 18	 lea	 eax, DWORD PTR [edi+24]
$L64346:
  00026	83 7f 2c 10	 cmp	 DWORD PTR [edi+44], 16	; 00000010H
  0002a	89 45 f8	 mov	 DWORD PTR tv238[ebp], eax
  0002d	72 05		 jb	 SHORT $L64168
  0002f	8b 47 18	 mov	 eax, DWORD PTR [edi+24]
  00032	eb 03		 jmp	 SHORT $L64347
$L64168:
  00034	8d 47 18	 lea	 eax, DWORD PTR [edi+24]
$L64347:
  00037	53		 push	 ebx
  00038	8b 5d 08	 mov	 ebx, DWORD PTR _MUS$[ebp]
  0003b	89 45 f4	 mov	 DWORD PTR tv245[ebp], eax
  0003e	8d 43 3c	 lea	 eax, DWORD PTR [ebx+60]
  00041	f7 db		 neg	 ebx
  00043	1b db		 sbb	 ebx, ebx
  00045	23 d8		 and	 ebx, eax
  00047	8d 45 e8	 lea	 eax, DWORD PTR $T64127[ebp]
  0004a	6a 02		 push	 2
  0004c	50		 push	 eax
  0004d	e8 00 00 00 00	 call	 ?setw@std@@YA?AU?$_Smanip@H@1@H@Z ; std::setw
  00052	59		 pop	 ecx
  00053	59		 pop	 ecx
  00054	68 00 00 00 00	 push	 OFFSET FLAT:?hex@std@@YAAAVios_base@1@AAV21@@Z ; std::hex
  00059	68 00 00 00 00	 push	 OFFSET FLAT:??_C@_08JHDOLHLM@?7?4byte?7$?$AA@
  0005e	53		 push	 ebx
  0005f	89 45 f0	 mov	 DWORD PTR tv464[ebp], eax
  00062	e8 00 00 00 00	 call	 ??$?6U?$char_traits@D@std@@@std@@YAAAV?$basic_ostream@DU?$char_traits@D@std@@@0@AAV10@PBD@Z ; std::operator<<<std::char_traits<char> >
  00067	59		 pop	 ecx
  00068	59		 pop	 ecx
  00069	8b f0		 mov	 esi, eax
  0006b	e8 00 00 00 00	 call	 ??6?$basic_ostream@DU?$char_traits@D@std@@@std@@QAEAAV01@P6AAAVios_base@1@AAV21@@Z@Z ; std::basic_ostream<char,std::char_traits<char> >::operator<<
  00070	8b 4d f0	 mov	 ecx, DWORD PTR tv464[ebp]
  00073	8b f0		 mov	 esi, eax
  00075	e8 00 00 00 00	 call	 ??$?6DU?$char_traits@D@std@@H@std@@YAAAV?$basic_ostream@DU?$char_traits@D@std@@@0@AAV10@ABU?$_Smanip@H@0@@Z ; std::operator<<<char,std::char_traits<char>,int>
  0007a	8b 08		 mov	 ecx, DWORD PTR [eax]
  0007c	8b 49 04	 mov	 ecx, DWORD PTR [ecx+4]
  0007f	c6 44 01 30 30	 mov	 BYTE PTR [ecx+eax+48], 48 ; 00000030H
  00084	8b 4d f8	 mov	 ecx, DWORD PTR tv238[ebp]
  00087	0f b6 49 01	 movzx	 ecx, BYTE PTR [ecx+1]
  0008b	51		 push	 ecx
  0008c	8b 4d f4	 mov	 ecx, DWORD PTR tv245[ebp]
  0008f	0f b6 09	 movzx	 ecx, BYTE PTR [ecx]
  00092	68 00 00 00 00	 push	 OFFSET FLAT:??_C@_03PNPKJHCD@?0?5$?$AA@
  00097	51		 push	 ecx
  00098	50		 push	 eax
  00099	e8 00 00 00 00	 call	 ??6?$basic_ostream@DU?$char_traits@D@std@@@std@@QAEAAV01@H@Z ; std::basic_ostream<char,std::char_traits<char> >::operator<<
  0009e	50		 push	 eax
  0009f	e8 00 00 00 00	 call	 ??$?6U?$char_traits@D@std@@@std@@YAAAV?$basic_ostream@DU?$char_traits@D@std@@@0@AAV10@PBD@Z ; std::operator<<<std::char_traits<char> >
  000a4	59		 pop	 ecx
  000a5	59		 pop	 ecx
  000a6	50		 push	 eax
  000a7	e8 00 00 00 00	 call	 ??6?$basic_ostream@DU?$char_traits@D@std@@@std@@QAEAAV01@H@Z ; std::basic_ostream<char,std::char_traits<char> >::operator<<
  000ac	50		 push	 eax
  000ad	e8 00 00 00 00	 call	 ?endl@std@@YAAAV?$basic_ostream@DU?$char_traits@D@std@@@1@AAV21@@Z ; std::endl

; 951  : 		while(i <= maxTrack){

  000b2	83 7f 58 00	 cmp	 DWORD PTR [edi+88], 0
  000b6	59		 pop	 ecx
  000b7	0f 8c 9b 00 00
	00		 jl	 $L24598
$L24597:

; 952  : 			if(i==0){

  000bd	83 7d fc 00	 cmp	 DWORD PTR _i$[ebp], 0
  000c1	75 07		 jne	 SHORT $L24599

; 953  : 				*MUS << "	.word	$";

  000c3	68 00 00 00 00	 push	 OFFSET FLAT:??_C@_08EAKLHHJG@?7?4word?7$?$AA@

; 954  : 			} else {

  000c8	eb 05		 jmp	 SHORT $L64348
$L24599:

; 955  : 				*MUS << " ,$";

  000ca	68 00 00 00 00	 push	 OFFSET FLAT:??_C@_03LODGNBPP@?5?0$?$AA@
$L64348:
  000cf	53		 push	 ebx
  000d0	e8 00 00 00 00	 call	 ??$?6U?$char_traits@D@std@@@std@@YAAAV?$basic_ostream@DU?$char_traits@D@std@@@0@AAV10@PBD@Z ; std::operator<<<std::char_traits<char> >

; 956  : 			}
; 957  : 			*MUS << hex << setw(4) << setfill('0') << (int)((code[i*2+2] & 0xFF) | ((code[i*2+3] & 0xFF)<<8));

  000d5	83 7f 2c 10	 cmp	 DWORD PTR [edi+44], 16	; 00000010H
  000d9	59		 pop	 ecx
  000da	59		 pop	 ecx
  000db	72 05		 jb	 SHORT $L64209
  000dd	8b 47 18	 mov	 eax, DWORD PTR [edi+24]
  000e0	eb 03		 jmp	 SHORT $L64349
$L64209:
  000e2	8d 47 18	 lea	 eax, DWORD PTR [edi+24]
$L64349:
  000e5	83 7f 2c 10	 cmp	 DWORD PTR [edi+44], 16	; 00000010H
  000e9	89 45 f8	 mov	 DWORD PTR tv251[ebp], eax
  000ec	72 05		 jb	 SHORT $L64224
  000ee	8b 47 18	 mov	 eax, DWORD PTR [edi+24]
  000f1	eb 03		 jmp	 SHORT $L64350
$L64224:
  000f3	8d 47 18	 lea	 eax, DWORD PTR [edi+24]
$L64350:
  000f6	89 45 f4	 mov	 DWORD PTR tv258[ebp], eax
  000f9	8d 45 e8	 lea	 eax, DWORD PTR $T64129[ebp]
  000fc	6a 04		 push	 4
  000fe	50		 push	 eax
  000ff	e8 00 00 00 00	 call	 ?setw@std@@YA?AU?$_Smanip@H@1@H@Z ; std::setw
  00104	8b 75 08	 mov	 esi, DWORD PTR _MUS$[ebp]
  00107	59		 pop	 ecx
  00108	59		 pop	 ecx
  00109	68 00 00 00 00	 push	 OFFSET FLAT:?hex@std@@YAAAVios_base@1@AAV21@@Z ; std::hex
  0010e	83 c6 3c	 add	 esi, 60			; 0000003cH
  00111	89 45 f0	 mov	 DWORD PTR tv462[ebp], eax
  00114	e8 00 00 00 00	 call	 ??6?$basic_ostream@DU?$char_traits@D@std@@@std@@QAEAAV01@P6AAAVios_base@1@AAV21@@Z@Z ; std::basic_ostream<char,std::char_traits<char> >::operator<<
  00119	8b 4d f0	 mov	 ecx, DWORD PTR tv462[ebp]
  0011c	8b f0		 mov	 esi, eax
  0011e	e8 00 00 00 00	 call	 ??$?6DU?$char_traits@D@std@@H@std@@YAAAV?$basic_ostream@DU?$char_traits@D@std@@@0@AAV10@ABU?$_Smanip@H@0@@Z ; std::operator<<<char,std::char_traits<char>,int>
  00123	8b 08		 mov	 ecx, DWORD PTR [eax]
  00125	8b 49 04	 mov	 ecx, DWORD PTR [ecx+4]
  00128	8b 75 fc	 mov	 esi, DWORD PTR _i$[ebp]
  0012b	8b 55 f4	 mov	 edx, DWORD PTR tv258[ebp]
  0012e	c6 44 01 30 30	 mov	 BYTE PTR [ecx+eax+48], 48 ; 00000030H
  00133	33 c9		 xor	 ecx, ecx
  00135	03 f6		 add	 esi, esi
  00137	8a 6c 16 03	 mov	 ch, BYTE PTR [esi+edx+3]
  0013b	8b 55 f8	 mov	 edx, DWORD PTR tv251[ebp]
  0013e	8a 4c 16 02	 mov	 cl, BYTE PTR [esi+edx+2]
  00142	51		 push	 ecx
  00143	50		 push	 eax
  00144	e8 00 00 00 00	 call	 ??6?$basic_ostream@DU?$char_traits@D@std@@@std@@QAEAAV01@H@Z ; std::basic_ostream<char,std::char_traits<char> >::operator<<

; 958  : 			i++;

  00149	ff 45 fc	 inc	 DWORD PTR _i$[ebp]
  0014c	8b 45 fc	 mov	 eax, DWORD PTR _i$[ebp]
  0014f	3b 47 58	 cmp	 eax, DWORD PTR [edi+88]
  00152	0f 8e 65 ff ff
	ff		 jle	 $L24597
$L24598:

; 959  : 		}
; 960  : 		*MUS << dec << endl;

  00158	8b 75 08	 mov	 esi, DWORD PTR _MUS$[ebp]
  0015b	68 00 00 00 00	 push	 OFFSET FLAT:?dec@std@@YAAAVios_base@1@AAV21@@Z ; std::dec
  00160	83 c6 3c	 add	 esi, 60			; 0000003cH
  00163	e8 00 00 00 00	 call	 ??6?$basic_ostream@DU?$char_traits@D@std@@@std@@QAEAAV01@P6AAAVios_base@1@AAV21@@Z@Z ; std::basic_ostream<char,std::char_traits<char> >::operator<<
  00168	50		 push	 eax
  00169	e8 00 00 00 00	 call	 ?endl@std@@YAAAV?$basic_ostream@DU?$char_traits@D@std@@@1@AAV21@@Z ; std::endl
  0016e	59		 pop	 ecx
  0016f	5b		 pop	 ebx
$L64251:

; 961  : 	}
; 962  : 
; 963  : 	if(!ptcItem.empty()){

  00170	83 7f 10 00	 cmp	 DWORD PTR [edi+16], 0
  00174	74 1b		 je	 SHORT $L24612

; 964  : 		itItem = ptcItem.begin();

  00176	8b 47 0c	 mov	 eax, DWORD PTR [edi+12]
  00179	8b 30		 mov	 esi, DWORD PTR [eax]

; 965  : 		while(itItem != ptcItem.end()){

  0017b	3b f0		 cmp	 esi, eax
  0017d	74 12		 je	 SHORT $L24612
$L24611:

; 966  : 			(*itItem)->getAsm(MUS);

  0017f	8b 4e 08	 mov	 ecx, DWORD PTR [esi+8]
  00182	ff 75 08	 push	 DWORD PTR _MUS$[ebp]
  00185	8b 01		 mov	 eax, DWORD PTR [ecx]
  00187	ff 50 08	 call	 DWORD PTR [eax+8]

; 967  : 			itItem++;

  0018a	8b 36		 mov	 esi, DWORD PTR [esi]
  0018c	3b 77 0c	 cmp	 esi, DWORD PTR [edi+12]
  0018f	75 ee		 jne	 SHORT $L24611
$L24612:
  00191	5f		 pop	 edi
  00192	5e		 pop	 esi

; 968  : 		}
; 969  : 	}
; 970  : }

  00193	c9		 leave
  00194	c2 04 00	 ret	 4
?getAsm@TrackSet@@UAEXPAVMusicFile@@@Z ENDP		; TrackSet::getAsm
;	COMDAT xdata$x
; File c:\program files (x86)\microsoft visual studio .net 2003\vc7\include\xmemory
xdata$x	SEGMENT
$T68642	DD	0ffffffffH
	DD	FLAT:$L68201
$T68626	DD	019930520H
	DD	01H
	DD	FLAT:$T68642
	DD	2 DUP(00H)
	DD	2 DUP(00H)
; Function compile flags: /Ogsy
; File c:\program files (x86)\microsoft visual studio .net 2003\vc7\include\xtree
xdata$x	ENDS
;	COMDAT ?erase@?$_Tree@V?$_Tmap_traits@HPAVMusicTrack@@U?$less@H@std@@V?$allocator@U?$pair@$$CBHPAVMusicTrack@@@std@@@3@$0A@@std@@@std@@QAE?AViterator@12@V312@@Z
_TEXT	SEGMENT
$T68195 = -80						; size = 40
$T68196 = -40						; size = 28
__$EHRec$ = -12						; size = 12
_this$ = 8						; size = 4
___$ReturnUdt$ = 12					; size = 4
__Where$ = 16						; size = 4
?erase@?$_Tree@V?$_Tmap_traits@HPAVMusicTrack@@U?$less@H@std@@V?$allocator@U?$pair@$$CBHPAVMusicTrack@@@std@@@3@$0A@@std@@@std@@QAE?AViterator@12@V312@@Z PROC NEAR ; std::_Tree<std::_Tmap_traits<int,MusicTrack *,std::less<int>,std::allocator<std::pair<int const ,MusicTrack *> >,0> >::erase, COMDAT

; 590  : 		{	// erase element at _Where

  00000	b8 00 00 00 00	 mov	 eax, __ehhandler$?erase@?$_Tree@V?$_Tmap_traits@HPAVMusicTrack@@U?$less@H@std@@V?$allocator@U?$pair@$$CBHPAVMusicTrack@@@std@@@3@$0A@@std@@@std@@QAE?AViterator@12@V312@@Z
  00005	e8 00 00 00 00	 call	 __EH_prolog
  0000a	83 ec 44	 sub	 esp, 68			; 00000044H
  0000d	53		 push	 ebx

; 591  : 		if (_Isnil(_Where._Mynode()))

  0000e	8b 5d 10	 mov	 ebx, DWORD PTR __Where$[ebp]
  00011	80 7b 15 00	 cmp	 BYTE PTR [ebx+21], 0
  00015	56		 push	 esi
  00016	57		 push	 edi
  00017	74 32		 je	 SHORT $L68213

; 592  : 			_THROW(out_of_range, "invalid map/set<T> iterator");

  00019	68 00 00 00 00	 push	 OFFSET FLAT:??_C@_0BM@PAPJHAGI@invalid?5map?1set?$DMT?$DO?5iterator?$AA@
  0001e	8d 4d d8	 lea	 ecx, DWORD PTR $T68196[ebp]
  00021	e8 00 00 00 00	 call	 ??0?$basic_string@DU?$char_traits@D@std@@V?$allocator@D@2@@std@@QAE@PBD@Z ; std::basic_string<char,std::char_traits<char>,std::allocator<char> >::basic_string<char,std::char_traits<char>,std::allocator<char> >
  00026	83 65 fc 00	 and	 DWORD PTR __$EHRec$[ebp+8], 0
  0002a	8d 45 d8	 lea	 eax, DWORD PTR $T68196[ebp]
  0002d	50		 push	 eax
  0002e	8d 4d b0	 lea	 ecx, DWORD PTR $T68195[ebp]
  00031	e8 00 00 00 00	 call	 ??0logic_error@std@@QAE@ABV?$basic_string@DU?$char_traits@D@std@@V?$allocator@D@2@@1@@Z ; std::logic_error::logic_error
  00036	68 00 00 00 00	 push	 OFFSET FLAT:__TI3?AVout_of_range@std@@
  0003b	8d 45 b0	 lea	 eax, DWORD PTR $T68195[ebp]
  0003e	50		 push	 eax
  0003f	c7 45 b0 00 00
	00 00		 mov	 DWORD PTR $T68195[ebp], OFFSET FLAT:??_7out_of_range@std@@6B@
  00046	e8 00 00 00 00	 call	 __CxxThrowException@8
$L68643:
$L68213:

; 593  : 		_Nodeptr _Erasednode = _Where._Mynode();	// node to erase
; 594  : 		++_Where;	// save successor iterator for return

  0004b	8d 55 10	 lea	 edx, DWORD PTR __Where$[ebp]
  0004e	e8 00 00 00 00	 call	 ?_Inc@const_iterator@?$_Tree@V?$_Tmap_traits@HPAVMusicTrack@@U?$less@H@std@@V?$allocator@U?$pair@$$CBHPAVMusicTrack@@@std@@@3@$0A@@std@@@std@@QAEXXZ ; std::_Tree<std::_Tmap_traits<int,MusicTrack *,std::less<int>,std::allocator<std::pair<int const ,MusicTrack *> >,0> >::const_iterator::_Inc

; 595  : 
; 596  : 		_Nodeptr _Fixnode;	// the node to recolor as needed
; 597  : 		_Nodeptr _Fixnodeparent;	// parent of _Fixnode (which may be nil)
; 598  : 		_Nodeptr _Pnode = _Erasednode;
; 599  : 
; 600  : 		if (_Isnil(_Left(_Pnode)))

  00053	8b 0b		 mov	 ecx, DWORD PTR [ebx]
  00055	80 79 15 00	 cmp	 BYTE PTR [ecx+21], 0
  00059	74 05		 je	 SHORT $L26240

; 601  : 			_Fixnode = _Right(_Pnode);	// must stitch up right subtree

  0005b	8b 7b 08	 mov	 edi, DWORD PTR [ebx+8]

; 602  : 		else if (_Isnil(_Right(_Pnode)))

  0005e	eb 17		 jmp	 SHORT $L68633
$L26240:
  00060	8b 43 08	 mov	 eax, DWORD PTR [ebx+8]
  00063	80 78 15 00	 cmp	 BYTE PTR [eax+21], 0
  00067	74 04		 je	 SHORT $L26242

; 603  : 			_Fixnode = _Left(_Pnode);	// must stitch up left subtree

  00069	8b f9		 mov	 edi, ecx

; 604  : 		else

  0006b	eb 0a		 jmp	 SHORT $L68633
$L26242:

; 605  : 			{	// two subtrees, must lift successor node to replace erased
; 606  : 			_Pnode = _Where._Mynode();	// _Pnode is successor node
; 607  : 			_Fixnode = _Right(_Pnode);	// _Fixnode is its only subtree

  0006d	8b 45 10	 mov	 eax, DWORD PTR __Where$[ebp]

; 608  : 			}
; 609  : 
; 610  : 		if (_Pnode == _Erasednode)

  00070	3b c3		 cmp	 eax, ebx
  00072	8b 78 08	 mov	 edi, DWORD PTR [eax+8]
  00075	75 76		 jne	 SHORT $L26244
$L68633:

; 611  : 			{	// at most one subtree, relink it
; 612  : 			_Fixnodeparent = _Parent(_Erasednode);
; 613  : 			if (!_Isnil(_Fixnode))

  00077	80 7f 15 00	 cmp	 BYTE PTR [edi+21], 0
  0007b	8b 73 04	 mov	 esi, DWORD PTR [ebx+4]
  0007e	75 03		 jne	 SHORT $L26245

; 614  : 				_Parent(_Fixnode) = _Fixnodeparent;	// link up

  00080	89 77 04	 mov	 DWORD PTR [edi+4], esi
$L26245:

; 615  : 
; 616  : 			if (_Root() == _Erasednode)

  00083	8b 4d 08	 mov	 ecx, DWORD PTR _this$[ebp]
  00086	8b 41 04	 mov	 eax, DWORD PTR [ecx+4]
  00089	39 58 04	 cmp	 DWORD PTR [eax+4], ebx
  0008c	75 05		 jne	 SHORT $L26246

; 617  : 				_Root() = _Fixnode;	// link down from root

  0008e	89 78 04	 mov	 DWORD PTR [eax+4], edi

; 618  : 			else if (_Left(_Fixnodeparent) == _Erasednode)

  00091	eb 0b		 jmp	 SHORT $L26249
$L26246:
  00093	39 1e		 cmp	 DWORD PTR [esi], ebx
  00095	75 04		 jne	 SHORT $L26248

; 619  : 				_Left(_Fixnodeparent) = _Fixnode;	// link down to left

  00097	89 3e		 mov	 DWORD PTR [esi], edi

; 620  : 			else

  00099	eb 03		 jmp	 SHORT $L26249
$L26248:

; 621  : 				_Right(_Fixnodeparent) = _Fixnode;	// link down to right

  0009b	89 7e 08	 mov	 DWORD PTR [esi+8], edi
$L26249:

; 622  : 
; 623  : 			if (_Lmost() == _Erasednode)

  0009e	8b 51 04	 mov	 edx, DWORD PTR [ecx+4]
  000a1	39 1a		 cmp	 DWORD PTR [edx], ebx
  000a3	75 1c		 jne	 SHORT $L26250

; 624  : 				_Lmost() = _Isnil(_Fixnode)
; 625  : 					? _Fixnodeparent	// smallest is parent of erased node
; 626  : 					: _Min(_Fixnode);	// smallest in relinked subtree

  000a5	80 7f 15 00	 cmp	 BYTE PTR [edi+21], 0
  000a9	74 04		 je	 SHORT $L68197
  000ab	8b ce		 mov	 ecx, esi
  000ad	eb 10		 jmp	 SHORT $L68198
$L68197:
  000af	8b 07		 mov	 eax, DWORD PTR [edi]
  000b1	8b cf		 mov	 ecx, edi
  000b3	eb 04		 jmp	 SHORT $L68636
$L68307:
  000b5	8b c8		 mov	 ecx, eax
  000b7	8b 01		 mov	 eax, DWORD PTR [ecx]
$L68636:
  000b9	80 78 15 00	 cmp	 BYTE PTR [eax+21], 0
  000bd	74 f6		 je	 SHORT $L68307
$L68198:
  000bf	89 0a		 mov	 DWORD PTR [edx], ecx
$L26250:

; 627  : 
; 628  : 			if (_Rmost() == _Erasednode)

  000c1	8b 45 08	 mov	 eax, DWORD PTR _this$[ebp]
  000c4	8b 50 04	 mov	 edx, DWORD PTR [eax+4]
  000c7	39 5a 08	 cmp	 DWORD PTR [edx+8], ebx
  000ca	75 7b		 jne	 SHORT $L68454

; 629  : 				_Rmost() = _Isnil(_Fixnode)
; 630  : 					? _Fixnodeparent	// largest is parent of erased node
; 631  : 					: _Max(_Fixnode);	// largest in relinked subtree

  000cc	80 7f 15 00	 cmp	 BYTE PTR [edi+21], 0
  000d0	74 04		 je	 SHORT $L68199
  000d2	8b ce		 mov	 ecx, esi
  000d4	eb 12		 jmp	 SHORT $L68200
$L68199:
  000d6	8b 47 08	 mov	 eax, DWORD PTR [edi+8]
  000d9	8b cf		 mov	 ecx, edi
  000db	eb 05		 jmp	 SHORT $L68637
$L68348:
  000dd	8b c8		 mov	 ecx, eax
  000df	8b 41 08	 mov	 eax, DWORD PTR [ecx+8]
$L68637:
  000e2	80 78 15 00	 cmp	 BYTE PTR [eax+21], 0
  000e6	74 f5		 je	 SHORT $L68348
$L68200:
  000e8	89 4a 08	 mov	 DWORD PTR [edx+8], ecx

; 632  : 			}
; 633  : 		else

  000eb	eb 5a		 jmp	 SHORT $L68454
$L26244:

; 634  : 			{	// erased has two subtrees, _Pnode is successor to erased
; 635  : 			_Parent(_Left(_Erasednode)) = _Pnode;	// link left up

  000ed	89 41 04	 mov	 DWORD PTR [ecx+4], eax

; 636  : 			_Left(_Pnode) = _Left(_Erasednode);	// link successor down

  000f0	8b 0b		 mov	 ecx, DWORD PTR [ebx]
  000f2	89 08		 mov	 DWORD PTR [eax], ecx

; 637  : 
; 638  : 			if (_Pnode == _Right(_Erasednode))

  000f4	3b 43 08	 cmp	 eax, DWORD PTR [ebx+8]
  000f7	75 04		 jne	 SHORT $L26253

; 639  : 				_Fixnodeparent = _Pnode;	// successor is next to erased

  000f9	8b f0		 mov	 esi, eax

; 640  : 			else

  000fb	eb 1a		 jmp	 SHORT $L26254
$L26253:

; 641  : 				{	// successor further down, link in place of erased
; 642  : 				_Fixnodeparent = _Parent(_Pnode);	// parent is successor's
; 643  : 				if (!_Isnil(_Fixnode))

  000fd	80 7f 15 00	 cmp	 BYTE PTR [edi+21], 0
  00101	8b 70 04	 mov	 esi, DWORD PTR [eax+4]
  00104	75 03		 jne	 SHORT $L26255

; 644  : 					_Parent(_Fixnode) = _Fixnodeparent;	// link fix up

  00106	89 77 04	 mov	 DWORD PTR [edi+4], esi
$L26255:

; 645  : 				_Left(_Fixnodeparent) = _Fixnode;	// link fix down

  00109	89 3e		 mov	 DWORD PTR [esi], edi

; 646  : 				_Right(_Pnode) = _Right(_Erasednode);	// link successor down

  0010b	8b 4b 08	 mov	 ecx, DWORD PTR [ebx+8]
  0010e	89 48 08	 mov	 DWORD PTR [eax+8], ecx

; 647  : 				_Parent(_Right(_Erasednode)) = _Pnode;	// link right up

  00111	8b 4b 08	 mov	 ecx, DWORD PTR [ebx+8]
  00114	89 41 04	 mov	 DWORD PTR [ecx+4], eax
$L26254:

; 648  : 				}
; 649  : 
; 650  : 			if (_Root() == _Erasednode)

  00117	8b 4d 08	 mov	 ecx, DWORD PTR _this$[ebp]
  0011a	8b 49 04	 mov	 ecx, DWORD PTR [ecx+4]
  0011d	39 59 04	 cmp	 DWORD PTR [ecx+4], ebx
  00120	75 05		 jne	 SHORT $L26256

; 651  : 				_Root() = _Pnode;	// link down from root

  00122	89 41 04	 mov	 DWORD PTR [ecx+4], eax

; 652  : 			else if (_Left(_Parent(_Erasednode)) == _Erasednode)

  00125	eb 0e		 jmp	 SHORT $L26259
$L26256:
  00127	8b 4b 04	 mov	 ecx, DWORD PTR [ebx+4]
  0012a	39 19		 cmp	 DWORD PTR [ecx], ebx
  0012c	75 04		 jne	 SHORT $L26258

; 653  : 				_Left(_Parent(_Erasednode)) = _Pnode;	// link down to left

  0012e	89 01		 mov	 DWORD PTR [ecx], eax

; 654  : 			else

  00130	eb 03		 jmp	 SHORT $L26259
$L26258:

; 655  : 				_Right(_Parent(_Erasednode)) = _Pnode;	// link down to right

  00132	89 41 08	 mov	 DWORD PTR [ecx+8], eax
$L26259:

; 656  : 
; 657  : 			_Parent(_Pnode) = _Parent(_Erasednode);	// link successor up

  00135	8b 4b 04	 mov	 ecx, DWORD PTR [ebx+4]
  00138	89 48 04	 mov	 DWORD PTR [eax+4], ecx

; 658  : 			std::swap(_Color(_Pnode), _Color(_Erasednode));	// recolor it

  0013b	8a 53 14	 mov	 dl, BYTE PTR [ebx+20]
  0013e	8a 48 14	 mov	 cl, BYTE PTR [eax+20]
  00141	88 50 14	 mov	 BYTE PTR [eax+20], dl
  00144	88 4b 14	 mov	 BYTE PTR [ebx+20], cl
$L68454:

; 659  : 			}
; 660  : 
; 661  : 		if (_Color(_Erasednode) == _Black)

  00147	80 7b 14 01	 cmp	 BYTE PTR [ebx+20], 1
  0014b	0f 85 12 01 00
	00		 jne	 $L26265

; 662  : 			{	// erasing black link, must recolor/rebalance tree
; 663  : 			for (; _Fixnode != _Root() && _Color(_Fixnode) == _Black;
; 664  : 				_Fixnodeparent = _Parent(_Fixnode))

  00151	e9 c1 00 00 00	 jmp	 $L68639
$L26266:
  00156	80 7f 14 01	 cmp	 BYTE PTR [edi+20], 1
  0015a	0f 85 ff 00 00
	00		 jne	 $L26268

; 665  : 				if (_Fixnode == _Left(_Fixnodeparent))

  00160	8b 0e		 mov	 ecx, DWORD PTR [esi]
  00162	3b f9		 cmp	 edi, ecx
  00164	75 77		 jne	 SHORT $L26269

; 666  : 					{	// fixup left subtree
; 667  : 					_Pnode = _Right(_Fixnodeparent);

  00166	8b 4e 08	 mov	 ecx, DWORD PTR [esi+8]

; 668  : 					if (_Color(_Pnode) == _Red)

  00169	80 79 14 00	 cmp	 BYTE PTR [ecx+20], 0
  0016d	75 15		 jne	 SHORT $L26270

; 669  : 						{	// rotate red up from right subtree
; 670  : 						_Color(_Pnode) = _Black;
; 671  : 						_Color(_Fixnodeparent) = _Red;
; 672  : 						_Lrotate(_Fixnodeparent);

  0016f	ff 75 08	 push	 DWORD PTR _this$[ebp]
  00172	c6 41 14 01	 mov	 BYTE PTR [ecx+20], 1
  00176	8b ce		 mov	 ecx, esi
  00178	c6 46 14 00	 mov	 BYTE PTR [esi+20], 0
  0017c	e8 00 00 00 00	 call	 ?_Lrotate@?$_Tree@V?$_Tmap_traits@HPAVMusicTrack@@U?$less@H@std@@V?$allocator@U?$pair@$$CBHPAVMusicTrack@@@std@@@3@$0A@@std@@@std@@IAEXPAU_Node@?$_Tree_nod@V?$_Tmap_traits@HPAVMusicTrack@@U?$less@H@std@@V?$allocator@U?$pair@$$CBHPAVMusicTrack@@@std@@@3@$0A@@std@@@2@@Z ; std::_Tree<std::_Tmap_traits<int,MusicTrack *,std::less<int>,std::allocator<std::pair<int const ,MusicTrack *> >,0> >::_Lrotate

; 673  : 						_Pnode = _Right(_Fixnodeparent);

  00181	8b 4e 08	 mov	 ecx, DWORD PTR [esi+8]
$L26270:

; 674  : 						}
; 675  : 
; 676  : 					if (_Isnil(_Pnode))

  00184	80 79 15 00	 cmp	 BYTE PTR [ecx+21], 0

; 677  : 						_Fixnode = _Fixnodeparent;	// shouldn't happen
; 678  : 					else if (_Color(_Left(_Pnode)) == _Black

  00188	0f 85 84 00 00
	00		 jne	 $L68640

; 679  : 						&& _Color(_Right(_Pnode)) == _Black)

  0018e	8b 01		 mov	 eax, DWORD PTR [ecx]
  00190	80 78 14 01	 cmp	 BYTE PTR [eax+20], 1
  00194	75 09		 jne	 SHORT $L26273
  00196	8b 41 08	 mov	 eax, DWORD PTR [ecx+8]
  00199	80 78 14 01	 cmp	 BYTE PTR [eax+20], 1
  0019d	74 6f		 je	 SHORT $L68641
$L26273:

; 680  : 						{	// redden right subtree with black children
; 681  : 						_Color(_Pnode) = _Red;
; 682  : 						_Fixnode = _Fixnodeparent;
; 683  : 						}
; 684  : 					else
; 685  : 						{	// must rearrange right subtree
; 686  : 						if (_Color(_Right(_Pnode)) == _Black)

  0019f	8b 41 08	 mov	 eax, DWORD PTR [ecx+8]
  001a2	80 78 14 01	 cmp	 BYTE PTR [eax+20], 1
  001a6	75 15		 jne	 SHORT $L26275

; 687  : 							{	// rotate red up from left sub-subtree
; 688  : 							_Color(_Left(_Pnode)) = _Black;

  001a8	8b 01		 mov	 eax, DWORD PTR [ecx]

; 689  : 							_Color(_Pnode) = _Red;
; 690  : 							_Rrotate(_Pnode);

  001aa	ff 75 08	 push	 DWORD PTR _this$[ebp]
  001ad	c6 40 14 01	 mov	 BYTE PTR [eax+20], 1
  001b1	c6 41 14 00	 mov	 BYTE PTR [ecx+20], 0
  001b5	e8 00 00 00 00	 call	 ?_Rrotate@?$_Tree@V?$_Tmap_traits@HPAVMusicTrack@@U?$less@H@std@@V?$allocator@U?$pair@$$CBHPAVMusicTrack@@@std@@@3@$0A@@std@@@std@@IAEXPAU_Node@?$_Tree_nod@V?$_Tmap_traits@HPAVMusicTrack@@U?$less@H@std@@V?$allocator@U?$pair@$$CBHPAVMusicTrack@@@std@@@3@$0A@@std@@@2@@Z ; std::_Tree<std::_Tmap_traits<int,MusicTrack *,std::less<int>,std::allocator<std::pair<int const ,MusicTrack *> >,0> >::_Rrotate

; 691  : 							_Pnode = _Right(_Fixnodeparent);

  001ba	8b 4e 08	 mov	 ecx, DWORD PTR [esi+8]
$L26275:

; 692  : 							}
; 693  : 
; 694  : 						_Color(_Pnode) = _Color(_Fixnodeparent);

  001bd	8a 46 14	 mov	 al, BYTE PTR [esi+20]

; 695  : 						_Color(_Fixnodeparent) = _Black;
; 696  : 						_Color(_Right(_Pnode)) = _Black;
; 697  : 						_Lrotate(_Fixnodeparent);

  001c0	ff 75 08	 push	 DWORD PTR _this$[ebp]
  001c3	88 41 14	 mov	 BYTE PTR [ecx+20], al
  001c6	c6 46 14 01	 mov	 BYTE PTR [esi+20], 1
  001ca	8b 41 08	 mov	 eax, DWORD PTR [ecx+8]
  001cd	8b ce		 mov	 ecx, esi
  001cf	c6 40 14 01	 mov	 BYTE PTR [eax+20], 1
  001d3	e8 00 00 00 00	 call	 ?_Lrotate@?$_Tree@V?$_Tmap_traits@HPAVMusicTrack@@U?$less@H@std@@V?$allocator@U?$pair@$$CBHPAVMusicTrack@@@std@@@3@$0A@@std@@@std@@IAEXPAU_Node@?$_Tree_nod@V?$_Tmap_traits@HPAVMusicTrack@@U?$less@H@std@@V?$allocator@U?$pair@$$CBHPAVMusicTrack@@@std@@@3@$0A@@std@@@2@@Z ; std::_Tree<std::_Tmap_traits<int,MusicTrack *,std::less<int>,std::allocator<std::pair<int const ,MusicTrack *> >,0> >::_Lrotate

; 698  : 						break;	// tree now recolored/rebalanced

  001d8	e9 82 00 00 00	 jmp	 $L26268
$L26269:

; 699  : 						}
; 700  : 					}
; 701  : 				else
; 702  : 					{	// fixup right subtree
; 703  : 					_Pnode = _Left(_Fixnodeparent);
; 704  : 					if (_Color(_Pnode) == _Red)

  001dd	80 79 14 00	 cmp	 BYTE PTR [ecx+20], 0
  001e1	75 14		 jne	 SHORT $L26277

; 705  : 						{	// rotate red up from left subtree
; 706  : 						_Color(_Pnode) = _Black;
; 707  : 						_Color(_Fixnodeparent) = _Red;
; 708  : 						_Rrotate(_Fixnodeparent);

  001e3	ff 75 08	 push	 DWORD PTR _this$[ebp]
  001e6	c6 41 14 01	 mov	 BYTE PTR [ecx+20], 1
  001ea	8b ce		 mov	 ecx, esi
  001ec	c6 46 14 00	 mov	 BYTE PTR [esi+20], 0
  001f0	e8 00 00 00 00	 call	 ?_Rrotate@?$_Tree@V?$_Tmap_traits@HPAVMusicTrack@@U?$less@H@std@@V?$allocator@U?$pair@$$CBHPAVMusicTrack@@@std@@@3@$0A@@std@@@std@@IAEXPAU_Node@?$_Tree_nod@V?$_Tmap_traits@HPAVMusicTrack@@U?$less@H@std@@V?$allocator@U?$pair@$$CBHPAVMusicTrack@@@std@@@3@$0A@@std@@@2@@Z ; std::_Tree<std::_Tmap_traits<int,MusicTrack *,std::less<int>,std::allocator<std::pair<int const ,MusicTrack *> >,0> >::_Rrotate

; 709  : 						_Pnode = _Left(_Fixnodeparent);

  001f5	8b 0e		 mov	 ecx, DWORD PTR [esi]
$L26277:

; 710  : 						}
; 711  : 					if (_Isnil(_Pnode))

  001f7	80 79 15 00	 cmp	 BYTE PTR [ecx+21], 0

; 712  : 						_Fixnode = _Fixnodeparent;	// shouldn't happen
; 713  : 					else if (_Color(_Right(_Pnode)) == _Black

  001fb	75 15		 jne	 SHORT $L68640

; 714  : 						&& _Color(_Left(_Pnode)) == _Black)

  001fd	8b 41 08	 mov	 eax, DWORD PTR [ecx+8]
  00200	80 78 14 01	 cmp	 BYTE PTR [eax+20], 1
  00204	75 22		 jne	 SHORT $L26280
  00206	8b 01		 mov	 eax, DWORD PTR [ecx]
  00208	80 78 14 01	 cmp	 BYTE PTR [eax+20], 1
  0020c	75 1a		 jne	 SHORT $L26280
$L68641:

; 715  : 						{	// redden left subtree with black children
; 716  : 						_Color(_Pnode) = _Red;

  0020e	c6 41 14 00	 mov	 BYTE PTR [ecx+20], 0
$L68640:

; 717  : 						_Fixnode = _Fixnodeparent;

  00212	8b fe		 mov	 edi, esi
  00214	8b 76 04	 mov	 esi, DWORD PTR [esi+4]
$L68639:
  00217	8b 45 08	 mov	 eax, DWORD PTR _this$[ebp]
  0021a	8b 40 04	 mov	 eax, DWORD PTR [eax+4]
  0021d	3b 78 04	 cmp	 edi, DWORD PTR [eax+4]
  00220	0f 85 30 ff ff
	ff		 jne	 $L26266

; 662  : 			{	// erasing black link, must recolor/rebalance tree
; 663  : 			for (; _Fixnode != _Root() && _Color(_Fixnode) == _Black;
; 664  : 				_Fixnodeparent = _Parent(_Fixnode))

  00226	eb 37		 jmp	 SHORT $L26268
$L26280:

; 718  : 						}
; 719  : 					else
; 720  : 						{	// must rearrange left subtree
; 721  : 						if (_Color(_Left(_Pnode)) == _Black)

  00228	8b 01		 mov	 eax, DWORD PTR [ecx]
  0022a	80 78 14 01	 cmp	 BYTE PTR [eax+20], 1
  0022e	75 15		 jne	 SHORT $L26282

; 722  : 							{	// rotate red up from right sub-subtree
; 723  : 							_Color(_Right(_Pnode)) = _Black;

  00230	8b 41 08	 mov	 eax, DWORD PTR [ecx+8]

; 724  : 							_Color(_Pnode) = _Red;
; 725  : 							_Lrotate(_Pnode);

  00233	ff 75 08	 push	 DWORD PTR _this$[ebp]
  00236	c6 40 14 01	 mov	 BYTE PTR [eax+20], 1
  0023a	c6 41 14 00	 mov	 BYTE PTR [ecx+20], 0
  0023e	e8 00 00 00 00	 call	 ?_Lrotate@?$_Tree@V?$_Tmap_traits@HPAVMusicTrack@@U?$less@H@std@@V?$allocator@U?$pair@$$CBHPAVMusicTrack@@@std@@@3@$0A@@std@@@std@@IAEXPAU_Node@?$_Tree_nod@V?$_Tmap_traits@HPAVMusicTrack@@U?$less@H@std@@V?$allocator@U?$pair@$$CBHPAVMusicTrack@@@std@@@3@$0A@@std@@@2@@Z ; std::_Tree<std::_Tmap_traits<int,MusicTrack *,std::less<int>,std::allocator<std::pair<int const ,MusicTrack *> >,0> >::_Lrotate

; 726  : 							_Pnode = _Left(_Fixnodeparent);

  00243	8b 0e		 mov	 ecx, DWORD PTR [esi]
$L26282:

; 727  : 							}
; 728  : 
; 729  : 						_Color(_Pnode) = _Color(_Fixnodeparent);

  00245	8a 46 14	 mov	 al, BYTE PTR [esi+20]

; 730  : 						_Color(_Fixnodeparent) = _Black;
; 731  : 						_Color(_Left(_Pnode)) = _Black;
; 732  : 						_Rrotate(_Fixnodeparent);

  00248	ff 75 08	 push	 DWORD PTR _this$[ebp]
  0024b	88 41 14	 mov	 BYTE PTR [ecx+20], al
  0024e	c6 46 14 01	 mov	 BYTE PTR [esi+20], 1
  00252	8b 01		 mov	 eax, DWORD PTR [ecx]
  00254	8b ce		 mov	 ecx, esi
  00256	c6 40 14 01	 mov	 BYTE PTR [eax+20], 1
  0025a	e8 00 00 00 00	 call	 ?_Rrotate@?$_Tree@V?$_Tmap_traits@HPAVMusicTrack@@U?$less@H@std@@V?$allocator@U?$pair@$$CBHPAVMusicTrack@@@std@@@3@$0A@@std@@@std@@IAEXPAU_Node@?$_Tree_nod@V?$_Tmap_traits@HPAVMusicTrack@@U?$less@H@std@@V?$allocator@U?$pair@$$CBHPAVMusicTrack@@@std@@@3@$0A@@std@@@2@@Z ; std::_Tree<std::_Tmap_traits<int,MusicTrack *,std::less<int>,std::allocator<std::pair<int const ,MusicTrack *> >,0> >::_Rrotate
$L26268:

; 733  : 						break;	// tree now recolored/rebalanced
; 734  : 						}
; 735  : 					}
; 736  : 
; 737  : 			_Color(_Fixnode) = _Black;	// ensure stopping node is black

  0025f	c6 47 14 01	 mov	 BYTE PTR [edi+20], 1
$L26265:

; 738  : 			}
; 739  : 
; 740  : 		this->_Alnod.destroy(_Erasednode);	// destroy, free erased node
; 741  : 		this->_Alnod.deallocate(_Erasednode, 1);

  00263	53		 push	 ebx
  00264	e8 00 00 00 00	 call	 ??3@YAXPAX@Z		; operator delete
  00269	59		 pop	 ecx

; 742  : 
; 743  : 		if (0 < _Mysize)

  0026a	8b 4d 08	 mov	 ecx, DWORD PTR _this$[ebp]
  0026d	8b 41 08	 mov	 eax, DWORD PTR [ecx+8]
  00270	85 c0		 test	 eax, eax
  00272	5f		 pop	 edi
  00273	5e		 pop	 esi
  00274	5b		 pop	 ebx
  00275	76 04		 jbe	 SHORT $L26283

; 744  : 			--_Mysize;

  00277	48		 dec	 eax
  00278	89 41 08	 mov	 DWORD PTR [ecx+8], eax
$L26283:

; 745  : 
; 746  : 		return (_Where);	// return successor iterator

  0027b	8b 4d 10	 mov	 ecx, DWORD PTR __Where$[ebp]
  0027e	8b 45 0c	 mov	 eax, DWORD PTR ___$ReturnUdt$[ebp]
  00281	89 08		 mov	 DWORD PTR [eax], ecx

; 747  : 		}

  00283	8b 4d f4	 mov	 ecx, DWORD PTR __$EHRec$[ebp]
  00286	64 89 0d 00 00
	00 00		 mov	 DWORD PTR fs:__except_list, ecx
  0028d	c9		 leave
  0028e	c2 0c 00	 ret	 12			; 0000000cH
$L68635:
_TEXT	ENDS
;	COMDAT text$x
text$x	SEGMENT
$L68201:
  00000	8d 4d d8	 lea	 ecx, DWORD PTR $T68196[ebp]
  00003	e9 00 00 00 00	 jmp	 ??1?$basic_string@DU?$char_traits@D@std@@V?$allocator@D@2@@std@@QAE@XZ ; std::basic_string<char,std::char_traits<char>,std::allocator<char> >::~basic_string<char,std::char_traits<char>,std::allocator<char> >
__ehhandler$?erase@?$_Tree@V?$_Tmap_traits@HPAVMusicTrack@@U?$less@H@std@@V?$allocator@U?$pair@$$CBHPAVMusicTrack@@@std@@@3@$0A@@std@@@std@@QAE?AViterator@12@V312@@Z:
  00008	b8 00 00 00 00	 mov	 eax, OFFSET FLAT:$T68626
  0000d	e9 00 00 00 00	 jmp	 ___CxxFrameHandler
text$x	ENDS
?erase@?$_Tree@V?$_Tmap_traits@HPAVMusicTrack@@U?$less@H@std@@V?$allocator@U?$pair@$$CBHPAVMusicTrack@@@std@@@3@$0A@@std@@@std@@QAE?AViterator@12@V312@@Z ENDP ; std::_Tree<std::_Tmap_traits<int,MusicTrack *,std::less<int>,std::allocator<std::pair<int const ,MusicTrack *> >,0> >::erase
; Function compile flags: /Ogsy
;	COMDAT ?erase@?$_Tree@V?$_Tmap_traits@HPAVMusicTrack@@U?$less@H@std@@V?$allocator@U?$pair@$$CBHPAVMusicTrack@@@std@@@3@$0A@@std@@@std@@QAE?AViterator@12@V312@0@Z
_TEXT	SEGMENT
$T68651 = -4						; size = 4
__First$ = 8						; size = 4
__Last$ = 12						; size = 4
?erase@?$_Tree@V?$_Tmap_traits@HPAVMusicTrack@@U?$less@H@std@@V?$allocator@U?$pair@$$CBHPAVMusicTrack@@@std@@@3@$0A@@std@@@std@@QAE?AViterator@12@V312@0@Z PROC NEAR ; std::_Tree<std::_Tmap_traits<int,MusicTrack *,std::less<int>,std::allocator<std::pair<int const ,MusicTrack *> >,0> >::erase, COMDAT
; _this$ = eax
; ___$ReturnUdt$ = ebx

; 750  : 		{	// erase [_First, _Last)

  00000	55		 push	 ebp
  00001	8b ec		 mov	 ebp, esp
  00003	51		 push	 ecx

; 751  : 		if (_First == begin() && _Last == end())

  00004	8b 4d 08	 mov	 ecx, DWORD PTR __First$[ebp]
  00007	57		 push	 edi
  00008	8b f8		 mov	 edi, eax
  0000a	8b 47 04	 mov	 eax, DWORD PTR [edi+4]
  0000d	3b 08		 cmp	 ecx, DWORD PTR [eax]
  0000f	75 13		 jne	 SHORT $L68758
  00011	39 45 0c	 cmp	 DWORD PTR __Last$[ebp], eax
  00014	75 0e		 jne	 SHORT $L68758

; 752  : 			{	// erase all
; 753  : 			clear();

  00016	e8 00 00 00 00	 call	 ?clear@?$_Tree@V?$_Tmap_traits@HPAVMusicTrack@@U?$less@H@std@@V?$allocator@U?$pair@$$CBHPAVMusicTrack@@@std@@@3@$0A@@std@@@std@@QAEXXZ ; std::_Tree<std::_Tmap_traits<int,MusicTrack *,std::less<int>,std::allocator<std::pair<int const ,MusicTrack *> >,0> >::clear

; 754  : 			return (begin());

  0001b	8b 47 04	 mov	 eax, DWORD PTR [edi+4]
  0001e	8b 00		 mov	 eax, DWORD PTR [eax]
  00020	89 03		 mov	 DWORD PTR [ebx], eax
  00022	eb 26		 jmp	 SHORT $L68759
$L68758:

; 755  : 			}
; 756  : 		else
; 757  : 			{	// partial erase, one at a time
; 758  : 			while (_First != _Last)

  00024	3b 4d 0c	 cmp	 ecx, DWORD PTR __Last$[ebp]
  00027	74 1f		 je	 SHORT $L25950
  00029	56		 push	 esi
$L25949:

; 759  : 				erase(_First++);

  0002a	8d 55 08	 lea	 edx, DWORD PTR __First$[ebp]
  0002d	8b f1		 mov	 esi, ecx
  0002f	e8 00 00 00 00	 call	 ?_Inc@const_iterator@?$_Tree@V?$_Tmap_traits@HPAVMusicTrack@@U?$less@H@std@@V?$allocator@U?$pair@$$CBHPAVMusicTrack@@@std@@@3@$0A@@std@@@std@@QAEXXZ ; std::_Tree<std::_Tmap_traits<int,MusicTrack *,std::less<int>,std::allocator<std::pair<int const ,MusicTrack *> >,0> >::const_iterator::_Inc
  00034	56		 push	 esi
  00035	8d 45 fc	 lea	 eax, DWORD PTR $T68651[ebp]
  00038	50		 push	 eax
  00039	57		 push	 edi
  0003a	e8 00 00 00 00	 call	 ?erase@?$_Tree@V?$_Tmap_traits@HPAVMusicTrack@@U?$less@H@std@@V?$allocator@U?$pair@$$CBHPAVMusicTrack@@@std@@@3@$0A@@std@@@std@@QAE?AViterator@12@V312@@Z ; std::_Tree<std::_Tmap_traits<int,MusicTrack *,std::less<int>,std::allocator<std::pair<int const ,MusicTrack *> >,0> >::erase
  0003f	8b 4d 08	 mov	 ecx, DWORD PTR __First$[ebp]
  00042	3b 4d 0c	 cmp	 ecx, DWORD PTR __Last$[ebp]
  00045	75 e3		 jne	 SHORT $L25949
  00047	5e		 pop	 esi
$L25950:

; 760  : 			return (_First);

  00048	89 0b		 mov	 DWORD PTR [ebx], ecx
$L68759:
  0004a	8b c3		 mov	 eax, ebx
  0004c	5f		 pop	 edi

; 761  : 			}
; 762  : 		}

  0004d	c9		 leave
  0004e	c2 08 00	 ret	 8
?erase@?$_Tree@V?$_Tmap_traits@HPAVMusicTrack@@U?$less@H@std@@V?$allocator@U?$pair@$$CBHPAVMusicTrack@@@std@@@3@$0A@@std@@@std@@QAE?AViterator@12@V312@0@Z ENDP ; std::_Tree<std::_Tmap_traits<int,MusicTrack *,std::less<int>,std::allocator<std::pair<int const ,MusicTrack *> >,0> >::erase
; Function compile flags: /Ogsy
_TEXT	ENDS
;	COMDAT ?_Tidy@?$_Tree@V?$_Tmap_traits@HPAVMusicTrack@@U?$less@H@std@@V?$allocator@U?$pair@$$CBHPAVMusicTrack@@@std@@@3@$0A@@std@@@std@@IAEXXZ
_TEXT	SEGMENT
$T68764 = -4						; size = 4
?_Tidy@?$_Tree@V?$_Tmap_traits@HPAVMusicTrack@@U?$less@H@std@@V?$allocator@U?$pair@$$CBHPAVMusicTrack@@@std@@@3@$0A@@std@@@std@@IAEXXZ PROC NEAR ; std::_Tree<std::_Tmap_traits<int,MusicTrack *,std::less<int>,std::allocator<std::pair<int const ,MusicTrack *> >,0> >::_Tidy, COMDAT
; _this$ = esi

; 1142 : 		{	// free all storage

  00000	51		 push	 ecx

; 1143 : 		erase(begin(), end());

  00001	8b 46 04	 mov	 eax, DWORD PTR [esi+4]
  00004	8b 08		 mov	 ecx, DWORD PTR [eax]
  00006	53		 push	 ebx
  00007	50		 push	 eax
  00008	51		 push	 ecx
  00009	8d 5c 24 0c	 lea	 ebx, DWORD PTR $T68764[esp+16]
  0000d	8b c6		 mov	 eax, esi
  0000f	e8 00 00 00 00	 call	 ?erase@?$_Tree@V?$_Tmap_traits@HPAVMusicTrack@@U?$less@H@std@@V?$allocator@U?$pair@$$CBHPAVMusicTrack@@@std@@@3@$0A@@std@@@std@@QAE?AViterator@12@V312@0@Z ; std::_Tree<std::_Tmap_traits<int,MusicTrack *,std::less<int>,std::allocator<std::pair<int const ,MusicTrack *> >,0> >::erase

; 1144 : 		this->_Alptr.destroy(&_Left(_Myhead));
; 1145 : 		this->_Alptr.destroy(&_Parent(_Myhead));
; 1146 : 		this->_Alptr.destroy(&_Right(_Myhead));
; 1147 : 		this->_Alnod.deallocate(_Myhead, 1);

  00014	ff 76 04	 push	 DWORD PTR [esi+4]
  00017	e8 00 00 00 00	 call	 ??3@YAXPAX@Z		; operator delete

; 1148 : 		_Myhead = 0, _Mysize = 0;

  0001c	83 66 04 00	 and	 DWORD PTR [esi+4], 0
  00020	83 66 08 00	 and	 DWORD PTR [esi+8], 0
  00024	59		 pop	 ecx
  00025	5b		 pop	 ebx

; 1149 : 		}

  00026	59		 pop	 ecx
  00027	c3		 ret	 0
?_Tidy@?$_Tree@V?$_Tmap_traits@HPAVMusicTrack@@U?$less@H@std@@V?$allocator@U?$pair@$$CBHPAVMusicTrack@@@std@@@3@$0A@@std@@@std@@IAEXXZ ENDP ; std::_Tree<std::_Tmap_traits<int,MusicTrack *,std::less<int>,std::allocator<std::pair<int const ,MusicTrack *> >,0> >::_Tidy
; Function compile flags: /Ogsy
_TEXT	ENDS
;	COMDAT ??1?$_Tree@V?$_Tmap_traits@HPAVMusicTrack@@U?$less@H@std@@V?$allocator@U?$pair@$$CBHPAVMusicTrack@@@std@@@3@$0A@@std@@@std@@QAE@XZ
_TEXT	SEGMENT
??1?$_Tree@V?$_Tmap_traits@HPAVMusicTrack@@U?$less@H@std@@V?$allocator@U?$pair@$$CBHPAVMusicTrack@@@std@@@3@$0A@@std@@@std@@QAE@XZ PROC NEAR ; std::_Tree<std::_Tmap_traits<int,MusicTrack *,std::less<int>,std::allocator<std::pair<int const ,MusicTrack *> >,0> >::~_Tree<std::_Tmap_traits<int,MusicTrack *,std::less<int>,std::allocator<std::pair<int const ,MusicTrack *> >,0> >, COMDAT
; _this$ = esi

; 392  : 		_Tidy();

  00000	e9 00 00 00 00	 jmp	 ?_Tidy@?$_Tree@V?$_Tmap_traits@HPAVMusicTrack@@U?$less@H@std@@V?$allocator@U?$pair@$$CBHPAVMusicTrack@@@std@@@3@$0A@@std@@@std@@IAEXXZ ; std::_Tree<std::_Tmap_traits<int,MusicTrack *,std::less<int>,std::allocator<std::pair<int const ,MusicTrack *> >,0> >::_Tidy
??1?$_Tree@V?$_Tmap_traits@HPAVMusicTrack@@U?$less@H@std@@V?$allocator@U?$pair@$$CBHPAVMusicTrack@@@std@@@3@$0A@@std@@@std@@QAE@XZ ENDP ; std::_Tree<std::_Tmap_traits<int,MusicTrack *,std::less<int>,std::allocator<std::pair<int const ,MusicTrack *> >,0> >::~_Tree<std::_Tmap_traits<int,MusicTrack *,std::less<int>,std::allocator<std::pair<int const ,MusicTrack *> >,0> >
; Function compile flags: /Ogsy
; File c:\program files (x86)\microsoft visual studio .net 2003\vc7\include\map
_TEXT	ENDS
;	COMDAT ??0?$map@HPAVMusicTrack@@U?$less@H@std@@V?$allocator@U?$pair@$$CBHPAVMusicTrack@@@std@@@3@@std@@QAE@XZ
_TEXT	SEGMENT
??0?$map@HPAVMusicTrack@@U?$less@H@std@@V?$allocator@U?$pair@$$CBHPAVMusicTrack@@@std@@@3@@std@@QAE@XZ PROC NEAR ; std::map<int,MusicTrack *,std::less<int>,std::allocator<std::pair<int const ,MusicTrack *> > >::map<int,MusicTrack *,std::less<int>,std::allocator<std::pair<int const ,MusicTrack *> > >, COMDAT
; _this$ = eax

; 102  : 		{	// construct empty map from defaults

  00000	56		 push	 esi
  00001	8b f0		 mov	 esi, eax
  00003	e8 00 00 00 00	 call	 ?_Init@?$_Tree@V?$_Tmap_traits@HPAVMusicTrack@@U?$less@H@std@@V?$allocator@U?$pair@$$CBHPAVMusicTrack@@@std@@@3@$0A@@std@@@std@@IAEXXZ ; std::_Tree<std::_Tmap_traits<int,MusicTrack *,std::less<int>,std::allocator<std::pair<int const ,MusicTrack *> >,0> >::_Init

; 103  : 		}

  00008	8b c6		 mov	 eax, esi
  0000a	5e		 pop	 esi
  0000b	c3		 ret	 0
??0?$map@HPAVMusicTrack@@U?$less@H@std@@V?$allocator@U?$pair@$$CBHPAVMusicTrack@@@std@@@3@@std@@QAE@XZ ENDP ; std::map<int,MusicTrack *,std::less<int>,std::allocator<std::pair<int const ,MusicTrack *> > >::map<int,MusicTrack *,std::less<int>,std::allocator<std::pair<int const ,MusicTrack *> > >
; Function compile flags: /Ogsy
_TEXT	ENDS
;	COMDAT ??1?$map@HPAVMusicTrack@@U?$less@H@std@@V?$allocator@U?$pair@$$CBHPAVMusicTrack@@@std@@@3@@std@@QAE@XZ
_TEXT	SEGMENT
??1?$map@HPAVMusicTrack@@U?$less@H@std@@V?$allocator@U?$pair@$$CBHPAVMusicTrack@@@std@@@3@@std@@QAE@XZ PROC NEAR ; std::map<int,MusicTrack *,std::less<int>,std::allocator<std::pair<int const ,MusicTrack *> > >::~map<int,MusicTrack *,std::less<int>,std::allocator<std::pair<int const ,MusicTrack *> > >, COMDAT
; _this$ = esi
  00000	e9 00 00 00 00	 jmp	 ?_Tidy@?$_Tree@V?$_Tmap_traits@HPAVMusicTrack@@U?$less@H@std@@V?$allocator@U?$pair@$$CBHPAVMusicTrack@@@std@@@3@$0A@@std@@@std@@IAEXXZ ; std::_Tree<std::_Tmap_traits<int,MusicTrack *,std::less<int>,std::allocator<std::pair<int const ,MusicTrack *> >,0> >::_Tidy
??1?$map@HPAVMusicTrack@@U?$less@H@std@@V?$allocator@U?$pair@$$CBHPAVMusicTrack@@@std@@@3@@std@@QAE@XZ ENDP ; std::map<int,MusicTrack *,std::less<int>,std::allocator<std::pair<int const ,MusicTrack *> > >::~map<int,MusicTrack *,std::less<int>,std::allocator<std::pair<int const ,MusicTrack *> > >
PUBLIC	?clear@TrackSet@@QAEXH@Z			; TrackSet::clear
; Function compile flags: /Ogsy
; File f:\nes\nsdl\src\nsc\trackset.cpp
_TEXT	SEGMENT
__id$ = 8						; size = 4
?clear@TrackSet@@QAEXH@Z PROC NEAR			; TrackSet::clear
; _this$ = eax

; 930  : 	maxTrack = -1;

  00197	83 48 58 ff	 or	 DWORD PTR [eax+88], -1

; 931  : 	MusicItem::clear(_id);

  0019b	e9 00 00 00 00	 jmp	 ?clear@MusicItem@@QAEXH@Z ; MusicItem::clear
?clear@TrackSet@@QAEXH@Z ENDP				; TrackSet::clear
_TEXT	ENDS
PUBLIC	??1TrackSet@@QAE@XZ				; TrackSet::~TrackSet
$T84836	DD	0ffffffffH
	DD	FLAT:$L84821
$T84834	DD	019930520H
	DD	01H
	DD	FLAT:$T84836
	DD	2 DUP(00H)
	DD	2 DUP(00H)
; Function compile flags: /Ogsy
_TEXT	SEGMENT
__$EHRec$ = -12						; size = 12
_this$ = 8						; size = 4
??1TrackSet@@QAE@XZ PROC NEAR				; TrackSet::~TrackSet

; 917  : {

  001a0	b8 00 00 00 00	 mov	 eax, __ehhandler$??1TrackSet@@QAE@XZ
  001a5	e8 00 00 00 00	 call	 __EH_prolog
  001aa	56		 push	 esi
  001ab	57		 push	 edi
  001ac	8b 7d 08	 mov	 edi, DWORD PTR _this$[ebp]
  001af	c7 07 00 00 00
	00		 mov	 DWORD PTR [edi], OFFSET FLAT:??_7TrackSet@@6B@
  001b5	83 65 fc 00	 and	 DWORD PTR __$EHRec$[ebp+8], 0

; 918  : }

  001b9	8d 77 44	 lea	 esi, DWORD PTR [edi+68]
  001bc	e8 00 00 00 00	 call	 ?_Tidy@?$_Tree@V?$_Tmap_traits@HPAVMusicTrack@@U?$less@H@std@@V?$allocator@U?$pair@$$CBHPAVMusicTrack@@@std@@@3@$0A@@std@@@std@@IAEXXZ ; std::_Tree<std::_Tmap_traits<int,MusicTrack *,std::less<int>,std::allocator<std::pair<int const ,MusicTrack *> >,0> >::_Tidy
  001c1	83 4d fc ff	 or	 DWORD PTR __$EHRec$[ebp+8], -1
  001c5	8b cf		 mov	 ecx, edi
  001c7	e8 00 00 00 00	 call	 ??1MusicItem@@QAE@XZ	; MusicItem::~MusicItem
  001cc	8b 4d f4	 mov	 ecx, DWORD PTR __$EHRec$[ebp]
  001cf	5f		 pop	 edi
  001d0	5e		 pop	 esi
  001d1	64 89 0d 00 00
	00 00		 mov	 DWORD PTR fs:__except_list, ecx
  001d8	c9		 leave
  001d9	c2 04 00	 ret	 4
$L84821:
  00267	8b 4d 08	 mov	 ecx, DWORD PTR _this$[ebp]
  0026a	e9 00 00 00 00	 jmp	 ??1MusicItem@@QAE@XZ	; MusicItem::~MusicItem
__ehhandler$??1TrackSet@@QAE@XZ:
  0026f	b8 00 00 00 00	 mov	 eax, OFFSET FLAT:$T84834
  00274	e9 00 00 00 00	 jmp	 ___CxxFrameHandler
??1TrackSet@@QAE@XZ ENDP				; TrackSet::~TrackSet
PUBLIC	?SetEvent@TrackSet@@QAEXPAVMusicItem@@@Z	; TrackSet::SetEvent
; Function compile flags: /Ogsy
_TEXT	SEGMENT
__item$ = 8						; size = 4
?SetEvent@TrackSet@@QAEXPAVMusicItem@@@Z PROC NEAR	; TrackSet::SetEvent
; _this$ = eax

; 1251 : 	nowTrack->SetEvent(_item);

  001dc	8b 40 50	 mov	 eax, DWORD PTR [eax+80]
  001df	e9 00 00 00 00	 jmp	 ?SetEvent@MusicTrack@@QAEXPAVMusicItem@@@Z ; MusicTrack::SetEvent
?SetEvent@TrackSet@@QAEXPAVMusicItem@@@Z ENDP		; TrackSet::SetEvent
_TEXT	ENDS
PUBLIC	?makeTrack@TrackSet@@QAEPAVMusicTrack@@PAVMMLfile@@H@Z ; TrackSet::makeTrack
$T104628 DD	0ffffffffH
	DD	FLAT:$L104595
	DD	0ffffffffH
	DD	FLAT:$L104596
$T104626 DD	019930520H
	DD	02H
	DD	FLAT:$T104628
	DD	2 DUP(00H)
	DD	2 DUP(00H)
; Function compile flags: /Ogsy
_TEXT	SEGMENT
$T104590 = -16						; size = 4
$T104587 = -16						; size = 4
__$EHRec$ = -12						; size = 12
$T104592 = 8						; size = 4
_MML$ = 8						; size = 4
__track$ = 12						; size = 4
?makeTrack@TrackSet@@QAEPAVMusicTrack@@PAVMMLfile@@H@Z PROC NEAR ; TrackSet::makeTrack
; _this$ = ecx

; 1189 : {

  001e4	b8 00 00 00 00	 mov	 eax, __ehhandler$?makeTrack@TrackSet@@QAEPAVMusicTrack@@PAVMMLfile@@H@Z
  001e9	e8 00 00 00 00	 call	 __EH_prolog
  001ee	51		 push	 ecx
  001ef	53		 push	 ebx
  001f0	56		 push	 esi

; 1190 : 	//gbNIuWFNgB
; 1191 : 	MusicTrack*	newTrack	= new MusicTrack(MML);

  001f1	68 e8 02 00 00	 push	 744			; 000002e8H
  001f6	8b f1		 mov	 esi, ecx
  001f8	e8 00 00 00 00	 call	 ??2@YAPAXI@Z		; operator new
  001fd	59		 pop	 ecx
  001fe	89 45 f0	 mov	 DWORD PTR $T104587[ebp], eax
  00201	33 db		 xor	 ebx, ebx
  00203	3b c3		 cmp	 eax, ebx
  00205	89 5d fc	 mov	 DWORD PTR __$EHRec$[ebp+8], ebx
  00208	74 10		 je	 SHORT $L104589
  0020a	68 00 00 00 00	 push	 OFFSET FLAT:??_C@_1DC@ODCBAGNM@?$AA?$DN?$AA?$DN?$AA?$DN?$AA?$DN?$AA?5?$AA?$FL?$AA?5?$AAM?$AAu?$AAs?$AAi?$AAc?$AA?5?$AAT?$AAr?$AAa?$AAc?$AAk?$AA?5?$AA?$FN@
  0020f	ff 75 08	 push	 DWORD PTR _MML$[ebp]
  00212	50		 push	 eax
  00213	e8 00 00 00 00	 call	 ??0MusicTrack@@QAE@PAVMMLfile@@QBG@Z ; MusicTrack::MusicTrack
  00218	8b d8		 mov	 ebx, eax
$L104589:
  0021a	83 4d fc ff	 or	 DWORD PTR __$EHRec$[ebp+8], -1
  0021e	57		 push	 edi

; 1192 : 
; 1193 : 	//ACe
; 1194 : 	ptcItem.push_back(newTrack);		//NX"MusicItem"JB

  0021f	8d 46 08	 lea	 eax, DWORD PTR [esi+8]
  00222	8b 48 04	 mov	 ecx, DWORD PTR [eax+4]
  00225	8d 55 f0	 lea	 edx, DWORD PTR $T104590[ebp]
  00228	52		 push	 edx
  00229	51		 push	 ecx
  0022a	50		 push	 eax
  0022b	89 5d f0	 mov	 DWORD PTR $T104590[ebp], ebx
  0022e	e8 00 00 00 00	 call	 ?_Insert@?$list@PAVMusicItem@@V?$allocator@PAVMusicItem@@@std@@@std@@QAEXViterator@12@ABQAVMusicItem@@@Z ; std::list<MusicItem *,std::allocator<MusicItem *> >::_Insert

; 1195 : 	ptcTrack[_track] = newTrack;

  00233	8d 7e 44	 lea	 edi, DWORD PTR [esi+68]
  00236	8d 75 0c	 lea	 esi, DWORD PTR __track$[ebp]
  00239	e8 00 00 00 00	 call	 ??A?$map@HPAVMusicTrack@@U?$less@H@std@@V?$allocator@U?$pair@$$CBHPAVMusicTrack@@@std@@@3@@std@@QAEAAPAVMusicTrack@@ABH@Z ; std::map<int,MusicTrack *,std::less<int>,std::allocator<std::pair<int const ,MusicTrack *> > >::operator[]

; 1196 : 
; 1197 : 	if(MML->iReleaseVolume != 2){		//hCo[ftHgQ

  0023e	8b 75 08	 mov	 esi, DWORD PTR _MML$[ebp]
  00241	89 18		 mov	 DWORD PTR [eax], ebx
  00243	83 be 84 00 00
	00 02		 cmp	 DWORD PTR [esi+132], 2
  0024a	5f		 pop	 edi
  0024b	74 3d		 je	 SHORT $L24723

; 1198 : 		newTrack->SetEvent(new mml_general(nsd_Release_Volume + (unsigned char)MML->iReleaseVolume, _T("Release Volume")));

  0024d	6a 3c		 push	 60			; 0000003cH
  0024f	e8 00 00 00 00	 call	 ??2@YAPAXI@Z		; operator new
  00254	59		 pop	 ecx
  00255	89 45 08	 mov	 DWORD PTR $T104592[ebp], eax
  00258	85 c0		 test	 eax, eax
  0025a	c7 45 fc 01 00
	00 00		 mov	 DWORD PTR __$EHRec$[ebp+8], 1
  00261	74 19		 je	 SHORT $L104593
  00263	33 c9		 xor	 ecx, ecx
  00265	8a 8e 84 00 00
	00		 mov	 cl, BYTE PTR [esi+132]
  0026b	80 c1 70	 add	 cl, 112			; 00000070H
  0026e	68 00 00 00 00	 push	 OFFSET FLAT:??_C@_1BO@IEEELBMO@?$AAR?$AAe?$AAl?$AAe?$AAa?$AAs?$AAe?$AA?5?$AAV?$AAo?$AAl?$AAu?$AAm?$AAe?$AA?$AA@
  00273	51		 push	 ecx
  00274	50		 push	 eax
  00275	e8 00 00 00 00	 call	 ??0mml_general@@QAE@EQBG@Z ; mml_general::mml_general
  0027a	eb 02		 jmp	 SHORT $L104594
$L104593:
  0027c	33 c0		 xor	 eax, eax
$L104594:
  0027e	83 4d fc ff	 or	 DWORD PTR __$EHRec$[ebp+8], -1
  00282	50		 push	 eax
  00283	8b c3		 mov	 eax, ebx
  00285	e8 00 00 00 00	 call	 ?SetEvent@MusicTrack@@QAEXPAVMusicItem@@@Z ; MusicTrack::SetEvent
$L24723:

; 1199 : 	}
; 1200 : 
; 1201 : 	//|C^n
; 1202 : 	return(newTrack);
; 1203 : }

  0028a	8b 4d f4	 mov	 ecx, DWORD PTR __$EHRec$[ebp]
  0028d	5e		 pop	 esi
  0028e	8b c3		 mov	 eax, ebx
  00290	5b		 pop	 ebx
  00291	64 89 0d 00 00
	00 00		 mov	 DWORD PTR fs:__except_list, ecx
  00298	c9		 leave
  00299	c2 08 00	 ret	 8
$L104595:
  00613	ff 75 f0	 push	 DWORD PTR $T104587[ebp]
  00616	e8 00 00 00 00	 call	 ??3@YAXPAX@Z		; operator delete
  0061b	59		 pop	 ecx
  0061c	c3		 ret	 0
$L104596:
  0061d	ff 75 08	 push	 DWORD PTR $T104592[ebp]
  00620	e8 00 00 00 00	 call	 ??3@YAXPAX@Z		; operator delete
  00625	59		 pop	 ecx
  00626	c3		 ret	 0
__ehhandler$?makeTrack@TrackSet@@QAEPAVMusicTrack@@PAVMMLfile@@H@Z:
  00627	b8 00 00 00 00	 mov	 eax, OFFSET FLAT:$T104626
  0062c	e9 00 00 00 00	 jmp	 ___CxxFrameHandler
?makeTrack@TrackSet@@QAEPAVMusicTrack@@PAVMMLfile@@H@Z ENDP ; TrackSet::makeTrack
PUBLIC	?Fix_Address@TrackSet@@QAEXPAVMusicFile@@@Z	; TrackSet::Fix_Address
; Function compile flags: /Ogsy
_TEXT	SEGMENT
_this$ = 8						; size = 4
_MUS$ = 12						; size = 4
?Fix_Address@TrackSet@@QAEXPAVMusicFile@@@Z PROC NEAR	; TrackSet::Fix_Address

; 1071 : 	iTrack = 0;

  0029c	8b 44 24 04	 mov	 eax, DWORD PTR _this$[esp-4]
  002a0	56		 push	 esi
  002a1	8d 70 54	 lea	 esi, DWORD PTR [eax+84]
  002a4	83 26 00	 and	 DWORD PTR [esi], 0

; 1072 : 	while(iTrack <= maxTrack){

  002a7	83 78 58 00	 cmp	 DWORD PTR [eax+88], 0
  002ab	7c 24		 jl	 SHORT $L24678
  002ad	53		 push	 ebx
  002ae	57		 push	 edi
  002af	8d 78 44	 lea	 edi, DWORD PTR [eax+68]
$L24677:

; 1073 : 		ptcTrack[iTrack]->Fix_Address(MUS);

  002b2	e8 00 00 00 00	 call	 ??A?$map@HPAVMusicTrack@@U?$less@H@std@@V?$allocator@U?$pair@$$CBHPAVMusicTrack@@@std@@@3@@std@@QAEAAPAVMusicTrack@@ABH@Z ; std::map<int,MusicTrack *,std::less<int>,std::allocator<std::pair<int const ,MusicTrack *> > >::operator[]
  002b7	ff 74 24 14	 push	 DWORD PTR _MUS$[esp+8]
  002bb	8b 18		 mov	 ebx, DWORD PTR [eax]
  002bd	e8 00 00 00 00	 call	 ?Fix_Address@MusicTrack@@QAEXPAVMusicFile@@@Z ; MusicTrack::Fix_Address

; 1074 : 		iTrack++;

  002c2	ff 06		 inc	 DWORD PTR [esi]
  002c4	8b 06		 mov	 eax, DWORD PTR [esi]
  002c6	8b 4c 24 10	 mov	 ecx, DWORD PTR _this$[esp+8]
  002ca	3b 41 58	 cmp	 eax, DWORD PTR [ecx+88]
  002cd	7e e3		 jle	 SHORT $L24677
  002cf	5f		 pop	 edi
  002d0	5b		 pop	 ebx
$L24678:
  002d1	5e		 pop	 esi

; 1075 : 	}
; 1076 : 
; 1077 : }

  002d2	c2 08 00	 ret	 8
?Fix_Address@TrackSet@@QAEXPAVMusicFile@@@Z ENDP	; TrackSet::Fix_Address
_TEXT	ENDS
PUBLIC	?OptimizeDefineCheck@TrackSet@@QAEXPAVMusicFile@@@Z ; TrackSet::OptimizeDefineCheck
; Function compile flags: /Ogsy
_TEXT	SEGMENT
_MUS$ = 8						; size = 4
?OptimizeDefineCheck@TrackSet@@QAEXPAVMusicFile@@@Z PROC NEAR ; TrackSet::OptimizeDefineCheck
; _this$ = ebx

; 1052 : {

  002d5	56		 push	 esi

; 1053 : 	iTrack = 0;

  002d6	8d 73 54	 lea	 esi, DWORD PTR [ebx+84]
  002d9	83 26 00	 and	 DWORD PTR [esi], 0

; 1054 : 	while(iTrack <= maxTrack){

  002dc	83 7b 58 00	 cmp	 DWORD PTR [ebx+88], 0
  002e0	7c 1e		 jl	 SHORT $L24671
  002e2	57		 push	 edi
  002e3	8d 7b 44	 lea	 edi, DWORD PTR [ebx+68]
$L24670:

; 1055 : 		ptcTrack[iTrack]->OptimizeDefineCheck(MUS);

  002e6	e8 00 00 00 00	 call	 ??A?$map@HPAVMusicTrack@@U?$less@H@std@@V?$allocator@U?$pair@$$CBHPAVMusicTrack@@@std@@@3@@std@@QAEAAPAVMusicTrack@@ABH@Z ; std::map<int,MusicTrack *,std::less<int>,std::allocator<std::pair<int const ,MusicTrack *> > >::operator[]
  002eb	ff 74 24 0c	 push	 DWORD PTR _MUS$[esp+4]
  002ef	ff 30		 push	 DWORD PTR [eax]
  002f1	e8 00 00 00 00	 call	 ?OptimizeDefineCheck@MusicTrack@@QAEXPAVMusicFile@@@Z ; MusicTrack::OptimizeDefineCheck

; 1056 : 		iTrack++;

  002f6	ff 06		 inc	 DWORD PTR [esi]
  002f8	8b 06		 mov	 eax, DWORD PTR [esi]
  002fa	3b 43 58	 cmp	 eax, DWORD PTR [ebx+88]
  002fd	7e e7		 jle	 SHORT $L24670
  002ff	5f		 pop	 edi
$L24671:
  00300	5e		 pop	 esi

; 1057 : 	}
; 1058 : 
; 1059 : }

  00301	c2 04 00	 ret	 4
?OptimizeDefineCheck@TrackSet@@QAEXPAVMusicFile@@@Z ENDP ; TrackSet::OptimizeDefineCheck
_TEXT	ENDS
PUBLIC	?TickCountPrint@TrackSet@@QAEXPAVMusicFile@@HH@Z ; TrackSet::TickCountPrint
; Function compile flags: /Ogsy
_TEXT	SEGMENT
$T104641 = -20						; size = 8
$T104639 = -20						; size = 8
$T104636 = -12						; size = 8
tv235 = -8						; size = 4
_i$ = -4						; size = 4
_this$ = 8						; size = 4
_MUS$ = 12						; size = 4
_iStart$ = 16						; size = 4
_iEnd$ = 20						; size = 4
?TickCountPrint@TrackSet@@QAEXPAVMusicFile@@HH@Z PROC NEAR ; TrackSet::TickCountPrint

; 983  : {

  00304	55		 push	 ebp
  00305	8b ec		 mov	 ebp, esp
  00307	83 ec 14	 sub	 esp, 20			; 00000014H
  0030a	53		 push	 ebx
  0030b	56		 push	 esi
  0030c	57		 push	 edi

; 984  : 	int		i		= iStart;

  0030d	8b 7d 10	 mov	 edi, DWORD PTR _iStart$[ebp]

; 985  : 	int		iTick;
; 986  : 
; 987  : 	cout	<< "Track ";

  00310	68 00 00 00 00	 push	 OFFSET FLAT:??_C@_06KPCEEHJM@Track?5?$AA@
  00315	bb 00 00 00 00	 mov	 ebx, OFFSET FLAT:?cout@std@@3V?$basic_ostream@DU?$char_traits@D@std@@@1@A ; std::cout
  0031a	53		 push	 ebx
  0031b	e8 00 00 00 00	 call	 ??$?6U?$char_traits@D@std@@@std@@YAAAV?$basic_ostream@DU?$char_traits@D@std@@@0@AAV10@PBD@Z ; std::operator<<<std::char_traits<char> >

; 988  : 	while(i < iEnd){

  00320	3b 7d 14	 cmp	 edi, DWORD PTR _iEnd$[ebp]
  00323	59		 pop	 ecx
  00324	59		 pop	 ecx
  00325	7d 4a		 jge	 SHORT $L24626
$L24625:

; 989  : 		i++;
; 990  : 		cout << "| TR(" << setfill(' ')  << setw(2) << i << ") ";

  00327	68 00 00 00 00	 push	 OFFSET FLAT:??_C@_05IFBGHAGD@?$HM?5TR?$CI?$AA@
  0032c	53		 push	 ebx
  0032d	47		 inc	 edi
  0032e	e8 00 00 00 00	 call	 ??$?6U?$char_traits@D@std@@@std@@YAAAV?$basic_ostream@DU?$char_traits@D@std@@@0@AAV10@PBD@Z ; std::operator<<<std::char_traits<char> >
  00333	59		 pop	 ecx
  00334	8b f0		 mov	 esi, eax
  00336	8b 06		 mov	 eax, DWORD PTR [esi]
  00338	8b 40 04	 mov	 eax, DWORD PTR [eax+4]
  0033b	59		 pop	 ecx
  0033c	68 00 00 00 00	 push	 OFFSET FLAT:??_C@_02KCKGHPCA@?$CJ?5?$AA@
  00341	57		 push	 edi
  00342	c6 44 30 30 20	 mov	 BYTE PTR [eax+esi+48], 32 ; 00000020H
  00347	8d 45 f4	 lea	 eax, DWORD PTR $T104636[ebp]
  0034a	6a 02		 push	 2
  0034c	50		 push	 eax
  0034d	e8 00 00 00 00	 call	 ?setw@std@@YA?AU?$_Smanip@H@1@H@Z ; std::setw
  00352	59		 pop	 ecx
  00353	59		 pop	 ecx
  00354	8b c8		 mov	 ecx, eax
  00356	e8 00 00 00 00	 call	 ??$?6DU?$char_traits@D@std@@H@std@@YAAAV?$basic_ostream@DU?$char_traits@D@std@@@0@AAV10@ABU?$_Smanip@H@0@@Z ; std::operator<<<char,std::char_traits<char>,int>
  0035b	50		 push	 eax
  0035c	e8 00 00 00 00	 call	 ??6?$basic_ostream@DU?$char_traits@D@std@@@std@@QAEAAV01@H@Z ; std::basic_ostream<char,std::char_traits<char> >::operator<<
  00361	50		 push	 eax
  00362	e8 00 00 00 00	 call	 ??$?6U?$char_traits@D@std@@@std@@YAAAV?$basic_ostream@DU?$char_traits@D@std@@@0@AAV10@PBD@Z ; std::operator<<<std::char_traits<char> >
  00367	3b 7d 14	 cmp	 edi, DWORD PTR _iEnd$[ebp]
  0036a	59		 pop	 ecx
  0036b	59		 pop	 ecx
  0036c	7c b9		 jl	 SHORT $L24625

; 988  : 	while(i < iEnd){

  0036e	8b 7d 10	 mov	 edi, DWORD PTR _iStart$[ebp]
$L24626:

; 991  : 	}
; 992  : 
; 993  : 	i = iStart;
; 994  : 	cout << endl <<	"Loop  ";

  00371	68 00 00 00 00	 push	 OFFSET FLAT:??_C@_06MFAOKAEB@Loop?5?5?$AA@
  00376	68 00 00 00 00	 push	 OFFSET FLAT:?cout@std@@3V?$basic_ostream@DU?$char_traits@D@std@@@1@A
  0037b	89 7d fc	 mov	 DWORD PTR _i$[ebp], edi
  0037e	e8 00 00 00 00	 call	 ?endl@std@@YAAAV?$basic_ostream@DU?$char_traits@D@std@@@1@AAV21@@Z ; std::endl
  00383	59		 pop	 ecx
  00384	50		 push	 eax
  00385	e8 00 00 00 00	 call	 ??$?6U?$char_traits@D@std@@@std@@YAAAV?$basic_ostream@DU?$char_traits@D@std@@@0@AAV10@PBD@Z ; std::operator<<<std::char_traits<char> >

; 995  : 	while(i < iEnd){

  0038a	3b 7d 14	 cmp	 edi, DWORD PTR _iEnd$[ebp]
  0038d	59		 pop	 ecx
  0038e	59		 pop	 ecx
  0038f	0f 8d 95 00 00
	00		 jge	 $L24636
  00395	8b 45 08	 mov	 eax, DWORD PTR _this$[ebp]

; 1009 : 	while(i < iEnd){

  00398	83 c0 44	 add	 eax, 68			; 00000044H
  0039b	89 45 f8	 mov	 DWORD PTR tv235[ebp], eax
$L24635:
  0039e	8b 7d f8	 mov	 edi, DWORD PTR tv235[ebp]
  003a1	8d 75 fc	 lea	 esi, DWORD PTR _i$[ebp]
  003a4	e8 00 00 00 00	 call	 ??A?$map@HPAVMusicTrack@@U?$less@H@std@@V?$allocator@U?$pair@$$CBHPAVMusicTrack@@@std@@@3@@std@@QAEAAPAVMusicTrack@@ABH@Z ; std::map<int,MusicTrack *,std::less<int>,std::allocator<std::pair<int const ,MusicTrack *> > >::operator[]
  003a9	8b 00		 mov	 eax, DWORD PTR [eax]
  003ab	83 c0 3c	 add	 eax, 60			; 0000003cH
  003ae	e8 00 00 00 00	 call	 ?init@NSD_WORK@@QAEXXZ	; NSD_WORK::init
  003b3	e8 00 00 00 00	 call	 ??A?$map@HPAVMusicTrack@@U?$less@H@std@@V?$allocator@U?$pair@$$CBHPAVMusicTrack@@@std@@@3@@std@@QAEAAPAVMusicTrack@@ABH@Z ; std::map<int,MusicTrack *,std::less<int>,std::allocator<std::pair<int const ,MusicTrack *> > >::operator[]
  003b8	ff 75 0c	 push	 DWORD PTR _MUS$[ebp]
  003bb	8b 08		 mov	 ecx, DWORD PTR [eax]
  003bd	e8 00 00 00 00	 call	 ?TickCount@MusicTrack@@QAEIPAVMusicFile@@@Z ; MusicTrack::TickCount
  003c2	e8 00 00 00 00	 call	 ??A?$map@HPAVMusicTrack@@U?$less@H@std@@V?$allocator@U?$pair@$$CBHPAVMusicTrack@@@std@@@3@@std@@QAEAAPAVMusicTrack@@ABH@Z ; std::map<int,MusicTrack *,std::less<int>,std::allocator<std::pair<int const ,MusicTrack *> > >::operator[]
  003c7	8b 00		 mov	 eax, DWORD PTR [eax]
  003c9	8b b8 98 00 00
	00		 mov	 edi, DWORD PTR [eax+152]
  003cf	83 ff ff	 cmp	 edi, -1
  003d2	75 0f		 jne	 SHORT $L24637
  003d4	68 00 00 00 00	 push	 OFFSET FLAT:??_C@_09CCGPGAKD@?$HM?5no?9loop?$AA@
  003d9	53		 push	 ebx
  003da	e8 00 00 00 00	 call	 ??$?6U?$char_traits@D@std@@@std@@YAAAV?$basic_ostream@DU?$char_traits@D@std@@@0@AAV10@PBD@Z ; std::operator<<<std::char_traits<char> >
  003df	59		 pop	 ecx
  003e0	59		 pop	 ecx
  003e1	eb 35		 jmp	 SHORT $L24639
$L24637:

; 996  : 		ptcTrack[i]->nsd.init();		//G~[^Ep[^
; 997  : 		ptcTrack[i]->TickCount(MUS);	//G~[g
; 998  : 		iTick = ptcTrack[i]->GetTickLoop();
; 999  : 		if(iTick == -1){
; 1000 : 			cout << "| no-loop";
; 1001 : 		} else {
; 1002 : 			cout << "|" << setw(8) << setfill(' ') << iTick;

  003e3	8d 45 ec	 lea	 eax, DWORD PTR $T104639[ebp]
  003e6	6a 08		 push	 8
  003e8	50		 push	 eax
  003e9	e8 00 00 00 00	 call	 ?setw@std@@YA?AU?$_Smanip@H@1@H@Z ; std::setw
  003ee	68 00 00 00 00	 push	 OFFSET FLAT:??_C@_01DNKMNLPK@?$HM?$AA@
  003f3	53		 push	 ebx
  003f4	8b f0		 mov	 esi, eax
  003f6	e8 00 00 00 00	 call	 ??$?6U?$char_traits@D@std@@@std@@YAAAV?$basic_ostream@DU?$char_traits@D@std@@@0@AAV10@PBD@Z ; std::operator<<<std::char_traits<char> >
  003fb	8b ce		 mov	 ecx, esi
  003fd	83 c4 10	 add	 esp, 16			; 00000010H
  00400	8b f0		 mov	 esi, eax
  00402	e8 00 00 00 00	 call	 ??$?6DU?$char_traits@D@std@@H@std@@YAAAV?$basic_ostream@DU?$char_traits@D@std@@@0@AAV10@ABU?$_Smanip@H@0@@Z ; std::operator<<<char,std::char_traits<char>,int>
  00407	8b 08		 mov	 ecx, DWORD PTR [eax]
  00409	8b 49 04	 mov	 ecx, DWORD PTR [ecx+4]
  0040c	57		 push	 edi
  0040d	50		 push	 eax
  0040e	c6 44 01 30 20	 mov	 BYTE PTR [ecx+eax+48], 32 ; 00000020H
  00413	e8 00 00 00 00	 call	 ??6?$basic_ostream@DU?$char_traits@D@std@@@std@@QAEAAV01@H@Z ; std::basic_ostream<char,std::char_traits<char> >::operator<<
$L24639:

; 1003 : 		}
; 1004 : 		i++;

  00418	ff 45 fc	 inc	 DWORD PTR _i$[ebp]
  0041b	8b 45 fc	 mov	 eax, DWORD PTR _i$[ebp]
  0041e	3b 45 14	 cmp	 eax, DWORD PTR _iEnd$[ebp]
  00421	0f 8c 77 ff ff
	ff		 jl	 $L24635

; 995  : 	while(i < iEnd){

  00427	8b 7d 10	 mov	 edi, DWORD PTR _iStart$[ebp]
$L24636:

; 1005 : 	}
; 1006 : 
; 1007 : 	i = iStart;
; 1008 : 	cout << endl <<	"Total ";;

  0042a	68 00 00 00 00	 push	 OFFSET FLAT:??_C@_06BHCKJACF@Total?5?$AA@
  0042f	68 00 00 00 00	 push	 OFFSET FLAT:?cout@std@@3V?$basic_ostream@DU?$char_traits@D@std@@@1@A
  00434	89 7d fc	 mov	 DWORD PTR _i$[ebp], edi
  00437	e8 00 00 00 00	 call	 ?endl@std@@YAAAV?$basic_ostream@DU?$char_traits@D@std@@@1@AAV21@@Z ; std::endl
  0043c	59		 pop	 ecx
  0043d	50		 push	 eax
  0043e	e8 00 00 00 00	 call	 ??$?6U?$char_traits@D@std@@@std@@YAAAV?$basic_ostream@DU?$char_traits@D@std@@@0@AAV10@PBD@Z ; std::operator<<<std::char_traits<char> >

; 1009 : 	while(i < iEnd){

  00443	3b 7d 14	 cmp	 edi, DWORD PTR _iEnd$[ebp]
  00446	59		 pop	 ecx
  00447	59		 pop	 ecx
  00448	7d 5c		 jge	 SHORT $L24647
  0044a	8b 45 08	 mov	 eax, DWORD PTR _this$[ebp]
  0044d	83 c0 44	 add	 eax, 68			; 00000044H
  00450	89 45 f8	 mov	 DWORD PTR tv235[ebp], eax
$L24646:

; 1010 : 		cout << "|" << setw(8) << setfill(' ') << ptcTrack[i]->GetTickTotal();

  00453	8b 7d f8	 mov	 edi, DWORD PTR tv235[ebp]
  00456	8d 75 fc	 lea	 esi, DWORD PTR _i$[ebp]
  00459	e8 00 00 00 00	 call	 ??A?$map@HPAVMusicTrack@@U?$less@H@std@@V?$allocator@U?$pair@$$CBHPAVMusicTrack@@@std@@@3@@std@@QAEAAPAVMusicTrack@@ABH@Z ; std::map<int,MusicTrack *,std::less<int>,std::allocator<std::pair<int const ,MusicTrack *> > >::operator[]
  0045e	8b 00		 mov	 eax, DWORD PTR [eax]
  00460	8b b8 94 00 00
	00		 mov	 edi, DWORD PTR [eax+148]
  00466	8d 45 ec	 lea	 eax, DWORD PTR $T104641[ebp]
  00469	6a 08		 push	 8
  0046b	50		 push	 eax
  0046c	e8 00 00 00 00	 call	 ?setw@std@@YA?AU?$_Smanip@H@1@H@Z ; std::setw
  00471	68 00 00 00 00	 push	 OFFSET FLAT:??_C@_01DNKMNLPK@?$HM?$AA@
  00476	53		 push	 ebx
  00477	8b f0		 mov	 esi, eax
  00479	e8 00 00 00 00	 call	 ??$?6U?$char_traits@D@std@@@std@@YAAAV?$basic_ostream@DU?$char_traits@D@std@@@0@AAV10@PBD@Z ; std::operator<<<std::char_traits<char> >
  0047e	8b ce		 mov	 ecx, esi
  00480	83 c4 10	 add	 esp, 16			; 00000010H
  00483	8b f0		 mov	 esi, eax
  00485	e8 00 00 00 00	 call	 ??$?6DU?$char_traits@D@std@@H@std@@YAAAV?$basic_ostream@DU?$char_traits@D@std@@@0@AAV10@ABU?$_Smanip@H@0@@Z ; std::operator<<<char,std::char_traits<char>,int>
  0048a	8b 08		 mov	 ecx, DWORD PTR [eax]
  0048c	8b 49 04	 mov	 ecx, DWORD PTR [ecx+4]
  0048f	57		 push	 edi
  00490	50		 push	 eax
  00491	c6 44 01 30 20	 mov	 BYTE PTR [ecx+eax+48], 32 ; 00000020H
  00496	e8 00 00 00 00	 call	 ??6?$basic_ostream@DU?$char_traits@D@std@@@std@@QAEAAV01@I@Z ; std::basic_ostream<char,std::char_traits<char> >::operator<<

; 1011 : 		i++;

  0049b	ff 45 fc	 inc	 DWORD PTR _i$[ebp]
  0049e	8b 45 fc	 mov	 eax, DWORD PTR _i$[ebp]
  004a1	3b 45 14	 cmp	 eax, DWORD PTR _iEnd$[ebp]
  004a4	7c ad		 jl	 SHORT $L24646
$L24647:

; 1012 : 	}
; 1013 : 	cout << endl;

  004a6	68 00 00 00 00	 push	 OFFSET FLAT:?cout@std@@3V?$basic_ostream@DU?$char_traits@D@std@@@1@A
  004ab	e8 00 00 00 00	 call	 ?endl@std@@YAAAV?$basic_ostream@DU?$char_traits@D@std@@@1@AAV21@@Z ; std::endl
  004b0	59		 pop	 ecx
  004b1	5f		 pop	 edi
  004b2	5e		 pop	 esi
  004b3	5b		 pop	 ebx

; 1014 : 	
; 1015 : }

  004b4	c9		 leave
  004b5	c2 10 00	 ret	 16			; 00000010H
?TickCountPrint@TrackSet@@QAEXPAVMusicFile@@HH@Z ENDP	; TrackSet::TickCountPrint
PUBLIC	?Set_FME7_Frequency@TrackSet@@QAEXPAVMMLfile@@@Z ; TrackSet::Set_FME7_Frequency
$T105662 DD	0ffffffffH
	DD	FLAT:$L105654
$T105659 DD	019930520H
	DD	01H
	DD	FLAT:$T105662
	DD	2 DUP(00H)
	DD	2 DUP(00H)
; Function compile flags: /Ogsy
_TEXT	SEGMENT
$T105651 = -16						; size = 4
__$EHRec$ = -12						; size = 12
_this$ = 8						; size = 4
_c1$25115 = 12						; size = 1
_MML$ = 12						; size = 4
?Set_FME7_Frequency@TrackSet@@QAEXPAVMMLfile@@@Z PROC NEAR ; TrackSet::Set_FME7_Frequency

; 1506 : {

  004b8	b8 00 00 00 00	 mov	 eax, __ehhandler$?Set_FME7_Frequency@TrackSet@@QAEXPAVMMLfile@@@Z
  004bd	e8 00 00 00 00	 call	 __EH_prolog
  004c2	51		 push	 ecx

; 1507 : 	int	i = MML->GetInt();

  004c3	8b 45 0c	 mov	 eax, DWORD PTR _MML$[ebp]
  004c6	56		 push	 esi
  004c7	e8 00 00 00 00	 call	 ?GetInt@MMLfile@@QAEHXZ	; MMLfile::GetInt
  004cc	8b f0		 mov	 esi, eax

; 1508 : 
; 1509 : 	if( (i <= 0xFFFF) && (i >=0) ){

  004ce	81 fe ff ff 00
	00		 cmp	 esi, 65535		; 0000ffffH
  004d4	7f 51		 jg	 SHORT $L25112
  004d6	85 f6		 test	 esi, esi
  004d8	7c 4d		 jl	 SHORT $L25112

; 1510 : 		unsigned	char	c0 = (unsigned char)( i       & 0xFF);
; 1511 : 		unsigned	char	c1 = (unsigned char)((i >> 8) & 0xFF);

  004da	c1 f8 08	 sar	 eax, 8

; 1512 : 		SetEvent(new mml_general(nsc_FME7_frequency,c0,c1,_T("FME7 envelop frequency")));

  004dd	6a 3c		 push	 60			; 0000003cH
  004df	88 45 0c	 mov	 BYTE PTR _c1$25115[ebp], al
  004e2	e8 00 00 00 00	 call	 ??2@YAPAXI@Z		; operator new
  004e7	59		 pop	 ecx
  004e8	89 45 f0	 mov	 DWORD PTR $T105651[ebp], eax
  004eb	83 65 fc 00	 and	 DWORD PTR __$EHRec$[ebp+8], 0
  004ef	85 c0		 test	 eax, eax
  004f1	74 13		 je	 SHORT $L105652
  004f3	68 00 00 00 00	 push	 OFFSET FLAT:??_C@_1CO@GINJDICH@?$AAF?$AAM?$AAE?$AA7?$AA?5?$AAe?$AAn?$AAv?$AAe?$AAl?$AAo?$AAp?$AA?5?$AAf?$AAr?$AAe?$AAq?$AAu?$AAe?$AAn@
  004f8	ff 75 0c	 push	 DWORD PTR _c1$25115[ebp]
  004fb	56		 push	 esi
  004fc	6a 26		 push	 38			; 00000026H
  004fe	50		 push	 eax
  004ff	e8 00 00 00 00	 call	 ??0mml_general@@QAE@EDDQBG@Z ; mml_general::mml_general
  00504	eb 02		 jmp	 SHORT $L105653
$L105652:
  00506	33 c0		 xor	 eax, eax
$L105653:
  00508	83 4d fc ff	 or	 DWORD PTR __$EHRec$[ebp+8], -1
  0050c	50		 push	 eax
  0050d	8b 45 08	 mov	 eax, DWORD PTR _this$[ebp]
  00510	8b 40 50	 mov	 eax, DWORD PTR [eax+80]
  00513	e8 00 00 00 00	 call	 ?SetEvent@MusicTrack@@QAEXPAVMusicItem@@@Z ; MusicTrack::SetEvent

; 1515 : 	}
; 1516 : }

  00518	8b 4d f4	 mov	 ecx, DWORD PTR __$EHRec$[ebp]
  0051b	5e		 pop	 esi
  0051c	64 89 0d 00 00
	00 00		 mov	 DWORD PTR fs:__except_list, ecx
  00523	c9		 leave
  00524	c2 08 00	 ret	 8
$L25112:

; 1513 : 	} else {
; 1514 : 		MML->Err(_T("SUNSOFT 5bn[hEFAGx[vg0`65535wB"));

  00527	8b 45 0c	 mov	 eax, DWORD PTR _MML$[ebp]
  0052a	68 00 00 00 00	 push	 OFFSET FLAT:??_C@_1FO@MPIPMFBJ@?$AAS?$AAU?$AAN?$AAS?$AAO?$AAF?$AAT?$AA?5?$AA5?$AAb0n0?O0?$PM0?I0?$KG0?$KH0?$KC0?$KI0?s0?Y@
  0052f	e8 00 00 00 00	 call	 ?Err@MMLfile@@QAEXQBG@Z	; MMLfile::Err
$L105663:
$L105661:
  00534	cc		 int	 3
$L105654:
  008a1	ff 75 f0	 push	 DWORD PTR $T105651[ebp]
  008a4	e8 00 00 00 00	 call	 ??3@YAXPAX@Z		; operator delete
  008a9	59		 pop	 ecx
  008aa	c3		 ret	 0
__ehhandler$?Set_FME7_Frequency@TrackSet@@QAEXPAVMMLfile@@@Z:
  008ab	b8 00 00 00 00	 mov	 eax, OFFSET FLAT:$T105659
  008b0	e9 00 00 00 00	 jmp	 ___CxxFrameHandler
?Set_FME7_Frequency@TrackSet@@QAEXPAVMMLfile@@@Z ENDP	; TrackSet::Set_FME7_Frequency
PUBLIC	?Set_N163_Channel@TrackSet@@QAEXPAVMMLfile@@@Z	; TrackSet::Set_N163_Channel
$T105677 DD	0ffffffffH
	DD	FLAT:$L105669
$T105674 DD	019930520H
	DD	01H
	DD	FLAT:$T105677
	DD	2 DUP(00H)
	DD	2 DUP(00H)
; Function compile flags: /Ogsy
_TEXT	SEGMENT
__$EHRec$ = -12						; size = 12
_this$ = 8						; size = 4
$T105666 = 12						; size = 4
_MML$ = 12						; size = 4
?Set_N163_Channel@TrackSet@@QAEXPAVMMLfile@@@Z PROC NEAR ; TrackSet::Set_N163_Channel

; 1486 : {

  00535	b8 00 00 00 00	 mov	 eax, __ehhandler$?Set_N163_Channel@TrackSet@@QAEXPAVMMLfile@@@Z
  0053a	e8 00 00 00 00	 call	 __EH_prolog

; 1487 : 	int	i = MML->GetInt();

  0053f	8b 45 0c	 mov	 eax, DWORD PTR _MML$[ebp]
  00542	53		 push	 ebx
  00543	e8 00 00 00 00	 call	 ?GetInt@MMLfile@@QAEHXZ	; MMLfile::GetInt
  00548	8b d8		 mov	 ebx, eax

; 1488 : 
; 1489 : 	if( (i <= 8) && (i >=1) ){

  0054a	83 fb 08	 cmp	 ebx, 8
  0054d	7f 4b		 jg	 SHORT $L25098
  0054f	83 fb 01	 cmp	 ebx, 1
  00552	7c 46		 jl	 SHORT $L25098

; 1490 : 		SetEvent(new mml_general(nsc_N163_Channel,(unsigned char)(i-1),_T("n163 channel")));

  00554	6a 3c		 push	 60			; 0000003cH
  00556	e8 00 00 00 00	 call	 ??2@YAPAXI@Z		; operator new
  0055b	59		 pop	 ecx
  0055c	89 45 0c	 mov	 DWORD PTR $T105666[ebp], eax
  0055f	83 65 fc 00	 and	 DWORD PTR __$EHRec$[ebp+8], 0
  00563	85 c0		 test	 eax, eax
  00565	74 12		 je	 SHORT $L105667
  00567	fe cb		 dec	 bl
  00569	68 00 00 00 00	 push	 OFFSET FLAT:??_C@_1BK@BFEDNGPB@?$AAn?$AA1?$AA6?$AA3?$AA?5?$AAc?$AAh?$AAa?$AAn?$AAn?$AAe?$AAl?$AA?$AA@
  0056e	53		 push	 ebx
  0056f	6a 1f		 push	 31			; 0000001fH
  00571	50		 push	 eax
  00572	e8 00 00 00 00	 call	 ??0mml_general@@QAE@EDQBG@Z ; mml_general::mml_general
  00577	eb 02		 jmp	 SHORT $L105668
$L105667:
  00579	33 c0		 xor	 eax, eax
$L105668:
  0057b	83 4d fc ff	 or	 DWORD PTR __$EHRec$[ebp+8], -1
  0057f	50		 push	 eax
  00580	8b 45 08	 mov	 eax, DWORD PTR _this$[ebp]
  00583	8b 40 50	 mov	 eax, DWORD PTR [eax+80]
  00586	e8 00 00 00 00	 call	 ?SetEvent@MusicTrack@@QAEXPAVMusicItem@@@Z ; MusicTrack::SetEvent

; 1493 : 	}
; 1494 : 
; 1495 : }

  0058b	8b 4d f4	 mov	 ecx, DWORD PTR __$EHRec$[ebp]
  0058e	5b		 pop	 ebx
  0058f	64 89 0d 00 00
	00 00		 mov	 DWORD PTR fs:__except_list, ecx
  00596	c9		 leave
  00597	c2 08 00	 ret	 8
$L25098:

; 1491 : 	} else {
; 1492 : 		MML->Err(_T("n163`l1`8wB"));

  0059a	8b 45 0c	 mov	 eax, DWORD PTR _MML$[ebp]
  0059d	68 00 00 00 00	 push	 OFFSET FLAT:??_C@_1DK@MLMMPBFK@?$AAn?$AA1?$AA6?$AA30n0?A0?c0?s0?M0?kep0o?$AA1?$PP?$FO?$AA80n?$HL?DV?r0gc?$AH@
  005a2	e8 00 00 00 00	 call	 ?Err@MMLfile@@QAEXQBG@Z	; MMLfile::Err
$L105678:
$L105676:
  005a7	cc		 int	 3
$L105669:
  008b5	ff 75 0c	 push	 DWORD PTR $T105666[ebp]
  008b8	e8 00 00 00 00	 call	 ??3@YAXPAX@Z		; operator delete
  008bd	59		 pop	 ecx
  008be	c3		 ret	 0
__ehhandler$?Set_N163_Channel@TrackSet@@QAEXPAVMMLfile@@@Z:
  008bf	b8 00 00 00 00	 mov	 eax, OFFSET FLAT:$T105674
  008c4	e9 00 00 00 00	 jmp	 ___CxxFrameHandler
?Set_N163_Channel@TrackSet@@QAEXPAVMMLfile@@@Z ENDP	; TrackSet::Set_N163_Channel
PUBLIC	?Set_VRC7_Write@TrackSet@@QAEXPAVMMLfile@@@Z	; TrackSet::Set_VRC7_Write
$T105694 DD	0ffffffffH
	DD	FLAT:$L105684
$T105689 DD	019930520H
	DD	01H
	DD	FLAT:$T105694
	DD	2 DUP(00H)
	DD	2 DUP(00H)
; Function compile flags: /Ogsy
_TEXT	SEGMENT
$T105681 = -16						; size = 4
__$EHRec$ = -12						; size = 12
_this$ = 8						; size = 4
?Set_VRC7_Write@TrackSet@@QAEXPAVMMLfile@@@Z PROC NEAR	; TrackSet::Set_VRC7_Write
; _MML$ = ecx

; 1453 : {

  005a8	b8 00 00 00 00	 mov	 eax, __ehhandler$?Set_VRC7_Write@TrackSet@@QAEXPAVMMLfile@@@Z
  005ad	e8 00 00 00 00	 call	 __EH_prolog
  005b2	51		 push	 ecx
  005b3	53		 push	 ebx
  005b4	56		 push	 esi
  005b5	57		 push	 edi
  005b6	8b f9		 mov	 edi, ecx

; 1454 : 	unsigned	char	cData;
; 1455 : 
; 1456 : 				int		_Reg;
; 1457 : 				int		_Dat;
; 1458 : 
; 1459 : 	_Reg = MML->GetInt();

  005b8	8b c7		 mov	 eax, edi
  005ba	e8 00 00 00 00	 call	 ?GetInt@MMLfile@@QAEHXZ	; MMLfile::GetInt
  005bf	8b d8		 mov	 ebx, eax

; 1460 : 	if( (_Reg < 0) || (_Reg > 0x40) ){

  005c1	85 db		 test	 ebx, ebx
  005c3	7c 78		 jl	 SHORT $L25079
  005c5	83 fb 40	 cmp	 ebx, 64			; 00000040H
  005c8	7f 73		 jg	 SHORT $L25079

; 1462 : 	}
; 1463 : 
; 1464 : 	cData = MML->GetChar();

  005ca	e8 00 00 00 00	 call	 ?GetChar@MMLfile@@QAEDXZ ; MMLfile::GetChar

; 1465 : 	if(cData != ','){

  005cf	3c 2c		 cmp	 al, 44			; 0000002cH

; 1466 : 		MML->Err(_T("yV R}hp[^BQwB"));

  005d1	8b c7		 mov	 eax, edi
  005d3	74 07		 je	 SHORT $L25081
  005d5	68 00 00 00 00	 push	 OFFSET FLAT:??_C@_1EA@HBBIMBFO@?$AAy?$AAV?$AA?50?$LD0?$NO0?s0?I0n0?Q0?i0?a0?$PM0?$LP0L?$IN?$LD0?$IK0?$HO0?$FL0?$JD0?$AC@
  005da	eb 68		 jmp	 SHORT $L105693
$L25081:

; 1467 : 	}
; 1468 : 
; 1469 : 	_Dat = MML->GetInt();

  005dc	e8 00 00 00 00	 call	 ?GetInt@MMLfile@@QAEHXZ	; MMLfile::GetInt
  005e1	8b f0		 mov	 esi, eax

; 1470 : 	if( (_Dat < 0) || (_Dat > 255) ){

  005e3	85 f6		 test	 esi, esi
  005e5	7c 4f		 jl	 SHORT $L25084
  005e7	81 fe ff 00 00
	00		 cmp	 esi, 255		; 000000ffH
  005ed	7f 47		 jg	 SHORT $L25084

; 1472 : 	}
; 1473 : 
; 1474 : 	SetEvent(new mml_general(nsc_VRC7_reg,(unsigned char)_Reg,(unsigned char)_Dat, _T("VRC7 Register Write")));

  005ef	6a 3c		 push	 60			; 0000003cH
  005f1	e8 00 00 00 00	 call	 ??2@YAPAXI@Z		; operator new
  005f6	59		 pop	 ecx
  005f7	89 45 f0	 mov	 DWORD PTR $T105681[ebp], eax
  005fa	83 65 fc 00	 and	 DWORD PTR __$EHRec$[ebp+8], 0
  005fe	85 c0		 test	 eax, eax
  00600	74 11		 je	 SHORT $L105682
  00602	68 00 00 00 00	 push	 OFFSET FLAT:??_C@_1CI@JIGLHAON@?$AAV?$AAR?$AAC?$AA7?$AA?5?$AAR?$AAe?$AAg?$AAi?$AAs?$AAt?$AAe?$AAr?$AA?5?$AAW?$AAr?$AAi?$AAt?$AAe?$AA?$AA@
  00607	56		 push	 esi
  00608	53		 push	 ebx
  00609	6a 1d		 push	 29			; 0000001dH
  0060b	50		 push	 eax
  0060c	e8 00 00 00 00	 call	 ??0mml_general@@QAE@EDDQBG@Z ; mml_general::mml_general
  00611	eb 02		 jmp	 SHORT $L105683
$L105682:
  00613	33 c0		 xor	 eax, eax
$L105683:
  00615	83 4d fc ff	 or	 DWORD PTR __$EHRec$[ebp+8], -1
  00619	50		 push	 eax
  0061a	8b 45 08	 mov	 eax, DWORD PTR _this$[ebp]
  0061d	8b 40 50	 mov	 eax, DWORD PTR [eax+80]
  00620	e8 00 00 00 00	 call	 ?SetEvent@MusicTrack@@QAEXPAVMusicItem@@@Z ; MusicTrack::SetEvent

; 1475 : }

  00625	8b 4d f4	 mov	 ecx, DWORD PTR __$EHRec$[ebp]
  00628	5f		 pop	 edi
  00629	5e		 pop	 esi
  0062a	5b		 pop	 ebx
  0062b	64 89 0d 00 00
	00 00		 mov	 DWORD PTR fs:__except_list, ecx
  00632	c9		 leave
  00633	c2 04 00	 ret	 4
$L25084:

; 1471 : 		MML->Err(_T("VRC7WX^2p[^0`255wB"));

  00636	68 00 00 00 00	 push	 OFFSET FLAT:??_C@_1EM@NIHECGCK@?$AAV?$AAR?$AAC?$AA70?l0?$LI0?$LJ0?$LPd?MO?20n?$HL?0?$AA20?Q0?i0?a0?$PM0?$LP0o?$AA0@
  0063b	eb 05		 jmp	 SHORT $L105692
$L25079:

; 1461 : 		MML->Err(_T("VRC7WX^1p[^0`63wB"));

  0063d	68 00 00 00 00	 push	 OFFSET FLAT:??_C@_1EK@HBBIFNHP@?$AAV?$AAR?$AAC?$AA70?l0?$LI0?$LJ0?$LPd?MO?20n?$HL?0?$AA10?Q0?i0?a0?$PM0?$LP0o?$AA0@
$L105692:
  00642	8b c7		 mov	 eax, edi
$L105693:
  00644	e8 00 00 00 00	 call	 ?Err@MMLfile@@QAEXQBG@Z	; MMLfile::Err
$L105695:
$L105691:
  00649	cc		 int	 3
$L105684:
  008c9	ff 75 f0	 push	 DWORD PTR $T105681[ebp]
  008cc	e8 00 00 00 00	 call	 ??3@YAXPAX@Z		; operator delete
  008d1	59		 pop	 ecx
  008d2	c3		 ret	 0
__ehhandler$?Set_VRC7_Write@TrackSet@@QAEXPAVMMLfile@@@Z:
  008d3	b8 00 00 00 00	 mov	 eax, OFFSET FLAT:$T105689
  008d8	e9 00 00 00 00	 jmp	 ___CxxFrameHandler
?Set_VRC7_Write@TrackSet@@QAEXPAVMMLfile@@@Z ENDP	; TrackSet::Set_VRC7_Write
PUBLIC	?Set_FDS_Volume@TrackSet@@QAEXPAVMMLfile@@@Z	; TrackSet::Set_FDS_Volume
$T105709 DD	0ffffffffH
	DD	FLAT:$L105701
$T105706 DD	019930520H
	DD	01H
	DD	FLAT:$T105709
	DD	2 DUP(00H)
	DD	2 DUP(00H)
; Function compile flags: /Ogsy
_TEXT	SEGMENT
__$EHRec$ = -12						; size = 12
_this$ = 8						; size = 4
$T105698 = 12						; size = 4
_MML$ = 12						; size = 4
?Set_FDS_Volume@TrackSet@@QAEXPAVMMLfile@@@Z PROC NEAR	; TrackSet::Set_FDS_Volume

; 1434 : {

  0064a	b8 00 00 00 00	 mov	 eax, __ehhandler$?Set_FDS_Volume@TrackSet@@QAEXPAVMMLfile@@@Z
  0064f	e8 00 00 00 00	 call	 __EH_prolog

; 1435 : 	int		i = MML->GetInt();

  00654	8b 45 0c	 mov	 eax, DWORD PTR _MML$[ebp]
  00657	56		 push	 esi
  00658	e8 00 00 00 00	 call	 ?GetInt@MMLfile@@QAEHXZ	; MMLfile::GetInt
  0065d	8b f0		 mov	 esi, eax

; 1436 : 
; 1437 : 	if((i<=3 ) && (i>=0)){

  0065f	83 fe 03	 cmp	 esi, 3
  00662	7f 48		 jg	 SHORT $L25062
  00664	85 f6		 test	 esi, esi
  00666	7c 44		 jl	 SHORT $L25062

; 1438 : 		SetEvent(new mml_general(nsd_FDS_Volume,(unsigned char)i,_T("FDS Master volume")));

  00668	6a 3c		 push	 60			; 0000003cH
  0066a	e8 00 00 00 00	 call	 ??2@YAPAXI@Z		; operator new
  0066f	59		 pop	 ecx
  00670	89 45 0c	 mov	 DWORD PTR $T105698[ebp], eax
  00673	83 65 fc 00	 and	 DWORD PTR __$EHRec$[ebp+8], 0
  00677	85 c0		 test	 eax, eax
  00679	74 10		 je	 SHORT $L105699
  0067b	68 00 00 00 00	 push	 OFFSET FLAT:??_C@_1CE@KIIDBKFM@?$AAF?$AAD?$AAS?$AA?5?$AAM?$AAa?$AAs?$AAt?$AAe?$AAr?$AA?5?$AAv?$AAo?$AAl?$AAu?$AAm?$AAe?$AA?$AA@
  00680	56		 push	 esi
  00681	6a 25		 push	 37			; 00000025H
  00683	50		 push	 eax
  00684	e8 00 00 00 00	 call	 ??0mml_general@@QAE@EDQBG@Z ; mml_general::mml_general
  00689	eb 02		 jmp	 SHORT $L105700
$L105699:
  0068b	33 c0		 xor	 eax, eax
$L105700:
  0068d	83 4d fc ff	 or	 DWORD PTR __$EHRec$[ebp+8], -1
  00691	50		 push	 eax
  00692	8b 45 08	 mov	 eax, DWORD PTR _this$[ebp]
  00695	8b 40 50	 mov	 eax, DWORD PTR [eax+80]
  00698	e8 00 00 00 00	 call	 ?SetEvent@MusicTrack@@QAEXPAVMusicItem@@@Z ; MusicTrack::SetEvent

; 1441 : 	}
; 1442 : }

  0069d	8b 4d f4	 mov	 ecx, DWORD PTR __$EHRec$[ebp]
  006a0	5e		 pop	 esi
  006a1	64 89 0d 00 00
	00 00		 mov	 DWORD PTR fs:__except_list, ecx
  006a8	c9		 leave
  006a9	c2 08 00	 ret	 8
$L25062:

; 1439 : 	} else {
; 1440 : 		MML->Err(_T("FDS}X^[0`3wB"));

  006ac	8b 45 0c	 mov	 eax, DWORD PTR _MML$[ebp]
  006af	68 00 00 00 00	 push	 OFFSET FLAT:??_C@_1DG@FINIAKBK@?$AAF?$AAD?$AAS0n0?$NO0?$LJ0?$LP0?$PM?$JH?s?$JB?O0o?$AA0?$PP?$FO?$AA30n?$HL?DV?r0gc?$AH?$FL?$JK@
  006b4	e8 00 00 00 00	 call	 ?Err@MMLfile@@QAEXQBG@Z	; MMLfile::Err
$L105710:
$L105708:
  006b9	cc		 int	 3
$L105701:
  008dd	ff 75 0c	 push	 DWORD PTR $T105698[ebp]
  008e0	e8 00 00 00 00	 call	 ??3@YAXPAX@Z		; operator delete
  008e5	59		 pop	 ecx
  008e6	c3		 ret	 0
__ehhandler$?Set_FDS_Volume@TrackSet@@QAEXPAVMMLfile@@@Z:
  008e7	b8 00 00 00 00	 mov	 eax, OFFSET FLAT:$T105706
  008ec	e9 00 00 00 00	 jmp	 ___CxxFrameHandler
?Set_FDS_Volume@TrackSet@@QAEXPAVMMLfile@@@Z ENDP	; TrackSet::Set_FDS_Volume
PUBLIC	?Set_FDS_Frequency@TrackSet@@QAEXPAVMMLfile@@@Z	; TrackSet::Set_FDS_Frequency
$T105724 DD	0ffffffffH
	DD	FLAT:$L105716
$T105721 DD	019930520H
	DD	01H
	DD	FLAT:$T105724
	DD	2 DUP(00H)
	DD	2 DUP(00H)
; Function compile flags: /Ogsy
_TEXT	SEGMENT
$T105713 = -16						; size = 4
__$EHRec$ = -12						; size = 12
_this$ = 8						; size = 4
_c1$25048 = 12						; size = 1
_MML$ = 12						; size = 4
?Set_FDS_Frequency@TrackSet@@QAEXPAVMMLfile@@@Z PROC NEAR ; TrackSet::Set_FDS_Frequency

; 1413 : {

  006ba	b8 00 00 00 00	 mov	 eax, __ehhandler$?Set_FDS_Frequency@TrackSet@@QAEXPAVMMLfile@@@Z
  006bf	e8 00 00 00 00	 call	 __EH_prolog
  006c4	51		 push	 ecx

; 1414 : 	int	i = MML->GetInt();

  006c5	8b 45 0c	 mov	 eax, DWORD PTR _MML$[ebp]
  006c8	56		 push	 esi
  006c9	e8 00 00 00 00	 call	 ?GetInt@MMLfile@@QAEHXZ	; MMLfile::GetInt
  006ce	8b f0		 mov	 esi, eax

; 1415 : 
; 1416 : 	if( (i <= 0x0FFF) && (i >=0) ){

  006d0	81 fe ff 0f 00
	00		 cmp	 esi, 4095		; 00000fffH
  006d6	7f 51		 jg	 SHORT $L25045
  006d8	85 f6		 test	 esi, esi
  006da	7c 4d		 jl	 SHORT $L25045

; 1417 : 		unsigned	char	c0 = (unsigned char)( i       & 0xFF);
; 1418 : 		unsigned	char	c1 = (unsigned char)((i >> 8) & 0xFF);

  006dc	c1 f8 08	 sar	 eax, 8

; 1419 : 		SetEvent(new mml_general(nsd_FDS_Frequency,c0,c1,_T("FDS career frequency")));

  006df	6a 3c		 push	 60			; 0000003cH
  006e1	88 45 0c	 mov	 BYTE PTR _c1$25048[ebp], al
  006e4	e8 00 00 00 00	 call	 ??2@YAPAXI@Z		; operator new
  006e9	59		 pop	 ecx
  006ea	89 45 f0	 mov	 DWORD PTR $T105713[ebp], eax
  006ed	83 65 fc 00	 and	 DWORD PTR __$EHRec$[ebp+8], 0
  006f1	85 c0		 test	 eax, eax
  006f3	74 13		 je	 SHORT $L105714
  006f5	68 00 00 00 00	 push	 OFFSET FLAT:??_C@_1CK@JOCIMFBO@?$AAF?$AAD?$AAS?$AA?5?$AAc?$AAa?$AAr?$AAe?$AAe?$AAr?$AA?5?$AAf?$AAr?$AAe?$AAq?$AAu?$AAe?$AAn?$AAc?$AAy@
  006fa	ff 75 0c	 push	 DWORD PTR _c1$25048[ebp]
  006fd	56		 push	 esi
  006fe	6a 24		 push	 36			; 00000024H
  00700	50		 push	 eax
  00701	e8 00 00 00 00	 call	 ??0mml_general@@QAE@EDDQBG@Z ; mml_general::mml_general
  00706	eb 02		 jmp	 SHORT $L105715
$L105714:
  00708	33 c0		 xor	 eax, eax
$L105715:
  0070a	83 4d fc ff	 or	 DWORD PTR __$EHRec$[ebp+8], -1
  0070e	50		 push	 eax
  0070f	8b 45 08	 mov	 eax, DWORD PTR _this$[ebp]
  00712	8b 40 50	 mov	 eax, DWORD PTR [eax+80]
  00715	e8 00 00 00 00	 call	 ?SetEvent@MusicTrack@@QAEXPAVMusicItem@@@Z ; MusicTrack::SetEvent

; 1422 : 	}
; 1423 : }

  0071a	8b 4d f4	 mov	 ecx, DWORD PTR __$EHRec$[ebp]
  0071d	5e		 pop	 esi
  0071e	64 89 0d 00 00
	00 00		 mov	 DWORD PTR fs:__except_list, ecx
  00725	c9		 leave
  00726	c2 08 00	 ret	 8
$L25045:

; 1420 : 	} else {
; 1421 : 		MML->Err(_T("FDSLAg0`4095wB"));

  00729	8b 45 0c	 mov	 eax, DWORD PTR _MML$[ebp]
  0072c	68 00 00 00 00	 push	 OFFSET FLAT:??_C@_1DO@NCLODOIG@?$AAF?$AAD?$AAS0n0?$KN0?c0?j0?$KCThl?bep0o?$AA0?$PP?$FO?$AA4?$AA0?$AA9?$AA50n?$HL?D@
  00731	e8 00 00 00 00	 call	 ?Err@MMLfile@@QAEXQBG@Z	; MMLfile::Err
$L105725:
$L105723:
  00736	cc		 int	 3
$L105716:
  008f1	ff 75 f0	 push	 DWORD PTR $T105713[ebp]
  008f4	e8 00 00 00 00	 call	 ??3@YAXPAX@Z		; operator delete
  008f9	59		 pop	 ecx
  008fa	c3		 ret	 0
__ehhandler$?Set_FDS_Frequency@TrackSet@@QAEXPAVMMLfile@@@Z:
  008fb	b8 00 00 00 00	 mov	 eax, OFFSET FLAT:$T105721
  00900	e9 00 00 00 00	 jmp	 ___CxxFrameHandler
?Set_FDS_Frequency@TrackSet@@QAEXPAVMMLfile@@@Z ENDP	; TrackSet::Set_FDS_Frequency
PUBLIC	?Set_Poke@TrackSet@@QAEXPAVMMLfile@@@Z		; TrackSet::Set_Poke
$T105741 DD	0ffffffffH
	DD	FLAT:$L105731
$T105736 DD	019930520H
	DD	01H
	DD	FLAT:$T105741
	DD	2 DUP(00H)
	DD	2 DUP(00H)
; Function compile flags: /Ogsy
_TEXT	SEGMENT
$T105728 = -16						; size = 4
__$EHRec$ = -12						; size = 12
_this$ = 8						; size = 4
?Set_Poke@TrackSet@@QAEXPAVMMLfile@@@Z PROC NEAR	; TrackSet::Set_Poke
; _MML$ = ecx

; 1382 : {

  00737	b8 00 00 00 00	 mov	 eax, __ehhandler$?Set_Poke@TrackSet@@QAEXPAVMMLfile@@@Z
  0073c	e8 00 00 00 00	 call	 __EH_prolog
  00741	51		 push	 ecx
  00742	53		 push	 ebx
  00743	56		 push	 esi
  00744	57		 push	 edi
  00745	8b f9		 mov	 edi, ecx

; 1383 : 	unsigned	int		addr;
; 1384 : 	unsigned	int		data;
; 1385 : 	unsigned	char	cData;
; 1386 : 
; 1387 : 	addr = MML->GetInt();

  00747	8b c7		 mov	 eax, edi
  00749	e8 00 00 00 00	 call	 ?GetInt@MMLfile@@QAEHXZ	; MMLfile::GetInt
  0074e	8b d8		 mov	 ebx, eax

; 1388 : 	if( (addr < 0x0000) || (addr > 0xFFFF) ){

  00750	81 fb ff ff 00
	00		 cmp	 ebx, 65535		; 0000ffffH
  00756	77 6e		 ja	 SHORT $L25028

; 1390 : 	}
; 1391 : 
; 1392 : 	cData = MML->GetChar();

  00758	e8 00 00 00 00	 call	 ?GetChar@MMLfile@@QAEDXZ ; MMLfile::GetChar

; 1393 : 	if(cData != ','){

  0075d	3c 2c		 cmp	 al, 44			; 0000002cH

; 1394 : 		MML->Err(_T("yR}hp[^BQwB"));

  0075f	8b c7		 mov	 eax, edi
  00761	74 07		 je	 SHORT $L25030
  00763	68 00 00 00 00	 push	 OFFSET FLAT:??_C@_1DM@CBEKDAPN@?$AAy0?$LD0?$NO0?s0?I0n0?Q0?i0?a0?$PM0?$LP0L?$IN?$LD0?$IK0?$HO0?$FL0?$JD0?$AC?$PP?$BC0d@
  00768	eb 63		 jmp	 SHORT $L105740
$L25030:

; 1395 : 	}
; 1396 : 
; 1397 : 	data = MML->GetInt();

  0076a	e8 00 00 00 00	 call	 ?GetInt@MMLfile@@QAEHXZ	; MMLfile::GetInt
  0076f	8b f0		 mov	 esi, eax

; 1398 : 	if(data > 255){

  00771	81 fe ff 00 00
	00		 cmp	 esi, 255		; 000000ffH
  00777	76 07		 jbe	 SHORT $L25032

; 1399 : 		MML->Err(_T("yR}hf[^$00`$FFwB"));

  00779	68 00 00 00 00	 push	 OFFSET FLAT:??_C@_1DM@CNINMOFB@?$AAy0?$LD0?$NO0?s0?I0n0?G0?$PM0?$LP0o?$AA$?$AA0?$AA0?$PP?$FO?$AA$?$AAF?$AAF0n?$HL?DV?r@
  0077e	eb 4b		 jmp	 SHORT $L105739
$L25032:

; 1400 : 	}
; 1401 : 	SetEvent(new mml_poke(addr, (unsigned char)data));

  00780	6a 3c		 push	 60			; 0000003cH
  00782	e8 00 00 00 00	 call	 ??2@YAPAXI@Z		; operator new
  00787	59		 pop	 ecx
  00788	89 45 f0	 mov	 DWORD PTR $T105728[ebp], eax
  0078b	83 65 fc 00	 and	 DWORD PTR __$EHRec$[ebp+8], 0
  0078f	85 c0		 test	 eax, eax
  00791	74 10		 je	 SHORT $L105729
  00793	68 00 00 00 00	 push	 OFFSET FLAT:??_C@_19MCGBFLHO@?$AAP?$AAo?$AAk?$AAe?$AA?$AA@
  00798	56		 push	 esi
  00799	50		 push	 eax
  0079a	8b cb		 mov	 ecx, ebx
  0079c	e8 00 00 00 00	 call	 ??0mml_poke@@QAE@IEQBG@Z ; mml_poke::mml_poke
  007a1	eb 02		 jmp	 SHORT $L105730
$L105729:
  007a3	33 c0		 xor	 eax, eax
$L105730:
  007a5	83 4d fc ff	 or	 DWORD PTR __$EHRec$[ebp+8], -1
  007a9	50		 push	 eax
  007aa	8b 45 08	 mov	 eax, DWORD PTR _this$[ebp]
  007ad	8b 40 50	 mov	 eax, DWORD PTR [eax+80]
  007b0	e8 00 00 00 00	 call	 ?SetEvent@MusicTrack@@QAEXPAVMusicItem@@@Z ; MusicTrack::SetEvent

; 1402 : }

  007b5	8b 4d f4	 mov	 ecx, DWORD PTR __$EHRec$[ebp]
  007b8	5f		 pop	 edi
  007b9	5e		 pop	 esi
  007ba	5b		 pop	 ebx
  007bb	64 89 0d 00 00
	00 00		 mov	 DWORD PTR fs:__except_list, ecx
  007c2	c9		 leave
  007c3	c2 04 00	 ret	 4
$L25028:

; 1389 : 		MML->Err(_T("yR}hAhX$0000`$FFFFwB"));

  007c6	68 00 00 00 00	 push	 OFFSET FLAT:??_C@_1EG@KMDFAJLP@?$AAy0?$LD0?$NO0?s0?I0n0?$KC0?I0?l0?$LJ0o?$AA$?$AA0?$AA0?$AA0?$AA0?$PP?$FO?$AA$?$AAF?$AAF@
$L105739:
  007cb	8b c7		 mov	 eax, edi
$L105740:
  007cd	e8 00 00 00 00	 call	 ?Err@MMLfile@@QAEXQBG@Z	; MMLfile::Err
$L105742:
$L105738:
  007d2	cc		 int	 3
$L105731:
  00905	ff 75 f0	 push	 DWORD PTR $T105728[ebp]
  00908	e8 00 00 00 00	 call	 ??3@YAXPAX@Z		; operator delete
  0090d	59		 pop	 ecx
  0090e	c3		 ret	 0
__ehhandler$?Set_Poke@TrackSet@@QAEXPAVMMLfile@@@Z:
  0090f	b8 00 00 00 00	 mov	 eax, OFFSET FLAT:$T105736
  00914	e9 00 00 00 00	 jmp	 ___CxxFrameHandler
?Set_Poke@TrackSet@@QAEXPAVMMLfile@@@Z ENDP		; TrackSet::Set_Poke
PUBLIC	?TempoDown@TrackSet@@QAEXXZ			; TrackSet::TempoDown
$T105755 DD	0ffffffffH
	DD	FLAT:$L105748
$T105753 DD	019930520H
	DD	01H
	DD	FLAT:$T105755
	DD	2 DUP(00H)
	DD	2 DUP(00H)
; Function compile flags: /Ogsy
_TEXT	SEGMENT
$T105745 = -16						; size = 4
__$EHRec$ = -12						; size = 12
?TempoDown@TrackSet@@QAEXXZ PROC NEAR			; TrackSet::TempoDown
; _this$ = esi

; 1366 : {

  007d3	b8 00 00 00 00	 mov	 eax, __ehhandler$?TempoDown@TrackSet@@QAEXXZ
  007d8	e8 00 00 00 00	 call	 __EH_prolog
  007dd	51		 push	 ecx

; 1367 : 	iTempo -= 4;

  007de	83 46 40 fc	 add	 DWORD PTR [esi+64], -4	; fffffffcH

; 1368 : 
; 1369 : 	SetEvent(new mml_general(nsd_Relative_Tempo, (char)-4, _T("Relative Tempo")));

  007e2	6a 3c		 push	 60			; 0000003cH
  007e4	e8 00 00 00 00	 call	 ??2@YAPAXI@Z		; operator new
  007e9	59		 pop	 ecx
  007ea	89 45 f0	 mov	 DWORD PTR $T105745[ebp], eax
  007ed	83 65 fc 00	 and	 DWORD PTR __$EHRec$[ebp+8], 0
  007f1	85 c0		 test	 eax, eax
  007f3	74 11		 je	 SHORT $L105746
  007f5	68 00 00 00 00	 push	 OFFSET FLAT:??_C@_1BO@NMEFKJBB@?$AAR?$AAe?$AAl?$AAa?$AAt?$AAi?$AAv?$AAe?$AA?5?$AAT?$AAe?$AAm?$AAp?$AAo?$AA?$AA@
  007fa	6a fc		 push	 -4			; fffffffcH
  007fc	6a 0c		 push	 12			; 0000000cH
  007fe	50		 push	 eax
  007ff	e8 00 00 00 00	 call	 ??0mml_general@@QAE@EDQBG@Z ; mml_general::mml_general
  00804	eb 02		 jmp	 SHORT $L105747
$L105746:
  00806	33 c0		 xor	 eax, eax
$L105747:
  00808	83 4d fc ff	 or	 DWORD PTR __$EHRec$[ebp+8], -1
  0080c	50		 push	 eax
  0080d	8b 46 50	 mov	 eax, DWORD PTR [esi+80]
  00810	e8 00 00 00 00	 call	 ?SetEvent@MusicTrack@@QAEXPAVMusicItem@@@Z ; MusicTrack::SetEvent

; 1370 : 
; 1371 : }

  00815	8b 4d f4	 mov	 ecx, DWORD PTR __$EHRec$[ebp]
  00818	64 89 0d 00 00
	00 00		 mov	 DWORD PTR fs:__except_list, ecx
  0081f	c9		 leave
  00820	c3		 ret	 0
$L105748:
  00919	ff 75 f0	 push	 DWORD PTR $T105745[ebp]
  0091c	e8 00 00 00 00	 call	 ??3@YAXPAX@Z		; operator delete
  00921	59		 pop	 ecx
  00922	c3		 ret	 0
__ehhandler$?TempoDown@TrackSet@@QAEXXZ:
  00923	b8 00 00 00 00	 mov	 eax, OFFSET FLAT:$T105753
  00928	e9 00 00 00 00	 jmp	 ___CxxFrameHandler
?TempoDown@TrackSet@@QAEXXZ ENDP			; TrackSet::TempoDown
PUBLIC	?TempoUp@TrackSet@@QAEXXZ			; TrackSet::TempoUp
$T105768 DD	0ffffffffH
	DD	FLAT:$L105761
$T105766 DD	019930520H
	DD	01H
	DD	FLAT:$T105768
	DD	2 DUP(00H)
	DD	2 DUP(00H)
; Function compile flags: /Ogsy
_TEXT	SEGMENT
$T105758 = -16						; size = 4
__$EHRec$ = -12						; size = 12
?TempoUp@TrackSet@@QAEXXZ PROC NEAR			; TrackSet::TempoUp
; _this$ = esi

; 1350 : {

  00821	b8 00 00 00 00	 mov	 eax, __ehhandler$?TempoUp@TrackSet@@QAEXXZ
  00826	e8 00 00 00 00	 call	 __EH_prolog
  0082b	51		 push	 ecx

; 1351 : 	iTempo += 4;

  0082c	83 46 40 04	 add	 DWORD PTR [esi+64], 4

; 1352 : 
; 1353 : 	SetEvent(new mml_general(nsd_Relative_Tempo, (char)4, _T("Relative Tempo")));

  00830	6a 3c		 push	 60			; 0000003cH
  00832	e8 00 00 00 00	 call	 ??2@YAPAXI@Z		; operator new
  00837	59		 pop	 ecx
  00838	89 45 f0	 mov	 DWORD PTR $T105758[ebp], eax
  0083b	83 65 fc 00	 and	 DWORD PTR __$EHRec$[ebp+8], 0
  0083f	85 c0		 test	 eax, eax
  00841	74 11		 je	 SHORT $L105759
  00843	68 00 00 00 00	 push	 OFFSET FLAT:??_C@_1BO@NMEFKJBB@?$AAR?$AAe?$AAl?$AAa?$AAt?$AAi?$AAv?$AAe?$AA?5?$AAT?$AAe?$AAm?$AAp?$AAo?$AA?$AA@
  00848	6a 04		 push	 4
  0084a	6a 0c		 push	 12			; 0000000cH
  0084c	50		 push	 eax
  0084d	e8 00 00 00 00	 call	 ??0mml_general@@QAE@EDQBG@Z ; mml_general::mml_general
  00852	eb 02		 jmp	 SHORT $L105760
$L105759:
  00854	33 c0		 xor	 eax, eax
$L105760:
  00856	83 4d fc ff	 or	 DWORD PTR __$EHRec$[ebp+8], -1
  0085a	50		 push	 eax
  0085b	8b 46 50	 mov	 eax, DWORD PTR [esi+80]
  0085e	e8 00 00 00 00	 call	 ?SetEvent@MusicTrack@@QAEXPAVMusicItem@@@Z ; MusicTrack::SetEvent

; 1354 : 
; 1355 : }

  00863	8b 4d f4	 mov	 ecx, DWORD PTR __$EHRec$[ebp]
  00866	64 89 0d 00 00
	00 00		 mov	 DWORD PTR fs:__except_list, ecx
  0086d	c9		 leave
  0086e	c3		 ret	 0
$L105761:
  0092d	ff 75 f0	 push	 DWORD PTR $T105758[ebp]
  00930	e8 00 00 00 00	 call	 ??3@YAXPAX@Z		; operator delete
  00935	59		 pop	 ecx
  00936	c3		 ret	 0
__ehhandler$?TempoUp@TrackSet@@QAEXXZ:
  00937	b8 00 00 00 00	 mov	 eax, OFFSET FLAT:$T105766
  0093c	e9 00 00 00 00	 jmp	 ___CxxFrameHandler
?TempoUp@TrackSet@@QAEXXZ ENDP				; TrackSet::TempoUp
PUBLIC	?SetRelativeTempo@TrackSet@@QAEXPAVMMLfile@@@Z	; TrackSet::SetRelativeTempo
$T105781 DD	0ffffffffH
	DD	FLAT:$L105774
$T105779 DD	019930520H
	DD	01H
	DD	FLAT:$T105781
	DD	2 DUP(00H)
	DD	2 DUP(00H)
; Function compile flags: /Ogsy
_TEXT	SEGMENT
__$EHRec$ = -12						; size = 12
$T105771 = 8						; size = 4
_MML$ = 8						; size = 4
?SetRelativeTempo@TrackSet@@QAEXPAVMMLfile@@@Z PROC NEAR ; TrackSet::SetRelativeTempo
; _this$ = esi

; 1332 : {

  0086f	b8 00 00 00 00	 mov	 eax, __ehhandler$?SetRelativeTempo@TrackSet@@QAEXPAVMMLfile@@@Z
  00874	e8 00 00 00 00	 call	 __EH_prolog

; 1333 : 	int	iValue	= MML->GetInt();

  00879	8b 45 08	 mov	 eax, DWORD PTR _MML$[ebp]
  0087c	57		 push	 edi
  0087d	e8 00 00 00 00	 call	 ?GetInt@MMLfile@@QAEHXZ	; MMLfile::GetInt
  00882	8b f8		 mov	 edi, eax

; 1334 : 
; 1335 : 	iTempo += iValue;

  00884	01 7e 40	 add	 DWORD PTR [esi+64], edi

; 1336 : 
; 1337 : 	SetEvent(new mml_general(nsd_Relative_Tempo, (char)iValue, _T("Relative Tempo")));

  00887	6a 3c		 push	 60			; 0000003cH
  00889	e8 00 00 00 00	 call	 ??2@YAPAXI@Z		; operator new
  0088e	59		 pop	 ecx
  0088f	89 45 08	 mov	 DWORD PTR $T105771[ebp], eax
  00892	83 65 fc 00	 and	 DWORD PTR __$EHRec$[ebp+8], 0
  00896	85 c0		 test	 eax, eax
  00898	74 10		 je	 SHORT $L105772
  0089a	68 00 00 00 00	 push	 OFFSET FLAT:??_C@_1BO@NMEFKJBB@?$AAR?$AAe?$AAl?$AAa?$AAt?$AAi?$AAv?$AAe?$AA?5?$AAT?$AAe?$AAm?$AAp?$AAo?$AA?$AA@
  0089f	57		 push	 edi
  008a0	6a 0c		 push	 12			; 0000000cH
  008a2	50		 push	 eax
  008a3	e8 00 00 00 00	 call	 ??0mml_general@@QAE@EDQBG@Z ; mml_general::mml_general
  008a8	eb 02		 jmp	 SHORT $L105773
$L105772:
  008aa	33 c0		 xor	 eax, eax
$L105773:
  008ac	83 4d fc ff	 or	 DWORD PTR __$EHRec$[ebp+8], -1
  008b0	50		 push	 eax
  008b1	8b 46 50	 mov	 eax, DWORD PTR [esi+80]
  008b4	e8 00 00 00 00	 call	 ?SetEvent@MusicTrack@@QAEXPAVMusicItem@@@Z ; MusicTrack::SetEvent

; 1338 : 
; 1339 : }

  008b9	8b 4d f4	 mov	 ecx, DWORD PTR __$EHRec$[ebp]
  008bc	5f		 pop	 edi
  008bd	64 89 0d 00 00
	00 00		 mov	 DWORD PTR fs:__except_list, ecx
  008c4	c9		 leave
  008c5	c2 04 00	 ret	 4
$L105774:
  00941	ff 75 08	 push	 DWORD PTR $T105771[ebp]
  00944	e8 00 00 00 00	 call	 ??3@YAXPAX@Z		; operator delete
  00949	59		 pop	 ecx
  0094a	c3		 ret	 0
__ehhandler$?SetRelativeTempo@TrackSet@@QAEXPAVMMLfile@@@Z:
  0094b	b8 00 00 00 00	 mov	 eax, OFFSET FLAT:$T105779
  00950	e9 00 00 00 00	 jmp	 ___CxxFrameHandler
?SetRelativeTempo@TrackSet@@QAEXPAVMMLfile@@@Z ENDP	; TrackSet::SetRelativeTempo
PUBLIC	?SetTempo@TrackSet@@QAEXPAVMMLfile@@@Z		; TrackSet::SetTempo
$T105795 DD	0ffffffffH
	DD	FLAT:$L105787
$T105792 DD	019930520H
	DD	01H
	DD	FLAT:$T105795
	DD	2 DUP(00H)
	DD	2 DUP(00H)
; Function compile flags: /Ogsy
_TEXT	SEGMENT
$T105784 = -16						; size = 4
__$EHRec$ = -12						; size = 12
?SetTempo@TrackSet@@QAEXPAVMMLfile@@@Z PROC NEAR	; TrackSet::SetTempo
; _this$ = esi
; _MML$ = edi

; 1312 : {

  008c8	b8 00 00 00 00	 mov	 eax, __ehhandler$?SetTempo@TrackSet@@QAEXPAVMMLfile@@@Z
  008cd	e8 00 00 00 00	 call	 __EH_prolog
  008d2	51		 push	 ecx

; 1313 : 	int	iValue	= MML->GetInt();

  008d3	8b c7		 mov	 eax, edi
  008d5	e8 00 00 00 00	 call	 ?GetInt@MMLfile@@QAEHXZ	; MMLfile::GetInt
  008da	8b c8		 mov	 ecx, eax

; 1314 : 
; 1315 : 	iTempo = ((iValue * MML->timebase) / 24);

  008dc	8b 87 90 00 00
	00		 mov	 eax, DWORD PTR [edi+144]
  008e2	0f af c1	 imul	 eax, ecx
  008e5	6a 18		 push	 24			; 00000018H
  008e7	99		 cdq
  008e8	59		 pop	 ecx
  008e9	f7 f9		 idiv	 ecx

; 1316 : 	
; 1317 : 	if((iTempo<0) || (iTempo>255)){

  008eb	85 c0		 test	 eax, eax
  008ed	89 46 40	 mov	 DWORD PTR [esi+64], eax
  008f0	7c 4a		 jl	 SHORT $L24985
  008f2	3d ff 00 00 00	 cmp	 eax, 255		; 000000ffH
  008f7	7f 43		 jg	 SHORT $L24985

; 1319 : 	}
; 1320 : 	SetEvent(new mml_general(nsd_Tempo, (unsigned char)iTempo, _T("Tempo")));

  008f9	6a 3c		 push	 60			; 0000003cH
  008fb	e8 00 00 00 00	 call	 ??2@YAPAXI@Z		; operator new
  00900	59		 pop	 ecx
  00901	89 45 f0	 mov	 DWORD PTR $T105784[ebp], eax
  00904	83 65 fc 00	 and	 DWORD PTR __$EHRec$[ebp+8], 0
  00908	85 c0		 test	 eax, eax
  0090a	74 15		 je	 SHORT $L105785
  0090c	33 c9		 xor	 ecx, ecx
  0090e	8a 4e 40	 mov	 cl, BYTE PTR [esi+64]
  00911	68 00 00 00 00	 push	 OFFSET FLAT:??_C@_1M@KPBAMICJ@?$AAT?$AAe?$AAm?$AAp?$AAo?$AA?$AA@
  00916	51		 push	 ecx
  00917	6a 08		 push	 8
  00919	50		 push	 eax
  0091a	e8 00 00 00 00	 call	 ??0mml_general@@QAE@EDQBG@Z ; mml_general::mml_general
  0091f	eb 02		 jmp	 SHORT $L105786
$L105785:
  00921	33 c0		 xor	 eax, eax
$L105786:
  00923	83 4d fc ff	 or	 DWORD PTR __$EHRec$[ebp+8], -1
  00927	50		 push	 eax
  00928	8b 46 50	 mov	 eax, DWORD PTR [esi+80]
  0092b	e8 00 00 00 00	 call	 ?SetEvent@MusicTrack@@QAEXPAVMusicItem@@@Z ; MusicTrack::SetEvent

; 1321 : }

  00930	8b 4d f4	 mov	 ecx, DWORD PTR __$EHRec$[ebp]
  00933	64 89 0d 00 00
	00 00		 mov	 DWORD PTR fs:__except_list, ecx
  0093a	c9		 leave
  0093b	c3		 ret	 0
$L24985:

; 1318 : 		MML->Err(_T("e|w\B"));

  0093c	68 00 00 00 00	 push	 OFFSET FLAT:??_C@_1CG@CEHFAHAL@0?F0?s0?$NN0Lc?$AH?$FL?$JKS?o?$IA?$PN0j?$HL?DV?r0?$JC?$IN?$IF0H0?$HO0W0_0?$AC?$AA?$AA@
  00941	8b c7		 mov	 eax, edi
  00943	e8 00 00 00 00	 call	 ?Err@MMLfile@@QAEXQBG@Z	; MMLfile::Err
$L105796:
$L105794:
  00948	cc		 int	 3
$L105787:
  00955	ff 75 f0	 push	 DWORD PTR $T105784[ebp]
  00958	e8 00 00 00 00	 call	 ??3@YAXPAX@Z		; operator delete
  0095d	59		 pop	 ecx
  0095e	c3		 ret	 0
__ehhandler$?SetTempo@TrackSet@@QAEXPAVMMLfile@@@Z:
  0095f	b8 00 00 00 00	 mov	 eax, OFFSET FLAT:$T105792
  00964	e9 00 00 00 00	 jmp	 ___CxxFrameHandler
?SetTempo@TrackSet@@QAEXPAVMMLfile@@@Z ENDP		; TrackSet::SetTempo
PUBLIC	?SetJumpDrv@TrackSet@@QAEXPAVMMLfile@@@Z	; TrackSet::SetJumpDrv
$T105819 DD	0ffffffffH
	DD	FLAT:$L105806
	DD	0ffffffffH
	DD	FLAT:$L105807
$T105815 DD	019930520H
	DD	02H
	DD	FLAT:$T105819
	DD	2 DUP(00H)
	DD	2 DUP(00H)
; Function compile flags: /Ogsy
_TEXT	SEGMENT
__$EHRec$ = -12						; size = 12
$T105803 = 8						; size = 4
$T105799 = 8						; size = 4
_MML$ = 8						; size = 4
?SetJumpDrv@TrackSet@@QAEXPAVMMLfile@@@Z PROC NEAR	; TrackSet::SetJumpDrv
; _this$ = edi

; 1288 : {

  00949	b8 00 00 00 00	 mov	 eax, __ehhandler$?SetJumpDrv@TrackSet@@QAEXPAVMMLfile@@@Z
  0094e	e8 00 00 00 00	 call	 __EH_prolog

; 1289 : 	int	i	= MML->GetInt();

  00953	8b 45 08	 mov	 eax, DWORD PTR _MML$[ebp]
  00956	e8 00 00 00 00	 call	 ?GetInt@MMLfile@@QAEHXZ	; MMLfile::GetInt

; 1290 : 
; 1291 : 	switch(i){

  0095b	83 e8 00	 sub	 eax, 0
  0095e	74 37		 je	 SHORT $L24963
  00960	48		 dec	 eax
  00961	74 0d		 je	 SHORT $L24970

; 1297 : 			break;
; 1298 : 		default:
; 1299 : 			MML->Err(_T("jR}hw\B"));

  00963	8b 45 08	 mov	 eax, DWORD PTR _MML$[ebp]
  00966	68 00 00 00 00	 push	 OFFSET FLAT:??_C@_1CK@GFGAOJII@?$AAj0?$LD0?$NO0?s0?I0Lc?$AH?$FL?$JKS?o?$IA?$PN0j?$HL?DV?r0?$JC?$IN?$IF0H0?$HO0W0_0?$AC@
  0096b	e8 00 00 00 00	 call	 ?Err@MMLfile@@QAEXQBG@Z	; MMLfile::Err
$L105820:
$L24970:

; 1294 : 			break;
; 1295 : 		case(1):
; 1296 : 			SetEvent(new mml_general(nsd_SubCommand, (const char)nsd_sub_Jump_on, _T("Jump On")));

  00970	6a 3c		 push	 60			; 0000003cH
  00972	e8 00 00 00 00	 call	 ??2@YAPAXI@Z		; operator new
  00977	59		 pop	 ecx
  00978	89 45 08	 mov	 DWORD PTR $T105803[ebp], eax
  0097b	85 c0		 test	 eax, eax
  0097d	c7 45 fc 01 00
	00 00		 mov	 DWORD PTR __$EHRec$[ebp+8], 1
  00984	74 2d		 je	 SHORT $L105800
  00986	68 00 00 00 00	 push	 OFFSET FLAT:??_C@_1BA@DLHAJHPF@?$AAJ?$AAu?$AAm?$AAp?$AA?5?$AAO?$AAn?$AA?$AA@
  0098b	6a 00		 push	 0
$L105818:
  0098d	6a 2f		 push	 47			; 0000002fH
  0098f	50		 push	 eax
  00990	e8 00 00 00 00	 call	 ??0mml_general@@QAE@EDQBG@Z ; mml_general::mml_general
  00995	eb 1e		 jmp	 SHORT $L105801
$L24963:

; 1292 : 		case(0):
; 1293 : 			SetEvent(new mml_general(nsd_SubCommand, (const char)nsd_sub_Jump_off, _T("Jump Off")));

  00997	6a 3c		 push	 60			; 0000003cH
  00999	e8 00 00 00 00	 call	 ??2@YAPAXI@Z		; operator new
  0099e	59		 pop	 ecx
  0099f	89 45 08	 mov	 DWORD PTR $T105799[ebp], eax
  009a2	83 65 fc 00	 and	 DWORD PTR __$EHRec$[ebp+8], 0
  009a6	85 c0		 test	 eax, eax
  009a8	74 09		 je	 SHORT $L105800
  009aa	68 00 00 00 00	 push	 OFFSET FLAT:??_C@_1BC@PFLOACNN@?$AAJ?$AAu?$AAm?$AAp?$AA?5?$AAO?$AAf?$AAf?$AA?$AA@
  009af	6a 01		 push	 1
  009b1	eb da		 jmp	 SHORT $L105818
$L105800:
  009b3	33 c0		 xor	 eax, eax
$L105801:
  009b5	83 4d fc ff	 or	 DWORD PTR __$EHRec$[ebp+8], -1
  009b9	50		 push	 eax
  009ba	8b 47 50	 mov	 eax, DWORD PTR [edi+80]
  009bd	e8 00 00 00 00	 call	 ?SetEvent@MusicTrack@@QAEXPAVMusicItem@@@Z ; MusicTrack::SetEvent

; 1300 : 	}
; 1301 : }

  009c2	8b 4d f4	 mov	 ecx, DWORD PTR __$EHRec$[ebp]
  009c5	64 89 0d 00 00
	00 00		 mov	 DWORD PTR fs:__except_list, ecx
  009cc	c9		 leave
  009cd	c2 04 00	 ret	 4
$L105817:
$L105807:
  00969	ff 75 08	 push	 DWORD PTR $T105803[ebp]
  0096c	e8 00 00 00 00	 call	 ??3@YAXPAX@Z		; operator delete
  00971	59		 pop	 ecx
  00972	c3		 ret	 0
$L105806:
  00973	ff 75 08	 push	 DWORD PTR $T105799[ebp]
  00976	e8 00 00 00 00	 call	 ??3@YAXPAX@Z		; operator delete
  0097b	59		 pop	 ecx
  0097c	c3		 ret	 0
__ehhandler$?SetJumpDrv@TrackSet@@QAEXPAVMMLfile@@@Z:
  0097d	b8 00 00 00 00	 mov	 eax, OFFSET FLAT:$T105815
  00982	e9 00 00 00 00	 jmp	 ___CxxFrameHandler
?SetJumpDrv@TrackSet@@QAEXPAVMMLfile@@@Z ENDP		; TrackSet::SetJumpDrv
PUBLIC	?Set_Priority@TrackSet@@QAEXPAVMMLfile@@@Z	; TrackSet::Set_Priority
; Function compile flags: /Ogsy
_TEXT	SEGMENT
_MML$ = 8						; size = 4
?Set_Priority@TrackSet@@QAEXPAVMMLfile@@@Z PROC NEAR	; TrackSet::Set_Priority
; _this$ = esi

; 1264 : 	int	i = MML->GetInt();

  009d0	8b 44 24 04	 mov	 eax, DWORD PTR _MML$[esp-4]
  009d4	e8 00 00 00 00	 call	 ?GetInt@MMLfile@@QAEHXZ	; MMLfile::GetInt

; 1265 : 
; 1266 : 	//se?
; 1267 : 	if(fSE == false){

  009d9	80 7e 5d 00	 cmp	 BYTE PTR [esi+93], 0
  009dd	75 11		 jne	 SHORT $L24947

; 1268 : 		MML->Warning(_T("SEubNODxwBB"));

  009df	8b 44 24 04	 mov	 eax, DWORD PTR _MML$[esp-4]
  009e3	68 00 00 00 00	 push	 OFFSET FLAT:??_C@_1DK@DNENJNME@?$AAS?$AAE0?V0?m0?C0?$KPN?eY?$BG0g0oQ?$CKQH?$FO?$KGc?$AH?$FL?$JK0o0g0M0?$HO0?$FL@
  009e8	e8 00 00 00 00	 call	 ?Warning@MMLfile@@QAEXQBG@Z ; MMLfile::Warning
$L24945:

; 1274 : 		}
; 1275 : 	}
; 1276 : 
; 1277 : }

  009ed	c2 04 00	 ret	 4
$L24947:

; 1269 : 	} else {
; 1270 : 		if( (i <= 3) && (i >=0) ){

  009f0	83 f8 03	 cmp	 eax, 3
  009f3	7f 09		 jg	 SHORT $L24950
  009f5	85 c0		 test	 eax, eax
  009f7	7c 05		 jl	 SHORT $L24950

; 1271 : 			Priority = (char)i;

  009f9	88 46 68	 mov	 BYTE PTR [esi+104], al

; 1274 : 		}
; 1275 : 	}
; 1276 : 
; 1277 : }

  009fc	eb ef		 jmp	 SHORT $L24945
$L24950:

; 1272 : 		} else {
; 1273 : 			MML->Err(_T("DxA0`3wB"));

  009fe	8b 44 24 04	 mov	 eax, DWORD PTR _MML$[esp-4]
  00a02	68 00 00 00 00	 push	 OFFSET FLAT:??_C@_1DE@GKCFHPBH@R?$LJg?$JM?$JH?s0nQ?$CKQH?$FO?$KG0o0?$AB0o?$AA0?$PP?$FO?$AA30n?$HL?DV?r0gc?$AH?$FL?$JK0W@
  00a07	e8 00 00 00 00	 call	 ?Err@MMLfile@@QAEXQBG@Z	; MMLfile::Err
$L105823:
$L105822:
  00a0c	cc		 int	 3
?Set_Priority@TrackSet@@QAEXPAVMMLfile@@@Z ENDP		; TrackSet::Set_Priority
_TEXT	ENDS
PUBLIC	?getTrack@TrackSet@@QAEPAVMusicTrack@@PAVMMLfile@@H@Z ; TrackSet::getTrack
; Function compile flags: /Ogsy
_TEXT	SEGMENT
_i$ = -4						; size = 4
_MML$ = 8						; size = 4
__track$ = 12						; size = 4
?getTrack@TrackSet@@QAEPAVMusicTrack@@PAVMMLfile@@H@Z PROC NEAR ; TrackSet::getTrack
; _this$ = eax

; 1218 : {

  00a0d	55		 push	 ebp
  00a0e	8b ec		 mov	 ebp, esp
  00a10	51		 push	 ecx
  00a11	56		 push	 esi
  00a12	8b f0		 mov	 esi, eax
  00a14	57		 push	 edi

; 1219 : 			int	i			 = maxTrack;	// i = AIgbN

  00a15	8b 7e 58	 mov	 edi, DWORD PTR [esi+88]

; 1220 : 	MusicTrack*	_getTrack;
; 1221 : 
; 1222 : 	//IgbNwlAJB
; 1223 : 	while(i < _track){

  00a18	3b 7d 0c	 cmp	 edi, DWORD PTR __track$[ebp]
  00a1b	7d 27		 jge	 SHORT $L24739
  00a1d	53		 push	 ebx
  00a1e	8d 5e 44	 lea	 ebx, DWORD PTR [esi+68]
$L24738:

; 1224 : 		i++;
; 1225 : 		//gbN
; 1226 : 		if(ptcTrack.count(i) == 0){

  00a21	8d 45 fc	 lea	 eax, DWORD PTR _i$[ebp]
  00a24	50		 push	 eax
  00a25	47		 inc	 edi
  00a26	53		 push	 ebx
  00a27	89 7d fc	 mov	 DWORD PTR _i$[ebp], edi
  00a2a	e8 00 00 00 00	 call	 ?count@?$_Tree@V?$_Tmap_traits@HPAVMusicTrack@@U?$less@H@std@@V?$allocator@U?$pair@$$CBHPAVMusicTrack@@@std@@@3@$0A@@std@@@std@@QBEIABH@Z ; std::_Tree<std::_Tmap_traits<int,MusicTrack *,std::less<int>,std::allocator<std::pair<int const ,MusicTrack *> >,0> >::count
  00a2f	85 c0		 test	 eax, eax
  00a31	75 27		 jne	 SHORT $L24740

; 1227 : 			_getTrack	= makeTrack(MML, i);

  00a33	57		 push	 edi
  00a34	ff 75 08	 push	 DWORD PTR _MML$[ebp]
  00a37	8b ce		 mov	 ecx, esi
  00a39	e8 00 00 00 00	 call	 ?makeTrack@TrackSet@@QAEPAVMusicTrack@@PAVMMLfile@@H@Z ; TrackSet::makeTrack
  00a3e	3b 7d 0c	 cmp	 edi, DWORD PTR __track$[ebp]
  00a41	7c de		 jl	 SHORT $L24738
  00a43	5b		 pop	 ebx
$L24739:

; 1231 : 		}
; 1232 : 	}
; 1233 : 	maxTrack = i;	//gbNlLB

  00a44	89 7e 58	 mov	 DWORD PTR [esi+88], edi

; 1234 : 
; 1235 : 	//|C^B
; 1236 : 	_getTrack = ptcTrack[_track];

  00a47	8d 7e 44	 lea	 edi, DWORD PTR [esi+68]
  00a4a	8d 75 0c	 lea	 esi, DWORD PTR __track$[ebp]
  00a4d	e8 00 00 00 00	 call	 ??A?$map@HPAVMusicTrack@@U?$less@H@std@@V?$allocator@U?$pair@$$CBHPAVMusicTrack@@@std@@@3@@std@@QAEAAPAVMusicTrack@@ABH@Z ; std::map<int,MusicTrack *,std::less<int>,std::allocator<std::pair<int const ,MusicTrack *> > >::operator[]

; 1237 : 
; 1238 : 	return(_getTrack);

  00a52	8b 00		 mov	 eax, DWORD PTR [eax]
  00a54	5f		 pop	 edi
  00a55	5e		 pop	 esi

; 1239 : }

  00a56	c9		 leave
  00a57	c2 08 00	 ret	 8
$L24740:

; 1228 : 		} else {
; 1229 : 			_CERR << _T("MusicTrack* TrackSet::getTrack()G[B") << endl;

  00a5a	68 00 00 00 00	 push	 OFFSET FLAT:??_C@_1FO@HMLHKAGM@?$AAM?$AAu?$AAs?$AAi?$AAc?$AAT?$AAr?$AAa?$AAc?$AAk?$AA?$CK?$AA?5?$AAT?$AAr?$AAa?$AAc?$AAk?$AAS?$AAe?$AAt@
  00a5f	68 00 00 00 00	 push	 OFFSET FLAT:?wcerr@std@@3V?$basic_ostream@GU?$char_traits@G@std@@@1@A ; std::wcerr
  00a64	e8 00 00 00 00	 call	 ??$?6GU?$char_traits@G@std@@@std@@YAAAV?$basic_ostream@GU?$char_traits@G@std@@@0@AAV10@PBG@Z ; std::operator<<<unsigned short,std::char_traits<unsigned short> >
  00a69	50		 push	 eax
