; Listing generated by Microsoft (R) Optimizing Compiler Version 13.10.3077 

	TITLE	.\VRC7.cpp
	.386P
include listing.inc
if @Version gt 510
.model FLAT
else
;	COMDAT ??_C@_02PIKJJEPL@?$EAR?$AA@
CONST	SEGMENT DWORD USE32 PUBLIC 'CONST'
CONST	ENDS
;	COMDAT ??_C@_1CO@NABINDEJ@?$AA?$EA?$AA?0?$AA?5?$AA?$EA?$AAR0?$LD0?$NO0?s0?I0o?$PP?$BBV?$NO0?$GA0Qc?$AH?$FL?$JK0W0fN?$AL0U@
CONST	SEGMENT DWORD USE32 PUBLIC 'CONST'
CONST	ENDS
;	COMDAT ??_C@_1CM@MKIPHJDA@QH0Z0o?$AA?$EA?$AA?0?$AA?5?$AA?$EA?$AAR0?$LD0?$NO0?s0?I0?$JC?$IK?$BI?$IP?p0W0fN?$AL0U0D@
CONST	SEGMENT DWORD USE32 PUBLIC 'CONST'
CONST	ENDS
;	COMDAT ??_C@_1CE@HBEBOFHA@?$AA0?$PP?$FO?$AA2?$AA5?$AA50n?$HL?DV?r0gc?$AH?$FL?$JK0W0fN?$AL0U0D0?$AC?$AA?$AA@
CONST	SEGMENT DWORD USE32 PUBLIC 'CONST'
CONST	ENDS
;	COMDAT ??_C@_1DK@NIPBBHLN@?$AAV?$AAR?$AAC?$AA7?$AA?$CI0?Q0?i0?a0?$PM0?$LP0?Y0?$PM0?$LJ?$AA?$CJ0n_?$BFep0L?$AA2?$AA4@
CONST	SEGMENT DWORD USE32 PUBLIC 'CONST'
CONST	ENDS
;	COMDAT ??_C@_1DG@HIFEAODB@?$AAV?$AAR?$AAC?$AA7?$AA?$CI0?l0?$LI0?$LJ0?$LP0?Y0?$PM0?$LJ?$AA?$CJ0n_?$BFep0L?$AA8P?$AL0?$JC@
CONST	SEGMENT DWORD USE32 PUBLIC 'CONST'
CONST	ENDS
;	COMDAT ??_C@_1DM@FENOACPD@?$AAV?$AAR?$AAC?$AA7?$AA?$CI0?Q0?i0?a0?$PM0?$LP0?Y0?$PM0?$LJ?$AA?$CJ0n_?$BFep0L?$AA2?$AA4@
CONST	SEGMENT DWORD USE32 PUBLIC 'CONST'
CONST	ENDS
;	COMDAT ??_C@_1DI@KHIDNNNB@?$AAV?$AAR?$AAC?$AA7?$AA?$CI0?l0?$LI0?$LJ0?$LP0?Y0?$PM0?$LJ?$AA?$CJ0n_?$BFep0L?$AA8P?$AL0k@
CONST	SEGMENT DWORD USE32 PUBLIC 'CONST'
CONST	ENDS
text$yc	SEGMENT PARA USE32 PUBLIC 'CODE'
text$yc	ENDS
;	COMDAT _$E1
text$yc	SEGMENT PARA USE32 PUBLIC 'CODE'
text$yc	ENDS
;	COMDAT _$E3
text$yc	SEGMENT PARA USE32 PUBLIC 'CODE'
text$yc	ENDS
;	COMDAT _$E5
text$yc	SEGMENT PARA USE32 PUBLIC 'CODE'
text$yc	ENDS
;	COMDAT ?Command@?1???0VRC7@@QAE@PAVMMLfile@@IQBG@Z@4QBUCommand_Info@@B
CONST	SEGMENT DWORD USE32 PUBLIC 'CONST'
CONST	ENDS
;	COMDAT ??_7VRC7@@6B@
CONST	SEGMENT DWORD USE32 PUBLIC 'CONST'
CONST	ENDS
FLAT	GROUP _DATA, CONST, _BSS
	ASSUME	CS: FLAT, DS: FLAT, SS: FLAT
endif

INCLUDELIB LIBCMT
INCLUDELIB OLDNAMES

PUBLIC	??_C@_02PIKJJEPL@?$EAR?$AA@			; `string'
PUBLIC	??_C@_1CO@NABINDEJ@?$AA?$EA?$AA?0?$AA?5?$AA?$EA?$AAR0?$LD0?$NO0?s0?I0o?$PP?$BBV?$NO0?$GA0Qc?$AH?$FL?$JK0W0fN?$AL0U@ ; `string'
PUBLIC	??_C@_1CM@MKIPHJDA@QH0Z0o?$AA?$EA?$AA?0?$AA?5?$AA?$EA?$AAR0?$LD0?$NO0?s0?I0?$JC?$IK?$BI?$IP?p0W0fN?$AL0U0D@ ; `string'
PUBLIC	??_C@_1CE@HBEBOFHA@?$AA0?$PP?$FO?$AA2?$AA5?$AA50n?$HL?DV?r0gc?$AH?$FL?$JK0W0fN?$AL0U0D0?$AC?$AA?$AA@ ; `string'
PUBLIC	??_C@_1DK@NIPBBHLN@?$AAV?$AAR?$AAC?$AA7?$AA?$CI0?Q0?i0?a0?$PM0?$LP0?Y0?$PM0?$LJ?$AA?$CJ0n_?$BFep0L?$AA2?$AA4@ ; `string'
PUBLIC	??_C@_1DG@HIFEAODB@?$AAV?$AAR?$AAC?$AA7?$AA?$CI0?l0?$LI0?$LJ0?$LP0?Y0?$PM0?$LJ?$AA?$CJ0n_?$BFep0L?$AA8P?$AL0?$JC@ ; `string'
PUBLIC	??_C@_1DM@FENOACPD@?$AAV?$AAR?$AAC?$AA7?$AA?$CI0?Q0?i0?a0?$PM0?$LP0?Y0?$PM0?$LJ?$AA?$CJ0n_?$BFep0L?$AA2?$AA4@ ; `string'
PUBLIC	??_C@_1DI@KHIDNNNB@?$AAV?$AAR?$AAC?$AA7?$AA?$CI0?l0?$LI0?$LJ0?$LP0?Y0?$PM0?$LJ?$AA?$CJ0n_?$BFep0L?$AA8P?$AL0k@ ; `string'
PUBLIC	?getAsm@VRC7@@UAEXPAVMusicFile@@@Z		; VRC7::getAsm
PUBLIC	??_7VRC7@@6B@					; VRC7::`vftable'
;	COMDAT ??_C@_02PIKJJEPL@?$EAR?$AA@
CONST	SEGMENT
??_C@_02PIKJJEPL@?$EAR?$AA@ DB '@R', 00H		; `string'
CONST	ENDS
;	COMDAT ?Command@?1???0VRC7@@QAE@PAVMMLfile@@IQBG@Z@4QBUCommand_Info@@B
CONST	SEGMENT
?Command@?1???0VRC7@@QAE@PAVMMLfile@@IQBG@Z@4QBUCommand_Info@@B DD FLAT:??_C@_02PIKJJEPL@?$EAR?$AA@ ; `VRC7::VRC7'::`2'::Command
	DD	01H
	DD	FLAT:??_C@_01EOFPKCAF@?$EA?$AA@
	DD	00H
	DD	FLAT:??_C@_01GBGANLPD@0?$AA@
	DD	02H
	DD	FLAT:??_C@_01HIHLOKLC@1?$AA@
	DD	02H
	DD	FLAT:??_C@_01FDFGLJHB@2?$AA@
	DD	02H
	DD	FLAT:??_C@_01EKENIIDA@3?$AA@
	DD	02H
	DD	FLAT:??_C@_01FAMBOPH@4?$AA@
	DD	02H
	DD	FLAT:??_C@_01BMBHCPLG@5?$AA@
	DD	02H
	DD	FLAT:??_C@_01DHDKHMHF@6?$AA@
	DD	02H
	DD	FLAT:??_C@_01COCBENDE@7?$AA@
	DD	02H
	DD	FLAT:??_C@_01KJLJFBPL@8?$AA@
	DD	02H
	DD	FLAT:??_C@_01LAKCGALK@9?$AA@
	DD	02H
	DD	FLAT:??_C@_01EPMOAMKG@$?$AA@
	DD	02H
	DD	FLAT:??_C@_01FGNFDNOH@?$CF?$AA@
	DD	02H
	DD	FLAT:??_C@_01IHBHIGKO@?0?$AA@
	DD	03H
CONST	ENDS
;	COMDAT ??_C@_1CO@NABINDEJ@?$AA?$EA?$AA?0?$AA?5?$AA?$EA?$AAR0?$LD0?$NO0?s0?I0o?$PP?$BBV?$NO0?$GA0Qc?$AH?$FL?$JK0W0fN?$AL0U@
CONST	SEGMENT
??_C@_1CO@NABINDEJ@?$AA?$EA?$AA?0?$AA?5?$AA?$EA?$AAR0?$LD0?$NO0?s0?I0o?$PP?$BBV?$NO0?$GA0Qc?$AH?$FL?$JK0W0fN?$AL0U@ DB '@'
	DB	00H, ',', 00H, ' ', 00H, '@', 00H, 'R', 00H, 0b3H, '0', 0deH, '0'
	DB	0f3H, '0', 0c9H, '0o0', 011H, 0ffH, 0deH, 'V`0Q0', 07H, 'c', 09aH
	DB	'[W0f0', 0bH, 'NU0D0', 02H, '0', 00H, 00H	; `string'
CONST	ENDS
;	COMDAT ??_C@_1CM@MKIPHJDA@QH0Z0o?$AA?$EA?$AA?0?$AA?5?$AA?$EA?$AAR0?$LD0?$NO0?s0?I0?$JC?$IK?$BI?$IP?p0W0fN?$AL0U0D@
CONST	SEGMENT
??_C@_1CM@MKIPHJDA@QH0Z0o?$AA?$EA?$AA?0?$AA?5?$AA?$EA?$AAR0?$LD0?$NO0?s0?I0?$JC?$IK?$BI?$IP?p0W0fN?$AL0U0D@ DB 'H'
	DB	'QZ0o0@', 00H, ',', 00H, ' ', 00H, '@', 00H, 'R', 00H, 0b3H, '0'
	DB	0deH, '0', 0f3H, '0', 0c9H, '0', 092H, '0', 018H, 08aH, 0f0H, 08fH
	DB	'W0f0', 0bH, 'NU0D0', 02H, '0', 00H, 00H	; `string'
CONST	ENDS
;	COMDAT ??_C@_1CE@HBEBOFHA@?$AA0?$PP?$FO?$AA2?$AA5?$AA50n?$HL?DV?r0gc?$AH?$FL?$JK0W0fN?$AL0U0D0?$AC?$AA?$AA@
CONST	SEGMENT
??_C@_1CE@HBEBOFHA@?$AA0?$PP?$FO?$AA2?$AA5?$AA50n?$HL?DV?r0gc?$AH?$FL?$JK0W0fN?$AL0U0D0?$AC?$AA?$AA@ DB '0'
	DB	00H, '^', 0ffH, '2', 00H, '5', 00H, '5', 00H, 'n0', 0c4H, '{', 0f2H
	DB	'Vg0', 07H, 'c', 09aH, '[W0f0', 0bH, 'NU0D0', 02H, '0', 00H, 00H ; `string'
CONST	ENDS
;	COMDAT ??_C@_1DK@NIPBBHLN@?$AAV?$AAR?$AAC?$AA7?$AA?$CI0?Q0?i0?a0?$PM0?$LP0?Y0?$PM0?$LJ?$AA?$CJ0n_?$BFep0L?$AA2?$AA4@
CONST	SEGMENT
??_C@_1DK@NIPBBHLN@?$AAV?$AAR?$AAC?$AA7?$AA?$CI0?Q0?i0?a0?$PM0?$LP0?Y0?$PM0?$LJ?$AA?$CJ0n_?$BFep0L?$AA2?$AA4@ DB 'V'
	DB	00H, 'R', 00H, 'C', 00H, '7', 00H, '(', 00H, 0d1H, '0', 0e9H, '0'
	DB	0e1H, '0', 0fcH, '0', 0bfH, '0', 0d9H, '0', 0fcH, '0', 0b9H, '0'
	DB	')', 00H, 'n0', 015H, '_peL02', 00H, '4', 00H, 0bH, 'P', 092H, '0'
	DB	085H, 08dH, 'H0~0W0_0', 02H, '0', 00H, 00H	; `string'
CONST	ENDS
;	COMDAT ??_C@_1DG@HIFEAODB@?$AAV?$AAR?$AAC?$AA7?$AA?$CI0?l0?$LI0?$LJ0?$LP0?Y0?$PM0?$LJ?$AA?$CJ0n_?$BFep0L?$AA8P?$AL0?$JC@
CONST	SEGMENT
??_C@_1DG@HIFEAODB@?$AAV?$AAR?$AAC?$AA7?$AA?$CI0?l0?$LI0?$LJ0?$LP0?Y0?$PM0?$LJ?$AA?$CJ0n_?$BFep0L?$AA8P?$AL0?$JC@ DB 'V'
	DB	00H, 'R', 00H, 'C', 00H, '7', 00H, '(', 00H, 0ecH, '0', 0b8H, '0'
	DB	0b9H, '0', 0bfH, '0', 0d9H, '0', 0fcH, '0', 0b9H, '0)', 00H, 'n'
	DB	'0', 015H, '_peL08', 00H, 0bH, 'P', 092H, '0', 085H, 08dH, 'H0'
	DB	'~0W0_0', 02H, '0', 00H, 00H			; `string'
CONST	ENDS
;	COMDAT ??_C@_1DM@FENOACPD@?$AAV?$AAR?$AAC?$AA7?$AA?$CI0?Q0?i0?a0?$PM0?$LP0?Y0?$PM0?$LJ?$AA?$CJ0n_?$BFep0L?$AA2?$AA4@
CONST	SEGMENT
??_C@_1DM@FENOACPD@?$AAV?$AAR?$AAC?$AA7?$AA?$CI0?Q0?i0?a0?$PM0?$LP0?Y0?$PM0?$LJ?$AA?$CJ0n_?$BFep0L?$AA2?$AA4@ DB 'V'
	DB	00H, 'R', 00H, 'C', 00H, '7', 00H, '(', 00H, 0d1H, '0', 0e9H, '0'
	DB	0e1H, '0', 0fcH, '0', 0bfH, '0', 0d9H, '0', 0fcH, '0', 0b9H, '0'
	DB	')', 00H, 'n0', 015H, '_peL02', 00H, '4', 00H, 0bH, 'Pk0', 080H
	DB	'n_0j0D0g0Y0', 02H, '0', 00H, 00H		; `string'
CONST	ENDS
;	COMDAT ??_C@_1DI@KHIDNNNB@?$AAV?$AAR?$AAC?$AA7?$AA?$CI0?l0?$LI0?$LJ0?$LP0?Y0?$PM0?$LJ?$AA?$CJ0n_?$BFep0L?$AA8P?$AL0k@
CONST	SEGMENT
??_C@_1DI@KHIDNNNB@?$AAV?$AAR?$AAC?$AA7?$AA?$CI0?l0?$LI0?$LJ0?$LP0?Y0?$PM0?$LJ?$AA?$CJ0n_?$BFep0L?$AA8P?$AL0k@ DB 'V'
	DB	00H, 'R', 00H, 'C', 00H, '7', 00H, '(', 00H, 0ecH, '0', 0b8H, '0'
	DB	0b9H, '0', 0bfH, '0', 0d9H, '0', 0fcH, '0', 0b9H, '0)', 00H, 'n'
	DB	'0', 015H, '_peL08', 00H, 0bH, 'Pk0', 080H, 'n_0j0D0g0Y0', 02H
	DB	'0', 00H, 00H				; `string'
CONST	ENDS
;	COMDAT ??_7VRC7@@6B@
CONST	SEGMENT
??_7VRC7@@6B@ DD FLAT:?getCode@MusicItem@@UAEXPAV?$basic_string@DU?$char_traits@D@std@@V?$allocator@D@2@@std@@@Z ; VRC7::`vftable'
	DD	FLAT:?setCode@MusicItem@@UAEXPAV?$basic_string@DU?$char_traits@D@std@@V?$allocator@D@2@@std@@@Z
	DD	FLAT:?getAsm@VRC7@@UAEXPAVMusicFile@@@Z
; Function compile flags: /Ogsy
; File f:\nes\nsdl\src\nsc\vrc7.cpp
_TEXT	SEGMENT
_MUS$ = 8						; size = 4
?getAsm@VRC7@@UAEXPAVMusicFile@@@Z PROC NEAR		; VRC7::getAsm
; _this$ = ecx

; 192  : {

  00000	56		 push	 esi

; 193  : 	*MUS << MUS->Header.Label.c_str() << "VRC7" << m_id << ":" << endl;

  00001	8b 74 24 08	 mov	 esi, DWORD PTR _MUS$[esp]
  00005	8d 86 a8 00 00
	00		 lea	 eax, DWORD PTR [esi+168]
  0000b	83 78 18 10	 cmp	 DWORD PTR [eax+24], 16	; 00000010H
  0000f	57		 push	 edi
  00010	8b f9		 mov	 edi, ecx
  00012	72 05		 jb	 SHORT $L68976
  00014	8b 40 04	 mov	 eax, DWORD PTR [eax+4]
  00017	eb 03		 jmp	 SHORT $L68977
$L68976:
  00019	83 c0 04	 add	 eax, 4
$L68977:
  0001c	68 00 00 00 00	 push	 OFFSET FLAT:??_C@_01JLIPDDHJ@?3?$AA@
  00021	ff 77 3c	 push	 DWORD PTR [edi+60]
  00024	8d 4e 3c	 lea	 ecx, DWORD PTR [esi+60]
  00027	68 00 00 00 00	 push	 OFFSET FLAT:??_C@_04NFBGGAN@VRC7?$AA@
  0002c	50		 push	 eax
  0002d	8b c6		 mov	 eax, esi
  0002f	f7 d8		 neg	 eax
  00031	1b c0		 sbb	 eax, eax
  00033	23 c1		 and	 eax, ecx
  00035	50		 push	 eax
  00036	e8 00 00 00 00	 call	 ??$?6U?$char_traits@D@std@@@std@@YAAAV?$basic_ostream@DU?$char_traits@D@std@@@0@AAV10@PBD@Z ; std::operator<<<std::char_traits<char> >
  0003b	59		 pop	 ecx
  0003c	59		 pop	 ecx
  0003d	50		 push	 eax
  0003e	e8 00 00 00 00	 call	 ??$?6U?$char_traits@D@std@@@std@@YAAAV?$basic_ostream@DU?$char_traits@D@std@@@0@AAV10@PBD@Z ; std::operator<<<std::char_traits<char> >
  00043	59		 pop	 ecx
  00044	59		 pop	 ecx
  00045	50		 push	 eax
  00046	e8 00 00 00 00	 call	 ??6?$basic_ostream@DU?$char_traits@D@std@@@std@@QAEAAV01@I@Z ; std::basic_ostream<char,std::char_traits<char> >::operator<<
  0004b	50		 push	 eax
  0004c	e8 00 00 00 00	 call	 ??$?6U?$char_traits@D@std@@@std@@YAAAV?$basic_ostream@DU?$char_traits@D@std@@@0@AAV10@PBD@Z ; std::operator<<<std::char_traits<char> >
  00051	50		 push	 eax
  00052	e8 00 00 00 00	 call	 ?endl@std@@YAAAV?$basic_ostream@DU?$char_traits@D@std@@@1@AAV21@@Z ; std::endl
  00057	83 c4 0c	 add	 esp, 12			; 0000000cH

; 194  : 	MusicItem::getAsm(MUS);

  0005a	56		 push	 esi
  0005b	8b cf		 mov	 ecx, edi
  0005d	e8 00 00 00 00	 call	 ?getAsm@MusicItem@@UAEXPAVMusicFile@@@Z ; MusicItem::getAsm
  00062	5f		 pop	 edi
  00063	5e		 pop	 esi

; 195  : }

  00064	c2 04 00	 ret	 4
?getAsm@VRC7@@UAEXPAVMusicFile@@@Z ENDP			; VRC7::getAsm
PUBLIC	??1VRC7@@QAE@XZ					; VRC7::~VRC7
; Function compile flags: /Ogsy
_TEXT	SEGMENT
??1VRC7@@QAE@XZ PROC NEAR				; VRC7::~VRC7
; _this$ = ecx

; 181  : {

  00067	c7 01 00 00 00
	00		 mov	 DWORD PTR [ecx], OFFSET FLAT:??_7VRC7@@6B@

; 182  : }

  0006d	e9 00 00 00 00	 jmp	 ??1MusicItem@@QAE@XZ	; MusicItem::~MusicItem
??1VRC7@@QAE@XZ ENDP					; VRC7::~VRC7
PUBLIC	??0VRC7@@QAE@PAVMMLfile@@IQBG@Z			; VRC7::VRC7
$T107452 DD	0ffffffffH
	DD	FLAT:$L107248
$T107429 DD	019930520H
	DD	01H
	DD	FLAT:$T107452
	DD	2 DUP(00H)
	DD	2 DUP(00H)
; Function compile flags: /Ogsy
_TEXT	SEGMENT
__mode$ = -42						; size = 1
__mset$ = -41						; size = 1
__opll$ = -40						; size = 24
__$ArrayPad$ = -16					; size = 4
__$EHRec$ = -12						; size = 12
__$ReturnAddr$ = 4					; size = 4
_this$ = 8						; size = 4
__strName$ = 12						; size = 4
__pt$ = 15						; size = 1
??0VRC7@@QAE@PAVMMLfile@@IQBG@Z PROC NEAR		; VRC7::VRC7
; _MML$ = edx
; __id$ = ecx

; 26   : {

  00072	b8 00 00 00 00	 mov	 eax, __ehhandler$??0VRC7@@QAE@PAVMMLfile@@IQBG@Z
  00077	e8 00 00 00 00	 call	 __EH_prolog
  0007c	83 ec 20	 sub	 esp, 32			; 00000020H
  0007f	a1 00 00 00 00	 mov	 eax, DWORD PTR ___security_cookie
  00084	53		 push	 ebx
  00085	8b 5d 08	 mov	 ebx, DWORD PTR _this$[ebp]
  00088	56		 push	 esi
  00089	57		 push	 edi
  0008a	ff 75 0c	 push	 DWORD PTR __strName$[ebp]
  0008d	8b f1		 mov	 esi, ecx
  0008f	56		 push	 esi
  00090	53		 push	 ebx
  00091	89 45 f0	 mov	 DWORD PTR __$ArrayPad$[ebp], eax
  00094	8b fa		 mov	 edi, edx
  00096	e8 00 00 00 00	 call	 ??0MusicItem@@QAE@HQBG@Z ; MusicItem::MusicItem
  0009b	83 65 fc 00	 and	 DWORD PTR __$EHRec$[ebp+8], 0

; 27   : 	//----------------------
; 28   : 	//Local変数
; 29   : 				int		i;
; 30   : 				bool	_mset	= false;
; 31   : 	unsigned	char	_mode	= 0;
; 32   : 	unsigned	char	_pt		= 0;
; 33   : 	unsigned	char	_opll[24];
; 34   : 	unsigned	char	cData;
; 35   : 
; 36   : //	定数定義
; 37   : enum	Command_ID_mml {
; 38   : 	VRC7_Normal,
; 39   : 	VRC7_Resister,
; 40   : 	VRC7_Num,
; 41   : 	VRC7_Comma
; 42   : };
; 43   : 
; 44   : //	これらは、MML構文で使えるコマンド。
; 45   : const	static	Command_Info	Command[] = {
; 46   : 		{	"@R",	VRC7_Resister	},
; 47   : 		{	"@",	VRC7_Normal		},
; 48   : 		{	"0",	VRC7_Num		},
; 49   : 		{	"1",	VRC7_Num		},
; 50   : 		{	"2",	VRC7_Num		},
; 51   : 		{	"3",	VRC7_Num		},
; 52   : 		{	"4",	VRC7_Num		},
; 53   : 		{	"5",	VRC7_Num		},
; 54   : 		{	"6",	VRC7_Num		},
; 55   : 		{	"7",	VRC7_Num		},
; 56   : 		{	"8",	VRC7_Num		},
; 57   : 		{	"9",	VRC7_Num		},
; 58   : 		{	"$",	VRC7_Num		},
; 59   : 		{	"%",	VRC7_Num		},
; 60   : 		{	",",	VRC7_Comma		}
; 61   : };
; 62   : 
; 63   : 
; 64   : 	//------------------------------
; 65   : 	//クラスの初期設定
; 66   : 
; 67   : 	iSize = 8;

  0009f	6a 08		 push	 8
  000a1	58		 pop	 eax
  000a2	c7 03 00 00 00
	00		 mov	 DWORD PTR [ebx], OFFSET FLAT:??_7VRC7@@6B@
  000a8	89 73 3c	 mov	 DWORD PTR [ebx+60], esi
  000ab	89 43 30	 mov	 DWORD PTR [ebx+48], eax

; 68   : 	code.resize(iSize);

  000ae	83 c3 14	 add	 ebx, 20			; 00000014H
  000b1	6a 00		 push	 0
  000b3	8b cb		 mov	 ecx, ebx
  000b5	c6 45 d7 00	 mov	 BYTE PTR __mset$[ebp], 0
  000b9	c6 45 d6 00	 mov	 BYTE PTR __mode$[ebp], 0
  000bd	c6 45 0f 00	 mov	 BYTE PTR __pt$[ebp], 0
  000c1	e8 00 00 00 00	 call	 ?resize@?$basic_string@DU?$char_traits@D@std@@V?$allocator@D@2@@std@@QAEXID@Z ; std::basic_string<char,std::char_traits<char>,std::allocator<char> >::resize

; 69   : 
; 70   : 	//------------------------------
; 71   : 	//コンパイル
; 72   : 
; 73   : 	// { の検索
; 74   : 	while(MML->cRead() != '{'){

  000c6	eb 0f		 jmp	 SHORT $L107448
$L23951:

; 75   : 		if(MML->eof()){

  000c8	8b 47 10	 mov	 eax, DWORD PTR [edi+16]
  000cb	8b 08		 mov	 ecx, DWORD PTR [eax]
  000cd	8b 49 04	 mov	 ecx, DWORD PTR [ecx+4]
  000d0	f6 44 01 08 01	 test	 BYTE PTR [ecx+eax+8], 1
  000d5	75 63		 jne	 SHORT $L107432
$L107448:

; 69   : 
; 70   : 	//------------------------------
; 71   : 	//コンパイル
; 72   : 
; 73   : 	// { の検索
; 74   : 	while(MML->cRead() != '{'){

  000d7	8b f7		 mov	 esi, edi
  000d9	e8 00 00 00 00	 call	 ?cRead@MMLfile@@QAEDXZ	; MMLfile::cRead
  000de	3c 7b		 cmp	 al, 123			; 0000007bH
  000e0	75 e6		 jne	 SHORT $L23951

; 77   : 		}
; 78   : 	}
; 79   : 
; 80   : 
; 81   : 	// } が来るまで、記述ブロック内をコンパイルする。
; 82   : 	while((cData = MML->GetChar()) != '}'){

  000e2	e8 00 00 00 00	 call	 ?GetChar@MMLfile@@QAEDXZ ; MMLfile::GetChar
  000e7	3c 7d		 cmp	 al, 125			; 0000007dH
  000e9	0f 84 ec 00 00
	00		 je	 $L107441
  000ef	6a 10		 push	 16			; 00000010H
  000f1	5e		 pop	 esi
$L23956:

; 83   : 		
; 84   : 		// } が来る前に、[EOF]が来たらエラー
; 85   : 		if( MML->eof() ){

  000f2	8b 47 10	 mov	 eax, DWORD PTR [edi+16]
  000f5	8b 08		 mov	 ecx, DWORD PTR [eax]
  000f7	8b 49 04	 mov	 ecx, DWORD PTR [ecx+4]
  000fa	f6 44 01 08 01	 test	 BYTE PTR [ecx+eax+8], 1

; 87   : 		}
; 88   : 
; 89   : 		//１つ戻る
; 90   : 		MML->Back();

  000ff	8b c7		 mov	 eax, edi
  00101	0f 85 de 00 00
	00		 jne	 $L107433
  00107	e8 00 00 00 00	 call	 ?Back@MMLfile@@QAEXXZ	; MMLfile::Back

; 91   : 
; 92   : 
; 93   : 		//各コマンド毎の処理
; 94   : 		switch(MML->GetCommandID(Command, sizeof(Command)/sizeof(Command_Info))){

  0010c	6a 0f		 push	 15			; 0000000fH
  0010e	68 00 00 00 00	 push	 OFFSET FLAT:?Command@?1???0VRC7@@QAE@PAVMMLfile@@IQBG@Z@4QBUCommand_Info@@B
  00113	8b c7		 mov	 eax, edi
  00115	e8 00 00 00 00	 call	 ?GetCommandID@MMLfile@@QAEHQBUCommand_Info@@I@Z ; MMLfile::GetCommandID
  0011a	83 e8 00	 sub	 eax, 0
  0011d	0f 84 8d 00 00
	00		 je	 $L23965
  00123	48		 dec	 eax
  00124	74 7e		 je	 SHORT $L23968
  00126	48		 dec	 eax
  00127	74 1b		 je	 SHORT $L23970
  00129	48		 dec	 eax
  0012a	0f 84 8e 00 00
	00		 je	 $L23962

; 135  : 			case(VRC7_Comma):
; 136  : 				break;
; 137  : 
; 138  : 			//unknown command
; 139  : 			default:
; 140  : 				MML->Err(_T("unknown command"));

  00130	68 00 00 00 00	 push	 OFFSET FLAT:??_C@_1CA@BFMKMMBP@?$AAu?$AAn?$AAk?$AAn?$AAo?$AAw?$AAn?$AA?5?$AAc?$AAo?$AAm?$AAm?$AAa?$AAn?$AAd?$AA?$AA@
  00135	e9 46 02 00 00	 jmp	 $L107450
$L107432:

; 76   : 			MML->Err(_T("ブロックの開始を示す{が見つかりません。"));

  0013a	68 00 00 00 00	 push	 OFFSET FLAT:??_C@_1CK@CKPPJBGB@0?V0?m0?C0?$KP0n?$JF?$ILY?K0?$JCy?30Y?$AA?$HL0L?$IJ?$IL0d0K0?$IK0?$HO0?$FL0?$JD0?$AC@
  0013f	e9 3c 02 00 00	 jmp	 $L107450
$L23970:

; 111  : 
; 112  : 			case(VRC7_Num):
; 113  : 				if(_mset == false){

  00144	80 7d d7 00	 cmp	 BYTE PTR __mset$[ebp], 0

; 115  : 				}
; 116  : 				MML->Back();

  00148	8b c7		 mov	 eax, edi
  0014a	0f 84 9f 00 00
	00		 je	 $L107434
  00150	e8 00 00 00 00	 call	 ?Back@MMLfile@@QAEXXZ	; MMLfile::Back

; 117  : 				i = MML->GetInt();

  00155	8b c7		 mov	 eax, edi
  00157	e8 00 00 00 00	 call	 ?GetInt@MMLfile@@QAEHXZ	; MMLfile::GetInt

; 118  : 				if( (i<0) || (i>255) ){

  0015c	85 c0		 test	 eax, eax
  0015e	0f 8c a9 00 00
	00		 jl	 $L23974
  00164	3d ff 00 00 00	 cmp	 eax, 255		; 000000ffH
  00169	0f 8f 9e 00 00
	00		 jg	 $L23974

; 120  : 				}
; 121  : 
; 122  : 				if(_mode == 0){

  0016f	80 7d d6 00	 cmp	 BYTE PTR __mode$[ebp], 0
  00173	75 10		 jne	 SHORT $L23976

; 123  : 					if(_pt >= 24){

  00175	80 7d 0f 18	 cmp	 BYTE PTR __pt$[ebp], 24	; 00000018H
  00179	73 7e		 jae	 SHORT $L107436

; 125  : 					}
; 126  : 					_opll[_pt] = (unsigned char)i;

  0017b	0f b6 4d 0f	 movzx	 ecx, BYTE PTR __pt$[ebp]
  0017f	88 44 0d d8	 mov	 BYTE PTR __opll$[ebp+ecx], al

; 127  : 				} else {

  00183	eb 1a		 jmp	 SHORT $L23980
$L23976:

; 128  : 					if(_pt >= 8){

  00185	80 7d 0f 08	 cmp	 BYTE PTR __pt$[ebp], 8
  00189	73 78		 jae	 SHORT $L107437

; 130  : 					}
; 131  : 					code[_pt] = (unsigned char)i;

  0018b	39 73 18	 cmp	 DWORD PTR [ebx+24], esi
  0018e	72 05		 jb	 SHORT $L107296
  00190	8b 4b 04	 mov	 ecx, DWORD PTR [ebx+4]
  00193	eb 03		 jmp	 SHORT $L107297
$L107296:
  00195	8d 4b 04	 lea	 ecx, DWORD PTR [ebx+4]
$L107297:
  00198	0f b6 55 0f	 movzx	 edx, BYTE PTR __pt$[ebp]
  0019c	88 04 0a	 mov	 BYTE PTR [edx+ecx], al
$L23980:

; 132  : 				}
; 133  : 				_pt++;

  0019f	fe 45 0f	 inc	 BYTE PTR __pt$[ebp]

; 134  : 				break;

  001a2	eb 1a		 jmp	 SHORT $L23962
$L23968:

; 102  : 				break;
; 103  : 
; 104  : 			case(VRC7_Resister):
; 105  : 				if(_mset == true){

  001a4	80 7d d7 01	 cmp	 BYTE PTR __mset$[ebp], 1
  001a8	74 6d		 je	 SHORT $L107438

; 107  : 				}
; 108  : 				_mset = true;
; 109  : 				_mode = 1;

  001aa	c6 45 d6 01	 mov	 BYTE PTR __mode$[ebp], 1

; 110  : 				break;

  001ae	eb 0a		 jmp	 SHORT $L107449
$L23965:

; 95   : 
; 96   : 			case(VRC7_Normal):
; 97   : 				if(_mset == true){

  001b0	80 7d d7 01	 cmp	 BYTE PTR __mset$[ebp], 1
  001b4	74 61		 je	 SHORT $L107438

; 101  : 				_mode = 0;

  001b6	c6 45 d6 00	 mov	 BYTE PTR __mode$[ebp], 0
$L107449:

; 98   : 					MML->Err(_T("@, @Rコマンドは１回だけ指定して下さい。"));
; 99   : 				}
; 100  : 				_mset = true;

  001ba	c6 45 d7 01	 mov	 BYTE PTR __mset$[ebp], 1
$L23962:

; 77   : 		}
; 78   : 	}
; 79   : 
; 80   : 
; 81   : 	// } が来るまで、記述ブロック内をコンパイルする。
; 82   : 	while((cData = MML->GetChar()) != '}'){

  001be	e8 00 00 00 00	 call	 ?GetChar@MMLfile@@QAEDXZ ; MMLfile::GetChar
  001c3	3c 7d		 cmp	 al, 125			; 0000007dH
  001c5	0f 85 27 ff ff
	ff		 jne	 $L23956

; 141  : 				break;
; 142  : 		}
; 143  : 	}
; 144  : 
; 145  : 	if(_mode == 0){

  001cb	80 7d d6 00	 cmp	 BYTE PTR __mode$[ebp], 0
  001cf	0f 85 a0 01 00
	00		 jne	 $L23987

; 146  : 		if(_pt < 24){

  001d5	80 7d 0f 18	 cmp	 BYTE PTR __pt$[ebp], 24	; 00000018H
  001d9	73 46		 jae	 SHORT $L23988
$L107441:

; 147  : 			MML->Err(_T("VRC7(パラメータベース)の引数が24個に満たないです。"));

  001db	68 00 00 00 00	 push	 OFFSET FLAT:??_C@_1DM@FENOACPD@?$AAV?$AAR?$AAC?$AA7?$AA?$CI0?Q0?i0?a0?$PM0?$LP0?Y0?$PM0?$LJ?$AA?$CJ0n_?$BFep0L?$AA2?$AA4@
  001e0	e9 9b 01 00 00	 jmp	 $L107450
$L107433:

; 86   : 			MML->Err(_T("ブロックの終端を示す`}'がありません。"));

  001e5	68 00 00 00 00	 push	 OFFSET FLAT:??_C@_1CK@NIHEMDFE@0?V0?m0?C0?$KP0n?$HNBz?o0?$JCy?30Y?$AA?$GA?$AA?$HN?$AA?80L0B0?$IK0?$HO0?$FL0?$JD0?$AC@
  001ea	e9 93 01 00 00	 jmp	 $L107451
$L107434:

; 114  : 					MML->Err(_T("先ずは@, @Rコマンドを記述して下さい。"));

  001ef	68 00 00 00 00	 push	 OFFSET FLAT:??_C@_1CM@MKIPHJDA@QH0Z0o?$AA?$EA?$AA?0?$AA?5?$AA?$EA?$AAR0?$LD0?$NO0?s0?I0?$JC?$IK?$BI?$IP?p0W0fN?$AL0U0D@
  001f4	e9 89 01 00 00	 jmp	 $L107451
$L107436:

; 124  : 						MML->Err(_T("VRC7(パラメータベース)の引数が24個を超えました。"));

  001f9	68 00 00 00 00	 push	 OFFSET FLAT:??_C@_1DK@NIPBBHLN@?$AAV?$AAR?$AAC?$AA7?$AA?$CI0?Q0?i0?a0?$PM0?$LP0?Y0?$PM0?$LJ?$AA?$CJ0n_?$BFep0L?$AA2?$AA4@
  001fe	e9 7d 01 00 00	 jmp	 $L107450
$L107437:

; 129  : 						MML->Err(_T("VRC7(レジスタベース)の引数が8個を超えました。"));

  00203	68 00 00 00 00	 push	 OFFSET FLAT:??_C@_1DG@HIFEAODB@?$AAV?$AAR?$AAC?$AA7?$AA?$CI0?l0?$LI0?$LJ0?$LP0?Y0?$PM0?$LJ?$AA?$CJ0n_?$BFep0L?$AA8P?$AL0?$JC@
  00208	e9 73 01 00 00	 jmp	 $L107450
$L23974:

; 119  : 					MML->Err(_T("0〜255の範囲で指定して下さい。"));

  0020d	68 00 00 00 00	 push	 OFFSET FLAT:??_C@_1CE@HBEBOFHA@?$AA0?$PP?$FO?$AA2?$AA5?$AA50n?$HL?DV?r0gc?$AH?$FL?$JK0W0fN?$AL0U0D0?$AC?$AA?$AA@
  00212	e9 69 01 00 00	 jmp	 $L107450
$L107438:

; 106  : 					MML->Err(_T("@, @Rコマンドは１回だけ指定して下さい。"));

  00217	68 00 00 00 00	 push	 OFFSET FLAT:??_C@_1CO@NABINDEJ@?$AA?$EA?$AA?0?$AA?5?$AA?$EA?$AAR0?$LD0?$NO0?s0?I0o?$PP?$BBV?$NO0?$GA0Qc?$AH?$FL?$JK0W0fN?$AL0U@
  0021c	e9 5f 01 00 00	 jmp	 $L107450
$L23988:

; 148  : 		}
; 149  : 
; 150  : 		//TL FB
; 151  : 		//0  1
; 152  : 		//AR DR SL RR KL MT AM VB EG KR DT
; 153  : 		//2  3  4  5  6  7  8  9  10 11 12
; 154  : 		//AR DR SL RR KL MT AM VB EG KR DT
; 155  : 		//13 14 15 16 17 18 19 20 21 22 23
; 156  : 
; 157  : 		code[0] = ((_opll[ 8] & 0x01) << 7) | ((_opll[ 9] & 0x01) << 6) | ((_opll[10] & 0x01) << 5) | ((_opll[11] & 0x01) << 4) | (_opll[ 7] & 0x0F);

  00221	39 73 18	 cmp	 DWORD PTR [ebx+24], esi
  00224	72 05		 jb	 SHORT $L107311
  00226	8b 7b 04	 mov	 edi, DWORD PTR [ebx+4]
  00229	eb 03		 jmp	 SHORT $L107312
$L107311:
  0022b	8d 7b 04	 lea	 edi, DWORD PTR [ebx+4]
$L107312:
  0022e	8a 45 e1	 mov	 al, BYTE PTR __opll$[ebp+9]
  00231	8a 4d e0	 mov	 cl, BYTE PTR __opll$[ebp+8]
  00234	24 01		 and	 al, 1
  00236	d0 e1		 shl	 cl, 1
  00238	0a c1		 or	 al, cl
  0023a	8a 4d e2	 mov	 cl, BYTE PTR __opll$[ebp+10]
  0023d	d0 e0		 shl	 al, 1
  0023f	80 e1 01	 and	 cl, 1
  00242	0a c1		 or	 al, cl
  00244	8a 4d e3	 mov	 cl, BYTE PTR __opll$[ebp+11]
  00247	d0 e0		 shl	 al, 1
  00249	80 e1 01	 and	 cl, 1
  0024c	0a c1		 or	 al, cl
  0024e	8a 4d df	 mov	 cl, BYTE PTR __opll$[ebp+7]
  00251	c0 e0 04	 shl	 al, 4
  00254	80 e1 0f	 and	 cl, 15			; 0000000fH
  00257	0a c1		 or	 al, cl
  00259	88 07		 mov	 BYTE PTR [edi], al

; 158  : 		code[1] = ((_opll[19] & 0x01) << 7) | ((_opll[20] & 0x01) << 6) | ((_opll[21] & 0x01) << 5) | ((_opll[22] & 0x01) << 4) | (_opll[18] & 0x0F);

  0025b	39 73 18	 cmp	 DWORD PTR [ebx+24], esi
  0025e	72 05		 jb	 SHORT $L107327
  00260	8b 7b 04	 mov	 edi, DWORD PTR [ebx+4]
  00263	eb 03		 jmp	 SHORT $L107328
$L107327:
  00265	8d 7b 04	 lea	 edi, DWORD PTR [ebx+4]
$L107328:
  00268	8a 45 ec	 mov	 al, BYTE PTR __opll$[ebp+20]
  0026b	8a 4d eb	 mov	 cl, BYTE PTR __opll$[ebp+19]
  0026e	24 01		 and	 al, 1
  00270	d0 e1		 shl	 cl, 1
  00272	0a c1		 or	 al, cl
  00274	8a 4d ed	 mov	 cl, BYTE PTR __opll$[ebp+21]
  00277	d0 e0		 shl	 al, 1
  00279	80 e1 01	 and	 cl, 1
  0027c	0a c1		 or	 al, cl
  0027e	8a 4d ee	 mov	 cl, BYTE PTR __opll$[ebp+22]
  00281	d0 e0		 shl	 al, 1
  00283	80 e1 01	 and	 cl, 1
  00286	0a c1		 or	 al, cl
  00288	8a 4d ea	 mov	 cl, BYTE PTR __opll$[ebp+18]
  0028b	c0 e0 04	 shl	 al, 4
  0028e	80 e1 0f	 and	 cl, 15			; 0000000fH
  00291	0a c1		 or	 al, cl
  00293	88 47 01	 mov	 BYTE PTR [edi+1], al

; 159  : 		code[2] = ((_opll[ 6] & 0x03) << 6) |  (_opll[ 0] & 0x3F);

  00296	39 73 18	 cmp	 DWORD PTR [ebx+24], esi
  00299	72 05		 jb	 SHORT $L107343
  0029b	8b 7b 04	 mov	 edi, DWORD PTR [ebx+4]
  0029e	eb 03		 jmp	 SHORT $L107344
$L107343:
  002a0	8d 7b 04	 lea	 edi, DWORD PTR [ebx+4]
$L107344:
  002a3	8a 45 d8	 mov	 al, BYTE PTR __opll$[ebp]
  002a6	8a 4d de	 mov	 cl, BYTE PTR __opll$[ebp+6]
  002a9	24 3f		 and	 al, 63			; 0000003fH
  002ab	c0 e1 06	 shl	 cl, 6
  002ae	0a c1		 or	 al, cl
  002b0	88 47 02	 mov	 BYTE PTR [edi+2], al

; 160  : 		code[3] = ((_opll[17] & 0x03) << 6) | ((_opll[23] & 0x01) << 4) | ((_opll[12] & 0x01) << 3) |  (_opll[ 1] & 0x07);

  002b3	39 73 18	 cmp	 DWORD PTR [ebx+24], esi
  002b6	72 05		 jb	 SHORT $L107359
  002b8	8b 7b 04	 mov	 edi, DWORD PTR [ebx+4]
  002bb	eb 03		 jmp	 SHORT $L107360
$L107359:
  002bd	8d 7b 04	 lea	 edi, DWORD PTR [ebx+4]
$L107360:
  002c0	8a 45 ef	 mov	 al, BYTE PTR __opll$[ebp+23]
  002c3	8a 4d e9	 mov	 cl, BYTE PTR __opll$[ebp+17]
  002c6	24 01		 and	 al, 1
  002c8	c0 e1 02	 shl	 cl, 2
  002cb	0a c1		 or	 al, cl
  002cd	8a 4d e4	 mov	 cl, BYTE PTR __opll$[ebp+12]
  002d0	d0 e0		 shl	 al, 1
  002d2	80 e1 01	 and	 cl, 1
  002d5	0a c1		 or	 al, cl
  002d7	8a 4d d9	 mov	 cl, BYTE PTR __opll$[ebp+1]
  002da	c0 e0 03	 shl	 al, 3
  002dd	80 e1 07	 and	 cl, 7
  002e0	0a c1		 or	 al, cl
  002e2	88 47 03	 mov	 BYTE PTR [edi+3], al

; 161  : 		code[4] = ((_opll[ 2] & 0x0F) << 4) |  (_opll[ 3] & 0x0F);

  002e5	39 73 18	 cmp	 DWORD PTR [ebx+24], esi
  002e8	72 05		 jb	 SHORT $L107375
  002ea	8b 7b 04	 mov	 edi, DWORD PTR [ebx+4]
  002ed	eb 03		 jmp	 SHORT $L107376
$L107375:
  002ef	8d 7b 04	 lea	 edi, DWORD PTR [ebx+4]
$L107376:
  002f2	8a 45 db	 mov	 al, BYTE PTR __opll$[ebp+3]
  002f5	8a 4d da	 mov	 cl, BYTE PTR __opll$[ebp+2]
  002f8	24 0f		 and	 al, 15			; 0000000fH
  002fa	c0 e1 04	 shl	 cl, 4
  002fd	0a c1		 or	 al, cl
  002ff	88 47 04	 mov	 BYTE PTR [edi+4], al

; 162  : 		code[5] = ((_opll[13] & 0x0F) << 4) |  (_opll[14] & 0x0F);

  00302	39 73 18	 cmp	 DWORD PTR [ebx+24], esi
  00305	72 05		 jb	 SHORT $L107391
  00307	8b 7b 04	 mov	 edi, DWORD PTR [ebx+4]
  0030a	eb 03		 jmp	 SHORT $L107392
$L107391:
  0030c	8d 7b 04	 lea	 edi, DWORD PTR [ebx+4]
$L107392:
  0030f	8a 45 e6	 mov	 al, BYTE PTR __opll$[ebp+14]
  00312	8a 4d e5	 mov	 cl, BYTE PTR __opll$[ebp+13]
  00315	24 0f		 and	 al, 15			; 0000000fH
  00317	c0 e1 04	 shl	 cl, 4
  0031a	0a c1		 or	 al, cl
  0031c	88 47 05	 mov	 BYTE PTR [edi+5], al

; 163  : 		code[6] = ((_opll[ 4] & 0x0F) << 4) |  (_opll[ 5] & 0x0F);

  0031f	39 73 18	 cmp	 DWORD PTR [ebx+24], esi
  00322	72 05		 jb	 SHORT $L107407
  00324	8b 7b 04	 mov	 edi, DWORD PTR [ebx+4]
  00327	eb 03		 jmp	 SHORT $L107408
$L107407:
  00329	8d 7b 04	 lea	 edi, DWORD PTR [ebx+4]
$L107408:
  0032c	8a 45 dd	 mov	 al, BYTE PTR __opll$[ebp+5]
  0032f	8a 4d dc	 mov	 cl, BYTE PTR __opll$[ebp+4]
  00332	24 0f		 and	 al, 15			; 0000000fH
  00334	c0 e1 04	 shl	 cl, 4
  00337	0a c1		 or	 al, cl
  00339	88 47 06	 mov	 BYTE PTR [edi+6], al

; 164  : 		code[7] = ((_opll[15] & 0x0F) << 4) |  (_opll[16] & 0x0F);

  0033c	39 73 18	 cmp	 DWORD PTR [ebx+24], esi
  0033f	72 05		 jb	 SHORT $L107423
  00341	8b 5b 04	 mov	 ebx, DWORD PTR [ebx+4]
  00344	eb 03		 jmp	 SHORT $L107424
$L107423:
  00346	83 c3 04	 add	 ebx, 4
$L107424:
  00349	8a 45 e8	 mov	 al, BYTE PTR __opll$[ebp+16]
  0034c	8a 4d e7	 mov	 cl, BYTE PTR __opll$[ebp+15]
  0034f	24 0f		 and	 al, 15			; 0000000fH
  00351	c0 e1 04	 shl	 cl, 4
  00354	0a c1		 or	 al, cl
  00356	88 43 07	 mov	 BYTE PTR [ebx+7], al
$L23991:

; 168  : 		}
; 169  : 	}
; 170  : }

  00359	8b 4d f4	 mov	 ecx, DWORD PTR __$EHRec$[ebp]
  0035c	8b 45 08	 mov	 eax, DWORD PTR _this$[ebp]
  0035f	5f		 pop	 edi
  00360	5e		 pop	 esi
  00361	64 89 0d 00 00
	00 00		 mov	 DWORD PTR fs:__except_list, ecx
  00368	8b 4d f0	 mov	 ecx, DWORD PTR __$ArrayPad$[ebp]
  0036b	5b		 pop	 ebx
  0036c	e8 00 00 00 00	 call	 @__security_check_cookie@4
  00371	c9		 leave
  00372	c2 08 00	 ret	 8
$L23987:

; 165  : 	} else {
; 166  : 		if(_pt < 8){

  00375	80 7d 0f 08	 cmp	 BYTE PTR __pt$[ebp], 8
  00379	73 de		 jae	 SHORT $L23991

; 167  : 			MML->Err(_T("VRC7(レジスタベース)の引数が8個に満たないです。"));

  0037b	68 00 00 00 00	 push	 OFFSET FLAT:??_C@_1DI@KHIDNNNB@?$AAV?$AAR?$AAC?$AA7?$AA?$CI0?l0?$LI0?$LJ0?$LP0?Y0?$PM0?$LJ?$AA?$CJ0n_?$BFep0L?$AA8P?$AL0k@
$L107450:
  00380	8b c7		 mov	 eax, edi
$L107451:
  00382	e8 00 00 00 00	 call	 ?Err@MMLfile@@QAEXQBG@Z	; MMLfile::Err
$L107453:
$L107446:
  00387	cc		 int	 3
$L107248:
  00af7	8b 4d 08	 mov	 ecx, DWORD PTR _this$[ebp]
  00afa	e9 00 00 00 00	 jmp	 ??1MusicItem@@QAE@XZ	; MusicItem::~MusicItem
__ehhandler$??0VRC7@@QAE@PAVMMLfile@@IQBG@Z:
  00aff	b8 00 00 00 00	 mov	 eax, OFFSET FLAT:$T107429
  00b04	e9 00 00 00 00	 jmp	 ___CxxFrameHandler
??0VRC7@@QAE@PAVMMLfile@@IQBG@Z ENDP			; VRC7::VRC7
; Function compile flags: /Ogsy
; File c:\program files (x86)\microsoft visual studio .net 2003\vc7\include\xlocnum
;	COMDAT _$E3
text$yc	SEGMENT
_$E3	PROC NEAR					; COMDAT

; 806  : 		{	// initialize from _Locinfo object

  00000	83 25 00 00 00
	00 00		 and	 DWORD PTR ?id@?$num_put@DV?$ostreambuf_iterator@DU?$char_traits@D@std@@@std@@@std@@2V0locale@2@A, 0 ; std::num_put<char,std::ostreambuf_iterator<char,std::char_traits<char> > >::id
  00007	c3		 ret	 0
_$E3	ENDP
END
